GAS LISTING /tmp/ccRcN10f.s 			page 1


   1              		.file	"BuddyAllocator.cpp"
   2              		.option pic
   3              		.option norelax
   4              		.text
   5              	.Ltext0:
   6              		.align	2
   7              		.globl	_ZN14BuddyAllocator12getFreeBlockEm
   9              	_ZN14BuddyAllocator12getFreeBlockEm:
  10              	.LFB26:
  11              		.file 1 "src/BuddyAllocator.cpp"
   1:src/BuddyAllocator.cpp **** #include "../h/BuddyAllocator.h"
   2:src/BuddyAllocator.cpp **** #include "../h/printing.hpp"
   3:src/BuddyAllocator.cpp **** 
   4:src/BuddyAllocator.cpp **** void* BuddyAllocator::startAddr = nullptr;
   5:src/BuddyAllocator.cpp **** BuddyAllocator::BuddyEntry* BuddyAllocator::buddy[maxPowerSize] = {};
   6:src/BuddyAllocator.cpp **** 
   7:src/BuddyAllocator.cpp **** int BuddyAllocator::initBuddy() {
   8:src/BuddyAllocator.cpp ****     if(startAddr != nullptr) return 1;
   9:src/BuddyAllocator.cpp ****     startAddr = (void*)HEAP_START_ADDR;
  10:src/BuddyAllocator.cpp **** 
  11:src/BuddyAllocator.cpp ****     BuddyEntry* entry = BuddyEntry::createEntry(startAddr);
  12:src/BuddyAllocator.cpp ****     int ret = BuddyEntry::addEntry(maxPowerSize, entry);
  13:src/BuddyAllocator.cpp **** 
  14:src/BuddyAllocator.cpp ****     return ret;
  15:src/BuddyAllocator.cpp **** }
  16:src/BuddyAllocator.cpp **** 
  17:src/BuddyAllocator.cpp **** void *BuddyAllocator::buddyAlloc(size_t size) {
  18:src/BuddyAllocator.cpp ****     size--;
  19:src/BuddyAllocator.cpp ****     if(size >= maxPowerSize) return nullptr;
  20:src/BuddyAllocator.cpp **** 
  21:src/BuddyAllocator.cpp ****     // proveri  da li ima za tu velicinu
  22:src/BuddyAllocator.cpp ****     for(size_t curr = size; curr < maxPowerSize; curr++) {
  23:src/BuddyAllocator.cpp ****         BuddyEntry* block = popFreeBlock(curr+1); // +1 zato sto je indeksiranje od nule
  24:src/BuddyAllocator.cpp ****         if(block != nullptr) { // postoji slobodan blok ove velicine
  25:src/BuddyAllocator.cpp ****             while(curr > size) {
  26:src/BuddyAllocator.cpp ****                 size_t offset = sizeInBytes(curr);
  27:src/BuddyAllocator.cpp ****                 BuddyEntry* other = BuddyEntry::createEntry((void*)((char*)block->addr + offset));
  28:src/BuddyAllocator.cpp ****                 BuddyEntry::addEntry(curr, other); // jedan dalje splitujemo, drugi ubacujemo kao s
  29:src/BuddyAllocator.cpp **** 
  30:src/BuddyAllocator.cpp ****                 curr--;
  31:src/BuddyAllocator.cpp ****             }
  32:src/BuddyAllocator.cpp ****             void* res = block->addr;
  33:src/BuddyAllocator.cpp ****             //BuddyEntry::freeEntry(block); // oslobadjamo entry
  34:src/BuddyAllocator.cpp ****             return res;
  35:src/BuddyAllocator.cpp ****         }
  36:src/BuddyAllocator.cpp ****     }
  37:src/BuddyAllocator.cpp ****     return nullptr;
  38:src/BuddyAllocator.cpp **** }
  39:src/BuddyAllocator.cpp **** 
  40:src/BuddyAllocator.cpp **** int BuddyAllocator::buddyFree(void *addr, size_t size) {
  41:src/BuddyAllocator.cpp ****     size--;
  42:src/BuddyAllocator.cpp ****     if(size >= maxPowerSize || addr == nullptr) return -1;
  43:src/BuddyAllocator.cpp **** 
  44:src/BuddyAllocator.cpp ****     void* next = addr;
  45:src/BuddyAllocator.cpp ****     while(size < maxPowerSize) {
  46:src/BuddyAllocator.cpp ****         size_t module = (size_t)relativeAddress(next) % sizeInBytes(size+2); // jer imamo blok npr 
  47:src/BuddyAllocator.cpp ****         void* other = next;
GAS LISTING /tmp/ccRcN10f.s 			page 2


  48:src/BuddyAllocator.cpp ****         size_t offset = sizeInBytes(size+1);
  49:src/BuddyAllocator.cpp ****         other = (void*)((char*)other + (module == 0 ? offset : -offset));
  50:src/BuddyAllocator.cpp **** 
  51:src/BuddyAllocator.cpp ****         BuddyEntry* otherEntry = popFreeBlockAddr(size+1, other);
  52:src/BuddyAllocator.cpp ****         /*if(otherEntry) { // postoji buddy blok
  53:src/BuddyAllocator.cpp ****             BuddyEntry::freeEntry(otherEntry); // oslobadjamo ga jer se stapa u veci entry
  54:src/BuddyAllocator.cpp ****         }*/
  55:src/BuddyAllocator.cpp ****         if(!otherEntry){ // nema buddy bloka sa kojim moze da se spoji
  56:src/BuddyAllocator.cpp ****             BuddyEntry* entry = BuddyEntry::createEntry(next);
  57:src/BuddyAllocator.cpp ****             BuddyEntry::addEntry(size+1, entry);
  58:src/BuddyAllocator.cpp ****             break;
  59:src/BuddyAllocator.cpp ****         }
  60:src/BuddyAllocator.cpp ****         if(module != 0) {
  61:src/BuddyAllocator.cpp ****             next = other;
  62:src/BuddyAllocator.cpp ****         }
  63:src/BuddyAllocator.cpp ****         size++;
  64:src/BuddyAllocator.cpp ****     }
  65:src/BuddyAllocator.cpp **** 
  66:src/BuddyAllocator.cpp ****     return 0;
  67:src/BuddyAllocator.cpp **** }
  68:src/BuddyAllocator.cpp **** 
  69:src/BuddyAllocator.cpp **** BuddyAllocator::BuddyEntry *BuddyAllocator::getFreeBlock(size_t size) {
  12              		.loc 1 69 71
  13              		.cfi_startproc
  14              	.LVL0:
  15 0000 130101FF 		addi	sp,sp,-16
  16              		.cfi_def_cfa_offset 16
  17 0004 23348100 		sd	s0,8(sp)
  18              		.cfi_offset 8, -8
  19 0008 13040101 		addi	s0,sp,16
  20              		.cfi_def_cfa 8, 0
  70:src/BuddyAllocator.cpp ****     size--;
  21              		.loc 1 70 5
  22              		.loc 1 70 9 is_stmt 0
  23 000c 1305F5FF 		addi	a0,a0,-1
  24              	.LVL1:
  71:src/BuddyAllocator.cpp ****     if(size >= maxPowerSize || buddy[size] == nullptr) return nullptr;
  25              		.loc 1 71 5 is_stmt 1
  26 0010 9307B000 		li	a5,11
  27 0014 63E4A702 		bgtu	a0,a5,.L3
  28              		.loc 1 71 42 is_stmt 0 discriminator 2
  29 0018 13153500 		slli	a0,a0,3
  30              	.LVL2:
  31 001c 97070000 		lla	a5,.LANCHOR0
  31      93870700 
  32 0024 3385A700 		add	a0,a5,a0
  33 0028 03350500 		ld	a0,0(a0)
  34              		.loc 1 71 29 discriminator 2
  35 002c 630C0500 		beqz	a0,.L6
  36              	.L1:
  72:src/BuddyAllocator.cpp **** 
  73:src/BuddyAllocator.cpp ****     BuddyEntry* block = buddy[size];
  74:src/BuddyAllocator.cpp ****     return block;
  75:src/BuddyAllocator.cpp **** }
  37              		.loc 1 75 1
  38 0030 03348100 		ld	s0,8(sp)
  39              		.cfi_remember_state
GAS LISTING /tmp/ccRcN10f.s 			page 3


  40              		.cfi_restore 8
  41              		.cfi_def_cfa 2, 16
  42 0034 13010101 		addi	sp,sp,16
  43              		.cfi_def_cfa_offset 0
  44 0038 67800000 		jr	ra
  45              	.LVL3:
  46              	.L3:
  47              		.cfi_restore_state
  71:src/BuddyAllocator.cpp ****     if(size >= maxPowerSize || buddy[size] == nullptr) return nullptr;
  48              		.loc 1 71 63
  49 003c 13050000 		li	a0,0
  50              	.LVL4:
  51 0040 6FF01FFF 		j	.L1
  52              	.L6:
  53 0044 13050000 		li	a0,0
  54 0048 6FF09FFE 		j	.L1
  55              		.cfi_endproc
  56              	.LFE26:
  58              		.align	2
  59              		.globl	_ZN14BuddyAllocator12popFreeBlockEm
  61              	_ZN14BuddyAllocator12popFreeBlockEm:
  62              	.LFB27:
  76:src/BuddyAllocator.cpp **** 
  77:src/BuddyAllocator.cpp **** BuddyAllocator::BuddyEntry *BuddyAllocator::popFreeBlock(size_t size) {
  63              		.loc 1 77 71 is_stmt 1
  64              		.cfi_startproc
  65              	.LVL5:
  66 004c 130101FF 		addi	sp,sp,-16
  67              		.cfi_def_cfa_offset 16
  68 0050 23348100 		sd	s0,8(sp)
  69              		.cfi_offset 8, -8
  70 0054 13040101 		addi	s0,sp,16
  71              		.cfi_def_cfa 8, 0
  78:src/BuddyAllocator.cpp ****     size--;
  72              		.loc 1 78 5
  73              		.loc 1 78 9 is_stmt 0
  74 0058 9307F5FF 		addi	a5,a0,-1
  75              	.LVL6:
  79:src/BuddyAllocator.cpp ****     if(size >= maxPowerSize || buddy[size] == nullptr) return nullptr;
  76              		.loc 1 79 5 is_stmt 1
  77 005c 1307B000 		li	a4,11
  78 0060 6360F704 		bgtu	a5,a4,.L9
  79              		.loc 1 79 42 is_stmt 0 discriminator 2
  80 0064 93963700 		slli	a3,a5,3
  81 0068 17070000 		lla	a4,.LANCHOR0
  81      13070700 
  82 0070 3307D700 		add	a4,a4,a3
  83 0074 03350700 		ld	a0,0(a4)
  84              		.loc 1 79 29 discriminator 2
  85 0078 630E0500 		beqz	a0,.L7
  80:src/BuddyAllocator.cpp **** 
  81:src/BuddyAllocator.cpp ****     BuddyEntry* block = buddy[size];
  86              		.loc 1 81 5 is_stmt 1
  87              	.LVL7:
  82:src/BuddyAllocator.cpp ****     buddy[size] = buddy[size]->next;
  88              		.loc 1 82 5
  89              		.loc 1 82 32 is_stmt 0
GAS LISTING /tmp/ccRcN10f.s 			page 4


  90 007c 83360500 		ld	a3,0(a0)
  91              		.loc 1 82 17
  92 0080 93973700 		slli	a5,a5,3
  93              	.LVL8:
  94 0084 17070000 		lla	a4,.LANCHOR0
  94      13070700 
  95 008c B307F700 		add	a5,a4,a5
  96 0090 23B0D700 		sd	a3,0(a5)
  83:src/BuddyAllocator.cpp ****     return block;
  97              		.loc 1 83 5 is_stmt 1
  98              	.LVL9:
  99              	.L7:
  84:src/BuddyAllocator.cpp **** }
 100              		.loc 1 84 1 is_stmt 0
 101 0094 03348100 		ld	s0,8(sp)
 102              		.cfi_remember_state
 103              		.cfi_restore 8
 104              		.cfi_def_cfa 2, 16
 105 0098 13010101 		addi	sp,sp,16
 106              		.cfi_def_cfa_offset 0
 107 009c 67800000 		jr	ra
 108              	.LVL10:
 109              	.L9:
 110              		.cfi_restore_state
  79:src/BuddyAllocator.cpp **** 
 111              		.loc 1 79 63
 112 00a0 13050000 		li	a0,0
 113 00a4 6FF01FFF 		j	.L7
 114              		.cfi_endproc
 115              	.LFE27:
 117              		.align	2
 118              		.globl	_ZN14BuddyAllocator16popFreeBlockAddrEmPv
 120              	_ZN14BuddyAllocator16popFreeBlockAddrEmPv:
 121              	.LFB28:
  85:src/BuddyAllocator.cpp **** 
  86:src/BuddyAllocator.cpp **** BuddyAllocator::BuddyEntry *BuddyAllocator::popFreeBlockAddr(size_t size, void* addr) {
 122              		.loc 1 86 87 is_stmt 1
 123              		.cfi_startproc
 124              	.LVL11:
 125 00a8 130101FF 		addi	sp,sp,-16
 126              		.cfi_def_cfa_offset 16
 127 00ac 23348100 		sd	s0,8(sp)
 128              		.cfi_offset 8, -8
 129 00b0 13040101 		addi	s0,sp,16
 130              		.cfi_def_cfa 8, 0
  87:src/BuddyAllocator.cpp ****     size--;
 131              		.loc 1 87 5
 132              		.loc 1 87 9 is_stmt 0
 133 00b4 9306F5FF 		addi	a3,a0,-1
 134              	.LVL12:
  88:src/BuddyAllocator.cpp ****     if(size >= maxPowerSize) return nullptr;
 135              		.loc 1 88 5 is_stmt 1
 136 00b8 9307B000 		li	a5,11
 137 00bc 63E6D706 		bgtu	a3,a5,.L17
  89:src/BuddyAllocator.cpp **** 
  90:src/BuddyAllocator.cpp ****     BuddyEntry *prev = nullptr;
 138              		.loc 1 90 5
GAS LISTING /tmp/ccRcN10f.s 			page 5


 139              	.LVL13:
  91:src/BuddyAllocator.cpp ****     for(BuddyEntry* curr = buddy[size]; curr != nullptr; curr = curr->next) {
 140              		.loc 1 91 5
 141              	.LBB18:
 142              		.loc 1 91 21 is_stmt 0
 143 00c0 13973600 		slli	a4,a3,3
 144 00c4 97070000 		lla	a5,.LANCHOR0
 144      93870700 
 145 00cc B387E700 		add	a5,a5,a4
 146 00d0 03B60700 		ld	a2,0(a5)
 147              	.LVL14:
 148 00d4 13050600 		mv	a0,a2
 149              	.LBE18:
  90:src/BuddyAllocator.cpp ****     for(BuddyEntry* curr = buddy[size]; curr != nullptr; curr = curr->next) {
 150              		.loc 1 90 17
 151 00d8 13070000 		li	a4,0
 152              	.LVL15:
 153              	.L16:
 154              	.LBB19:
 155              		.loc 1 91 46 is_stmt 1 discriminator 1
 156 00dc 63020502 		beqz	a0,.L11
  92:src/BuddyAllocator.cpp ****         if(curr->addr == addr) {
 157              		.loc 1 92 9
 158              		.loc 1 92 18 is_stmt 0
 159 00e0 83378500 		ld	a5,8(a0)
 160              		.loc 1 92 9
 161 00e4 6388B700 		beq	a5,a1,.L19
  93:src/BuddyAllocator.cpp ****             if(prev) {
  94:src/BuddyAllocator.cpp ****                 prev->next = curr->next;
  95:src/BuddyAllocator.cpp ****             }
  96:src/BuddyAllocator.cpp ****             else {
  97:src/BuddyAllocator.cpp ****                 buddy[size] = buddy[size]->next;
  98:src/BuddyAllocator.cpp ****             }
  99:src/BuddyAllocator.cpp ****             return curr;
 100:src/BuddyAllocator.cpp ****         }
 101:src/BuddyAllocator.cpp ****         prev = curr;
 162              		.loc 1 101 9 is_stmt 1 discriminator 2
 163              	.LVL16:
  91:src/BuddyAllocator.cpp ****         if(curr->addr == addr) {
 164              		.loc 1 91 5 discriminator 2
 165              		.loc 1 101 14 is_stmt 0 discriminator 2
 166 00e8 13070500 		mv	a4,a0
  91:src/BuddyAllocator.cpp ****         if(curr->addr == addr) {
 167              		.loc 1 91 63 discriminator 2
 168 00ec 03350500 		ld	a0,0(a0)
 169              	.LVL17:
  91:src/BuddyAllocator.cpp ****         if(curr->addr == addr) {
 170              		.loc 1 91 5 discriminator 2
 171 00f0 6FF0DFFE 		j	.L16
 172              	.L19:
  93:src/BuddyAllocator.cpp ****             if(prev) {
 173              		.loc 1 93 13 is_stmt 1
 174 00f4 630C0700 		beqz	a4,.L14
  94:src/BuddyAllocator.cpp ****             }
 175              		.loc 1 94 17
  94:src/BuddyAllocator.cpp ****             }
 176              		.loc 1 94 36 is_stmt 0
GAS LISTING /tmp/ccRcN10f.s 			page 6


 177 00f8 83370500 		ld	a5,0(a0)
  94:src/BuddyAllocator.cpp ****             }
 178              		.loc 1 94 28
 179 00fc 2330F700 		sd	a5,0(a4)
 180              	.LVL18:
 181              	.L11:
 182              	.LBE19:
 102:src/BuddyAllocator.cpp ****     }
 103:src/BuddyAllocator.cpp **** 
 104:src/BuddyAllocator.cpp ****     return nullptr;
 105:src/BuddyAllocator.cpp **** }
 183              		.loc 1 105 1
 184 0100 03348100 		ld	s0,8(sp)
 185              		.cfi_remember_state
 186              		.cfi_restore 8
 187              		.cfi_def_cfa 2, 16
 188 0104 13010101 		addi	sp,sp,16
 189              		.cfi_def_cfa_offset 0
 190 0108 67800000 		jr	ra
 191              	.LVL19:
 192              	.L14:
 193              		.cfi_restore_state
 194              	.LBB20:
  97:src/BuddyAllocator.cpp ****             }
 195              		.loc 1 97 17 is_stmt 1
  97:src/BuddyAllocator.cpp ****             }
 196              		.loc 1 97 44 is_stmt 0
 197 010c 03370600 		ld	a4,0(a2)
 198              	.LVL20:
  97:src/BuddyAllocator.cpp ****             }
 199              		.loc 1 97 29
 200 0110 93963600 		slli	a3,a3,3
 201              	.LVL21:
 202 0114 97070000 		lla	a5,.LANCHOR0
 202      93870700 
 203 011c B386D700 		add	a3,a5,a3
 204 0120 23B0E600 		sd	a4,0(a3)
  99:src/BuddyAllocator.cpp ****         }
 205              		.loc 1 99 13 is_stmt 1
  99:src/BuddyAllocator.cpp ****         }
 206              		.loc 1 99 20 is_stmt 0
 207 0124 6FF0DFFD 		j	.L11
 208              	.LVL22:
 209              	.L17:
 210              	.LBE20:
  88:src/BuddyAllocator.cpp **** 
 211              		.loc 1 88 37
 212 0128 13050000 		li	a0,0
 213 012c 6FF05FFD 		j	.L11
 214              		.cfi_endproc
 215              	.LFE28:
 217              		.section	.rodata.str1.8,"aMS",@progbits,1
 218              		.align	3
 219              	.LC0:
 220 0000 3A2000   		.string	": "
 221 0003 00000000 		.align	3
 221      00
GAS LISTING /tmp/ccRcN10f.s 			page 7


 222              	.LC1:
 223 0008 2000     		.string	" "
 224 000a 00000000 		.align	3
 224      0000
 225              	.LC2:
 226 0010 0A00     		.string	"\n"
 227              		.text
 228              		.align	2
 229              		.globl	_ZN14BuddyAllocator10printBuddyEv
 231              	_ZN14BuddyAllocator10printBuddyEv:
 232              	.LFB29:
 106:src/BuddyAllocator.cpp **** 
 107:src/BuddyAllocator.cpp **** void BuddyAllocator::printBuddy() {
 233              		.loc 1 107 35 is_stmt 1
 234              		.cfi_startproc
 235 0130 130101FE 		addi	sp,sp,-32
 236              		.cfi_def_cfa_offset 32
 237 0134 233C1100 		sd	ra,24(sp)
 238 0138 23388100 		sd	s0,16(sp)
 239 013c 23349100 		sd	s1,8(sp)
 240 0140 23302101 		sd	s2,0(sp)
 241              		.cfi_offset 1, -8
 242              		.cfi_offset 8, -16
 243              		.cfi_offset 9, -24
 244              		.cfi_offset 18, -32
 245 0144 13040102 		addi	s0,sp,32
 246              		.cfi_def_cfa 8, 0
 108:src/BuddyAllocator.cpp ****     for(size_t i = 0; i < maxPowerSize; i++) {
 247              		.loc 1 108 5
 248              	.LVL23:
 249              	.LBB21:
 250              		.loc 1 108 16 is_stmt 0
 251 0148 13090000 		li	s2,0
 252 014c 6F008001 		j	.L24
 253              	.LVL24:
 254              	.L22:
 255              	.LBB22:
 109:src/BuddyAllocator.cpp ****         printInt(i+1);
 110:src/BuddyAllocator.cpp ****         printString(": ");
 111:src/BuddyAllocator.cpp ****         for(BuddyEntry* curr = buddy[i]; curr != nullptr; curr = curr->next) {
 112:src/BuddyAllocator.cpp ****             printInt((size_t)curr->addr);
 113:src/BuddyAllocator.cpp ****             printString(" ");
 114:src/BuddyAllocator.cpp ****         }
 115:src/BuddyAllocator.cpp ****         printString("\n");
 256              		.loc 1 115 9 is_stmt 1 discriminator 2
 257              		.loc 1 115 20 is_stmt 0 discriminator 2
 258 0150 17050000 		lla	a0,.LC2
 258      13050500 
 259 0158 97000000 		call	_Z11printStringPKc@plt
 259      E7800000 
 260              	.LVL25:
 261              	.LBE22:
 108:src/BuddyAllocator.cpp ****     for(size_t i = 0; i < maxPowerSize; i++) {
 262              		.loc 1 108 5 is_stmt 1 discriminator 2
 263 0160 13091900 		addi	s2,s2,1
 264              	.LVL26:
 265              	.L24:
GAS LISTING /tmp/ccRcN10f.s 			page 8


 108:src/BuddyAllocator.cpp ****     for(size_t i = 0; i < maxPowerSize; i++) {
 266              		.loc 1 108 25 discriminator 1
 267 0164 9307B000 		li	a5,11
 268 0168 63E62707 		bgtu	s2,a5,.L20
 269              	.LBB24:
 109:src/BuddyAllocator.cpp ****         printInt(i+1);
 270              		.loc 1 109 9
 109:src/BuddyAllocator.cpp ****         printInt(i+1);
 271              		.loc 1 109 17 is_stmt 0
 272 016c 13060000 		li	a2,0
 273 0170 9305A000 		li	a1,10
 274 0174 1B051900 		addiw	a0,s2,1
 275 0178 97000000 		call	_Z8printIntiii@plt
 275      E7800000 
 276              	.LVL27:
 110:src/BuddyAllocator.cpp ****         for(BuddyEntry* curr = buddy[i]; curr != nullptr; curr = curr->next) {
 277              		.loc 1 110 9 is_stmt 1
 110:src/BuddyAllocator.cpp ****         for(BuddyEntry* curr = buddy[i]; curr != nullptr; curr = curr->next) {
 278              		.loc 1 110 20 is_stmt 0
 279 0180 17050000 		lla	a0,.LC0
 279      13050500 
 280 0188 97000000 		call	_Z11printStringPKc@plt
 280      E7800000 
 281              	.LVL28:
 111:src/BuddyAllocator.cpp ****             printInt((size_t)curr->addr);
 282              		.loc 1 111 9 is_stmt 1
 283              	.LBB23:
 111:src/BuddyAllocator.cpp ****             printInt((size_t)curr->addr);
 284              		.loc 1 111 25 is_stmt 0
 285 0190 13173900 		slli	a4,s2,3
 286 0194 97070000 		lla	a5,.LANCHOR0
 286      93870700 
 287 019c B387E700 		add	a5,a5,a4
 288 01a0 83B40700 		ld	s1,0(a5)
 289              	.LVL29:
 290              	.L23:
 111:src/BuddyAllocator.cpp ****             printInt((size_t)curr->addr);
 291              		.loc 1 111 47 is_stmt 1 discriminator 3
 292 01a4 E38604FA 		beqz	s1,.L22
 112:src/BuddyAllocator.cpp ****             printString(" ");
 293              		.loc 1 112 13 discriminator 2
 112:src/BuddyAllocator.cpp ****             printString(" ");
 294              		.loc 1 112 21 is_stmt 0 discriminator 2
 295 01a8 13060000 		li	a2,0
 296 01ac 9305A000 		li	a1,10
 297 01b0 03A58400 		lw	a0,8(s1)
 298 01b4 97000000 		call	_Z8printIntiii@plt
 298      E7800000 
 299              	.LVL30:
 113:src/BuddyAllocator.cpp ****         }
 300              		.loc 1 113 13 is_stmt 1 discriminator 2
 113:src/BuddyAllocator.cpp ****         }
 301              		.loc 1 113 24 is_stmt 0 discriminator 2
 302 01bc 17050000 		lla	a0,.LC1
 302      13050500 
 303 01c4 97000000 		call	_Z11printStringPKc@plt
 303      E7800000 
GAS LISTING /tmp/ccRcN10f.s 			page 9


 304              	.LVL31:
 111:src/BuddyAllocator.cpp ****             printInt((size_t)curr->addr);
 305              		.loc 1 111 9 is_stmt 1 discriminator 2
 111:src/BuddyAllocator.cpp ****             printInt((size_t)curr->addr);
 306              		.loc 1 111 64 is_stmt 0 discriminator 2
 307 01cc 83B40400 		ld	s1,0(s1)
 308              	.LVL32:
 111:src/BuddyAllocator.cpp ****             printInt((size_t)curr->addr);
 309              		.loc 1 111 9 discriminator 2
 310 01d0 6FF05FFD 		j	.L23
 311              	.LVL33:
 312              	.L20:
 313              	.LBE23:
 314              	.LBE24:
 315              	.LBE21:
 116:src/BuddyAllocator.cpp ****     }
 117:src/BuddyAllocator.cpp **** }
 316              		.loc 1 117 1
 317 01d4 83308101 		ld	ra,24(sp)
 318              		.cfi_restore 1
 319 01d8 03340101 		ld	s0,16(sp)
 320              		.cfi_restore 8
 321              		.cfi_def_cfa 2, 32
 322 01dc 83348100 		ld	s1,8(sp)
 323              		.cfi_restore 9
 324 01e0 03390100 		ld	s2,0(sp)
 325              		.cfi_restore 18
 326              	.LVL34:
 327 01e4 13010102 		addi	sp,sp,32
 328              		.cfi_def_cfa_offset 0
 329 01e8 67800000 		jr	ra
 330              		.cfi_endproc
 331              	.LFE29:
 333              		.align	2
 334              		.globl	_ZN14BuddyAllocator10BuddyEntry11createEntryEPv
 336              	_ZN14BuddyAllocator10BuddyEntry11createEntryEPv:
 337              	.LFB30:
 118:src/BuddyAllocator.cpp **** 
 119:src/BuddyAllocator.cpp **** BuddyAllocator::BuddyEntry *BuddyAllocator::BuddyEntry::createEntry(void* addr) {
 338              		.loc 1 119 81 is_stmt 1
 339              		.cfi_startproc
 340              	.LVL35:
 341 01ec 130101FF 		addi	sp,sp,-16
 342              		.cfi_def_cfa_offset 16
 343 01f0 23348100 		sd	s0,8(sp)
 344              		.cfi_offset 8, -8
 345 01f4 13040101 		addi	s0,sp,16
 346              		.cfi_def_cfa 8, 0
 120:src/BuddyAllocator.cpp ****         BuddyEntry* entry = (BuddyEntry*)addr;
 347              		.loc 1 120 9
 348              	.LVL36:
 121:src/BuddyAllocator.cpp ****         entry->next = nullptr;
 349              		.loc 1 121 9
 350              		.loc 1 121 21 is_stmt 0
 351 01f8 23300500 		sd	zero,0(a0)
 122:src/BuddyAllocator.cpp ****         entry->addr = addr;
 352              		.loc 1 122 9 is_stmt 1
GAS LISTING /tmp/ccRcN10f.s 			page 10


 353              		.loc 1 122 21 is_stmt 0
 354 01fc 2334A500 		sd	a0,8(a0)
 123:src/BuddyAllocator.cpp ****         return entry;
 355              		.loc 1 123 9 is_stmt 1
 124:src/BuddyAllocator.cpp **** }
 356              		.loc 1 124 1 is_stmt 0
 357 0200 03348100 		ld	s0,8(sp)
 358              		.cfi_restore 8
 359              		.cfi_def_cfa 2, 16
 360 0204 13010101 		addi	sp,sp,16
 361              		.cfi_def_cfa_offset 0
 362 0208 67800000 		jr	ra
 363              		.cfi_endproc
 364              	.LFE30:
 366              		.align	2
 367              		.globl	_ZN14BuddyAllocator10BuddyEntry8addEntryEmPS0_
 369              	_ZN14BuddyAllocator10BuddyEntry8addEntryEmPS0_:
 370              	.LFB31:
 125:src/BuddyAllocator.cpp **** 
 126:src/BuddyAllocator.cpp **** int BuddyAllocator::BuddyEntry::addEntry(size_t size, BuddyEntry* entry) {
 371              		.loc 1 126 74 is_stmt 1
 372              		.cfi_startproc
 373              	.LVL37:
 374 020c 130101FF 		addi	sp,sp,-16
 375              		.cfi_def_cfa_offset 16
 376 0210 23348100 		sd	s0,8(sp)
 377              		.cfi_offset 8, -8
 378 0214 13040101 		addi	s0,sp,16
 379              		.cfi_def_cfa 8, 0
 127:src/BuddyAllocator.cpp ****     size--;
 380              		.loc 1 127 5
 381              		.loc 1 127 9 is_stmt 0
 382 0218 1305F5FF 		addi	a0,a0,-1
 383              	.LVL38:
 128:src/BuddyAllocator.cpp ****     if(size >= maxPowerSize) return -1;
 384              		.loc 1 128 5 is_stmt 1
 385 021c 9307B000 		li	a5,11
 386 0220 63ECA708 		bgtu	a0,a5,.L33
 129:src/BuddyAllocator.cpp **** 
 130:src/BuddyAllocator.cpp ****     if(buddy[size] == nullptr) {
 387              		.loc 1 130 5
 388              		.loc 1 130 18 is_stmt 0
 389 0224 13173500 		slli	a4,a0,3
 390 0228 97070000 		lla	a5,.LANCHOR0
 390      93870700 
 391 0230 B387E700 		add	a5,a5,a4
 392 0234 83B70700 		ld	a5,0(a5)
 393              		.loc 1 130 5
 394 0238 63860700 		beqz	a5,.L38
 131:src/BuddyAllocator.cpp ****         buddy[size] = entry;
 132:src/BuddyAllocator.cpp ****         return 0;
 133:src/BuddyAllocator.cpp ****     }
 134:src/BuddyAllocator.cpp **** 
 135:src/BuddyAllocator.cpp ****     BuddyEntry* prev = nullptr;
 395              		.loc 1 135 17
 396 023c 13060000 		li	a2,0
 397 0240 6F000002 		j	.L30
GAS LISTING /tmp/ccRcN10f.s 			page 11


 398              	.L38:
 131:src/BuddyAllocator.cpp ****         buddy[size] = entry;
 399              		.loc 1 131 9 is_stmt 1
 131:src/BuddyAllocator.cpp ****         buddy[size] = entry;
 400              		.loc 1 131 21 is_stmt 0
 401 0244 97070000 		lla	a5,.LANCHOR0
 401      93870700 
 402 024c 3385E700 		add	a0,a5,a4
 403              	.LVL39:
 404 0250 2330B500 		sd	a1,0(a0)
 132:src/BuddyAllocator.cpp ****     }
 405              		.loc 1 132 9 is_stmt 1
 132:src/BuddyAllocator.cpp ****     }
 406              		.loc 1 132 16 is_stmt 0
 407 0254 13050000 		li	a0,0
 408 0258 6F00C006 		j	.L29
 409              	.LVL40:
 410              	.L36:
 411              	.LBB25:
 136:src/BuddyAllocator.cpp ****     for(BuddyEntry* curr = buddy[size]; curr != nullptr; curr = curr->next) {
 412              		.loc 1 136 63
 413 025c 93070700 		mv	a5,a4
 414              	.LVL41:
 415              	.L30:
 416              		.loc 1 136 46 is_stmt 1 discriminator 1
 417 0260 63800706 		beqz	a5,.L35
 137:src/BuddyAllocator.cpp ****         if(curr->addr > entry->addr) {
 418              		.loc 1 137 9
 419              		.loc 1 137 18 is_stmt 0
 420 0264 83B68700 		ld	a3,8(a5)
 421              		.loc 1 137 32
 422 0268 03B78500 		ld	a4,8(a1)
 423              		.loc 1 137 9
 424 026c 636ED700 		bgtu	a3,a4,.L39
 138:src/BuddyAllocator.cpp ****             entry->next = curr;
 139:src/BuddyAllocator.cpp ****             if(prev) {
 140:src/BuddyAllocator.cpp ****                 prev->next = curr;
 141:src/BuddyAllocator.cpp ****             }
 142:src/BuddyAllocator.cpp ****             else {
 143:src/BuddyAllocator.cpp ****                 buddy[size] = entry;
 144:src/BuddyAllocator.cpp ****             }
 145:src/BuddyAllocator.cpp ****             break;
 146:src/BuddyAllocator.cpp ****         }
 147:src/BuddyAllocator.cpp **** 
 148:src/BuddyAllocator.cpp ****         if(curr->next == nullptr) {
 425              		.loc 1 148 9 is_stmt 1
 426              		.loc 1 148 18 is_stmt 0
 427 0270 03B70700 		ld	a4,0(a5)
 149:src/BuddyAllocator.cpp ****             curr->next = entry;
 150:src/BuddyAllocator.cpp ****             break;
 151:src/BuddyAllocator.cpp ****         }
 152:src/BuddyAllocator.cpp ****         prev = curr;
 428              		.loc 1 152 14
 429 0274 13860700 		mv	a2,a5
 430              	.LVL42:
 148:src/BuddyAllocator.cpp ****             curr->next = entry;
 431              		.loc 1 148 9
GAS LISTING /tmp/ccRcN10f.s 			page 12


 432 0278 E31207FE 		bnez	a4,.L36
 149:src/BuddyAllocator.cpp ****             curr->next = entry;
 433              		.loc 1 149 13 is_stmt 1
 149:src/BuddyAllocator.cpp ****             curr->next = entry;
 434              		.loc 1 149 24 is_stmt 0
 435 027c 23B0B700 		sd	a1,0(a5)
 150:src/BuddyAllocator.cpp ****         }
 436              		.loc 1 150 13 is_stmt 1
 437              	.LBE25:
 153:src/BuddyAllocator.cpp ****     }
 154:src/BuddyAllocator.cpp **** 
 155:src/BuddyAllocator.cpp ****     return 0;
 438              		.loc 1 155 12 is_stmt 0
 439 0280 13050000 		li	a0,0
 440              	.LVL43:
 441              	.LBB26:
 150:src/BuddyAllocator.cpp ****         }
 442              		.loc 1 150 13
 443 0284 6F000004 		j	.L29
 444              	.LVL44:
 445              	.L39:
 138:src/BuddyAllocator.cpp ****             if(prev) {
 446              		.loc 1 138 13 is_stmt 1
 138:src/BuddyAllocator.cpp ****             if(prev) {
 447              		.loc 1 138 25 is_stmt 0
 448 0288 23B0F500 		sd	a5,0(a1)
 139:src/BuddyAllocator.cpp ****                 prev->next = curr;
 449              		.loc 1 139 13 is_stmt 1
 450 028c 63080600 		beqz	a2,.L32
 140:src/BuddyAllocator.cpp ****             }
 451              		.loc 1 140 17
 140:src/BuddyAllocator.cpp ****             }
 452              		.loc 1 140 28 is_stmt 0
 453 0290 2330F600 		sd	a5,0(a2)
 454              	.LBE26:
 455              		.loc 1 155 12
 456 0294 13050000 		li	a0,0
 457              	.LVL45:
 458              	.LBB27:
 459 0298 6F00C002 		j	.L29
 460              	.LVL46:
 461              	.L32:
 143:src/BuddyAllocator.cpp ****             }
 462              		.loc 1 143 17 is_stmt 1
 143:src/BuddyAllocator.cpp ****             }
 463              		.loc 1 143 29 is_stmt 0
 464 029c 13153500 		slli	a0,a0,3
 465              	.LVL47:
 466 02a0 97070000 		lla	a5,.LANCHOR0
 466      93870700 
 467              	.LVL48:
 468 02a8 3385A700 		add	a0,a5,a0
 469 02ac 2330B500 		sd	a1,0(a0)
 470              	.LVL49:
 471              	.LBE27:
 472              		.loc 1 155 12
 473 02b0 13050000 		li	a0,0
GAS LISTING /tmp/ccRcN10f.s 			page 13


 474 02b4 6F000001 		j	.L29
 475              	.LVL50:
 476              	.L33:
 128:src/BuddyAllocator.cpp **** 
 477              		.loc 1 128 38
 478 02b8 1305F0FF 		li	a0,-1
 479              	.LVL51:
 480 02bc 6F008000 		j	.L29
 481              	.LVL52:
 482              	.L35:
 483              		.loc 1 155 12
 484 02c0 13050000 		li	a0,0
 485              	.LVL53:
 486              	.L29:
 156:src/BuddyAllocator.cpp **** }
 487              		.loc 1 156 1
 488 02c4 03348100 		ld	s0,8(sp)
 489              		.cfi_restore 8
 490              		.cfi_def_cfa 2, 16
 491 02c8 13010101 		addi	sp,sp,16
 492              		.cfi_def_cfa_offset 0
 493 02cc 67800000 		jr	ra
 494              		.cfi_endproc
 495              	.LFE31:
 497              		.align	2
 498              		.globl	_ZN14BuddyAllocator9initBuddyEv
 500              	_ZN14BuddyAllocator9initBuddyEv:
 501              	.LFB23:
   7:src/BuddyAllocator.cpp ****     if(startAddr != nullptr) return 1;
 502              		.loc 1 7 33 is_stmt 1
 503              		.cfi_startproc
   8:src/BuddyAllocator.cpp ****     startAddr = (void*)HEAP_START_ADDR;
 504              		.loc 1 8 5
   8:src/BuddyAllocator.cpp ****     startAddr = (void*)HEAP_START_ADDR;
 505              		.loc 1 8 18 is_stmt 0
 506 02d0 97070000 		ld	a5,.LANCHOR0+96
 506      83B70700 
   8:src/BuddyAllocator.cpp ****     startAddr = (void*)HEAP_START_ADDR;
 507              		.loc 1 8 5
 508 02d8 63860700 		beqz	a5,.L47
   8:src/BuddyAllocator.cpp ****     startAddr = (void*)HEAP_START_ADDR;
 509              		.loc 1 8 37
 510 02dc 13051000 		li	a0,1
  15:src/BuddyAllocator.cpp **** 
 511              		.loc 1 15 1
 512 02e0 67800000 		ret
 513              	.L47:
   7:src/BuddyAllocator.cpp ****     if(startAddr != nullptr) return 1;
 514              		.loc 1 7 33
 515 02e4 130101FF 		addi	sp,sp,-16
 516              		.cfi_def_cfa_offset 16
 517 02e8 23341100 		sd	ra,8(sp)
 518 02ec 23308100 		sd	s0,0(sp)
 519              		.cfi_offset 1, -8
 520              		.cfi_offset 8, -16
 521 02f0 13040101 		addi	s0,sp,16
 522              		.cfi_def_cfa 8, 0
GAS LISTING /tmp/ccRcN10f.s 			page 14


   9:src/BuddyAllocator.cpp **** 
 523              		.loc 1 9 5 is_stmt 1
   9:src/BuddyAllocator.cpp **** 
 524              		.loc 1 9 15 is_stmt 0
 525 02f4 97070000 		la	a5,HEAP_START_ADDR
 525      83B70700 
 526 02fc 03B50700 		ld	a0,0(a5)
 527 0300 97070000 		sd	a0,.LANCHOR0+96,a5
 527      23B0A700 
  11:src/BuddyAllocator.cpp ****     int ret = BuddyEntry::addEntry(maxPowerSize, entry);
 528              		.loc 1 11 5 is_stmt 1
  11:src/BuddyAllocator.cpp ****     int ret = BuddyEntry::addEntry(maxPowerSize, entry);
 529              		.loc 1 11 48 is_stmt 0
 530 0308 97000000 		call	_ZN14BuddyAllocator10BuddyEntry11createEntryEPv
 530      E7800000 
 531              	.LVL54:
 532 0310 93050500 		mv	a1,a0
 533              	.LVL55:
  12:src/BuddyAllocator.cpp **** 
 534              		.loc 1 12 5 is_stmt 1
  12:src/BuddyAllocator.cpp **** 
 535              		.loc 1 12 35 is_stmt 0
 536 0314 1305C000 		li	a0,12
 537              	.LVL56:
 538 0318 97000000 		call	_ZN14BuddyAllocator10BuddyEntry8addEntryEmPS0_
 538      E7800000 
 539              	.LVL57:
  14:src/BuddyAllocator.cpp **** }
 540              		.loc 1 14 5 is_stmt 1
  15:src/BuddyAllocator.cpp **** 
 541              		.loc 1 15 1 is_stmt 0
 542 0320 83308100 		ld	ra,8(sp)
 543              		.cfi_restore 1
 544 0324 03340100 		ld	s0,0(sp)
 545              		.cfi_restore 8
 546              		.cfi_def_cfa 2, 16
 547 0328 13010101 		addi	sp,sp,16
 548              		.cfi_def_cfa_offset 0
 549 032c 67800000 		jr	ra
 550              		.cfi_endproc
 551              	.LFE23:
 553              		.align	2
 554              		.globl	_ZN14BuddyAllocator10buddyAllocEm
 556              	_ZN14BuddyAllocator10buddyAllocEm:
 557              	.LFB24:
  17:src/BuddyAllocator.cpp ****     size--;
 558              		.loc 1 17 47 is_stmt 1
 559              		.cfi_startproc
 560              	.LVL58:
 561 0330 130101FD 		addi	sp,sp,-48
 562              		.cfi_def_cfa_offset 48
 563 0334 23341102 		sd	ra,40(sp)
 564 0338 23308102 		sd	s0,32(sp)
 565 033c 233C9100 		sd	s1,24(sp)
 566 0340 23382101 		sd	s2,16(sp)
 567 0344 23343101 		sd	s3,8(sp)
 568 0348 23304101 		sd	s4,0(sp)
GAS LISTING /tmp/ccRcN10f.s 			page 15


 569              		.cfi_offset 1, -8
 570              		.cfi_offset 8, -16
 571              		.cfi_offset 9, -24
 572              		.cfi_offset 18, -32
 573              		.cfi_offset 19, -40
 574              		.cfi_offset 20, -48
 575 034c 13040103 		addi	s0,sp,48
 576              		.cfi_def_cfa 8, 0
  18:src/BuddyAllocator.cpp ****     if(size >= maxPowerSize) return nullptr;
 577              		.loc 1 18 5
  18:src/BuddyAllocator.cpp ****     if(size >= maxPowerSize) return nullptr;
 578              		.loc 1 18 9 is_stmt 0
 579 0350 130AF5FF 		addi	s4,a0,-1
 580              	.LVL59:
  19:src/BuddyAllocator.cpp **** 
 581              		.loc 1 19 5 is_stmt 1
 582 0354 9307B000 		li	a5,11
 583 0358 63EA4707 		bgtu	s4,a5,.L53
 584              	.LBB28:
  22:src/BuddyAllocator.cpp ****         BuddyEntry* block = popFreeBlock(curr+1); // +1 zato sto je indeksiranje od nule
 585              		.loc 1 22 16 is_stmt 0
 586 035c 93040A00 		mv	s1,s4
 587 0360 6F008000 		j	.L50
 588              	.LVL60:
 589              	.L55:
  22:src/BuddyAllocator.cpp ****         BuddyEntry* block = popFreeBlock(curr+1); // +1 zato sto je indeksiranje od nule
 590              		.loc 1 22 5
 591 0364 93840900 		mv	s1,s3
 592              	.LVL61:
 593              	.L50:
  22:src/BuddyAllocator.cpp ****         BuddyEntry* block = popFreeBlock(curr+1); // +1 zato sto je indeksiranje od nule
 594              		.loc 1 22 34 is_stmt 1 discriminator 1
 595 0368 9307B000 		li	a5,11
 596 036c 63E49706 		bgtu	s1,a5,.L54
 597              	.LBB29:
  23:src/BuddyAllocator.cpp ****         if(block != nullptr) { // postoji slobodan blok ove velicine
 598              		.loc 1 23 9
  23:src/BuddyAllocator.cpp ****         if(block != nullptr) { // postoji slobodan blok ove velicine
 599              		.loc 1 23 41 is_stmt 0
 600 0370 93891400 		addi	s3,s1,1
 601 0374 13850900 		mv	a0,s3
 602 0378 97000000 		call	_ZN14BuddyAllocator12popFreeBlockEm
 602      E7800000 
 603              	.LVL62:
 604 0380 13090500 		mv	s2,a0
 605              	.LVL63:
  24:src/BuddyAllocator.cpp ****             while(curr > size) {
 606              		.loc 1 24 9 is_stmt 1
 607              	.LBB30:
 608 0384 E30005FE 		beqz	a0,.L55
 609              	.LVL64:
 610              	.L52:
 611              	.LBB31:
  25:src/BuddyAllocator.cpp ****                 size_t offset = sizeInBytes(curr);
 612              		.loc 1 25 13
  25:src/BuddyAllocator.cpp ****                 size_t offset = sizeInBytes(curr);
 613              		.loc 1 25 24
GAS LISTING /tmp/ccRcN10f.s 			page 16


 614 0388 637E9A02 		bleu	s1,s4,.L51
 615              	.LBB32:
  26:src/BuddyAllocator.cpp ****                 BuddyEntry* other = BuddyEntry::createEntry((void*)((char*)block->addr + offset));
 616              		.loc 1 26 17
 617              	.LVL65:
 618              	.LBB33:
 619              	.LBB34:
 620              		.file 2 "src/../h/BuddyAllocator.h"
   1:src/../h/BuddyAllocator.h **** #ifndef OSPROJEKAT_BUDDYALLOCATOR_H
   2:src/../h/BuddyAllocator.h **** #define OSPROJEKAT_BUDDYALLOCATOR_H
   3:src/../h/BuddyAllocator.h **** 
   4:src/../h/BuddyAllocator.h **** #include "hw.h"
   5:src/../h/BuddyAllocator.h **** 
   6:src/../h/BuddyAllocator.h **** class BuddyAllocator {
   7:src/../h/BuddyAllocator.h **** public:
   8:src/../h/BuddyAllocator.h ****     static const size_t blockSize = 4096;
   9:src/../h/BuddyAllocator.h ****     static const size_t allocSize = 1 << 24;
  10:src/../h/BuddyAllocator.h ****     static const size_t maxPowerSize = 12;
  11:src/../h/BuddyAllocator.h **** private:
  12:src/../h/BuddyAllocator.h ****     BuddyAllocator() {}
  13:src/../h/BuddyAllocator.h **** 
  14:src/../h/BuddyAllocator.h ****     class BuddyEntry {
  15:src/../h/BuddyAllocator.h ****     private:
  16:src/../h/BuddyAllocator.h ****         BuddyEntry() {};
  17:src/../h/BuddyAllocator.h ****     public:
  18:src/../h/BuddyAllocator.h ****         BuddyEntry* next;
  19:src/../h/BuddyAllocator.h ****         void* addr;
  20:src/../h/BuddyAllocator.h **** 
  21:src/../h/BuddyAllocator.h ****         // Vraca pokazivac na jedan BuddyEntry sa pocetnom adresom addr
  22:src/../h/BuddyAllocator.h ****         static BuddyEntry* createEntry(void* addr);
  23:src/../h/BuddyAllocator.h ****         // oslobadja entry iz memorije, ne radi preulancavanje
  24:src/../h/BuddyAllocator.h ****        // static void freeEntry(BuddyEntry* entry) TODO: OBRISI;
  25:src/../h/BuddyAllocator.h ****         // dodaje BuddyEntry u ulancanu listu za blokove velicine blockSize*2^(size-1)
  26:src/../h/BuddyAllocator.h ****         static int addEntry(size_t size, BuddyEntry* entry);
  27:src/../h/BuddyAllocator.h ****     };
  28:src/../h/BuddyAllocator.h ****     // niz sa pokazivacima na pocetak slobodnih blokova, ulaz i se alocira kada se prvi put pristup
  29:src/../h/BuddyAllocator.h ****     static BuddyEntry* buddy[maxPowerSize];
  30:src/../h/BuddyAllocator.h ****     // pocetna vrednost alociranog buddy alokatora
  31:src/../h/BuddyAllocator.h ****     static void* startAddr;
  32:src/../h/BuddyAllocator.h **** 
  33:src/../h/BuddyAllocator.h ****     static BuddyEntry* getFreeBlock(size_t size);
  34:src/../h/BuddyAllocator.h ****     static BuddyEntry* popFreeBlock(size_t size);
  35:src/../h/BuddyAllocator.h ****     static BuddyEntry* popFreeBlockAddr(size_t size, void* addr);
  36:src/../h/BuddyAllocator.h ****     static size_t sizeInBytes(size_t size) {
  37:src/../h/BuddyAllocator.h ****         size--;
 621              		.loc 2 37 9
 622              		.loc 2 37 13 is_stmt 0
 623 038c 9389F4FF 		addi	s3,s1,-1
 624              	.LVL66:
  38:src/../h/BuddyAllocator.h ****         return (1<<size)*blockSize;
 625              		.loc 2 38 9 is_stmt 1
 626              		.loc 2 38 18 is_stmt 0
 627 0390 93071000 		li	a5,1
 628 0394 BB973701 		sllw	a5,a5,s3
 629              		.loc 2 38 26
 630 0398 9397C700 		slli	a5,a5,12
 631              	.LVL67:
GAS LISTING /tmp/ccRcN10f.s 			page 17


 632              	.LBE34:
 633              	.LBE33:
  27:src/BuddyAllocator.cpp ****                 BuddyEntry::addEntry(curr, other); // jedan dalje splitujemo, drugi ubacujemo kao s
 634              		.loc 1 27 17 is_stmt 1
  27:src/BuddyAllocator.cpp ****                 BuddyEntry::addEntry(curr, other); // jedan dalje splitujemo, drugi ubacujemo kao s
 635              		.loc 1 27 83 is_stmt 0
 636 039c 03358900 		ld	a0,8(s2)
  27:src/BuddyAllocator.cpp ****                 BuddyEntry::addEntry(curr, other); // jedan dalje splitujemo, drugi ubacujemo kao s
 637              		.loc 1 27 60
 638 03a0 3305F500 		add	a0,a0,a5
 639 03a4 97000000 		call	_ZN14BuddyAllocator10BuddyEntry11createEntryEPv
 639      E7800000 
 640              	.LVL68:
 641 03ac 93050500 		mv	a1,a0
 642              	.LVL69:
  28:src/BuddyAllocator.cpp **** 
 643              		.loc 1 28 17 is_stmt 1
  28:src/BuddyAllocator.cpp **** 
 644              		.loc 1 28 37 is_stmt 0
 645 03b0 13850400 		mv	a0,s1
 646              	.LVL70:
 647 03b4 97000000 		call	_ZN14BuddyAllocator10BuddyEntry8addEntryEmPS0_
 647      E7800000 
 648              	.LVL71:
  30:src/BuddyAllocator.cpp ****             }
 649              		.loc 1 30 17 is_stmt 1
  30:src/BuddyAllocator.cpp ****             }
 650              		.loc 1 30 21 is_stmt 0
 651 03bc 93840900 		mv	s1,s3
 652              	.LBE32:
  25:src/BuddyAllocator.cpp ****                 size_t offset = sizeInBytes(curr);
 653              		.loc 1 25 13
 654 03c0 6FF09FFC 		j	.L52
 655              	.LVL72:
 656              	.L51:
  32:src/BuddyAllocator.cpp ****             //BuddyEntry::freeEntry(block); // oslobadjamo entry
 657              		.loc 1 32 13 is_stmt 1
  32:src/BuddyAllocator.cpp ****             //BuddyEntry::freeEntry(block); // oslobadjamo entry
 658              		.loc 1 32 19 is_stmt 0
 659 03c4 03358900 		ld	a0,8(s2)
 660              	.LVL73:
  34:src/BuddyAllocator.cpp ****         }
 661              		.loc 1 34 13 is_stmt 1
  34:src/BuddyAllocator.cpp ****         }
 662              		.loc 1 34 20 is_stmt 0
 663 03c8 6F000001 		j	.L48
 664              	.LVL74:
 665              	.L53:
 666              	.LBE31:
 667              	.LBE30:
 668              	.LBE29:
 669              	.LBE28:
  19:src/BuddyAllocator.cpp **** 
 670              		.loc 1 19 37
 671 03cc 13050000 		li	a0,0
 672 03d0 6F008000 		j	.L48
 673              	.LVL75:
GAS LISTING /tmp/ccRcN10f.s 			page 18


 674              	.L54:
  37:src/BuddyAllocator.cpp **** }
 675              		.loc 1 37 12
 676 03d4 13050000 		li	a0,0
 677              	.LVL76:
 678              	.L48:
  38:src/BuddyAllocator.cpp **** 
 679              		.loc 1 38 1
 680 03d8 83308102 		ld	ra,40(sp)
 681              		.cfi_restore 1
 682 03dc 03340102 		ld	s0,32(sp)
 683              		.cfi_restore 8
 684              		.cfi_def_cfa 2, 48
 685 03e0 83348101 		ld	s1,24(sp)
 686              		.cfi_restore 9
 687 03e4 03390101 		ld	s2,16(sp)
 688              		.cfi_restore 18
 689 03e8 83398100 		ld	s3,8(sp)
 690              		.cfi_restore 19
 691 03ec 033A0100 		ld	s4,0(sp)
 692              		.cfi_restore 20
 693              	.LVL77:
 694 03f0 13010103 		addi	sp,sp,48
 695              		.cfi_def_cfa_offset 0
 696 03f4 67800000 		jr	ra
 697              		.cfi_endproc
 698              	.LFE24:
 700              		.align	2
 701              		.globl	_ZN14BuddyAllocator9buddyFreeEPvm
 703              	_ZN14BuddyAllocator9buddyFreeEPvm:
 704              	.LFB25:
  40:src/BuddyAllocator.cpp ****     size--;
 705              		.loc 1 40 56 is_stmt 1
 706              		.cfi_startproc
 707              	.LVL78:
  41:src/BuddyAllocator.cpp ****     if(size >= maxPowerSize || addr == nullptr) return -1;
 708              		.loc 1 41 5
  41:src/BuddyAllocator.cpp ****     if(size >= maxPowerSize || addr == nullptr) return -1;
 709              		.loc 1 41 9 is_stmt 0
 710 03f8 9385F5FF 		addi	a1,a1,-1
 711              	.LVL79:
  42:src/BuddyAllocator.cpp **** 
 712              		.loc 1 42 5 is_stmt 1
 713 03fc 9307B000 		li	a5,11
 714 0400 63ECB70A 		bgtu	a1,a5,.L64
  40:src/BuddyAllocator.cpp ****     size--;
 715              		.loc 1 40 56 is_stmt 0 discriminator 2
 716 0404 130101FD 		addi	sp,sp,-48
 717              		.cfi_def_cfa_offset 48
 718 0408 23341102 		sd	ra,40(sp)
 719 040c 23308102 		sd	s0,32(sp)
 720 0410 233C9100 		sd	s1,24(sp)
 721 0414 23382101 		sd	s2,16(sp)
 722 0418 23343101 		sd	s3,8(sp)
 723 041c 23304101 		sd	s4,0(sp)
 724              		.cfi_offset 1, -8
 725              		.cfi_offset 8, -16
GAS LISTING /tmp/ccRcN10f.s 			page 19


 726              		.cfi_offset 9, -24
 727              		.cfi_offset 18, -32
 728              		.cfi_offset 19, -40
 729              		.cfi_offset 20, -48
 730 0420 13040103 		addi	s0,sp,48
 731              		.cfi_def_cfa 8, 0
 732 0424 130A0500 		mv	s4,a0
  42:src/BuddyAllocator.cpp **** 
 733              		.loc 1 42 29 discriminator 2
 734 0428 631A0500 		bnez	a0,.L59
  42:src/BuddyAllocator.cpp **** 
 735              		.loc 1 42 57
 736 042c 1305F0FF 		li	a0,-1
 737              	.LVL80:
 738 0430 6F004009 		j	.L58
 739              	.LVL81:
 740              	.L67:
 741              	.LBB35:
  61:src/BuddyAllocator.cpp ****         }
 742              		.loc 1 61 18
 743 0434 138A0400 		mv	s4,s1
 744              	.LVL82:
 745              	.L62:
 746 0438 93850900 		mv	a1,s3
 747              	.LVL83:
 748              	.L59:
 749              	.LBE35:
  45:src/BuddyAllocator.cpp ****         size_t module = (size_t)relativeAddress(next) % sizeInBytes(size+2); // jer imamo blok npr 
 750              		.loc 1 45 5 is_stmt 1
  45:src/BuddyAllocator.cpp ****         size_t module = (size_t)relativeAddress(next) % sizeInBytes(size+2); // jer imamo blok npr 
 751              		.loc 1 45 16
 752 043c 9307B000 		li	a5,11
 753 0440 63E0B708 		bgtu	a1,a5,.L66
 754              	.LBB47:
  46:src/BuddyAllocator.cpp ****         void* other = next;
 755              		.loc 1 46 9
 756              	.LVL84:
 757              	.LBB36:
 758              	.LBB37:
  39:src/../h/BuddyAllocator.h ****     }
  40:src/../h/BuddyAllocator.h **** 
  41:src/../h/BuddyAllocator.h ****     static void* relativeAddress(void* addr) {
  42:src/../h/BuddyAllocator.h ****         return (char*)addr - (size_t)startAddr;
 759              		.loc 2 42 9
 760              		.loc 2 42 38 is_stmt 0
 761 0444 17090000 		ld	s2,.LANCHOR0+96
 761      03390900 
 762 044c 33092A41 		sub	s2,s4,s2
 763              	.LVL85:
 764              	.LBE37:
 765              	.LBE36:
 766              	.LBB38:
 767              	.LBB39:
  37:src/../h/BuddyAllocator.h ****         return (1<<size)*blockSize;
 768              		.loc 2 37 9 is_stmt 1
  37:src/../h/BuddyAllocator.h ****         return (1<<size)*blockSize;
 769              		.loc 2 37 13 is_stmt 0
GAS LISTING /tmp/ccRcN10f.s 			page 20


 770 0450 93891500 		addi	s3,a1,1
 771              	.LVL86:
  38:src/../h/BuddyAllocator.h ****     }
 772              		.loc 2 38 9 is_stmt 1
  38:src/../h/BuddyAllocator.h ****     }
 773              		.loc 2 38 18 is_stmt 0
 774 0454 93071000 		li	a5,1
 775 0458 3B973701 		sllw	a4,a5,s3
  38:src/../h/BuddyAllocator.h ****     }
 776              		.loc 2 38 26
 777 045c 1317C700 		slli	a4,a4,12
 778              	.LVL87:
 779              	.LBE39:
 780              	.LBE38:
  46:src/BuddyAllocator.cpp ****         void* other = next;
 781              		.loc 1 46 75
 782 0460 3379E902 		remu	s2,s2,a4
 783              	.LVL88:
  47:src/BuddyAllocator.cpp ****         size_t offset = sizeInBytes(size+1);
 784              		.loc 1 47 9 is_stmt 1
  48:src/BuddyAllocator.cpp ****         other = (void*)((char*)other + (module == 0 ? offset : -offset));
 785              		.loc 1 48 9
 786              	.LBB40:
 787              	.LBB41:
  37:src/../h/BuddyAllocator.h ****         return (1<<size)*blockSize;
 788              		.loc 2 37 9
  38:src/../h/BuddyAllocator.h ****     }
 789              		.loc 2 38 9
  38:src/../h/BuddyAllocator.h ****     }
 790              		.loc 2 38 18 is_stmt 0
 791 0464 BB97B700 		sllw	a5,a5,a1
  38:src/../h/BuddyAllocator.h ****     }
 792              		.loc 2 38 26
 793 0468 9397C700 		slli	a5,a5,12
 794              	.LVL89:
 795              	.LBE41:
 796              	.LBE40:
  49:src/BuddyAllocator.cpp **** 
 797              		.loc 1 49 9 is_stmt 1
  49:src/BuddyAllocator.cpp **** 
 798              		.loc 1 49 38 is_stmt 0
 799 046c 63040900 		beqz	s2,.L60
  49:src/BuddyAllocator.cpp **** 
 800              		.loc 1 49 38 discriminator 1
 801 0470 B307F040 		neg	a5,a5
 802              	.LVL90:
 803              	.L60:
  49:src/BuddyAllocator.cpp **** 
 804              		.loc 1 49 15 discriminator 4
 805 0474 B304FA00 		add	s1,s4,a5
 806              	.LVL91:
  51:src/BuddyAllocator.cpp ****         /*if(otherEntry) { // postoji buddy blok
 807              		.loc 1 51 9 is_stmt 1 discriminator 4
  51:src/BuddyAllocator.cpp ****         /*if(otherEntry) { // postoji buddy blok
 808              		.loc 1 51 50 is_stmt 0 discriminator 4
 809 0478 93850400 		mv	a1,s1
 810              	.LVL92:
GAS LISTING /tmp/ccRcN10f.s 			page 21


 811 047c 13850900 		mv	a0,s3
 812 0480 97000000 		call	_ZN14BuddyAllocator16popFreeBlockAddrEmPv
 812      E7800000 
 813              	.LVL93:
  55:src/BuddyAllocator.cpp ****             BuddyEntry* entry = BuddyEntry::createEntry(next);
 814              		.loc 1 55 9 is_stmt 1 discriminator 4
 815              	.LBB42:
 816 0488 63060500 		beqz	a0,.L72
 817              	.LBE42:
  60:src/BuddyAllocator.cpp ****             next = other;
 818              		.loc 1 60 9
 819 048c E31409FA 		bnez	s2,.L67
 820 0490 6FF09FFA 		j	.L62
 821              	.L72:
 822              	.LBB45:
 823              	.LBB43:
  56:src/BuddyAllocator.cpp ****             BuddyEntry::addEntry(size+1, entry);
 824              		.loc 1 56 13
  56:src/BuddyAllocator.cpp ****             BuddyEntry::addEntry(size+1, entry);
 825              		.loc 1 56 56 is_stmt 0
 826 0494 13050A00 		mv	a0,s4
 827              	.LVL94:
 828 0498 97000000 		call	_ZN14BuddyAllocator10BuddyEntry11createEntryEPv
 828      E7800000 
 829              	.LVL95:
 830 04a0 93050500 		mv	a1,a0
 831              	.LVL96:
  57:src/BuddyAllocator.cpp ****             break;
 832              		.loc 1 57 13 is_stmt 1
  57:src/BuddyAllocator.cpp ****             break;
 833              		.loc 1 57 33 is_stmt 0
 834 04a4 13850900 		mv	a0,s3
 835              	.LVL97:
 836 04a8 97000000 		call	_ZN14BuddyAllocator10BuddyEntry8addEntryEmPS0_
 836      E7800000 
 837              	.LVL98:
  58:src/BuddyAllocator.cpp ****         }
 838              		.loc 1 58 13 is_stmt 1
 839              	.LBE43:
 840              	.LBE45:
 841              	.LBE47:
  66:src/BuddyAllocator.cpp **** }
 842              		.loc 1 66 12 is_stmt 0
 843 04b0 13050000 		li	a0,0
 844              	.LBB48:
 845              	.LBB46:
 846              	.LBB44:
  58:src/BuddyAllocator.cpp ****         }
 847              		.loc 1 58 13
 848 04b4 6F000001 		j	.L58
 849              	.LVL99:
 850              	.L64:
 851              		.cfi_def_cfa_register 2
 852              		.cfi_restore 1
 853              		.cfi_restore 8
 854              		.cfi_restore 9
 855              		.cfi_restore 18
GAS LISTING /tmp/ccRcN10f.s 			page 22


 856              		.cfi_restore 19
 857              		.cfi_restore 20
 858              	.LBE44:
 859              	.LBE46:
 860              	.LBE48:
  42:src/BuddyAllocator.cpp **** 
 861              		.loc 1 42 57
 862 04b8 1305F0FF 		li	a0,-1
 863              	.LVL100:
  67:src/BuddyAllocator.cpp **** 
 864              		.loc 1 67 1
 865 04bc 67800000 		ret
 866              	.LVL101:
 867              	.L66:
 868              		.cfi_def_cfa_register 8
 869              		.cfi_offset 1, -8
 870              		.cfi_offset 8, -16
 871              		.cfi_offset 9, -24
 872              		.cfi_offset 18, -32
 873              		.cfi_offset 19, -40
 874              		.cfi_offset 20, -48
  66:src/BuddyAllocator.cpp **** }
 875              		.loc 1 66 12
 876 04c0 13050000 		li	a0,0
 877              	.LVL102:
 878              	.L58:
  67:src/BuddyAllocator.cpp **** 
 879              		.loc 1 67 1
 880 04c4 83308102 		ld	ra,40(sp)
 881              		.cfi_restore 1
 882 04c8 03340102 		ld	s0,32(sp)
 883              		.cfi_restore 8
 884              		.cfi_def_cfa 2, 48
 885 04cc 83348101 		ld	s1,24(sp)
 886              		.cfi_restore 9
 887 04d0 03390101 		ld	s2,16(sp)
 888              		.cfi_restore 18
 889 04d4 83398100 		ld	s3,8(sp)
 890              		.cfi_restore 19
 891 04d8 033A0100 		ld	s4,0(sp)
 892              		.cfi_restore 20
 893 04dc 13010103 		addi	sp,sp,48
 894              		.cfi_def_cfa_offset 0
 895 04e0 67800000 		jr	ra
 896              		.cfi_endproc
 897              	.LFE25:
 899              		.globl	_ZN14BuddyAllocator5buddyE
 900              		.globl	_ZN14BuddyAllocator9startAddrE
 901              		.bss
 902              		.align	3
 903              		.set	.LANCHOR0,. + 0
 906              	_ZN14BuddyAllocator5buddyE:
 907 0000 00000000 		.zero	96
 907      00000000 
 907      00000000 
 907      00000000 
 907      00000000 
GAS LISTING /tmp/ccRcN10f.s 			page 23


 910              	_ZN14BuddyAllocator9startAddrE:
 911 0060 00000000 		.zero	8
 911      00000000 
 912              		.text
 913              	.Letext0:
 914              		.file 3 "src/../h/hw.h"
 915              		.file 4 "src/../h/syscall_c.h"
 916              		.file 5 "src/../h/printing.hpp"
GAS LISTING /tmp/ccRcN10f.s 			page 24

