GAS LISTING /tmp/ccQ1lyiA.s 			page 1


   1              		.file	"buffer_CPP_API.cpp"
   2              		.option pic
   3              		.option norelax
   4              		.text
   5              	.Ltext0:
   6              		.align	2
   7              		.globl	_ZN9BufferCPPC2Ei
   9              	_ZN9BufferCPPC2Ei:
  10              	.LFB3:
  11              		.file 1 "src/buffer_CPP_API.cpp"
   1:src/buffer_CPP_API.cpp **** #include "../h/buffer_CPP_API.hpp"
   2:src/buffer_CPP_API.cpp **** #include "../h/console.h"
   3:src/buffer_CPP_API.cpp **** 
   4:src/buffer_CPP_API.cpp **** BufferCPP::BufferCPP(int _cap) : cap(_cap), head(0), tail(0) {
  12              		.loc 1 4 1
  13              		.cfi_startproc
  14              		.cfi_personality 0x9b,DW.ref.__gxx_personality_v0
  15              		.cfi_lsda 0x1b,.LLSDA3
  16              	.LVL0:
  17 0000 130101FE 		addi	sp,sp,-32
  18              		.cfi_def_cfa_offset 32
  19 0004 233C1100 		sd	ra,24(sp)
  20 0008 23388100 		sd	s0,16(sp)
  21 000c 23349100 		sd	s1,8(sp)
  22 0010 23302101 		sd	s2,0(sp)
  23              		.cfi_offset 1, -8
  24              		.cfi_offset 8, -16
  25              		.cfi_offset 9, -24
  26              		.cfi_offset 18, -32
  27 0014 13040102 		addi	s0,sp,32
  28              		.cfi_def_cfa 8, 0
  29 0018 93040500 		mv	s1,a0
  30              	.LBB2:
  31              		.loc 1 4 60 is_stmt 0
  32 001c 2320B500 		sw	a1,0(a0)
  33 0020 23280500 		sw	zero,16(a0)
  34 0024 232A0500 		sw	zero,20(a0)
   5:src/buffer_CPP_API.cpp ****     buffer = (int *)mem_alloc(sizeof(int) * cap);
  35              		.loc 1 5 5 is_stmt 1
  36              		.loc 1 5 30 is_stmt 0
  37 0028 13952500 		slli	a0,a1,2
  38              	.LVL1:
  39              	.LEHB0:
  40 002c 97000000 		call	_Z9mem_allocm@plt
  40      E7800000 
  41              	.LVL2:
  42              		.loc 1 5 12
  43 0034 23B4A400 		sd	a0,8(s1)
   6:src/buffer_CPP_API.cpp ****     itemAvailable = new Semaphore(0);
  44              		.loc 1 6 5 is_stmt 1
  45              		.loc 1 6 36 is_stmt 0
  46 0038 13050001 		li	a0,16
  47 003c 97000000 		call	_ZN9SemaphorenwEm@plt
  47      E7800000 
  48              	.LVL3:
  49              	.LEHE0:
  50 0044 13090500 		mv	s2,a0
GAS LISTING /tmp/ccQ1lyiA.s 			page 2


  51 0048 93050000 		li	a1,0
  52              	.LEHB1:
  53 004c 97000000 		call	_ZN9SemaphoreC1Ej@plt
  53      E7800000 
  54              	.LVL4:
  55              	.LEHE1:
  56              		.loc 1 6 19 discriminator 2
  57 0054 23B02403 		sd	s2,32(s1)
   7:src/buffer_CPP_API.cpp ****     spaceAvailable = new Semaphore(cap);
  58              		.loc 1 7 5 is_stmt 1 discriminator 2
  59              		.loc 1 7 39 is_stmt 0 discriminator 2
  60 0058 13050001 		li	a0,16
  61              	.LEHB2:
  62 005c 97000000 		call	_ZN9SemaphorenwEm@plt
  62      E7800000 
  63              	.LVL5:
  64              	.LEHE2:
  65 0064 13090500 		mv	s2,a0
  66 0068 83A50400 		lw	a1,0(s1)
  67              	.LEHB3:
  68 006c 97000000 		call	_ZN9SemaphoreC1Ej@plt
  68      E7800000 
  69              	.LVL6:
  70              	.LEHE3:
  71              		.loc 1 7 20 discriminator 2
  72 0074 23BC2401 		sd	s2,24(s1)
   8:src/buffer_CPP_API.cpp ****     mutexHead = new Semaphore(1);
  73              		.loc 1 8 5 is_stmt 1 discriminator 2
  74              		.loc 1 8 32 is_stmt 0 discriminator 2
  75 0078 13050001 		li	a0,16
  76              	.LEHB4:
  77 007c 97000000 		call	_ZN9SemaphorenwEm@plt
  77      E7800000 
  78              	.LVL7:
  79              	.LEHE4:
  80 0084 13090500 		mv	s2,a0
  81 0088 93051000 		li	a1,1
  82              	.LEHB5:
  83 008c 97000000 		call	_ZN9SemaphoreC1Ej@plt
  83      E7800000 
  84              	.LVL8:
  85              	.LEHE5:
  86              		.loc 1 8 15 discriminator 2
  87 0094 23B42403 		sd	s2,40(s1)
   9:src/buffer_CPP_API.cpp ****     mutexTail = new Semaphore(1);
  88              		.loc 1 9 5 is_stmt 1 discriminator 2
  89              		.loc 1 9 32 is_stmt 0 discriminator 2
  90 0098 13050001 		li	a0,16
  91              	.LEHB6:
  92 009c 97000000 		call	_ZN9SemaphorenwEm@plt
  92      E7800000 
  93              	.LVL9:
  94              	.LEHE6:
  95 00a4 13090500 		mv	s2,a0
  96 00a8 93051000 		li	a1,1
  97              	.LEHB7:
  98 00ac 97000000 		call	_ZN9SemaphoreC1Ej@plt
GAS LISTING /tmp/ccQ1lyiA.s 			page 3


  98      E7800000 
  99              	.LVL10:
 100              	.LEHE7:
 101              		.loc 1 9 15 discriminator 2
 102 00b4 23B82403 		sd	s2,48(s1)
 103              	.LBE2:
  10:src/buffer_CPP_API.cpp **** }
 104              		.loc 1 10 1 discriminator 2
 105 00b8 83308101 		ld	ra,24(sp)
 106              		.cfi_remember_state
 107              		.cfi_restore 1
 108 00bc 03340101 		ld	s0,16(sp)
 109              		.cfi_restore 8
 110              		.cfi_def_cfa 2, 32
 111 00c0 83348100 		ld	s1,8(sp)
 112              		.cfi_restore 9
 113              	.LVL11:
 114 00c4 03390100 		ld	s2,0(sp)
 115              		.cfi_restore 18
 116 00c8 13010102 		addi	sp,sp,32
 117              		.cfi_def_cfa_offset 0
 118 00cc 67800000 		jr	ra
 119              	.LVL12:
 120              	.L6:
 121              		.cfi_restore_state
 122 00d0 93040500 		mv	s1,a0
 123              	.LVL13:
 124              	.LBB3:
   6:src/buffer_CPP_API.cpp ****     spaceAvailable = new Semaphore(cap);
 125              		.loc 1 6 36
 126 00d4 13050900 		mv	a0,s2
 127 00d8 97000000 		call	_ZN9SemaphoredlEPv@plt
 127      E7800000 
 128              	.LVL14:
 129 00e0 13850400 		mv	a0,s1
 130              	.LEHB8:
 131 00e4 97000000 		call	_Unwind_Resume@plt
 131      E7800000 
 132              	.LVL15:
 133              	.LEHE8:
 134              	.L7:
 135 00ec 93040500 		mv	s1,a0
 136              	.LVL16:
   7:src/buffer_CPP_API.cpp ****     mutexHead = new Semaphore(1);
 137              		.loc 1 7 39
 138 00f0 13050900 		mv	a0,s2
 139 00f4 97000000 		call	_ZN9SemaphoredlEPv@plt
 139      E7800000 
 140              	.LVL17:
 141 00fc 13850400 		mv	a0,s1
 142              	.LEHB9:
 143 0100 97000000 		call	_Unwind_Resume@plt
 143      E7800000 
 144              	.LVL18:
 145              	.LEHE9:
 146              	.L8:
 147 0108 93040500 		mv	s1,a0
GAS LISTING /tmp/ccQ1lyiA.s 			page 4


 148              	.LVL19:
   8:src/buffer_CPP_API.cpp ****     mutexTail = new Semaphore(1);
 149              		.loc 1 8 32
 150 010c 13050900 		mv	a0,s2
 151 0110 97000000 		call	_ZN9SemaphoredlEPv@plt
 151      E7800000 
 152              	.LVL20:
 153 0118 13850400 		mv	a0,s1
 154              	.LEHB10:
 155 011c 97000000 		call	_Unwind_Resume@plt
 155      E7800000 
 156              	.LVL21:
 157              	.LEHE10:
 158              	.L9:
 159 0124 93040500 		mv	s1,a0
 160              	.LVL22:
   9:src/buffer_CPP_API.cpp **** }
 161              		.loc 1 9 32
 162 0128 13050900 		mv	a0,s2
 163 012c 97000000 		call	_ZN9SemaphoredlEPv@plt
 163      E7800000 
 164              	.LVL23:
 165 0134 13850400 		mv	a0,s1
 166              	.LEHB11:
 167 0138 97000000 		call	_Unwind_Resume@plt
 167      E7800000 
 168              	.LVL24:
 169              	.LEHE11:
 170              	.LBE3:
 171              		.cfi_endproc
 172              	.LFE3:
 173              		.globl	__gxx_personality_v0
 174              		.section	.gcc_except_table,"a",@progbits
 175              	.LLSDA3:
 176 0000 FF       		.byte	0xff
 177 0001 FF       		.byte	0xff
 178 0002 03       		.byte	0x3
 179 0003 9C01     		.byte	0x9c,0x1
 180 0005 00000000 		.4byte	.LEHB0-.LFB3
 181 0009 00000000 		.4byte	.LEHE0-.LEHB0
 182 000d 00000000 		.4byte	0
 183 0011 00       		.byte	0
 184 0012 00000000 		.4byte	.LEHB1-.LFB3
 185 0016 00000000 		.4byte	.LEHE1-.LEHB1
 186 001a 00000000 		.4byte	.L6-.LFB3
 187 001e 00       		.byte	0
 188 001f 00000000 		.4byte	.LEHB2-.LFB3
 189 0023 00000000 		.4byte	.LEHE2-.LEHB2
 190 0027 00000000 		.4byte	0
 191 002b 00       		.byte	0
 192 002c 00000000 		.4byte	.LEHB3-.LFB3
 193 0030 00000000 		.4byte	.LEHE3-.LEHB3
 194 0034 00000000 		.4byte	.L7-.LFB3
 195 0038 00       		.byte	0
 196 0039 00000000 		.4byte	.LEHB4-.LFB3
 197 003d 00000000 		.4byte	.LEHE4-.LEHB4
 198 0041 00000000 		.4byte	0
GAS LISTING /tmp/ccQ1lyiA.s 			page 5


 199 0045 00       		.byte	0
 200 0046 00000000 		.4byte	.LEHB5-.LFB3
 201 004a 00000000 		.4byte	.LEHE5-.LEHB5
 202 004e 00000000 		.4byte	.L8-.LFB3
 203 0052 00       		.byte	0
 204 0053 00000000 		.4byte	.LEHB6-.LFB3
 205 0057 00000000 		.4byte	.LEHE6-.LEHB6
 206 005b 00000000 		.4byte	0
 207 005f 00       		.byte	0
 208 0060 00000000 		.4byte	.LEHB7-.LFB3
 209 0064 00000000 		.4byte	.LEHE7-.LEHB7
 210 0068 00000000 		.4byte	.L9-.LFB3
 211 006c 00       		.byte	0
 212 006d 00000000 		.4byte	.LEHB8-.LFB3
 213 0071 00000000 		.4byte	.LEHE8-.LEHB8
 214 0075 00000000 		.4byte	0
 215 0079 00       		.byte	0
 216 007a 00000000 		.4byte	.LEHB9-.LFB3
 217 007e 00000000 		.4byte	.LEHE9-.LEHB9
 218 0082 00000000 		.4byte	0
 219 0086 00       		.byte	0
 220 0087 00000000 		.4byte	.LEHB10-.LFB3
 221 008b 00000000 		.4byte	.LEHE10-.LEHB10
 222 008f 00000000 		.4byte	0
 223 0093 00       		.byte	0
 224 0094 00000000 		.4byte	.LEHB11-.LFB3
 225 0098 00000000 		.4byte	.LEHE11-.LEHB11
 226 009c 00000000 		.4byte	0
 227 00a0 00       		.byte	0
 228              		.text
 230              		.globl	_ZN9BufferCPPC1Ei
 231              		.set	_ZN9BufferCPPC1Ei,_ZN9BufferCPPC2Ei
 232              		.section	.rodata.str1.8,"aMS",@progbits,1
 233              		.align	3
 234              	.LC0:
 235 0000 42756666 		.string	"Buffer deleted!\n"
 235      65722064 
 235      656C6574 
 235      6564210A 
 235      00
 236              		.text
 237              		.align	2
 238              		.globl	_ZN9BufferCPPD2Ev
 240              	_ZN9BufferCPPD2Ev:
 241              	.LFB6:
  11:src/buffer_CPP_API.cpp **** 
  12:src/buffer_CPP_API.cpp **** BufferCPP::~BufferCPP() {
 242              		.loc 1 12 1 is_stmt 1
 243              		.cfi_startproc
 244              		.cfi_personality 0x9b,DW.ref.__gxx_personality_v0
 245              		.cfi_lsda 0x1b,.LLSDA6
 246              	.LVL25:
 247 0140 130101FE 		addi	sp,sp,-32
 248              		.cfi_def_cfa_offset 32
 249 0144 233C1100 		sd	ra,24(sp)
 250 0148 23388100 		sd	s0,16(sp)
 251 014c 23349100 		sd	s1,8(sp)
GAS LISTING /tmp/ccQ1lyiA.s 			page 6


 252              		.cfi_offset 1, -8
 253              		.cfi_offset 8, -16
 254              		.cfi_offset 9, -24
 255 0150 13040102 		addi	s0,sp,32
 256              		.cfi_def_cfa 8, 0
 257 0154 93040500 		mv	s1,a0
 258              	.LBB4:
  13:src/buffer_CPP_API.cpp ****     __putc('\n');
 259              		.loc 1 13 5
 260              		.loc 1 13 11 is_stmt 0
 261 0158 1305A000 		li	a0,10
 262              	.LVL26:
 263 015c 97000000 		call	__putc@plt
 263      E7800000 
 264              	.LVL27:
  14:src/buffer_CPP_API.cpp ****     printString("Buffer deleted!\n");
 265              		.loc 1 14 5 is_stmt 1
 266              		.loc 1 14 16 is_stmt 0
 267 0164 17050000 		lla	a0,.LC0
 267      13050500 
 268 016c 97000000 		call	_Z11printStringPKc@plt
 268      E7800000 
 269              	.LVL28:
 270              	.L14:
  15:src/buffer_CPP_API.cpp ****     while (head != tail) {
 271              		.loc 1 15 5 is_stmt 1
 272              		.loc 1 15 17
 273              		.loc 1 15 12 is_stmt 0
 274 0174 83A70401 		lw	a5,16(s1)
 275              		.loc 1 15 20
 276 0178 03A74401 		lw	a4,20(s1)
 277              		.loc 1 15 17
 278 017c 638AE702 		beq	a5,a4,.L13
 279              	.LBB5:
  16:src/buffer_CPP_API.cpp ****         char ch = buffer[head];
 280              		.loc 1 16 9 is_stmt 1
 281              		.loc 1 16 19 is_stmt 0
 282 0180 03B78400 		ld	a4,8(s1)
 283              		.loc 1 16 30
 284 0184 93972700 		slli	a5,a5,2
 285 0188 B307F700 		add	a5,a4,a5
 286              	.LVL29:
  17:src/buffer_CPP_API.cpp ****         __putc(ch);
 287              		.loc 1 17 9 is_stmt 1
 288              		.loc 1 17 15 is_stmt 0
 289 018c 03C50700 		lbu	a0,0(a5)
 290 0190 97000000 		call	__putc@plt
 290      E7800000 
 291              	.LVL30:
  18:src/buffer_CPP_API.cpp ****         head = (head + 1) % cap;
 292              		.loc 1 18 9 is_stmt 1
 293              		.loc 1 18 17 is_stmt 0
 294 0198 83A70401 		lw	a5,16(s1)
 295              		.loc 1 18 22
 296 019c 9B871700 		addiw	a5,a5,1
 297              		.loc 1 18 29
 298 01a0 03A70400 		lw	a4,0(s1)
GAS LISTING /tmp/ccQ1lyiA.s 			page 7


 299              		.loc 1 18 27
 300 01a4 BBE7E702 		remw	a5,a5,a4
 301              		.loc 1 18 14
 302 01a8 23A8F400 		sw	a5,16(s1)
 303              	.LBE5:
  15:src/buffer_CPP_API.cpp ****         char ch = buffer[head];
 304              		.loc 1 15 5
 305 01ac 6FF09FFC 		j	.L14
 306              	.L13:
  19:src/buffer_CPP_API.cpp ****     }
  20:src/buffer_CPP_API.cpp ****     __putc('!');
 307              		.loc 1 20 5 is_stmt 1
 308              		.loc 1 20 11 is_stmt 0
 309 01b0 13051002 		li	a0,33
 310 01b4 97000000 		call	__putc@plt
 310      E7800000 
 311              	.LVL31:
  21:src/buffer_CPP_API.cpp ****     __putc('\n');
 312              		.loc 1 21 5 is_stmt 1
 313              		.loc 1 21 11 is_stmt 0
 314 01bc 1305A000 		li	a0,10
 315 01c0 97000000 		call	__putc@plt
 315      E7800000 
 316              	.LVL32:
  22:src/buffer_CPP_API.cpp **** 
  23:src/buffer_CPP_API.cpp ****     mem_free(buffer);
 317              		.loc 1 23 5 is_stmt 1
 318              		.loc 1 23 13 is_stmt 0
 319 01c8 03B58400 		ld	a0,8(s1)
 320 01cc 97000000 		call	_Z8mem_freePv@plt
 320      E7800000 
 321              	.LVL33:
  24:src/buffer_CPP_API.cpp ****     delete itemAvailable;
 322              		.loc 1 24 5 is_stmt 1
 323              		.loc 1 24 12 is_stmt 0
 324 01d4 03B50402 		ld	a0,32(s1)
 325              		.loc 1 24 25
 326 01d8 63080500 		beqz	a0,.L15
 327              		.loc 1 24 12 discriminator 1
 328 01dc 83370500 		ld	a5,0(a0)
 329 01e0 83B78700 		ld	a5,8(a5)
 330 01e4 E7800700 		jalr	a5
 331              	.LVL34:
 332              	.L15:
  25:src/buffer_CPP_API.cpp ****     delete spaceAvailable;
 333              		.loc 1 25 5 is_stmt 1
 334              		.loc 1 25 12 is_stmt 0
 335 01e8 03B58401 		ld	a0,24(s1)
 336              		.loc 1 25 26
 337 01ec 63080500 		beqz	a0,.L16
 338              		.loc 1 25 12 discriminator 1
 339 01f0 83370500 		ld	a5,0(a0)
 340 01f4 83B78700 		ld	a5,8(a5)
 341 01f8 E7800700 		jalr	a5
 342              	.LVL35:
 343              	.L16:
  26:src/buffer_CPP_API.cpp ****     delete mutexTail;
GAS LISTING /tmp/ccQ1lyiA.s 			page 8


 344              		.loc 1 26 5 is_stmt 1
 345              		.loc 1 26 12 is_stmt 0
 346 01fc 03B50403 		ld	a0,48(s1)
 347              		.loc 1 26 21
 348 0200 63080500 		beqz	a0,.L17
 349              		.loc 1 26 12 discriminator 1
 350 0204 83370500 		ld	a5,0(a0)
 351 0208 83B78700 		ld	a5,8(a5)
 352 020c E7800700 		jalr	a5
 353              	.LVL36:
 354              	.L17:
  27:src/buffer_CPP_API.cpp ****     delete mutexHead;
 355              		.loc 1 27 5 is_stmt 1
 356              		.loc 1 27 12 is_stmt 0
 357 0210 03B58402 		ld	a0,40(s1)
 358              		.loc 1 27 21
 359 0214 63080500 		beqz	a0,.L12
 360              		.loc 1 27 12 discriminator 1
 361 0218 83370500 		ld	a5,0(a0)
 362 021c 83B78700 		ld	a5,8(a5)
 363 0220 E7800700 		jalr	a5
 364              	.LVL37:
 365              	.L12:
 366              	.LBE4:
  28:src/buffer_CPP_API.cpp **** 
  29:src/buffer_CPP_API.cpp **** }
 367              		.loc 1 29 1
 368 0224 83308101 		ld	ra,24(sp)
 369              		.cfi_restore 1
 370 0228 03340101 		ld	s0,16(sp)
 371              		.cfi_restore 8
 372              		.cfi_def_cfa 2, 32
 373 022c 83348100 		ld	s1,8(sp)
 374              		.cfi_restore 9
 375              	.LVL38:
 376 0230 13010102 		addi	sp,sp,32
 377              		.cfi_def_cfa_offset 0
 378 0234 67800000 		jr	ra
 379              		.cfi_endproc
 380              	.LFE6:
 381              		.section	.gcc_except_table
 382              	.LLSDA6:
 383 00a1 FF       		.byte	0xff
 384 00a2 FF       		.byte	0xff
 385 00a3 03       		.byte	0x3
 386 00a4 00       		.byte	0
 387              		.text
 389              		.globl	_ZN9BufferCPPD1Ev
 390              		.set	_ZN9BufferCPPD1Ev,_ZN9BufferCPPD2Ev
 391              		.align	2
 392              		.globl	_ZN9BufferCPP3putEi
 394              	_ZN9BufferCPP3putEi:
 395              	.LFB8:
  30:src/buffer_CPP_API.cpp **** 
  31:src/buffer_CPP_API.cpp **** void BufferCPP::put(int val) {
 396              		.loc 1 31 30 is_stmt 1
 397              		.cfi_startproc
GAS LISTING /tmp/ccQ1lyiA.s 			page 9


 398              	.LVL39:
 399 0238 130101FE 		addi	sp,sp,-32
 400              		.cfi_def_cfa_offset 32
 401 023c 233C1100 		sd	ra,24(sp)
 402 0240 23388100 		sd	s0,16(sp)
 403 0244 23349100 		sd	s1,8(sp)
 404 0248 23302101 		sd	s2,0(sp)
 405              		.cfi_offset 1, -8
 406              		.cfi_offset 8, -16
 407              		.cfi_offset 9, -24
 408              		.cfi_offset 18, -32
 409 024c 13040102 		addi	s0,sp,32
 410              		.cfi_def_cfa 8, 0
 411 0250 93040500 		mv	s1,a0
 412 0254 13890500 		mv	s2,a1
  32:src/buffer_CPP_API.cpp ****     spaceAvailable->wait();
 413              		.loc 1 32 5
 414              		.loc 1 32 25 is_stmt 0
 415 0258 03358501 		ld	a0,24(a0)
 416              	.LVL40:
 417 025c 97000000 		call	_ZN9Semaphore4waitEv@plt
 417      E7800000 
 418              	.LVL41:
  33:src/buffer_CPP_API.cpp **** 
  34:src/buffer_CPP_API.cpp ****     mutexTail->wait();
 419              		.loc 1 34 5 is_stmt 1
 420              		.loc 1 34 20 is_stmt 0
 421 0264 03B50403 		ld	a0,48(s1)
 422 0268 97000000 		call	_ZN9Semaphore4waitEv@plt
 422      E7800000 
 423              	.LVL42:
  35:src/buffer_CPP_API.cpp ****     buffer[tail] = val;
 424              		.loc 1 35 5 is_stmt 1
 425 0270 83B78400 		ld	a5,8(s1)
 426              		.loc 1 35 12 is_stmt 0
 427 0274 03A74401 		lw	a4,20(s1)
 428              		.loc 1 35 16
 429 0278 13172700 		slli	a4,a4,2
 430 027c B387E700 		add	a5,a5,a4
 431              		.loc 1 35 18
 432 0280 23A02701 		sw	s2,0(a5)
  36:src/buffer_CPP_API.cpp ****     tail = (tail + 1) % cap;
 433              		.loc 1 36 5 is_stmt 1
 434              		.loc 1 36 13 is_stmt 0
 435 0284 83A74401 		lw	a5,20(s1)
 436              		.loc 1 36 18
 437 0288 9B871700 		addiw	a5,a5,1
 438              		.loc 1 36 25
 439 028c 03A70400 		lw	a4,0(s1)
 440              		.loc 1 36 23
 441 0290 BBE7E702 		remw	a5,a5,a4
 442              		.loc 1 36 10
 443 0294 23AAF400 		sw	a5,20(s1)
  37:src/buffer_CPP_API.cpp ****     mutexTail->signal();
 444              		.loc 1 37 5 is_stmt 1
 445              		.loc 1 37 22 is_stmt 0
 446 0298 03B50403 		ld	a0,48(s1)
GAS LISTING /tmp/ccQ1lyiA.s 			page 10


 447 029c 97000000 		call	_ZN9Semaphore6signalEv@plt
 447      E7800000 
 448              	.LVL43:
  38:src/buffer_CPP_API.cpp **** 
  39:src/buffer_CPP_API.cpp ****     itemAvailable->signal();
 449              		.loc 1 39 5 is_stmt 1
 450              		.loc 1 39 26 is_stmt 0
 451 02a4 03B50402 		ld	a0,32(s1)
 452 02a8 97000000 		call	_ZN9Semaphore6signalEv@plt
 452      E7800000 
 453              	.LVL44:
  40:src/buffer_CPP_API.cpp **** 
  41:src/buffer_CPP_API.cpp **** }
 454              		.loc 1 41 1
 455 02b0 83308101 		ld	ra,24(sp)
 456              		.cfi_restore 1
 457 02b4 03340101 		ld	s0,16(sp)
 458              		.cfi_restore 8
 459              		.cfi_def_cfa 2, 32
 460 02b8 83348100 		ld	s1,8(sp)
 461              		.cfi_restore 9
 462              	.LVL45:
 463 02bc 03390100 		ld	s2,0(sp)
 464              		.cfi_restore 18
 465 02c0 13010102 		addi	sp,sp,32
 466              		.cfi_def_cfa_offset 0
 467 02c4 67800000 		jr	ra
 468              		.cfi_endproc
 469              	.LFE8:
 471              		.align	2
 472              		.globl	_ZN9BufferCPP3getEv
 474              	_ZN9BufferCPP3getEv:
 475              	.LFB9:
  42:src/buffer_CPP_API.cpp **** 
  43:src/buffer_CPP_API.cpp **** int BufferCPP::get() {
 476              		.loc 1 43 22 is_stmt 1
 477              		.cfi_startproc
 478              	.LVL46:
 479 02c8 130101FE 		addi	sp,sp,-32
 480              		.cfi_def_cfa_offset 32
 481 02cc 233C1100 		sd	ra,24(sp)
 482 02d0 23388100 		sd	s0,16(sp)
 483 02d4 23349100 		sd	s1,8(sp)
 484 02d8 23302101 		sd	s2,0(sp)
 485              		.cfi_offset 1, -8
 486              		.cfi_offset 8, -16
 487              		.cfi_offset 9, -24
 488              		.cfi_offset 18, -32
 489 02dc 13040102 		addi	s0,sp,32
 490              		.cfi_def_cfa 8, 0
 491 02e0 93040500 		mv	s1,a0
  44:src/buffer_CPP_API.cpp ****     itemAvailable->wait();
 492              		.loc 1 44 5
 493              		.loc 1 44 24 is_stmt 0
 494 02e4 03350502 		ld	a0,32(a0)
 495              	.LVL47:
 496 02e8 97000000 		call	_ZN9Semaphore4waitEv@plt
GAS LISTING /tmp/ccQ1lyiA.s 			page 11


 496      E7800000 
 497              	.LVL48:
  45:src/buffer_CPP_API.cpp **** 
  46:src/buffer_CPP_API.cpp ****     mutexHead->wait();
 498              		.loc 1 46 5 is_stmt 1
 499              		.loc 1 46 20 is_stmt 0
 500 02f0 03B58402 		ld	a0,40(s1)
 501 02f4 97000000 		call	_ZN9Semaphore4waitEv@plt
 501      E7800000 
 502              	.LVL49:
  47:src/buffer_CPP_API.cpp **** 
  48:src/buffer_CPP_API.cpp ****     int ret = buffer[head];
 503              		.loc 1 48 5 is_stmt 1
 504              		.loc 1 48 15 is_stmt 0
 505 02fc 03B78400 		ld	a4,8(s1)
 506              		.loc 1 48 22
 507 0300 83A70401 		lw	a5,16(s1)
 508              		.loc 1 48 26
 509 0304 93962700 		slli	a3,a5,2
 510 0308 3307D700 		add	a4,a4,a3
 511              		.loc 1 48 9
 512 030c 03290700 		lw	s2,0(a4)
 513              	.LVL50:
  49:src/buffer_CPP_API.cpp ****     head = (head + 1) % cap;
 514              		.loc 1 49 5 is_stmt 1
 515              		.loc 1 49 18 is_stmt 0
 516 0310 9B871700 		addiw	a5,a5,1
 517              		.loc 1 49 25
 518 0314 03A70400 		lw	a4,0(s1)
 519              		.loc 1 49 23
 520 0318 BBE7E702 		remw	a5,a5,a4
 521              		.loc 1 49 10
 522 031c 23A8F400 		sw	a5,16(s1)
  50:src/buffer_CPP_API.cpp ****     mutexHead->signal();
 523              		.loc 1 50 5 is_stmt 1
 524              		.loc 1 50 22 is_stmt 0
 525 0320 03B58402 		ld	a0,40(s1)
 526 0324 97000000 		call	_ZN9Semaphore6signalEv@plt
 526      E7800000 
 527              	.LVL51:
  51:src/buffer_CPP_API.cpp **** 
  52:src/buffer_CPP_API.cpp ****     spaceAvailable->signal();
 528              		.loc 1 52 5 is_stmt 1
 529              		.loc 1 52 27 is_stmt 0
 530 032c 03B58401 		ld	a0,24(s1)
 531 0330 97000000 		call	_ZN9Semaphore6signalEv@plt
 531      E7800000 
 532              	.LVL52:
  53:src/buffer_CPP_API.cpp **** 
  54:src/buffer_CPP_API.cpp ****     return ret;
 533              		.loc 1 54 5 is_stmt 1
  55:src/buffer_CPP_API.cpp **** }
 534              		.loc 1 55 1 is_stmt 0
 535 0338 13050900 		mv	a0,s2
 536 033c 83308101 		ld	ra,24(sp)
 537              		.cfi_restore 1
 538 0340 03340101 		ld	s0,16(sp)
GAS LISTING /tmp/ccQ1lyiA.s 			page 12


 539              		.cfi_restore 8
 540              		.cfi_def_cfa 2, 32
 541 0344 83348100 		ld	s1,8(sp)
 542              		.cfi_restore 9
 543              	.LVL53:
 544 0348 03390100 		ld	s2,0(sp)
 545              		.cfi_restore 18
 546              	.LVL54:
 547 034c 13010102 		addi	sp,sp,32
 548              		.cfi_def_cfa_offset 0
 549 0350 67800000 		jr	ra
 550              		.cfi_endproc
 551              	.LFE9:
 553              	.Letext0:
 554              		.file 2 "src/../h/../h/hw.h"
 555              		.file 3 "src/../h/buffer_CPP_API.hpp"
 556              		.file 4 "src/../h/../h/syscall_cpp.h"
 557              		.file 5 "src/../h/../h/syscall_c.h"
 558              		.file 6 "src/../h/console.h"
 559              		.file 7 "src/../h/print.h"
 2177              		.align	3
 2180              	DW.ref.__gxx_personality_v0:
 2181 0000 00000000 		.dword	__gxx_personality_v0
 2181      00000000 
 2182              		.ident	"GCC: (Ubuntu 9.4.0-1ubuntu1~20.04) 9.4.0"
 2183              		.section	.note.GNU-stack,"",@progbits
GAS LISTING /tmp/ccQ1lyiA.s 			page 13


DEFINED SYMBOLS
                            *ABS*:0000000000000000 buffer_CPP_API.cpp
     /tmp/ccQ1lyiA.s:9      .text:0000000000000000 _ZN9BufferCPPC2Ei
     /tmp/ccQ1lyiA.s:13     .text:0000000000000000 .L0 
     /tmp/ccQ1lyiA.s:2180   .data.rel.local.DW.ref.__gxx_personality_v0:0000000000000000 DW.ref.__gxx_personality_v0
     /tmp/ccQ1lyiA.s:17     .text:0000000000000000 .L0 
     /tmp/ccQ1lyiA.s:18     .text:0000000000000004 .L0 
     /tmp/ccQ1lyiA.s:23     .text:0000000000000014 .L0 
     /tmp/ccQ1lyiA.s:24     .text:0000000000000014 .L0 
     /tmp/ccQ1lyiA.s:25     .text:0000000000000014 .L0 
     /tmp/ccQ1lyiA.s:26     .text:0000000000000014 .L0 
     /tmp/ccQ1lyiA.s:28     .text:0000000000000018 .L0 
     /tmp/ccQ1lyiA.s:32     .text:000000000000001c .L0 
     /tmp/ccQ1lyiA.s:36     .text:0000000000000028 .L0 
     /tmp/ccQ1lyiA.s:37     .text:0000000000000028 .L0 
     /tmp/ccQ1lyiA.s:43     .text:0000000000000034 .L0 
     /tmp/ccQ1lyiA.s:45     .text:0000000000000038 .L0 
     /tmp/ccQ1lyiA.s:46     .text:0000000000000038 .L0 
     /tmp/ccQ1lyiA.s:57     .text:0000000000000054 .L0 
     /tmp/ccQ1lyiA.s:59     .text:0000000000000058 .L0 
     /tmp/ccQ1lyiA.s:60     .text:0000000000000058 .L0 
     /tmp/ccQ1lyiA.s:72     .text:0000000000000074 .L0 
     /tmp/ccQ1lyiA.s:74     .text:0000000000000078 .L0 
     /tmp/ccQ1lyiA.s:75     .text:0000000000000078 .L0 
     /tmp/ccQ1lyiA.s:87     .text:0000000000000094 .L0 
     /tmp/ccQ1lyiA.s:89     .text:0000000000000098 .L0 
     /tmp/ccQ1lyiA.s:90     .text:0000000000000098 .L0 
     /tmp/ccQ1lyiA.s:102    .text:00000000000000b4 .L0 
     /tmp/ccQ1lyiA.s:105    .text:00000000000000b8 .L0 
     /tmp/ccQ1lyiA.s:106    .text:00000000000000bc .L0 
     /tmp/ccQ1lyiA.s:107    .text:00000000000000bc .L0 
     /tmp/ccQ1lyiA.s:109    .text:00000000000000c0 .L0 
     /tmp/ccQ1lyiA.s:110    .text:00000000000000c0 .L0 
     /tmp/ccQ1lyiA.s:112    .text:00000000000000c4 .L0 
     /tmp/ccQ1lyiA.s:115    .text:00000000000000c8 .L0 
     /tmp/ccQ1lyiA.s:117    .text:00000000000000cc .L0 
     /tmp/ccQ1lyiA.s:121    .text:00000000000000d0 .L0 
     /tmp/ccQ1lyiA.s:126    .text:00000000000000d4 .L0 
     /tmp/ccQ1lyiA.s:138    .text:00000000000000f0 .L0 
     /tmp/ccQ1lyiA.s:150    .text:000000000000010c .L0 
     /tmp/ccQ1lyiA.s:162    .text:0000000000000128 .L0 
     /tmp/ccQ1lyiA.s:171    .text:0000000000000140 .L0 
     /tmp/ccQ1lyiA.s:9      .text:0000000000000000 _ZN9BufferCPPC1Ei
     /tmp/ccQ1lyiA.s:240    .text:0000000000000140 _ZN9BufferCPPD2Ev
     /tmp/ccQ1lyiA.s:243    .text:0000000000000140 .L0 
     /tmp/ccQ1lyiA.s:247    .text:0000000000000140 .L0 
     /tmp/ccQ1lyiA.s:248    .text:0000000000000144 .L0 
     /tmp/ccQ1lyiA.s:252    .text:0000000000000150 .L0 
     /tmp/ccQ1lyiA.s:253    .text:0000000000000150 .L0 
     /tmp/ccQ1lyiA.s:254    .text:0000000000000150 .L0 
     /tmp/ccQ1lyiA.s:256    .text:0000000000000154 .L0 
     /tmp/ccQ1lyiA.s:260    .text:0000000000000158 .L0 
     /tmp/ccQ1lyiA.s:261    .text:0000000000000158 .L0 
     /tmp/ccQ1lyiA.s:266    .text:0000000000000164 .L0 
     /tmp/ccQ1lyiA.s:267    .text:0000000000000164 .L0 
     /tmp/ccQ1lyiA.s:272    .text:0000000000000174 .L0 
     /tmp/ccQ1lyiA.s:273    .text:0000000000000174 .L0 
GAS LISTING /tmp/ccQ1lyiA.s 			page 14


     /tmp/ccQ1lyiA.s:274    .text:0000000000000174 .L0 
     /tmp/ccQ1lyiA.s:276    .text:0000000000000178 .L0 
     /tmp/ccQ1lyiA.s:278    .text:000000000000017c .L0 
     /tmp/ccQ1lyiA.s:281    .text:0000000000000180 .L0 
     /tmp/ccQ1lyiA.s:282    .text:0000000000000180 .L0 
     /tmp/ccQ1lyiA.s:284    .text:0000000000000184 .L0 
     /tmp/ccQ1lyiA.s:288    .text:000000000000018c .L0 
     /tmp/ccQ1lyiA.s:289    .text:000000000000018c .L0 
     /tmp/ccQ1lyiA.s:293    .text:0000000000000198 .L0 
     /tmp/ccQ1lyiA.s:294    .text:0000000000000198 .L0 
     /tmp/ccQ1lyiA.s:296    .text:000000000000019c .L0 
     /tmp/ccQ1lyiA.s:298    .text:00000000000001a0 .L0 
     /tmp/ccQ1lyiA.s:300    .text:00000000000001a4 .L0 
     /tmp/ccQ1lyiA.s:302    .text:00000000000001a8 .L0 
     /tmp/ccQ1lyiA.s:305    .text:00000000000001ac .L0 
     /tmp/ccQ1lyiA.s:308    .text:00000000000001b0 .L0 
     /tmp/ccQ1lyiA.s:309    .text:00000000000001b0 .L0 
     /tmp/ccQ1lyiA.s:313    .text:00000000000001bc .L0 
     /tmp/ccQ1lyiA.s:314    .text:00000000000001bc .L0 
     /tmp/ccQ1lyiA.s:318    .text:00000000000001c8 .L0 
     /tmp/ccQ1lyiA.s:319    .text:00000000000001c8 .L0 
     /tmp/ccQ1lyiA.s:323    .text:00000000000001d4 .L0 
     /tmp/ccQ1lyiA.s:324    .text:00000000000001d4 .L0 
     /tmp/ccQ1lyiA.s:326    .text:00000000000001d8 .L0 
     /tmp/ccQ1lyiA.s:328    .text:00000000000001dc .L0 
     /tmp/ccQ1lyiA.s:334    .text:00000000000001e8 .L0 
     /tmp/ccQ1lyiA.s:335    .text:00000000000001e8 .L0 
     /tmp/ccQ1lyiA.s:337    .text:00000000000001ec .L0 
     /tmp/ccQ1lyiA.s:339    .text:00000000000001f0 .L0 
     /tmp/ccQ1lyiA.s:345    .text:00000000000001fc .L0 
     /tmp/ccQ1lyiA.s:346    .text:00000000000001fc .L0 
     /tmp/ccQ1lyiA.s:348    .text:0000000000000200 .L0 
     /tmp/ccQ1lyiA.s:350    .text:0000000000000204 .L0 
     /tmp/ccQ1lyiA.s:356    .text:0000000000000210 .L0 
     /tmp/ccQ1lyiA.s:357    .text:0000000000000210 .L0 
     /tmp/ccQ1lyiA.s:359    .text:0000000000000214 .L0 
     /tmp/ccQ1lyiA.s:361    .text:0000000000000218 .L0 
     /tmp/ccQ1lyiA.s:368    .text:0000000000000224 .L0 
     /tmp/ccQ1lyiA.s:369    .text:0000000000000228 .L0 
     /tmp/ccQ1lyiA.s:371    .text:000000000000022c .L0 
     /tmp/ccQ1lyiA.s:372    .text:000000000000022c .L0 
     /tmp/ccQ1lyiA.s:374    .text:0000000000000230 .L0 
     /tmp/ccQ1lyiA.s:377    .text:0000000000000234 .L0 
     /tmp/ccQ1lyiA.s:379    .text:0000000000000238 .L0 
     /tmp/ccQ1lyiA.s:240    .text:0000000000000140 _ZN9BufferCPPD1Ev
     /tmp/ccQ1lyiA.s:394    .text:0000000000000238 _ZN9BufferCPP3putEi
     /tmp/ccQ1lyiA.s:397    .text:0000000000000238 .L0 
     /tmp/ccQ1lyiA.s:399    .text:0000000000000238 .L0 
     /tmp/ccQ1lyiA.s:400    .text:000000000000023c .L0 
     /tmp/ccQ1lyiA.s:405    .text:000000000000024c .L0 
     /tmp/ccQ1lyiA.s:406    .text:000000000000024c .L0 
     /tmp/ccQ1lyiA.s:407    .text:000000000000024c .L0 
     /tmp/ccQ1lyiA.s:408    .text:000000000000024c .L0 
     /tmp/ccQ1lyiA.s:410    .text:0000000000000250 .L0 
     /tmp/ccQ1lyiA.s:414    .text:0000000000000258 .L0 
     /tmp/ccQ1lyiA.s:415    .text:0000000000000258 .L0 
     /tmp/ccQ1lyiA.s:420    .text:0000000000000264 .L0 
GAS LISTING /tmp/ccQ1lyiA.s 			page 15


     /tmp/ccQ1lyiA.s:421    .text:0000000000000264 .L0 
     /tmp/ccQ1lyiA.s:425    .text:0000000000000270 .L0 
     /tmp/ccQ1lyiA.s:427    .text:0000000000000274 .L0 
     /tmp/ccQ1lyiA.s:429    .text:0000000000000278 .L0 
     /tmp/ccQ1lyiA.s:432    .text:0000000000000280 .L0 
     /tmp/ccQ1lyiA.s:434    .text:0000000000000284 .L0 
     /tmp/ccQ1lyiA.s:435    .text:0000000000000284 .L0 
     /tmp/ccQ1lyiA.s:437    .text:0000000000000288 .L0 
     /tmp/ccQ1lyiA.s:439    .text:000000000000028c .L0 
     /tmp/ccQ1lyiA.s:441    .text:0000000000000290 .L0 
     /tmp/ccQ1lyiA.s:443    .text:0000000000000294 .L0 
     /tmp/ccQ1lyiA.s:445    .text:0000000000000298 .L0 
     /tmp/ccQ1lyiA.s:446    .text:0000000000000298 .L0 
     /tmp/ccQ1lyiA.s:450    .text:00000000000002a4 .L0 
     /tmp/ccQ1lyiA.s:451    .text:00000000000002a4 .L0 
     /tmp/ccQ1lyiA.s:455    .text:00000000000002b0 .L0 
     /tmp/ccQ1lyiA.s:456    .text:00000000000002b4 .L0 
     /tmp/ccQ1lyiA.s:458    .text:00000000000002b8 .L0 
     /tmp/ccQ1lyiA.s:459    .text:00000000000002b8 .L0 
     /tmp/ccQ1lyiA.s:461    .text:00000000000002bc .L0 
     /tmp/ccQ1lyiA.s:464    .text:00000000000002c0 .L0 
     /tmp/ccQ1lyiA.s:466    .text:00000000000002c4 .L0 
     /tmp/ccQ1lyiA.s:468    .text:00000000000002c8 .L0 
     /tmp/ccQ1lyiA.s:474    .text:00000000000002c8 _ZN9BufferCPP3getEv
     /tmp/ccQ1lyiA.s:477    .text:00000000000002c8 .L0 
     /tmp/ccQ1lyiA.s:479    .text:00000000000002c8 .L0 
     /tmp/ccQ1lyiA.s:480    .text:00000000000002cc .L0 
     /tmp/ccQ1lyiA.s:485    .text:00000000000002dc .L0 
     /tmp/ccQ1lyiA.s:486    .text:00000000000002dc .L0 
     /tmp/ccQ1lyiA.s:487    .text:00000000000002dc .L0 
     /tmp/ccQ1lyiA.s:488    .text:00000000000002dc .L0 
     /tmp/ccQ1lyiA.s:490    .text:00000000000002e0 .L0 
     /tmp/ccQ1lyiA.s:493    .text:00000000000002e4 .L0 
     /tmp/ccQ1lyiA.s:494    .text:00000000000002e4 .L0 
     /tmp/ccQ1lyiA.s:499    .text:00000000000002f0 .L0 
     /tmp/ccQ1lyiA.s:500    .text:00000000000002f0 .L0 
     /tmp/ccQ1lyiA.s:504    .text:00000000000002fc .L0 
     /tmp/ccQ1lyiA.s:505    .text:00000000000002fc .L0 
     /tmp/ccQ1lyiA.s:507    .text:0000000000000300 .L0 
     /tmp/ccQ1lyiA.s:509    .text:0000000000000304 .L0 
     /tmp/ccQ1lyiA.s:512    .text:000000000000030c .L0 
     /tmp/ccQ1lyiA.s:515    .text:0000000000000310 .L0 
     /tmp/ccQ1lyiA.s:516    .text:0000000000000310 .L0 
     /tmp/ccQ1lyiA.s:518    .text:0000000000000314 .L0 
     /tmp/ccQ1lyiA.s:520    .text:0000000000000318 .L0 
     /tmp/ccQ1lyiA.s:522    .text:000000000000031c .L0 
     /tmp/ccQ1lyiA.s:524    .text:0000000000000320 .L0 
     /tmp/ccQ1lyiA.s:525    .text:0000000000000320 .L0 
     /tmp/ccQ1lyiA.s:529    .text:000000000000032c .L0 
     /tmp/ccQ1lyiA.s:530    .text:000000000000032c .L0 
     /tmp/ccQ1lyiA.s:534    .text:0000000000000338 .L0 
     /tmp/ccQ1lyiA.s:535    .text:0000000000000338 .L0 
     /tmp/ccQ1lyiA.s:537    .text:0000000000000340 .L0 
     /tmp/ccQ1lyiA.s:539    .text:0000000000000344 .L0 
     /tmp/ccQ1lyiA.s:540    .text:0000000000000344 .L0 
     /tmp/ccQ1lyiA.s:542    .text:0000000000000348 .L0 
     /tmp/ccQ1lyiA.s:545    .text:000000000000034c .L0 
GAS LISTING /tmp/ccQ1lyiA.s 			page 16


     /tmp/ccQ1lyiA.s:548    .text:0000000000000350 .L0 
     /tmp/ccQ1lyiA.s:550    .text:0000000000000354 .L0 
     /tmp/ccQ1lyiA.s:560    .text:0000000000000354 .L0 
     /tmp/ccQ1lyiA.s:234    .rodata.str1.8:0000000000000000 .LC0
     /tmp/ccQ1lyiA.s:267    .text:0000000000000164 .L0 
     /tmp/ccQ1lyiA.s:306    .text:00000000000001b0 .L13
     /tmp/ccQ1lyiA.s:270    .text:0000000000000174 .L14
     /tmp/ccQ1lyiA.s:332    .text:00000000000001e8 .L15
     /tmp/ccQ1lyiA.s:343    .text:00000000000001fc .L16
     /tmp/ccQ1lyiA.s:354    .text:0000000000000210 .L17
     /tmp/ccQ1lyiA.s:365    .text:0000000000000224 .L12
     /tmp/ccQ1lyiA.s:39     .text:000000000000002c .LEHB0
     /tmp/ccQ1lyiA.s:10     .text:0000000000000000 .LFB3
     /tmp/ccQ1lyiA.s:49     .text:0000000000000044 .LEHE0
     /tmp/ccQ1lyiA.s:52     .text:000000000000004c .LEHB1
     /tmp/ccQ1lyiA.s:55     .text:0000000000000054 .LEHE1
     /tmp/ccQ1lyiA.s:120    .text:00000000000000d0 .L6
     /tmp/ccQ1lyiA.s:61     .text:000000000000005c .LEHB2
     /tmp/ccQ1lyiA.s:64     .text:0000000000000064 .LEHE2
     /tmp/ccQ1lyiA.s:67     .text:000000000000006c .LEHB3
     /tmp/ccQ1lyiA.s:70     .text:0000000000000074 .LEHE3
     /tmp/ccQ1lyiA.s:134    .text:00000000000000ec .L7
     /tmp/ccQ1lyiA.s:76     .text:000000000000007c .LEHB4
     /tmp/ccQ1lyiA.s:79     .text:0000000000000084 .LEHE4
     /tmp/ccQ1lyiA.s:82     .text:000000000000008c .LEHB5
     /tmp/ccQ1lyiA.s:85     .text:0000000000000094 .LEHE5
     /tmp/ccQ1lyiA.s:146    .text:0000000000000108 .L8
     /tmp/ccQ1lyiA.s:91     .text:000000000000009c .LEHB6
     /tmp/ccQ1lyiA.s:94     .text:00000000000000a4 .LEHE6
     /tmp/ccQ1lyiA.s:97     .text:00000000000000ac .LEHB7
     /tmp/ccQ1lyiA.s:100    .text:00000000000000b4 .LEHE7
     /tmp/ccQ1lyiA.s:158    .text:0000000000000124 .L9
     /tmp/ccQ1lyiA.s:130    .text:00000000000000e4 .LEHB8
     /tmp/ccQ1lyiA.s:133    .text:00000000000000ec .LEHE8
     /tmp/ccQ1lyiA.s:142    .text:0000000000000100 .LEHB9
     /tmp/ccQ1lyiA.s:145    .text:0000000000000108 .LEHE9
     /tmp/ccQ1lyiA.s:154    .text:000000000000011c .LEHB10
     /tmp/ccQ1lyiA.s:157    .text:0000000000000124 .LEHE10
     /tmp/ccQ1lyiA.s:166    .text:0000000000000138 .LEHB11
     /tmp/ccQ1lyiA.s:169    .text:0000000000000140 .LEHE11
     /tmp/ccQ1lyiA.s:1273   .debug_abbrev:0000000000000000 .Ldebug_abbrev0
     /tmp/ccQ1lyiA.s:2112   .debug_str:0000000000000181 .LASF50
     /tmp/ccQ1lyiA.s:2132   .debug_str:00000000000002bd .LASF51
     /tmp/ccQ1lyiA.s:2162   .debug_str:0000000000000386 .LASF52
     /tmp/ccQ1lyiA.s:5      .text:0000000000000000 .Ltext0
     /tmp/ccQ1lyiA.s:553    .text:0000000000000354 .Letext0
     /tmp/ccQ1lyiA.s:2058   .debug_line:0000000000000000 .Ldebug_line0
     /tmp/ccQ1lyiA.s:2126   .debug_str:00000000000002a1 .LASF0
     /tmp/ccQ1lyiA.s:2102   .debug_str:0000000000000137 .LASF1
     /tmp/ccQ1lyiA.s:2096   .debug_str:0000000000000112 .LASF2
     /tmp/ccQ1lyiA.s:2076   .debug_str:000000000000006a .LASF4
     /tmp/ccQ1lyiA.s:2100   .debug_str:0000000000000125 .LASF3
     /tmp/ccQ1lyiA.s:2066   .debug_str:000000000000002c .LASF5
     /tmp/ccQ1lyiA.s:2062   .debug_str:0000000000000005 .LASF6
     /tmp/ccQ1lyiA.s:2086   .debug_str:00000000000000bd .LASF7
     /tmp/ccQ1lyiA.s:2138   .debug_str:00000000000002e6 .LASF8
     /tmp/ccQ1lyiA.s:2072   .debug_str:000000000000004a .LASF9
GAS LISTING /tmp/ccQ1lyiA.s 			page 17


     /tmp/ccQ1lyiA.s:2172   .debug_str:00000000000003d2 .LASF10
     /tmp/ccQ1lyiA.s:2090   .debug_str:00000000000000de .LASF11
     /tmp/ccQ1lyiA.s:2158   .debug_str:000000000000036c .LASF12
     /tmp/ccQ1lyiA.s:2144   .debug_str:0000000000000319 .LASF13
     /tmp/ccQ1lyiA.s:2106   .debug_str:0000000000000159 .LASF14
     /tmp/ccQ1lyiA.s:2080   .debug_str:0000000000000084 .LASF15
     /tmp/ccQ1lyiA.s:2140   .debug_str:00000000000002f6 .LASF16
     /tmp/ccQ1lyiA.s:2130   .debug_str:00000000000002b8 .LASF17
     /tmp/ccQ1lyiA.s:2108   .debug_str:0000000000000165 .LASF25
     /tmp/ccQ1lyiA.s:2150   .debug_str:0000000000000344 .LASF18
     /tmp/ccQ1lyiA.s:2118   .debug_str:0000000000000274 .LASF19
     /tmp/ccQ1lyiA.s:2152   .debug_str:000000000000034b .LASF20
     /tmp/ccQ1lyiA.s:2104   .debug_str:000000000000014a .LASF21
     /tmp/ccQ1lyiA.s:2084   .debug_str:00000000000000af .LASF22
     /tmp/ccQ1lyiA.s:2128   .debug_str:00000000000002ae .LASF23
     /tmp/ccQ1lyiA.s:2168   .debug_str:00000000000003bc .LASF24
     /tmp/ccQ1lyiA.s:2092   .debug_str:00000000000000ed .LASF27
     /tmp/ccQ1lyiA.s:2136   .debug_str:00000000000002db .LASF26
     /tmp/ccQ1lyiA.s:2148   .debug_str:0000000000000332 .LASF28
     /tmp/ccQ1lyiA.s:2120   .debug_str:0000000000000279 .LASF29
     /tmp/ccQ1lyiA.s:2064   .debug_str:0000000000000018 .LASF30
     /tmp/ccQ1lyiA.s:2164   .debug_str:00000000000003a4 .LASF53
     /tmp/ccQ1lyiA.s:2082   .debug_str:000000000000009a .LASF31
     /tmp/ccQ1lyiA.s:2122   .debug_str:000000000000028d .LASF33
     /tmp/ccQ1lyiA.s:2114   .debug_str:0000000000000245 .LASF32
     /tmp/ccQ1lyiA.s:2070   .debug_str:0000000000000043 .LASF34
     /tmp/ccQ1lyiA.s:2156   .debug_str:000000000000035a .LASF35
     /tmp/ccQ1lyiA.s:2142   .debug_str:000000000000030c .LASF36
     /tmp/ccQ1lyiA.s:2078   .debug_str:0000000000000071 .LASF37
     /tmp/ccQ1lyiA.s:2068   .debug_str:0000000000000033 .LASF38
     /tmp/ccQ1lyiA.s:475    .text:00000000000002c8 .LFB9
     /tmp/ccQ1lyiA.s:551    .text:0000000000000354 .LFE9
     /tmp/ccQ1lyiA.s:2098   .debug_str:0000000000000120 .LASF39
     /tmp/ccQ1lyiA.s:1882   .debug_loc:0000000000000000 .LLST6
     /tmp/ccQ1lyiA.s:1900   .debug_loc:000000000000004c .LLST7
     /tmp/ccQ1lyiA.s:497    .text:00000000000002f0 .LVL48
     /tmp/ccQ1lyiA.s:502    .text:00000000000002fc .LVL49
     /tmp/ccQ1lyiA.s:527    .text:000000000000032c .LVL51
     /tmp/ccQ1lyiA.s:532    .text:0000000000000338 .LVL52
     /tmp/ccQ1lyiA.s:395    .text:0000000000000238 .LFB8
     /tmp/ccQ1lyiA.s:469    .text:00000000000002c8 .LFE8
     /tmp/ccQ1lyiA.s:1911   .debug_loc:0000000000000082 .LLST4
     /tmp/ccQ1lyiA.s:1929   .debug_loc:00000000000000ce .LLST5
     /tmp/ccQ1lyiA.s:418    .text:0000000000000264 .LVL41
     /tmp/ccQ1lyiA.s:423    .text:0000000000000270 .LVL42
     /tmp/ccQ1lyiA.s:448    .text:00000000000002a4 .LVL43
     /tmp/ccQ1lyiA.s:453    .text:00000000000002b0 .LVL44
     /tmp/ccQ1lyiA.s:2154   .debug_str:0000000000000350 .LASF40
     /tmp/ccQ1lyiA.s:2110   .debug_str:000000000000016f .LASF41
     /tmp/ccQ1lyiA.s:241    .text:0000000000000140 .LFB6
     /tmp/ccQ1lyiA.s:380    .text:0000000000000238 .LFE6
     /tmp/ccQ1lyiA.s:1943   .debug_loc:0000000000000107 .LLST2
     /tmp/ccQ1lyiA.s:291    .text:0000000000000198 .LVL30
     /tmp/ccQ1lyiA.s:279    .text:0000000000000180 .LBB5
     /tmp/ccQ1lyiA.s:303    .text:00000000000001ac .LBE5
     /tmp/ccQ1lyiA.s:1961   .debug_loc:0000000000000153 .LLST3
     /tmp/ccQ1lyiA.s:264    .text:0000000000000164 .LVL27
GAS LISTING /tmp/ccQ1lyiA.s 			page 18


     /tmp/ccQ1lyiA.s:269    .text:0000000000000174 .LVL28
     /tmp/ccQ1lyiA.s:311    .text:00000000000001bc .LVL31
     /tmp/ccQ1lyiA.s:316    .text:00000000000001c8 .LVL32
     /tmp/ccQ1lyiA.s:321    .text:00000000000001d4 .LVL33
     /tmp/ccQ1lyiA.s:2060   .debug_str:0000000000000000 .LASF54
     /tmp/ccQ1lyiA.s:2074   .debug_str:0000000000000058 .LASF42
     /tmp/ccQ1lyiA.s:172    .text:0000000000000140 .LFE3
     /tmp/ccQ1lyiA.s:1969   .debug_loc:0000000000000177 .LLST0
     /tmp/ccQ1lyiA.s:2031   .debug_loc:0000000000000267 .LLST1
     /tmp/ccQ1lyiA.s:41     .text:0000000000000034 .LVL2
     /tmp/ccQ1lyiA.s:48     .text:0000000000000044 .LVL3
     /tmp/ccQ1lyiA.s:54     .text:0000000000000054 .LVL4
     /tmp/ccQ1lyiA.s:63     .text:0000000000000064 .LVL5
     /tmp/ccQ1lyiA.s:69     .text:0000000000000074 .LVL6
     /tmp/ccQ1lyiA.s:78     .text:0000000000000084 .LVL7
     /tmp/ccQ1lyiA.s:84     .text:0000000000000094 .LVL8
     /tmp/ccQ1lyiA.s:93     .text:00000000000000a4 .LVL9
     /tmp/ccQ1lyiA.s:99     .text:00000000000000b4 .LVL10
     /tmp/ccQ1lyiA.s:128    .text:00000000000000e0 .LVL14
     /tmp/ccQ1lyiA.s:132    .text:00000000000000ec .LVL15
     /tmp/ccQ1lyiA.s:140    .text:00000000000000fc .LVL17
     /tmp/ccQ1lyiA.s:144    .text:0000000000000108 .LVL18
     /tmp/ccQ1lyiA.s:152    .text:0000000000000118 .LVL20
     /tmp/ccQ1lyiA.s:156    .text:0000000000000124 .LVL21
     /tmp/ccQ1lyiA.s:164    .text:0000000000000134 .LVL23
     /tmp/ccQ1lyiA.s:168    .text:0000000000000140 .LVL24
     /tmp/ccQ1lyiA.s:2134   .debug_str:00000000000002d4 .LASF43
     /tmp/ccQ1lyiA.s:2094   .debug_str:00000000000000ff .LASF44
     /tmp/ccQ1lyiA.s:2170   .debug_str:00000000000003c6 .LASF45
     /tmp/ccQ1lyiA.s:2088   .debug_str:00000000000000d0 .LASF46
     /tmp/ccQ1lyiA.s:2146   .debug_str:0000000000000329 .LASF47
     /tmp/ccQ1lyiA.s:2166   .debug_str:00000000000003ae .LASF48
     /tmp/ccQ1lyiA.s:2160   .debug_str:000000000000037c .LASF49
     /tmp/ccQ1lyiA.s:2124   .debug_str:0000000000000292 .LASF55
     /tmp/ccQ1lyiA.s:2116   .debug_str:000000000000025c .LASF56
     /tmp/ccQ1lyiA.s:478    .text:00000000000002c8 .LVL46
     /tmp/ccQ1lyiA.s:495    .text:00000000000002e8 .LVL47
     /tmp/ccQ1lyiA.s:543    .text:0000000000000348 .LVL53
     /tmp/ccQ1lyiA.s:513    .text:0000000000000310 .LVL50
     /tmp/ccQ1lyiA.s:546    .text:000000000000034c .LVL54
     /tmp/ccQ1lyiA.s:398    .text:0000000000000238 .LVL39
     /tmp/ccQ1lyiA.s:416    .text:000000000000025c .LVL40
     /tmp/ccQ1lyiA.s:462    .text:00000000000002bc .LVL45
     /tmp/ccQ1lyiA.s:246    .text:0000000000000140 .LVL25
     /tmp/ccQ1lyiA.s:262    .text:000000000000015c .LVL26
     /tmp/ccQ1lyiA.s:375    .text:0000000000000230 .LVL38
     /tmp/ccQ1lyiA.s:286    .text:000000000000018c .LVL29
     /tmp/ccQ1lyiA.s:16     .text:0000000000000000 .LVL0
     /tmp/ccQ1lyiA.s:38     .text:000000000000002c .LVL1
     /tmp/ccQ1lyiA.s:113    .text:00000000000000c4 .LVL11
     /tmp/ccQ1lyiA.s:119    .text:00000000000000d0 .LVL12
     /tmp/ccQ1lyiA.s:123    .text:00000000000000d4 .LVL13
     /tmp/ccQ1lyiA.s:136    .text:00000000000000f0 .LVL16
     /tmp/ccQ1lyiA.s:148    .text:000000000000010c .LVL19
     /tmp/ccQ1lyiA.s:160    .text:0000000000000128 .LVL22
     /tmp/ccQ1lyiA.s:561    .debug_info:0000000000000000 .Ldebug_info0
     /tmp/ccQ1lyiA.s:175    .gcc_except_table:0000000000000000 .LLSDA3
GAS LISTING /tmp/ccQ1lyiA.s 			page 19


     /tmp/ccQ1lyiA.s:382    .gcc_except_table:00000000000000a1 .LLSDA6

UNDEFINED SYMBOLS
_Z9mem_allocm
_ZN9SemaphorenwEm
_ZN9SemaphoreC1Ej
_ZN9SemaphoredlEPv
_Unwind_Resume
__gxx_personality_v0
__putc
_Z11printStringPKc
_Z8mem_freePv
_ZN9Semaphore4waitEv
_ZN9Semaphore6signalEv
