GAS LISTING /tmp/ccSz6U31.s 			page 1


   1              		.file	"buffer.cpp"
   2              		.option pic
   3              		.option norelax
   4              		.text
   5              	.Ltext0:
   6              		.align	2
   7              		.globl	_ZN6BufferC2Ei
   9              	_ZN6BufferC2Ei:
  10              	.LFB1:
  11              		.file 1 "src/buffer.cpp"
   1:src/buffer.cpp **** #include "../h/buffer.hpp"
   2:src/buffer.cpp **** #include "../h/console.h"
   3:src/buffer.cpp **** 
   4:src/buffer.cpp **** Buffer::Buffer(int _cap) : cap(_cap), head(0), tail(0) {
  12              		.loc 1 4 1
  13              		.cfi_startproc
  14              	.LVL0:
  15 0000 130101FE 		addi	sp,sp,-32
  16              		.cfi_def_cfa_offset 32
  17 0004 233C1100 		sd	ra,24(sp)
  18 0008 23388100 		sd	s0,16(sp)
  19 000c 23349100 		sd	s1,8(sp)
  20              		.cfi_offset 1, -8
  21              		.cfi_offset 8, -16
  22              		.cfi_offset 9, -24
  23 0010 13040102 		addi	s0,sp,32
  24              		.cfi_def_cfa 8, 0
  25 0014 93040500 		mv	s1,a0
  26              	.LBB2:
  27              		.loc 1 4 54 is_stmt 0
  28 0018 2320B500 		sw	a1,0(a0)
  29 001c 23280500 		sw	zero,16(a0)
  30 0020 232A0500 		sw	zero,20(a0)
   5:src/buffer.cpp ****     buffer = (int *)mem_alloc(sizeof(int) * cap);
  31              		.loc 1 5 5 is_stmt 1
  32              		.loc 1 5 30 is_stmt 0
  33 0024 13952500 		slli	a0,a1,2
  34              	.LVL1:
  35 0028 97000000 		call	_Z9mem_allocm@plt
  35      E7800000 
  36              	.LVL2:
  37              		.loc 1 5 12
  38 0030 23B4A400 		sd	a0,8(s1)
   6:src/buffer.cpp ****     sem_open(&itemAvailable, 0);
  39              		.loc 1 6 5 is_stmt 1
  40              		.loc 1 6 13 is_stmt 0
  41 0034 93050000 		li	a1,0
  42 0038 13850402 		addi	a0,s1,32
  43 003c 97000000 		call	_Z8sem_openPP3SCBj@plt
  43      E7800000 
  44              	.LVL3:
   7:src/buffer.cpp ****     sem_open(&spaceAvailable, cap);
  45              		.loc 1 7 5 is_stmt 1
  46              		.loc 1 7 13 is_stmt 0
  47 0044 83A50400 		lw	a1,0(s1)
  48 0048 13858401 		addi	a0,s1,24
  49 004c 97000000 		call	_Z8sem_openPP3SCBj@plt
GAS LISTING /tmp/ccSz6U31.s 			page 2


  49      E7800000 
  50              	.LVL4:
   8:src/buffer.cpp ****     sem_open(&mutexHead, 1);
  51              		.loc 1 8 5 is_stmt 1
  52              		.loc 1 8 13 is_stmt 0
  53 0054 93051000 		li	a1,1
  54 0058 13858402 		addi	a0,s1,40
  55 005c 97000000 		call	_Z8sem_openPP3SCBj@plt
  55      E7800000 
  56              	.LVL5:
   9:src/buffer.cpp ****     sem_open(&mutexTail, 1);
  57              		.loc 1 9 5 is_stmt 1
  58              		.loc 1 9 13 is_stmt 0
  59 0064 93051000 		li	a1,1
  60 0068 13850403 		addi	a0,s1,48
  61 006c 97000000 		call	_Z8sem_openPP3SCBj@plt
  61      E7800000 
  62              	.LVL6:
  63              	.LBE2:
  10:src/buffer.cpp **** }
  64              		.loc 1 10 1
  65 0074 83308101 		ld	ra,24(sp)
  66              		.cfi_restore 1
  67 0078 03340101 		ld	s0,16(sp)
  68              		.cfi_restore 8
  69              		.cfi_def_cfa 2, 32
  70 007c 83348100 		ld	s1,8(sp)
  71              		.cfi_restore 9
  72              	.LVL7:
  73 0080 13010102 		addi	sp,sp,32
  74              		.cfi_def_cfa_offset 0
  75 0084 67800000 		jr	ra
  76              		.cfi_endproc
  77              	.LFE1:
  79              		.globl	_ZN6BufferC1Ei
  80              		.set	_ZN6BufferC1Ei,_ZN6BufferC2Ei
  81              		.section	.rodata.str1.8,"aMS",@progbits,1
  82              		.align	3
  83              	.LC0:
  84 0000 42756666 		.string	"Buffer deleted!\n"
  84      65722064 
  84      656C6574 
  84      6564210A 
  84      00
  85              		.text
  86              		.align	2
  87              		.globl	_ZN6BufferD2Ev
  89              	_ZN6BufferD2Ev:
  90              	.LFB4:
  11:src/buffer.cpp **** 
  12:src/buffer.cpp **** Buffer::~Buffer() {
  91              		.loc 1 12 1 is_stmt 1
  92              		.cfi_startproc
  93              		.cfi_personality 0x9b,DW.ref.__gxx_personality_v0
  94              		.cfi_lsda 0x1b,.LLSDA4
  95              	.LVL8:
  96 0088 130101FE 		addi	sp,sp,-32
GAS LISTING /tmp/ccSz6U31.s 			page 3


  97              		.cfi_def_cfa_offset 32
  98 008c 233C1100 		sd	ra,24(sp)
  99 0090 23388100 		sd	s0,16(sp)
 100 0094 23349100 		sd	s1,8(sp)
 101              		.cfi_offset 1, -8
 102              		.cfi_offset 8, -16
 103              		.cfi_offset 9, -24
 104 0098 13040102 		addi	s0,sp,32
 105              		.cfi_def_cfa 8, 0
 106 009c 93040500 		mv	s1,a0
 107              	.LBB3:
  13:src/buffer.cpp ****     __putc('\n');
 108              		.loc 1 13 5
 109              		.loc 1 13 11 is_stmt 0
 110 00a0 1305A000 		li	a0,10
 111              	.LVL9:
 112 00a4 97000000 		call	__putc@plt
 112      E7800000 
 113              	.LVL10:
  14:src/buffer.cpp ****     printString("Buffer deleted!\n");
 114              		.loc 1 14 5 is_stmt 1
 115              		.loc 1 14 16 is_stmt 0
 116 00ac 17050000 		lla	a0,.LC0
 116      13050500 
 117 00b4 97000000 		call	_Z11printStringPKc@plt
 117      E7800000 
 118              	.LVL11:
 119              	.L5:
  15:src/buffer.cpp ****     while (head != tail) {
 120              		.loc 1 15 5 is_stmt 1
 121              		.loc 1 15 17
 122              		.loc 1 15 12 is_stmt 0
 123 00bc 83A70401 		lw	a5,16(s1)
 124              		.loc 1 15 20
 125 00c0 03A74401 		lw	a4,20(s1)
 126              		.loc 1 15 17
 127 00c4 638AE702 		beq	a5,a4,.L4
 128              	.LBB4:
  16:src/buffer.cpp ****         char ch = buffer[head];
 129              		.loc 1 16 9 is_stmt 1
 130              		.loc 1 16 19 is_stmt 0
 131 00c8 03B78400 		ld	a4,8(s1)
 132              		.loc 1 16 30
 133 00cc 93972700 		slli	a5,a5,2
 134 00d0 B307F700 		add	a5,a4,a5
 135              	.LVL12:
  17:src/buffer.cpp ****         __putc(ch);
 136              		.loc 1 17 9 is_stmt 1
 137              		.loc 1 17 15 is_stmt 0
 138 00d4 03C50700 		lbu	a0,0(a5)
 139 00d8 97000000 		call	__putc@plt
 139      E7800000 
 140              	.LVL13:
  18:src/buffer.cpp ****         head = (head + 1) % cap;
 141              		.loc 1 18 9 is_stmt 1
 142              		.loc 1 18 17 is_stmt 0
 143 00e0 83A70401 		lw	a5,16(s1)
GAS LISTING /tmp/ccSz6U31.s 			page 4


 144              		.loc 1 18 22
 145 00e4 9B871700 		addiw	a5,a5,1
 146              		.loc 1 18 29
 147 00e8 03A70400 		lw	a4,0(s1)
 148              		.loc 1 18 27
 149 00ec BBE7E702 		remw	a5,a5,a4
 150              		.loc 1 18 14
 151 00f0 23A8F400 		sw	a5,16(s1)
 152              	.LBE4:
  15:src/buffer.cpp ****         char ch = buffer[head];
 153              		.loc 1 15 5
 154 00f4 6FF09FFC 		j	.L5
 155              	.L4:
  19:src/buffer.cpp ****     }
  20:src/buffer.cpp ****     __putc('!');
 156              		.loc 1 20 5 is_stmt 1
 157              		.loc 1 20 11 is_stmt 0
 158 00f8 13051002 		li	a0,33
 159 00fc 97000000 		call	__putc@plt
 159      E7800000 
 160              	.LVL14:
  21:src/buffer.cpp ****     __putc('\n');
 161              		.loc 1 21 5 is_stmt 1
 162              		.loc 1 21 11 is_stmt 0
 163 0104 1305A000 		li	a0,10
 164 0108 97000000 		call	__putc@plt
 164      E7800000 
 165              	.LVL15:
  22:src/buffer.cpp **** 
  23:src/buffer.cpp ****     mem_free(buffer);
 166              		.loc 1 23 5 is_stmt 1
 167              		.loc 1 23 13 is_stmt 0
 168 0110 03B58400 		ld	a0,8(s1)
 169 0114 97000000 		call	_Z8mem_freePv@plt
 169      E7800000 
 170              	.LVL16:
  24:src/buffer.cpp ****     sem_close(itemAvailable);
 171              		.loc 1 24 5 is_stmt 1
 172              		.loc 1 24 14 is_stmt 0
 173 011c 03B50402 		ld	a0,32(s1)
 174 0120 97000000 		call	_Z9sem_closeP3SCB@plt
 174      E7800000 
 175              	.LVL17:
  25:src/buffer.cpp ****     sem_close(spaceAvailable);
 176              		.loc 1 25 5 is_stmt 1
 177              		.loc 1 25 14 is_stmt 0
 178 0128 03B58401 		ld	a0,24(s1)
 179 012c 97000000 		call	_Z9sem_closeP3SCB@plt
 179      E7800000 
 180              	.LVL18:
  26:src/buffer.cpp ****     sem_close(mutexTail);
 181              		.loc 1 26 5 is_stmt 1
 182              		.loc 1 26 14 is_stmt 0
 183 0134 03B50403 		ld	a0,48(s1)
 184 0138 97000000 		call	_Z9sem_closeP3SCB@plt
 184      E7800000 
 185              	.LVL19:
GAS LISTING /tmp/ccSz6U31.s 			page 5


  27:src/buffer.cpp ****     sem_close(mutexHead);
 186              		.loc 1 27 5 is_stmt 1
 187              		.loc 1 27 14 is_stmt 0
 188 0140 03B58402 		ld	a0,40(s1)
 189 0144 97000000 		call	_Z9sem_closeP3SCB@plt
 189      E7800000 
 190              	.LVL20:
 191              	.LBE3:
  28:src/buffer.cpp **** }
 192              		.loc 1 28 1
 193 014c 83308101 		ld	ra,24(sp)
 194              		.cfi_restore 1
 195 0150 03340101 		ld	s0,16(sp)
 196              		.cfi_restore 8
 197              		.cfi_def_cfa 2, 32
 198 0154 83348100 		ld	s1,8(sp)
 199              		.cfi_restore 9
 200              	.LVL21:
 201 0158 13010102 		addi	sp,sp,32
 202              		.cfi_def_cfa_offset 0
 203 015c 67800000 		jr	ra
 204              		.cfi_endproc
 205              	.LFE4:
 206              		.globl	__gxx_personality_v0
 207              		.section	.gcc_except_table,"a",@progbits
 208              	.LLSDA4:
 209 0000 FF       		.byte	0xff
 210 0001 FF       		.byte	0xff
 211 0002 03       		.byte	0x3
 212 0003 00       		.byte	0
 213              		.text
 215              		.globl	_ZN6BufferD1Ev
 216              		.set	_ZN6BufferD1Ev,_ZN6BufferD2Ev
 217              		.align	2
 218              		.globl	_ZN6Buffer3putEi
 220              	_ZN6Buffer3putEi:
 221              	.LFB6:
  29:src/buffer.cpp **** 
  30:src/buffer.cpp **** void Buffer::put(int val) {
 222              		.loc 1 30 27 is_stmt 1
 223              		.cfi_startproc
 224              	.LVL22:
 225 0160 130101FE 		addi	sp,sp,-32
 226              		.cfi_def_cfa_offset 32
 227 0164 233C1100 		sd	ra,24(sp)
 228 0168 23388100 		sd	s0,16(sp)
 229 016c 23349100 		sd	s1,8(sp)
 230 0170 23302101 		sd	s2,0(sp)
 231              		.cfi_offset 1, -8
 232              		.cfi_offset 8, -16
 233              		.cfi_offset 9, -24
 234              		.cfi_offset 18, -32
 235 0174 13040102 		addi	s0,sp,32
 236              		.cfi_def_cfa 8, 0
 237 0178 93040500 		mv	s1,a0
 238 017c 13890500 		mv	s2,a1
  31:src/buffer.cpp ****     sem_wait(spaceAvailable);
GAS LISTING /tmp/ccSz6U31.s 			page 6


 239              		.loc 1 31 5
 240              		.loc 1 31 13 is_stmt 0
 241 0180 03358501 		ld	a0,24(a0)
 242              	.LVL23:
 243 0184 97000000 		call	_Z8sem_waitP3SCB@plt
 243      E7800000 
 244              	.LVL24:
  32:src/buffer.cpp **** 
  33:src/buffer.cpp ****     sem_wait(mutexTail);
 245              		.loc 1 33 5 is_stmt 1
 246              		.loc 1 33 13 is_stmt 0
 247 018c 03B50403 		ld	a0,48(s1)
 248 0190 97000000 		call	_Z8sem_waitP3SCB@plt
 248      E7800000 
 249              	.LVL25:
  34:src/buffer.cpp ****     buffer[tail] = val;
 250              		.loc 1 34 5 is_stmt 1
 251 0198 83B78400 		ld	a5,8(s1)
 252              		.loc 1 34 12 is_stmt 0
 253 019c 03A74401 		lw	a4,20(s1)
 254              		.loc 1 34 16
 255 01a0 13172700 		slli	a4,a4,2
 256 01a4 B387E700 		add	a5,a5,a4
 257              		.loc 1 34 18
 258 01a8 23A02701 		sw	s2,0(a5)
  35:src/buffer.cpp ****     tail = (tail + 1) % cap;
 259              		.loc 1 35 5 is_stmt 1
 260              		.loc 1 35 13 is_stmt 0
 261 01ac 83A74401 		lw	a5,20(s1)
 262              		.loc 1 35 18
 263 01b0 9B871700 		addiw	a5,a5,1
 264              		.loc 1 35 25
 265 01b4 03A70400 		lw	a4,0(s1)
 266              		.loc 1 35 23
 267 01b8 BBE7E702 		remw	a5,a5,a4
 268              		.loc 1 35 10
 269 01bc 23AAF400 		sw	a5,20(s1)
  36:src/buffer.cpp ****     sem_signal(mutexTail);
 270              		.loc 1 36 5 is_stmt 1
 271              		.loc 1 36 15 is_stmt 0
 272 01c0 03B50403 		ld	a0,48(s1)
 273 01c4 97000000 		call	_Z10sem_signalP3SCB@plt
 273      E7800000 
 274              	.LVL26:
  37:src/buffer.cpp **** 
  38:src/buffer.cpp ****     sem_signal(itemAvailable);
 275              		.loc 1 38 5 is_stmt 1
 276              		.loc 1 38 15 is_stmt 0
 277 01cc 03B50402 		ld	a0,32(s1)
 278 01d0 97000000 		call	_Z10sem_signalP3SCB@plt
 278      E7800000 
 279              	.LVL27:
  39:src/buffer.cpp **** 
  40:src/buffer.cpp **** }
 280              		.loc 1 40 1
 281 01d8 83308101 		ld	ra,24(sp)
 282              		.cfi_restore 1
GAS LISTING /tmp/ccSz6U31.s 			page 7


 283 01dc 03340101 		ld	s0,16(sp)
 284              		.cfi_restore 8
 285              		.cfi_def_cfa 2, 32
 286 01e0 83348100 		ld	s1,8(sp)
 287              		.cfi_restore 9
 288              	.LVL28:
 289 01e4 03390100 		ld	s2,0(sp)
 290              		.cfi_restore 18
 291 01e8 13010102 		addi	sp,sp,32
 292              		.cfi_def_cfa_offset 0
 293 01ec 67800000 		jr	ra
 294              		.cfi_endproc
 295              	.LFE6:
 297              		.align	2
 298              		.globl	_ZN6Buffer3getEv
 300              	_ZN6Buffer3getEv:
 301              	.LFB7:
  41:src/buffer.cpp **** 
  42:src/buffer.cpp **** int Buffer::get() {
 302              		.loc 1 42 19 is_stmt 1
 303              		.cfi_startproc
 304              	.LVL29:
 305 01f0 130101FE 		addi	sp,sp,-32
 306              		.cfi_def_cfa_offset 32
 307 01f4 233C1100 		sd	ra,24(sp)
 308 01f8 23388100 		sd	s0,16(sp)
 309 01fc 23349100 		sd	s1,8(sp)
 310 0200 23302101 		sd	s2,0(sp)
 311              		.cfi_offset 1, -8
 312              		.cfi_offset 8, -16
 313              		.cfi_offset 9, -24
 314              		.cfi_offset 18, -32
 315 0204 13040102 		addi	s0,sp,32
 316              		.cfi_def_cfa 8, 0
 317 0208 93040500 		mv	s1,a0
  43:src/buffer.cpp ****     sem_wait(itemAvailable);
 318              		.loc 1 43 5
 319              		.loc 1 43 13 is_stmt 0
 320 020c 03350502 		ld	a0,32(a0)
 321              	.LVL30:
 322 0210 97000000 		call	_Z8sem_waitP3SCB@plt
 322      E7800000 
 323              	.LVL31:
  44:src/buffer.cpp **** 
  45:src/buffer.cpp ****     sem_wait(mutexHead);
 324              		.loc 1 45 5 is_stmt 1
 325              		.loc 1 45 13 is_stmt 0
 326 0218 03B58402 		ld	a0,40(s1)
 327 021c 97000000 		call	_Z8sem_waitP3SCB@plt
 327      E7800000 
 328              	.LVL32:
  46:src/buffer.cpp **** 
  47:src/buffer.cpp ****     int ret = buffer[head];
 329              		.loc 1 47 5 is_stmt 1
 330              		.loc 1 47 15 is_stmt 0
 331 0224 03B78400 		ld	a4,8(s1)
 332              		.loc 1 47 22
GAS LISTING /tmp/ccSz6U31.s 			page 8


 333 0228 83A70401 		lw	a5,16(s1)
 334              		.loc 1 47 26
 335 022c 93962700 		slli	a3,a5,2
 336 0230 3307D700 		add	a4,a4,a3
 337              		.loc 1 47 9
 338 0234 03290700 		lw	s2,0(a4)
 339              	.LVL33:
  48:src/buffer.cpp ****     head = (head + 1) % cap;
 340              		.loc 1 48 5 is_stmt 1
 341              		.loc 1 48 18 is_stmt 0
 342 0238 9B871700 		addiw	a5,a5,1
 343              		.loc 1 48 25
 344 023c 03A70400 		lw	a4,0(s1)
 345              		.loc 1 48 23
 346 0240 BBE7E702 		remw	a5,a5,a4
 347              		.loc 1 48 10
 348 0244 23A8F400 		sw	a5,16(s1)
  49:src/buffer.cpp ****     sem_signal(mutexHead);
 349              		.loc 1 49 5 is_stmt 1
 350              		.loc 1 49 15 is_stmt 0
 351 0248 03B58402 		ld	a0,40(s1)
 352 024c 97000000 		call	_Z10sem_signalP3SCB@plt
 352      E7800000 
 353              	.LVL34:
  50:src/buffer.cpp **** 
  51:src/buffer.cpp ****     sem_signal(spaceAvailable);
 354              		.loc 1 51 5 is_stmt 1
 355              		.loc 1 51 15 is_stmt 0
 356 0254 03B58401 		ld	a0,24(s1)
 357 0258 97000000 		call	_Z10sem_signalP3SCB@plt
 357      E7800000 
 358              	.LVL35:
  52:src/buffer.cpp **** 
  53:src/buffer.cpp ****     return ret;
 359              		.loc 1 53 5 is_stmt 1
  54:src/buffer.cpp **** }
 360              		.loc 1 54 1 is_stmt 0
 361 0260 13050900 		mv	a0,s2
 362 0264 83308101 		ld	ra,24(sp)
 363              		.cfi_restore 1
 364 0268 03340101 		ld	s0,16(sp)
 365              		.cfi_restore 8
 366              		.cfi_def_cfa 2, 32
 367 026c 83348100 		ld	s1,8(sp)
 368              		.cfi_restore 9
 369              	.LVL36:
 370 0270 03390100 		ld	s2,0(sp)
 371              		.cfi_restore 18
 372              	.LVL37:
 373 0274 13010102 		addi	sp,sp,32
 374              		.cfi_def_cfa_offset 0
 375 0278 67800000 		jr	ra
 376              		.cfi_endproc
 377              	.LFE7:
 379              	.Letext0:
 380              		.file 2 "src/../h/hw.h"
 381              		.file 3 "src/../h/syscall_c.h"
GAS LISTING /tmp/ccSz6U31.s 			page 9


 382              		.file 4 "src/../h/buffer.hpp"
 383              		.file 5 "src/../h/console.h"
 384              		.file 6 "src/../h/print.h"
 1798              		.align	3
 1801              	DW.ref.__gxx_personality_v0:
 1802 0000 00000000 		.dword	__gxx_personality_v0
 1802      00000000 
 1803              		.ident	"GCC: (Ubuntu 9.4.0-1ubuntu1~20.04) 9.4.0"
 1804              		.section	.note.GNU-stack,"",@progbits
GAS LISTING /tmp/ccSz6U31.s 			page 10


DEFINED SYMBOLS
                            *ABS*:0000000000000000 buffer.cpp
     /tmp/ccSz6U31.s:9      .text:0000000000000000 _ZN6BufferC2Ei
     /tmp/ccSz6U31.s:13     .text:0000000000000000 .L0 
     /tmp/ccSz6U31.s:15     .text:0000000000000000 .L0 
     /tmp/ccSz6U31.s:16     .text:0000000000000004 .L0 
     /tmp/ccSz6U31.s:20     .text:0000000000000010 .L0 
     /tmp/ccSz6U31.s:21     .text:0000000000000010 .L0 
     /tmp/ccSz6U31.s:22     .text:0000000000000010 .L0 
     /tmp/ccSz6U31.s:24     .text:0000000000000014 .L0 
     /tmp/ccSz6U31.s:28     .text:0000000000000018 .L0 
     /tmp/ccSz6U31.s:32     .text:0000000000000024 .L0 
     /tmp/ccSz6U31.s:33     .text:0000000000000024 .L0 
     /tmp/ccSz6U31.s:38     .text:0000000000000030 .L0 
     /tmp/ccSz6U31.s:40     .text:0000000000000034 .L0 
     /tmp/ccSz6U31.s:41     .text:0000000000000034 .L0 
     /tmp/ccSz6U31.s:46     .text:0000000000000044 .L0 
     /tmp/ccSz6U31.s:47     .text:0000000000000044 .L0 
     /tmp/ccSz6U31.s:52     .text:0000000000000054 .L0 
     /tmp/ccSz6U31.s:53     .text:0000000000000054 .L0 
     /tmp/ccSz6U31.s:58     .text:0000000000000064 .L0 
     /tmp/ccSz6U31.s:59     .text:0000000000000064 .L0 
     /tmp/ccSz6U31.s:65     .text:0000000000000074 .L0 
     /tmp/ccSz6U31.s:66     .text:0000000000000078 .L0 
     /tmp/ccSz6U31.s:68     .text:000000000000007c .L0 
     /tmp/ccSz6U31.s:69     .text:000000000000007c .L0 
     /tmp/ccSz6U31.s:71     .text:0000000000000080 .L0 
     /tmp/ccSz6U31.s:74     .text:0000000000000084 .L0 
     /tmp/ccSz6U31.s:76     .text:0000000000000088 .L0 
     /tmp/ccSz6U31.s:9      .text:0000000000000000 _ZN6BufferC1Ei
     /tmp/ccSz6U31.s:89     .text:0000000000000088 _ZN6BufferD2Ev
     /tmp/ccSz6U31.s:92     .text:0000000000000088 .L0 
     /tmp/ccSz6U31.s:1801   .data.rel.local.DW.ref.__gxx_personality_v0:0000000000000000 DW.ref.__gxx_personality_v0
     /tmp/ccSz6U31.s:96     .text:0000000000000088 .L0 
     /tmp/ccSz6U31.s:97     .text:000000000000008c .L0 
     /tmp/ccSz6U31.s:101    .text:0000000000000098 .L0 
     /tmp/ccSz6U31.s:102    .text:0000000000000098 .L0 
     /tmp/ccSz6U31.s:103    .text:0000000000000098 .L0 
     /tmp/ccSz6U31.s:105    .text:000000000000009c .L0 
     /tmp/ccSz6U31.s:109    .text:00000000000000a0 .L0 
     /tmp/ccSz6U31.s:110    .text:00000000000000a0 .L0 
     /tmp/ccSz6U31.s:115    .text:00000000000000ac .L0 
     /tmp/ccSz6U31.s:116    .text:00000000000000ac .L0 
     /tmp/ccSz6U31.s:121    .text:00000000000000bc .L0 
     /tmp/ccSz6U31.s:122    .text:00000000000000bc .L0 
     /tmp/ccSz6U31.s:123    .text:00000000000000bc .L0 
     /tmp/ccSz6U31.s:125    .text:00000000000000c0 .L0 
     /tmp/ccSz6U31.s:127    .text:00000000000000c4 .L0 
     /tmp/ccSz6U31.s:130    .text:00000000000000c8 .L0 
     /tmp/ccSz6U31.s:131    .text:00000000000000c8 .L0 
     /tmp/ccSz6U31.s:133    .text:00000000000000cc .L0 
     /tmp/ccSz6U31.s:137    .text:00000000000000d4 .L0 
     /tmp/ccSz6U31.s:138    .text:00000000000000d4 .L0 
     /tmp/ccSz6U31.s:142    .text:00000000000000e0 .L0 
     /tmp/ccSz6U31.s:143    .text:00000000000000e0 .L0 
     /tmp/ccSz6U31.s:145    .text:00000000000000e4 .L0 
     /tmp/ccSz6U31.s:147    .text:00000000000000e8 .L0 
GAS LISTING /tmp/ccSz6U31.s 			page 11


     /tmp/ccSz6U31.s:149    .text:00000000000000ec .L0 
     /tmp/ccSz6U31.s:151    .text:00000000000000f0 .L0 
     /tmp/ccSz6U31.s:154    .text:00000000000000f4 .L0 
     /tmp/ccSz6U31.s:157    .text:00000000000000f8 .L0 
     /tmp/ccSz6U31.s:158    .text:00000000000000f8 .L0 
     /tmp/ccSz6U31.s:162    .text:0000000000000104 .L0 
     /tmp/ccSz6U31.s:163    .text:0000000000000104 .L0 
     /tmp/ccSz6U31.s:167    .text:0000000000000110 .L0 
     /tmp/ccSz6U31.s:168    .text:0000000000000110 .L0 
     /tmp/ccSz6U31.s:172    .text:000000000000011c .L0 
     /tmp/ccSz6U31.s:173    .text:000000000000011c .L0 
     /tmp/ccSz6U31.s:177    .text:0000000000000128 .L0 
     /tmp/ccSz6U31.s:178    .text:0000000000000128 .L0 
     /tmp/ccSz6U31.s:182    .text:0000000000000134 .L0 
     /tmp/ccSz6U31.s:183    .text:0000000000000134 .L0 
     /tmp/ccSz6U31.s:187    .text:0000000000000140 .L0 
     /tmp/ccSz6U31.s:188    .text:0000000000000140 .L0 
     /tmp/ccSz6U31.s:193    .text:000000000000014c .L0 
     /tmp/ccSz6U31.s:194    .text:0000000000000150 .L0 
     /tmp/ccSz6U31.s:196    .text:0000000000000154 .L0 
     /tmp/ccSz6U31.s:197    .text:0000000000000154 .L0 
     /tmp/ccSz6U31.s:199    .text:0000000000000158 .L0 
     /tmp/ccSz6U31.s:202    .text:000000000000015c .L0 
     /tmp/ccSz6U31.s:204    .text:0000000000000160 .L0 
     /tmp/ccSz6U31.s:89     .text:0000000000000088 _ZN6BufferD1Ev
     /tmp/ccSz6U31.s:220    .text:0000000000000160 _ZN6Buffer3putEi
     /tmp/ccSz6U31.s:223    .text:0000000000000160 .L0 
     /tmp/ccSz6U31.s:225    .text:0000000000000160 .L0 
     /tmp/ccSz6U31.s:226    .text:0000000000000164 .L0 
     /tmp/ccSz6U31.s:231    .text:0000000000000174 .L0 
     /tmp/ccSz6U31.s:232    .text:0000000000000174 .L0 
     /tmp/ccSz6U31.s:233    .text:0000000000000174 .L0 
     /tmp/ccSz6U31.s:234    .text:0000000000000174 .L0 
     /tmp/ccSz6U31.s:236    .text:0000000000000178 .L0 
     /tmp/ccSz6U31.s:240    .text:0000000000000180 .L0 
     /tmp/ccSz6U31.s:241    .text:0000000000000180 .L0 
     /tmp/ccSz6U31.s:246    .text:000000000000018c .L0 
     /tmp/ccSz6U31.s:247    .text:000000000000018c .L0 
     /tmp/ccSz6U31.s:251    .text:0000000000000198 .L0 
     /tmp/ccSz6U31.s:253    .text:000000000000019c .L0 
     /tmp/ccSz6U31.s:255    .text:00000000000001a0 .L0 
     /tmp/ccSz6U31.s:258    .text:00000000000001a8 .L0 
     /tmp/ccSz6U31.s:260    .text:00000000000001ac .L0 
     /tmp/ccSz6U31.s:261    .text:00000000000001ac .L0 
     /tmp/ccSz6U31.s:263    .text:00000000000001b0 .L0 
     /tmp/ccSz6U31.s:265    .text:00000000000001b4 .L0 
     /tmp/ccSz6U31.s:267    .text:00000000000001b8 .L0 
     /tmp/ccSz6U31.s:269    .text:00000000000001bc .L0 
     /tmp/ccSz6U31.s:271    .text:00000000000001c0 .L0 
     /tmp/ccSz6U31.s:272    .text:00000000000001c0 .L0 
     /tmp/ccSz6U31.s:276    .text:00000000000001cc .L0 
     /tmp/ccSz6U31.s:277    .text:00000000000001cc .L0 
     /tmp/ccSz6U31.s:281    .text:00000000000001d8 .L0 
     /tmp/ccSz6U31.s:282    .text:00000000000001dc .L0 
     /tmp/ccSz6U31.s:284    .text:00000000000001e0 .L0 
     /tmp/ccSz6U31.s:285    .text:00000000000001e0 .L0 
     /tmp/ccSz6U31.s:287    .text:00000000000001e4 .L0 
GAS LISTING /tmp/ccSz6U31.s 			page 12


     /tmp/ccSz6U31.s:290    .text:00000000000001e8 .L0 
     /tmp/ccSz6U31.s:292    .text:00000000000001ec .L0 
     /tmp/ccSz6U31.s:294    .text:00000000000001f0 .L0 
     /tmp/ccSz6U31.s:300    .text:00000000000001f0 _ZN6Buffer3getEv
     /tmp/ccSz6U31.s:303    .text:00000000000001f0 .L0 
     /tmp/ccSz6U31.s:305    .text:00000000000001f0 .L0 
     /tmp/ccSz6U31.s:306    .text:00000000000001f4 .L0 
     /tmp/ccSz6U31.s:311    .text:0000000000000204 .L0 
     /tmp/ccSz6U31.s:312    .text:0000000000000204 .L0 
     /tmp/ccSz6U31.s:313    .text:0000000000000204 .L0 
     /tmp/ccSz6U31.s:314    .text:0000000000000204 .L0 
     /tmp/ccSz6U31.s:316    .text:0000000000000208 .L0 
     /tmp/ccSz6U31.s:319    .text:000000000000020c .L0 
     /tmp/ccSz6U31.s:320    .text:000000000000020c .L0 
     /tmp/ccSz6U31.s:325    .text:0000000000000218 .L0 
     /tmp/ccSz6U31.s:326    .text:0000000000000218 .L0 
     /tmp/ccSz6U31.s:330    .text:0000000000000224 .L0 
     /tmp/ccSz6U31.s:331    .text:0000000000000224 .L0 
     /tmp/ccSz6U31.s:333    .text:0000000000000228 .L0 
     /tmp/ccSz6U31.s:335    .text:000000000000022c .L0 
     /tmp/ccSz6U31.s:338    .text:0000000000000234 .L0 
     /tmp/ccSz6U31.s:341    .text:0000000000000238 .L0 
     /tmp/ccSz6U31.s:342    .text:0000000000000238 .L0 
     /tmp/ccSz6U31.s:344    .text:000000000000023c .L0 
     /tmp/ccSz6U31.s:346    .text:0000000000000240 .L0 
     /tmp/ccSz6U31.s:348    .text:0000000000000244 .L0 
     /tmp/ccSz6U31.s:350    .text:0000000000000248 .L0 
     /tmp/ccSz6U31.s:351    .text:0000000000000248 .L0 
     /tmp/ccSz6U31.s:355    .text:0000000000000254 .L0 
     /tmp/ccSz6U31.s:356    .text:0000000000000254 .L0 
     /tmp/ccSz6U31.s:360    .text:0000000000000260 .L0 
     /tmp/ccSz6U31.s:361    .text:0000000000000260 .L0 
     /tmp/ccSz6U31.s:363    .text:0000000000000268 .L0 
     /tmp/ccSz6U31.s:365    .text:000000000000026c .L0 
     /tmp/ccSz6U31.s:366    .text:000000000000026c .L0 
     /tmp/ccSz6U31.s:368    .text:0000000000000270 .L0 
     /tmp/ccSz6U31.s:371    .text:0000000000000274 .L0 
     /tmp/ccSz6U31.s:374    .text:0000000000000278 .L0 
     /tmp/ccSz6U31.s:376    .text:000000000000027c .L0 
     /tmp/ccSz6U31.s:385    .text:000000000000027c .L0 
     /tmp/ccSz6U31.s:83     .rodata.str1.8:0000000000000000 .LC0
     /tmp/ccSz6U31.s:116    .text:00000000000000ac .L0 
     /tmp/ccSz6U31.s:155    .text:00000000000000f8 .L4
     /tmp/ccSz6U31.s:119    .text:00000000000000bc .L5
     /tmp/ccSz6U31.s:987    .debug_abbrev:0000000000000000 .Ldebug_abbrev0
     /tmp/ccSz6U31.s:1737   .debug_str:0000000000000166 .LASF51
     /tmp/ccSz6U31.s:1739   .debug_str:000000000000022a .LASF52
     /tmp/ccSz6U31.s:1783   .debug_str:000000000000032d .LASF53
     /tmp/ccSz6U31.s:5      .text:0000000000000000 .Ltext0
     /tmp/ccSz6U31.s:379    .text:000000000000027c .Letext0
     /tmp/ccSz6U31.s:1683   .debug_line:0000000000000000 .Ldebug_line0
     /tmp/ccSz6U31.s:1749   .debug_str:0000000000000269 .LASF0
     /tmp/ccSz6U31.s:1725   .debug_str:000000000000010f .LASF1
     /tmp/ccSz6U31.s:1715   .debug_str:00000000000000d7 .LASF2
     /tmp/ccSz6U31.s:1697   .debug_str:0000000000000046 .LASF4
     /tmp/ccSz6U31.s:1723   .debug_str:00000000000000fd .LASF3
     /tmp/ccSz6U31.s:1689   .debug_str:0000000000000018 .LASF5
GAS LISTING /tmp/ccSz6U31.s 			page 13


     /tmp/ccSz6U31.s:1687   .debug_str:0000000000000005 .LASF6
     /tmp/ccSz6U31.s:1705   .debug_str:0000000000000080 .LASF7
     /tmp/ccSz6U31.s:1757   .debug_str:0000000000000298 .LASF8
     /tmp/ccSz6U31.s:1695   .debug_str:0000000000000038 .LASF9
     /tmp/ccSz6U31.s:1793   .debug_str:000000000000037e .LASF10
     /tmp/ccSz6U31.s:1709   .debug_str:00000000000000a4 .LASF11
     /tmp/ccSz6U31.s:1779   .debug_str:0000000000000313 .LASF12
     /tmp/ccSz6U31.s:1761   .debug_str:00000000000002be .LASF13
     /tmp/ccSz6U31.s:1729   .debug_str:0000000000000131 .LASF14
     /tmp/ccSz6U31.s:1701   .debug_str:000000000000005c .LASF15
     /tmp/ccSz6U31.s:1759   .debug_str:00000000000002a8 .LASF16
     /tmp/ccSz6U31.s:1693   .debug_str:0000000000000032 .LASF17
     /tmp/ccSz6U31.s:1767   .debug_str:00000000000002e9 .LASF25
     /tmp/ccSz6U31.s:1769   .debug_str:00000000000002f0 .LASF18
     /tmp/ccSz6U31.s:1743   .debug_str:0000000000000242 .LASF19
     /tmp/ccSz6U31.s:1771   .debug_str:00000000000002f7 .LASF20
     /tmp/ccSz6U31.s:1727   .debug_str:0000000000000122 .LASF21
     /tmp/ccSz6U31.s:1703   .debug_str:0000000000000072 .LASF22
     /tmp/ccSz6U31.s:1751   .debug_str:0000000000000276 .LASF23
     /tmp/ccSz6U31.s:1789   .debug_str:0000000000000368 .LASF24
     /tmp/ccSz6U31.s:1785   .debug_str:000000000000034b .LASF27
     /tmp/ccSz6U31.s:1773   .debug_str:00000000000002fc .LASF26
     /tmp/ccSz6U31.s:1699   .debug_str:000000000000004d .LASF28
     /tmp/ccSz6U31.s:1711   .debug_str:00000000000000b3 .LASF29
     /tmp/ccSz6U31.s:1753   .debug_str:0000000000000280 .LASF30
     /tmp/ccSz6U31.s:301    .text:00000000000001f0 .LFB7
     /tmp/ccSz6U31.s:377    .text:000000000000027c .LFE7
     /tmp/ccSz6U31.s:1717   .debug_str:00000000000000e5 .LASF31
     /tmp/ccSz6U31.s:1551   .debug_loc:0000000000000000 .LLST6
     /tmp/ccSz6U31.s:1569   .debug_loc:000000000000004c .LLST7
     /tmp/ccSz6U31.s:323    .text:0000000000000218 .LVL31
     /tmp/ccSz6U31.s:328    .text:0000000000000224 .LVL32
     /tmp/ccSz6U31.s:353    .text:0000000000000254 .LVL34
     /tmp/ccSz6U31.s:358    .text:0000000000000260 .LVL35
     /tmp/ccSz6U31.s:221    .text:0000000000000160 .LFB6
     /tmp/ccSz6U31.s:295    .text:00000000000001f0 .LFE6
     /tmp/ccSz6U31.s:1580   .debug_loc:0000000000000082 .LLST4
     /tmp/ccSz6U31.s:1598   .debug_loc:00000000000000ce .LLST5
     /tmp/ccSz6U31.s:244    .text:000000000000018c .LVL24
     /tmp/ccSz6U31.s:249    .text:0000000000000198 .LVL25
     /tmp/ccSz6U31.s:274    .text:00000000000001cc .LVL26
     /tmp/ccSz6U31.s:279    .text:00000000000001d8 .LVL27
     /tmp/ccSz6U31.s:1775   .debug_str:0000000000000304 .LASF32
     /tmp/ccSz6U31.s:1777   .debug_str:000000000000030e .LASF33
     /tmp/ccSz6U31.s:1735   .debug_str:0000000000000157 .LASF34
     /tmp/ccSz6U31.s:90     .text:0000000000000088 .LFB4
     /tmp/ccSz6U31.s:205    .text:0000000000000160 .LFE4
     /tmp/ccSz6U31.s:1612   .debug_loc:0000000000000107 .LLST2
     /tmp/ccSz6U31.s:140    .text:00000000000000e0 .LVL13
     /tmp/ccSz6U31.s:128    .text:00000000000000c8 .LBB4
     /tmp/ccSz6U31.s:152    .text:00000000000000f4 .LBE4
     /tmp/ccSz6U31.s:1630   .debug_loc:0000000000000153 .LLST3
     /tmp/ccSz6U31.s:113    .text:00000000000000ac .LVL10
     /tmp/ccSz6U31.s:118    .text:00000000000000bc .LVL11
     /tmp/ccSz6U31.s:160    .text:0000000000000104 .LVL14
     /tmp/ccSz6U31.s:165    .text:0000000000000110 .LVL15
     /tmp/ccSz6U31.s:170    .text:000000000000011c .LVL16
GAS LISTING /tmp/ccSz6U31.s 			page 14


     /tmp/ccSz6U31.s:175    .text:0000000000000128 .LVL17
     /tmp/ccSz6U31.s:180    .text:0000000000000134 .LVL18
     /tmp/ccSz6U31.s:185    .text:0000000000000140 .LVL19
     /tmp/ccSz6U31.s:190    .text:000000000000014c .LVL20
     /tmp/ccSz6U31.s:1685   .debug_str:0000000000000000 .LASF54
     /tmp/ccSz6U31.s:1731   .debug_str:000000000000013d .LASF35
     /tmp/ccSz6U31.s:10     .text:0000000000000000 .LFB1
     /tmp/ccSz6U31.s:77     .text:0000000000000088 .LFE1
     /tmp/ccSz6U31.s:1638   .debug_loc:0000000000000177 .LLST0
     /tmp/ccSz6U31.s:1656   .debug_loc:00000000000001c3 .LLST1
     /tmp/ccSz6U31.s:36     .text:0000000000000030 .LVL2
     /tmp/ccSz6U31.s:44     .text:0000000000000044 .LVL3
     /tmp/ccSz6U31.s:50     .text:0000000000000054 .LVL4
     /tmp/ccSz6U31.s:56     .text:0000000000000064 .LVL5
     /tmp/ccSz6U31.s:62     .text:0000000000000074 .LVL6
     /tmp/ccSz6U31.s:1707   .debug_str:0000000000000093 .LASF36
     /tmp/ccSz6U31.s:1741   .debug_str:0000000000000239 .LASF38
     /tmp/ccSz6U31.s:1745   .debug_str:0000000000000247 .LASF37
     /tmp/ccSz6U31.s:1733   .debug_str:000000000000014c .LASF39
     /tmp/ccSz6U31.s:1755   .debug_str:0000000000000291 .LASF40
     /tmp/ccSz6U31.s:1713   .debug_str:00000000000000c4 .LASF41
     /tmp/ccSz6U31.s:1791   .debug_str:0000000000000372 .LASF42
     /tmp/ccSz6U31.s:1747   .debug_str:000000000000025b .LASF43
     /tmp/ccSz6U31.s:1763   .debug_str:00000000000002ce .LASF44
     /tmp/ccSz6U31.s:1765   .debug_str:00000000000002d7 .LASF45
     /tmp/ccSz6U31.s:1721   .debug_str:00000000000000f3 .LASF46
     /tmp/ccSz6U31.s:1787   .debug_str:000000000000035a .LASF47
     /tmp/ccSz6U31.s:1781   .debug_str:0000000000000323 .LASF48
     /tmp/ccSz6U31.s:1691   .debug_str:000000000000001f .LASF49
     /tmp/ccSz6U31.s:1719   .debug_str:00000000000000ea .LASF50
     /tmp/ccSz6U31.s:304    .text:00000000000001f0 .LVL29
     /tmp/ccSz6U31.s:321    .text:0000000000000210 .LVL30
     /tmp/ccSz6U31.s:369    .text:0000000000000270 .LVL36
     /tmp/ccSz6U31.s:339    .text:0000000000000238 .LVL33
     /tmp/ccSz6U31.s:372    .text:0000000000000274 .LVL37
     /tmp/ccSz6U31.s:224    .text:0000000000000160 .LVL22
     /tmp/ccSz6U31.s:242    .text:0000000000000184 .LVL23
     /tmp/ccSz6U31.s:288    .text:00000000000001e4 .LVL28
     /tmp/ccSz6U31.s:95     .text:0000000000000088 .LVL8
     /tmp/ccSz6U31.s:111    .text:00000000000000a4 .LVL9
     /tmp/ccSz6U31.s:200    .text:0000000000000158 .LVL21
     /tmp/ccSz6U31.s:135    .text:00000000000000d4 .LVL12
     /tmp/ccSz6U31.s:14     .text:0000000000000000 .LVL0
     /tmp/ccSz6U31.s:34     .text:0000000000000028 .LVL1
     /tmp/ccSz6U31.s:72     .text:0000000000000080 .LVL7
     /tmp/ccSz6U31.s:386    .debug_info:0000000000000000 .Ldebug_info0
     /tmp/ccSz6U31.s:208    .gcc_except_table:0000000000000000 .LLSDA4

UNDEFINED SYMBOLS
_Z9mem_allocm
_Z8sem_openPP3SCBj
__putc
_Z11printStringPKc
_Z8mem_freePv
_Z9sem_closeP3SCB
__gxx_personality_v0
_Z8sem_waitP3SCB
GAS LISTING /tmp/ccSz6U31.s 			page 15


_Z10sem_signalP3SCB
