GAS LISTING /tmp/cc9WFbdp.s 			page 1


   1              		.file	"Cache.cpp"
   2              		.option pic
   3              		.option norelax
   4              		.text
   5              	.Ltext0:
   6              		.align	2
   7              		.globl	_ZN5Cache11getNumSlotsEm
   9              	_ZN5Cache11getNumSlotsEm:
  10              	.LFB25:
  11              		.file 1 "src/Cache.cpp"
   1:src/Cache.cpp **** #include "../h/Cache.h"
   2:src/Cache.cpp **** #include "../h/BuddyAllocator.h"
   3:src/Cache.cpp **** #include "../h/printing.hpp"
   4:src/Cache.cpp **** void Cache::initCache(const char *name, size_t size, void (*ctor)(void *), void (*dtor)(void *)) {
   5:src/Cache.cpp ****     for(int i = 0;; i++) {
   6:src/Cache.cpp ****         cacheName[i] = name[i];
   7:src/Cache.cpp ****         if(name[i] == '\0') break;
   8:src/Cache.cpp ****     }
   9:src/Cache.cpp ****     for(int i = 0; i < 3; i++) {
  10:src/Cache.cpp ****         slabList[i] = nullptr;
  11:src/Cache.cpp ****     }
  12:src/Cache.cpp ****     objectSize = size;
  13:src/Cache.cpp ****     constructor = ctor;
  14:src/Cache.cpp ****     destructor = dtor;
  15:src/Cache.cpp ****     slotSize = objectSize + sizeof(Slot);
  16:src/Cache.cpp **** 
  17:src/Cache.cpp ****     optimalSlots = getNumSlots(slotSize);
  18:src/Cache.cpp **** }
  19:src/Cache.cpp **** 
  20:src/Cache.cpp **** int Cache::getNumSlots(size_t objSize) {
  12              		.loc 1 20 40
  13              		.cfi_startproc
  14              	.LVL0:
  15 0000 130101FF 		addi	sp,sp,-16
  16              		.cfi_def_cfa_offset 16
  17 0004 23348100 		sd	s0,8(sp)
  18              		.cfi_offset 8, -8
  19 0008 13040101 		addi	s0,sp,16
  20              		.cfi_def_cfa 8, 0
  21:src/Cache.cpp ****     return (BLKSIZE - sizeof(Slab)) / objSize;
  21              		.loc 1 21 5
  22              		.loc 1 21 37 is_stmt 0
  23 000c B7170000 		li	a5,4096
  24 0010 938787FD 		addi	a5,a5,-40
  25 0014 33D5A702 		divu	a0,a5,a0
  26              	.LVL1:
  22:src/Cache.cpp **** }
  27              		.loc 1 22 1
  28 0018 1B050500 		sext.w	a0,a0
  29 001c 03348100 		ld	s0,8(sp)
  30              		.cfi_restore 8
  31              		.cfi_def_cfa 2, 16
  32 0020 13010101 		addi	sp,sp,16
  33              		.cfi_def_cfa_offset 0
  34 0024 67800000 		jr	ra
  35              		.cfi_endproc
  36              	.LFE25:
GAS LISTING /tmp/cc9WFbdp.s 			page 2


  38              		.align	2
  39              		.globl	_ZN5Cache9initCacheEPKcmPFvPvES4_
  41              	_ZN5Cache9initCacheEPKcmPFvPvES4_:
  42              	.LFB24:
   4:src/Cache.cpp ****     for(int i = 0;; i++) {
  43              		.loc 1 4 98 is_stmt 1
  44              		.cfi_startproc
  45              	.LVL2:
  46 0028 130101FE 		addi	sp,sp,-32
  47              		.cfi_def_cfa_offset 32
  48 002c 233C1100 		sd	ra,24(sp)
  49 0030 23388100 		sd	s0,16(sp)
  50 0034 23349100 		sd	s1,8(sp)
  51              		.cfi_offset 1, -8
  52              		.cfi_offset 8, -16
  53              		.cfi_offset 9, -24
  54 0038 13040102 		addi	s0,sp,32
  55              		.cfi_def_cfa 8, 0
  56 003c 93040500 		mv	s1,a0
   5:src/Cache.cpp ****         cacheName[i] = name[i];
  57              		.loc 1 5 5
  58              	.LVL3:
  59              	.LBB2:
   5:src/Cache.cpp ****         cacheName[i] = name[i];
  60              		.loc 1 5 13 is_stmt 0
  61 0040 93070000 		li	a5,0
  62              	.LVL4:
  63              	.L5:
   6:src/Cache.cpp ****         if(name[i] == '\0') break;
  64              		.loc 1 6 9 is_stmt 1
   6:src/Cache.cpp ****         if(name[i] == '\0') break;
  65              		.loc 1 6 30 is_stmt 0
  66 0044 3388F500 		add	a6,a1,a5
  67 0048 03430800 		lbu	t1,0(a6)
   6:src/Cache.cpp ****         if(name[i] == '\0') break;
  68              		.loc 1 6 22
  69 004c B388F400 		add	a7,s1,a5
  70 0050 23806802 		sb	t1,32(a7)
   7:src/Cache.cpp ****     }
  71              		.loc 1 7 9 is_stmt 1
   7:src/Cache.cpp ****     }
  72              		.loc 1 7 18 is_stmt 0
  73 0054 03480800 		lbu	a6,0(a6)
   7:src/Cache.cpp ****     }
  74              		.loc 1 7 9
  75 0058 63060800 		beqz	a6,.L7
   5:src/Cache.cpp ****         cacheName[i] = name[i];
  76              		.loc 1 5 5 is_stmt 1
  77 005c 9B871700 		addiw	a5,a5,1
  78              	.LVL5:
   5:src/Cache.cpp ****         cacheName[i] = name[i];
  79              		.loc 1 5 5
   6:src/Cache.cpp ****         if(name[i] == '\0') break;
  80              		.loc 1 6 22 is_stmt 0
  81 0060 6FF05FFE 		j	.L5
  82              	.LVL6:
  83              	.L7:
GAS LISTING /tmp/cc9WFbdp.s 			page 3


  84              	.LBE2:
  85              	.LBB3:
   9:src/Cache.cpp ****         slabList[i] = nullptr;
  86              		.loc 1 9 13
  87 0064 93070000 		li	a5,0
  88              	.LVL7:
  89              	.L4:
   9:src/Cache.cpp ****         slabList[i] = nullptr;
  90              		.loc 1 9 22 is_stmt 1 discriminator 3
  91 0068 93052000 		li	a1,2
  92 006c 63CCF500 		bgt	a5,a1,.L6
  10:src/Cache.cpp ****     }
  93              		.loc 1 10 9 discriminator 2
  10:src/Cache.cpp ****     }
  94              		.loc 1 10 21 is_stmt 0 discriminator 2
  95 0070 93953700 		slli	a1,a5,3
  96 0074 B385B400 		add	a1,s1,a1
  97 0078 23B40500 		sd	zero,8(a1)
   9:src/Cache.cpp ****         slabList[i] = nullptr;
  98              		.loc 1 9 5 is_stmt 1 discriminator 2
  99 007c 9B871700 		addiw	a5,a5,1
 100              	.LVL8:
 101 0080 6FF09FFE 		j	.L4
 102              	.LVL9:
 103              	.L6:
 104              	.LBE3:
  12:src/Cache.cpp ****     constructor = ctor;
 105              		.loc 1 12 5
  12:src/Cache.cpp ****     constructor = ctor;
 106              		.loc 1 12 16 is_stmt 0
 107 0084 23B8C402 		sd	a2,48(s1)
  13:src/Cache.cpp ****     destructor = dtor;
 108              		.loc 1 13 5 is_stmt 1
  13:src/Cache.cpp ****     destructor = dtor;
 109              		.loc 1 13 17 is_stmt 0
 110 0088 23B4D404 		sd	a3,72(s1)
  14:src/Cache.cpp ****     slotSize = objectSize + sizeof(Slot);
 111              		.loc 1 14 5 is_stmt 1
  14:src/Cache.cpp ****     slotSize = objectSize + sizeof(Slot);
 112              		.loc 1 14 16 is_stmt 0
 113 008c 23B8E404 		sd	a4,80(s1)
  15:src/Cache.cpp **** 
 114              		.loc 1 15 5 is_stmt 1
  15:src/Cache.cpp **** 
 115              		.loc 1 15 27 is_stmt 0
 116 0090 13058601 		addi	a0,a2,24
  15:src/Cache.cpp **** 
 117              		.loc 1 15 14
 118 0094 23B0A404 		sd	a0,64(s1)
  17:src/Cache.cpp **** }
 119              		.loc 1 17 5 is_stmt 1
  17:src/Cache.cpp **** }
 120              		.loc 1 17 31 is_stmt 0
 121 0098 97000000 		call	_ZN5Cache11getNumSlotsEm
 121      E7800000 
 122              	.LVL10:
  17:src/Cache.cpp **** }
GAS LISTING /tmp/cc9WFbdp.s 			page 4


 123              		.loc 1 17 18
 124 00a0 23BCA402 		sd	a0,56(s1)
  18:src/Cache.cpp **** 
 125              		.loc 1 18 1
 126 00a4 83308101 		ld	ra,24(sp)
 127              		.cfi_restore 1
 128 00a8 03340101 		ld	s0,16(sp)
 129              		.cfi_restore 8
 130              		.cfi_def_cfa 2, 32
 131 00ac 83348100 		ld	s1,8(sp)
 132              		.cfi_restore 9
 133              	.LVL11:
 134 00b0 13010102 		addi	sp,sp,32
 135              		.cfi_def_cfa_offset 0
 136 00b4 67800000 		jr	ra
 137              		.cfi_endproc
 138              	.LFE24:
 140              		.align	2
 141              		.globl	_ZN5Cache12allocateSlabEv
 143              	_ZN5Cache12allocateSlabEv:
 144              	.LFB27:
  23:src/Cache.cpp **** 
  24:src/Cache.cpp **** void *Cache::allocateSlot() {
  25:src/Cache.cpp ****     if(slabList[PARTIAL]) {
  26:src/Cache.cpp ****         Slab* slab = slabList[PARTIAL];
  27:src/Cache.cpp ****         return slab->getFreeSlot();
  28:src/Cache.cpp ****     }
  29:src/Cache.cpp ****     else if(slabList[EMPTY]) {
  30:src/Cache.cpp ****         Slab* slab = slabList[EMPTY];
  31:src/Cache.cpp ****         Slot* slot = slab->getFreeSlot();
  32:src/Cache.cpp **** 
  33:src/Cache.cpp ****         return slot;
  34:src/Cache.cpp ****     }
  35:src/Cache.cpp **** 
  36:src/Cache.cpp ****     Slab* slab = allocateSlab();
  37:src/Cache.cpp ****     return slab->getFreeSlot();
  38:src/Cache.cpp **** }
  39:src/Cache.cpp **** 
  40:src/Cache.cpp **** Cache::Slab *Cache::allocateSlab() {
 145              		.loc 1 40 36 is_stmt 1
 146              		.cfi_startproc
 147              	.LVL12:
 148 00b8 130101FC 		addi	sp,sp,-64
 149              		.cfi_def_cfa_offset 64
 150 00bc 233C1102 		sd	ra,56(sp)
 151 00c0 23388102 		sd	s0,48(sp)
 152 00c4 23349102 		sd	s1,40(sp)
 153 00c8 23302103 		sd	s2,32(sp)
 154 00cc 233C3101 		sd	s3,24(sp)
 155 00d0 23384101 		sd	s4,16(sp)
 156 00d4 23345101 		sd	s5,8(sp)
 157              		.cfi_offset 1, -8
 158              		.cfi_offset 8, -16
 159              		.cfi_offset 9, -24
 160              		.cfi_offset 18, -32
 161              		.cfi_offset 19, -40
 162              		.cfi_offset 20, -48
GAS LISTING /tmp/cc9WFbdp.s 			page 5


 163              		.cfi_offset 21, -56
 164 00d8 13040104 		addi	s0,sp,64
 165              		.cfi_def_cfa 8, 0
 166 00dc 13090500 		mv	s2,a0
  41:src/Cache.cpp ****     Slab* slab = (Slab*)BuddyAllocator::buddyAlloc(1);
 167              		.loc 1 41 5
 168              		.loc 1 41 51 is_stmt 0
 169 00e0 13051000 		li	a0,1
 170              	.LVL13:
 171 00e4 97000000 		call	_ZN14BuddyAllocator10buddyAllocEm@plt
 171      E7800000 
 172              	.LVL14:
 173 00ec 130A0500 		mv	s4,a0
 174              	.LVL15:
  42:src/Cache.cpp ****     slab->parentCache = this;
 175              		.loc 1 42 5 is_stmt 1
 176              		.loc 1 42 23 is_stmt 0
 177 00f0 233C2501 		sd	s2,24(a0)
  43:src/Cache.cpp ****     slab->next = nullptr;
 178              		.loc 1 43 5 is_stmt 1
 179              		.loc 1 43 16 is_stmt 0
 180 00f4 23340500 		sd	zero,8(a0)
  44:src/Cache.cpp ****     slab->state = CREATED;
 181              		.loc 1 44 5 is_stmt 1
 182              		.loc 1 44 17 is_stmt 0
 183 00f8 93073000 		li	a5,3
 184 00fc 2328F500 		sw	a5,16(a0)
  45:src/Cache.cpp ****     slab->allocatedSlots = 0;
 185              		.loc 1 45 5 is_stmt 1
 186              		.loc 1 45 26 is_stmt 0
 187 0100 23300500 		sd	zero,0(a0)
  46:src/Cache.cpp ****     void* startAddr = (void*)((char*)slab + sizeof(Slab));
 188              		.loc 1 46 5 is_stmt 1
 189              		.loc 1 46 11 is_stmt 0
 190 0104 930A8502 		addi	s5,a0,40
 191              	.LVL16:
  47:src/Cache.cpp ****     Slot* prev = nullptr;
 192              		.loc 1 47 5 is_stmt 1
  48:src/Cache.cpp ****     for(size_t i = 0; i < this->optimalSlots; i++) {
 193              		.loc 1 48 5
 194              	.LBB4:
 195              		.loc 1 48 16 is_stmt 0
 196 0108 93040000 		li	s1,0
 197              	.LBE4:
  47:src/Cache.cpp ****     Slot* prev = nullptr;
 198              		.loc 1 47 11
 199 010c 93090000 		li	s3,0
 200 0110 6F004001 		j	.L14
 201              	.LVL17:
 202              	.L12:
 203              	.LBB8:
 204              	.LBB5:
  49:src/Cache.cpp ****         if(constructor) {
  50:src/Cache.cpp ****             constructor((void*)((char*)startAddr + i*slotSize));
  51:src/Cache.cpp ****         }
  52:src/Cache.cpp ****         Slot* curr = (Slot*)((char*)startAddr + i*slotSize);
  53:src/Cache.cpp ****         curr->parentSlab = slab;
GAS LISTING /tmp/cc9WFbdp.s 			page 6


  54:src/Cache.cpp ****         curr->allocated = false;
  55:src/Cache.cpp ****         if(prev) {
  56:src/Cache.cpp ****             prev->next= curr;
  57:src/Cache.cpp ****         }
  58:src/Cache.cpp ****         else {
  59:src/Cache.cpp ****             slab->slotHead = curr;
 205              		.loc 1 59 13 is_stmt 1
 206              		.loc 1 59 28 is_stmt 0
 207 0114 2330FA02 		sd	a5,32(s4)
 208              	.L13:
  60:src/Cache.cpp ****         }
  61:src/Cache.cpp ****         curr->next = nullptr;
 209              		.loc 1 61 9 is_stmt 1 discriminator 2
 210              		.loc 1 61 20 is_stmt 0 discriminator 2
 211 0118 23B40700 		sd	zero,8(a5)
  62:src/Cache.cpp ****         prev = curr;
 212              		.loc 1 62 9 is_stmt 1 discriminator 2
 213              	.LVL18:
 214              	.LBE5:
  48:src/Cache.cpp ****         if(constructor) {
 215              		.loc 1 48 5 discriminator 2
 216 011c 93841400 		addi	s1,s1,1
 217              	.LVL19:
 218              	.LBB6:
 219              		.loc 1 62 14 is_stmt 0 discriminator 2
 220 0120 93890700 		mv	s3,a5
 221              	.LVL20:
 222              	.L14:
 223              	.LBE6:
  48:src/Cache.cpp ****         if(constructor) {
 224              		.loc 1 48 25 is_stmt 1 discriminator 1
  48:src/Cache.cpp ****         if(constructor) {
 225              		.loc 1 48 33 is_stmt 0 discriminator 1
 226 0124 83378903 		ld	a5,56(s2)
  48:src/Cache.cpp ****         if(constructor) {
 227              		.loc 1 48 25 discriminator 1
 228 0128 63FEF402 		bleu	a5,s1,.L9
 229              	.LBB7:
  49:src/Cache.cpp ****             constructor((void*)((char*)startAddr + i*slotSize));
 230              		.loc 1 49 9 is_stmt 1
  49:src/Cache.cpp ****             constructor((void*)((char*)startAddr + i*slotSize));
 231              		.loc 1 49 12 is_stmt 0
 232 012c 83378904 		ld	a5,72(s2)
  49:src/Cache.cpp ****             constructor((void*)((char*)startAddr + i*slotSize));
 233              		.loc 1 49 9
 234 0130 638A0700 		beqz	a5,.L11
  50:src/Cache.cpp ****         }
 235              		.loc 1 50 13 is_stmt 1
  50:src/Cache.cpp ****         }
 236              		.loc 1 50 54 is_stmt 0
 237 0134 03350904 		ld	a0,64(s2)
  50:src/Cache.cpp ****         }
 238              		.loc 1 50 53
 239 0138 33059502 		mul	a0,a0,s1
  50:src/Cache.cpp ****         }
 240              		.loc 1 50 24
 241 013c 3385AA00 		add	a0,s5,a0
GAS LISTING /tmp/cc9WFbdp.s 			page 7


 242 0140 E7800700 		jalr	a5
 243              	.LVL21:
 244              	.L11:
  52:src/Cache.cpp ****         curr->parentSlab = slab;
 245              		.loc 1 52 9 is_stmt 1
  52:src/Cache.cpp ****         curr->parentSlab = slab;
 246              		.loc 1 52 51 is_stmt 0
 247 0144 83370904 		ld	a5,64(s2)
  52:src/Cache.cpp ****         curr->parentSlab = slab;
 248              		.loc 1 52 50
 249 0148 B3879702 		mul	a5,a5,s1
  52:src/Cache.cpp ****         curr->parentSlab = slab;
 250              		.loc 1 52 15
 251 014c B387FA00 		add	a5,s5,a5
 252              	.LVL22:
  53:src/Cache.cpp ****         curr->allocated = false;
 253              		.loc 1 53 9 is_stmt 1
  53:src/Cache.cpp ****         curr->allocated = false;
 254              		.loc 1 53 26 is_stmt 0
 255 0150 23B84701 		sd	s4,16(a5)
  54:src/Cache.cpp ****         if(prev) {
 256              		.loc 1 54 9 is_stmt 1
  54:src/Cache.cpp ****         if(prev) {
 257              		.loc 1 54 25 is_stmt 0
 258 0154 23800700 		sb	zero,0(a5)
  55:src/Cache.cpp ****             prev->next= curr;
 259              		.loc 1 55 9 is_stmt 1
 260 0158 E38E09FA 		beqz	s3,.L12
  56:src/Cache.cpp ****         }
 261              		.loc 1 56 13
  56:src/Cache.cpp ****         }
 262              		.loc 1 56 23 is_stmt 0
 263 015c 23B4F900 		sd	a5,8(s3)
 264 0160 6FF09FFB 		j	.L13
 265              	.LVL23:
 266              	.L9:
 267              	.LBE7:
 268              	.LBE8:
  63:src/Cache.cpp ****     }
  64:src/Cache.cpp **** 
  65:src/Cache.cpp ****     return slab;
  66:src/Cache.cpp **** }
 269              		.loc 1 66 1
 270 0164 13050A00 		mv	a0,s4
 271 0168 83308103 		ld	ra,56(sp)
 272              		.cfi_restore 1
 273 016c 03340103 		ld	s0,48(sp)
 274              		.cfi_restore 8
 275              		.cfi_def_cfa 2, 64
 276 0170 83348102 		ld	s1,40(sp)
 277              		.cfi_restore 9
 278              	.LVL24:
 279 0174 03390102 		ld	s2,32(sp)
 280              		.cfi_restore 18
 281              	.LVL25:
 282 0178 83398101 		ld	s3,24(sp)
 283              		.cfi_restore 19
GAS LISTING /tmp/cc9WFbdp.s 			page 8


 284              	.LVL26:
 285 017c 033A0101 		ld	s4,16(sp)
 286              		.cfi_restore 20
 287              	.LVL27:
 288 0180 833A8100 		ld	s5,8(sp)
 289              		.cfi_restore 21
 290              	.LVL28:
 291 0184 13010104 		addi	sp,sp,64
 292              		.cfi_def_cfa_offset 0
 293 0188 67800000 		jr	ra
 294              		.cfi_endproc
 295              	.LFE27:
 297              		.align	2
 298              		.globl	_ZN5Cache11slabListPutEPNS_4SlabEi
 300              	_ZN5Cache11slabListPutEPNS_4SlabEi:
 301              	.LFB28:
  67:src/Cache.cpp **** 
  68:src/Cache.cpp **** 
  69:src/Cache.cpp **** void Cache::slabListPut(Cache::Slab *slab, int listNum) {
 302              		.loc 1 69 57 is_stmt 1
 303              		.cfi_startproc
 304              	.LVL29:
 305 018c 130101FF 		addi	sp,sp,-16
 306              		.cfi_def_cfa_offset 16
 307 0190 23348100 		sd	s0,8(sp)
 308              		.cfi_offset 8, -8
 309 0194 13040101 		addi	s0,sp,16
 310              		.cfi_def_cfa 8, 0
  70:src/Cache.cpp ****     if (!slab || listNum < 0 || listNum > 2) return;
 311              		.loc 1 70 5
 312 0198 638A0502 		beqz	a1,.L16
 313              		.loc 1 70 15 is_stmt 0 discriminator 2
 314 019c 63480602 		bltz	a2,.L16
 315              		.loc 1 70 30 discriminator 4
 316 01a0 93072000 		li	a5,2
 317 01a4 63C4C702 		bgt	a2,a5,.L16
  71:src/Cache.cpp ****     slab->state = (SlabState)listNum;
 318              		.loc 1 71 5 is_stmt 1
 319              		.loc 1 71 17 is_stmt 0
 320 01a8 23A8C500 		sw	a2,16(a1)
  72:src/Cache.cpp ****     if(slabList[listNum]) {
 321              		.loc 1 72 5 is_stmt 1
 322              		.loc 1 72 24 is_stmt 0
 323 01ac 93173600 		slli	a5,a2,3
 324 01b0 B307F500 		add	a5,a0,a5
 325 01b4 83B78700 		ld	a5,8(a5)
 326              		.loc 1 72 5
 327 01b8 63840700 		beqz	a5,.L18
  73:src/Cache.cpp ****         slab->next = slabList[listNum];
 328              		.loc 1 73 9 is_stmt 1
 329              		.loc 1 73 20 is_stmt 0
 330 01bc 23B4F500 		sd	a5,8(a1)
 331              	.L18:
  74:src/Cache.cpp ****     }
  75:src/Cache.cpp ****     slabList[listNum] = slab;
 332              		.loc 1 75 5 is_stmt 1
 333              		.loc 1 75 23 is_stmt 0
GAS LISTING /tmp/cc9WFbdp.s 			page 9


 334 01c0 13163600 		slli	a2,a2,3
 335              	.LVL30:
 336 01c4 3306C500 		add	a2,a0,a2
 337 01c8 2334B600 		sd	a1,8(a2)
 338              	.LVL31:
 339              	.L16:
  76:src/Cache.cpp **** }
 340              		.loc 1 76 1
 341 01cc 03348100 		ld	s0,8(sp)
 342              		.cfi_restore 8
 343              		.cfi_def_cfa 2, 16
 344 01d0 13010101 		addi	sp,sp,16
 345              		.cfi_def_cfa_offset 0
 346 01d4 67800000 		jr	ra
 347              		.cfi_endproc
 348              	.LFE28:
 350              		.align	2
 351              		.globl	_ZN5Cache14slabListRemoveEPNS_4SlabEi
 353              	_ZN5Cache14slabListRemoveEPNS_4SlabEi:
 354              	.LFB30:
  77:src/Cache.cpp **** 
  78:src/Cache.cpp **** void Cache::freeSlot(Slot* slot) {
  79:src/Cache.cpp ****     if(slot->parentSlab->parentCache != this) {
  80:src/Cache.cpp ****         errortype = FREESLOTERROR;
  81:src/Cache.cpp ****         return;
  82:src/Cache.cpp ****     }
  83:src/Cache.cpp **** 
  84:src/Cache.cpp ****     Slab* parentSlab = slot->parentSlab;
  85:src/Cache.cpp ****     Cache* parentCache = parentSlab->parentCache;
  86:src/Cache.cpp ****     slot->allocated = false;
  87:src/Cache.cpp ****     parentSlab->allocatedSlots--;
  88:src/Cache.cpp **** 
  89:src/Cache.cpp ****     SlabState newState = parentSlab->calculateNewState();
  90:src/Cache.cpp ****     if(parentSlab->state != newState) {
  91:src/Cache.cpp ****         if(parentSlab->state != CREATED) parentCache->slabListRemove(parentSlab, parentSlab->state)
  92:src/Cache.cpp ****         parentCache->slabListPut(parentSlab, newState);
  93:src/Cache.cpp ****     }
  94:src/Cache.cpp **** }
  95:src/Cache.cpp **** 
  96:src/Cache.cpp **** void Cache::slabListRemove(Cache::Slab *slab, int listNum) {
 355              		.loc 1 96 60 is_stmt 1
 356              		.cfi_startproc
 357              	.LVL32:
 358 01d8 130101FF 		addi	sp,sp,-16
 359              		.cfi_def_cfa_offset 16
 360 01dc 23348100 		sd	s0,8(sp)
 361              		.cfi_offset 8, -8
 362 01e0 13040101 		addi	s0,sp,16
 363              		.cfi_def_cfa 8, 0
  97:src/Cache.cpp ****     if(!slab || listNum < 0 || listNum > 2) return;
 364              		.loc 1 97 5
 365 01e4 63800504 		beqz	a1,.L20
 366              		.loc 1 97 14 is_stmt 0 discriminator 2
 367 01e8 634E0602 		bltz	a2,.L20
 368              		.loc 1 97 29 discriminator 4
 369 01ec 93072000 		li	a5,2
 370 01f0 63CAC702 		bgt	a2,a5,.L20
GAS LISTING /tmp/cc9WFbdp.s 			page 10


  98:src/Cache.cpp **** 
  99:src/Cache.cpp ****     Slab* prev = nullptr;
 371              		.loc 1 99 5 is_stmt 1
 372              	.LVL33:
 100:src/Cache.cpp ****     for(Slab* curr = slabList[listNum]; curr != nullptr; curr = curr->next) {
 373              		.loc 1 100 5
 374              	.LBB9:
 375              		.loc 1 100 15 is_stmt 0
 376 01f4 13163600 		slli	a2,a2,3
 377              	.LVL34:
 378 01f8 3306C500 		add	a2,a0,a2
 379 01fc 83378600 		ld	a5,8(a2)
 380              	.LVL35:
 381              	.LBE9:
  99:src/Cache.cpp ****     for(Slab* curr = slabList[listNum]; curr != nullptr; curr = curr->next) {
 382              		.loc 1 99 11
 383 0200 13070000 		li	a4,0
 384              	.LVL36:
 385              	.L23:
 386              	.LBB10:
 387              		.loc 1 100 46 is_stmt 1 discriminator 1
 388 0204 63800702 		beqz	a5,.L20
 101:src/Cache.cpp ****         if(curr == slab) {
 389              		.loc 1 101 9
 390 0208 6388B700 		beq	a5,a1,.L25
 102:src/Cache.cpp ****             prev->next = curr->next;
 103:src/Cache.cpp ****             curr->next = nullptr;
 104:src/Cache.cpp ****             break;
 105:src/Cache.cpp ****         }
 106:src/Cache.cpp ****         prev = curr;
 391              		.loc 1 106 9 discriminator 2
 392              	.LVL37:
 100:src/Cache.cpp ****         if(curr == slab) {
 393              		.loc 1 100 5 discriminator 2
 394              		.loc 1 106 14 is_stmt 0 discriminator 2
 395 020c 13870700 		mv	a4,a5
 100:src/Cache.cpp ****         if(curr == slab) {
 396              		.loc 1 100 63 discriminator 2
 397 0210 83B78700 		ld	a5,8(a5)
 398              	.LVL38:
 100:src/Cache.cpp ****         if(curr == slab) {
 399              		.loc 1 100 5 discriminator 2
 400 0214 6FF01FFF 		j	.L23
 401              	.L25:
 102:src/Cache.cpp ****             prev->next = curr->next;
 402              		.loc 1 102 13 is_stmt 1
 102:src/Cache.cpp ****             prev->next = curr->next;
 403              		.loc 1 102 32 is_stmt 0
 404 0218 83B68700 		ld	a3,8(a5)
 102:src/Cache.cpp ****             prev->next = curr->next;
 405              		.loc 1 102 24
 406 021c 2334D700 		sd	a3,8(a4)
 103:src/Cache.cpp ****             break;
 407              		.loc 1 103 13 is_stmt 1
 103:src/Cache.cpp ****             break;
 408              		.loc 1 103 24 is_stmt 0
 409 0220 23B40700 		sd	zero,8(a5)
GAS LISTING /tmp/cc9WFbdp.s 			page 11


 104:src/Cache.cpp ****         }
 410              		.loc 1 104 13 is_stmt 1
 411              	.LVL39:
 412              	.L20:
 413              	.LBE10:
 107:src/Cache.cpp ****     }
 108:src/Cache.cpp **** }
 414              		.loc 1 108 1 is_stmt 0
 415 0224 03348100 		ld	s0,8(sp)
 416              		.cfi_restore 8
 417              		.cfi_def_cfa 2, 16
 418 0228 13010101 		addi	sp,sp,16
 419              		.cfi_def_cfa_offset 0
 420 022c 67800000 		jr	ra
 421              		.cfi_endproc
 422              	.LFE30:
 424              		.section	.rodata.str1.8,"aMS",@progbits,1
 425              		.align	3
 426              	.LC0:
 427 0000 47726573 		.string	"Greska u oslobadjanju slota"
 427      6B612075 
 427      206F736C 
 427      6F626164 
 427      6A616E6A 
 428 001c 00000000 		.align	3
 429              	.LC1:
 430 0020 4E696A65 		.string	"Nije bilo greske u radu sa kesom"
 430      2062696C 
 430      6F206772 
 430      65736B65 
 430      20752072 
 431              		.text
 432              		.align	2
 433              		.globl	_ZN5Cache17printErrorMessageEv
 435              	_ZN5Cache17printErrorMessageEv:
 436              	.LFB31:
 109:src/Cache.cpp **** 
 110:src/Cache.cpp **** int Cache::printErrorMessage() {
 437              		.loc 1 110 32 is_stmt 1
 438              		.cfi_startproc
 439              	.LVL40:
 440 0230 130101FE 		addi	sp,sp,-32
 441              		.cfi_def_cfa_offset 32
 442 0234 233C1100 		sd	ra,24(sp)
 443 0238 23388100 		sd	s0,16(sp)
 444 023c 23349100 		sd	s1,8(sp)
 445              		.cfi_offset 1, -8
 446              		.cfi_offset 8, -16
 447              		.cfi_offset 9, -24
 448 0240 13040102 		addi	s0,sp,32
 449              		.cfi_def_cfa 8, 0
 450 0244 93040500 		mv	s1,a0
 111:src/Cache.cpp ****     switch(errortype) {
 451              		.loc 1 111 5
 452              		.loc 1 111 12 is_stmt 0
 453 0248 03270500 		lw	a4,0(a0)
 454              		.loc 1 111 5
GAS LISTING /tmp/cc9WFbdp.s 			page 12


 455 024c 93071000 		li	a5,1
 456 0250 6306F702 		beq	a4,a5,.L29
 457              	.LVL41:
 458              	.L27:
 112:src/Cache.cpp ****         case FREESLOTERROR:
 113:src/Cache.cpp ****             printString("Greska u oslobadjanju slota");
 114:src/Cache.cpp ****         default:
 459              		.loc 1 114 9 is_stmt 1
 115:src/Cache.cpp ****             printString("Nije bilo greske u radu sa kesom");
 460              		.loc 1 115 13
 461              		.loc 1 115 24 is_stmt 0
 462 0254 17050000 		lla	a0,.LC1
 462      13050500 
 463 025c 97000000 		call	_Z11printStringPKc@plt
 463      E7800000 
 464              	.LVL42:
 116:src/Cache.cpp ****     }
 117:src/Cache.cpp ****     return errortype;
 465              		.loc 1 117 5 is_stmt 1
 118:src/Cache.cpp **** }
 466              		.loc 1 118 1 is_stmt 0
 467 0264 03A50400 		lw	a0,0(s1)
 468 0268 83308101 		ld	ra,24(sp)
 469              		.cfi_remember_state
 470              		.cfi_restore 1
 471 026c 03340101 		ld	s0,16(sp)
 472              		.cfi_restore 8
 473              		.cfi_def_cfa 2, 32
 474 0270 83348100 		ld	s1,8(sp)
 475              		.cfi_restore 9
 476              	.LVL43:
 477 0274 13010102 		addi	sp,sp,32
 478              		.cfi_def_cfa_offset 0
 479 0278 67800000 		jr	ra
 480              	.LVL44:
 481              	.L29:
 482              		.cfi_restore_state
 112:src/Cache.cpp ****             printString("Greska u oslobadjanju slota");
 483              		.loc 1 112 9 is_stmt 1
 113:src/Cache.cpp ****         default:
 484              		.loc 1 113 13
 113:src/Cache.cpp ****         default:
 485              		.loc 1 113 24 is_stmt 0
 486 027c 17050000 		lla	a0,.LC0
 486      13050500 
 487 0284 97000000 		call	_Z11printStringPKc@plt
 487      E7800000 
 488              	.LVL45:
 489 028c 6FF09FFC 		j	.L27
 490              		.cfi_endproc
 491              	.LFE31:
 493              		.align	2
 494              		.globl	_ZN5Cache19getNumSlabsAndSlotsEPiS0_
 496              	_ZN5Cache19getNumSlabsAndSlotsEPiS0_:
 497              	.LFB33:
 119:src/Cache.cpp **** // Ispis poruke: ime kesa, velicina objekta, broj slabova, broj slotova po slabu, broj alociranih s
 120:src/Cache.cpp **** void Cache::printCacheInfo() {
GAS LISTING /tmp/cc9WFbdp.s 			page 13


 121:src/Cache.cpp ****     int numSlabs = 0, numSlots = 0;
 122:src/Cache.cpp ****     getNumSlabsAndSlots(&numSlabs, &numSlots);
 123:src/Cache.cpp ****     printString("ime kesa, velicina objekta, broj slabova, broj slotova po slabu, velicina slota, b
 124:src/Cache.cpp ****     printString(cacheName);
 125:src/Cache.cpp ****     printString(", ");
 126:src/Cache.cpp ****     printInt(objectSize);
 127:src/Cache.cpp ****     printString(", ");
 128:src/Cache.cpp ****     printInt(numSlabs);
 129:src/Cache.cpp ****     printString(", ");
 130:src/Cache.cpp ****     printInt(optimalSlots);
 131:src/Cache.cpp ****     printString(", ");
 132:src/Cache.cpp ****     printInt(slotSize);
 133:src/Cache.cpp ****     printString(", ");
 134:src/Cache.cpp ****     printInt(numSlots);
 135:src/Cache.cpp **** 
 136:src/Cache.cpp **** }
 137:src/Cache.cpp **** 
 138:src/Cache.cpp **** void Cache::getNumSlabsAndSlots(int *numSlabs, int *numSlots) {
 498              		.loc 1 138 63 is_stmt 1
 499              		.cfi_startproc
 500              	.LVL46:
 501 0290 130101FF 		addi	sp,sp,-16
 502              		.cfi_def_cfa_offset 16
 503 0294 23348100 		sd	s0,8(sp)
 504              		.cfi_offset 8, -8
 505 0298 13040101 		addi	s0,sp,16
 506              		.cfi_def_cfa 8, 0
 139:src/Cache.cpp ****     int slabs = 0, slots = 0;
 507              		.loc 1 139 5
 508              	.LVL47:
 140:src/Cache.cpp ****     for(int i = 0; i < 3; i++) {
 509              		.loc 1 140 5
 510              	.LBB11:
 511              		.loc 1 140 13 is_stmt 0
 512 029c 93080000 		li	a7,0
 513              	.LBE11:
 139:src/Cache.cpp ****     int slabs = 0, slots = 0;
 514              		.loc 1 139 20
 515 02a0 13070000 		li	a4,0
 139:src/Cache.cpp ****     int slabs = 0, slots = 0;
 516              		.loc 1 139 9
 517 02a4 93060000 		li	a3,0
 518 02a8 6F008000 		j	.L34
 519              	.LVL48:
 520              	.L32:
 521              	.LBB13:
 522              		.loc 1 140 5 is_stmt 1 discriminator 2
 523 02ac 9B881800 		addiw	a7,a7,1
 524              	.LVL49:
 525              	.L34:
 526              		.loc 1 140 22 discriminator 1
 527 02b0 93072000 		li	a5,2
 528 02b4 63C41703 		bgt	a7,a5,.L31
 529              	.LBE13:
 141:src/Cache.cpp ****         for(Slab* curr = slabList[i]; curr != nullptr; curr = curr->next) {
 530              		.loc 1 141 9
 531              	.LBB14:
GAS LISTING /tmp/cc9WFbdp.s 			page 14


 532              	.LBB12:
 533              		.loc 1 141 19 is_stmt 0
 534 02b8 93973800 		slli	a5,a7,3
 535 02bc B307F500 		add	a5,a0,a5
 536 02c0 83B78700 		ld	a5,8(a5)
 537              	.LVL50:
 538              	.L33:
 539              		.loc 1 141 44 is_stmt 1 discriminator 3
 540 02c4 E38407FE 		beqz	a5,.L32
 142:src/Cache.cpp ****              slabs++;
 541              		.loc 1 142 14 discriminator 2
 542              		.loc 1 142 19 is_stmt 0 discriminator 2
 543 02c8 9B861600 		addiw	a3,a3,1
 544              	.LVL51:
 143:src/Cache.cpp ****              slots += curr->allocatedSlots;
 545              		.loc 1 143 14 is_stmt 1 discriminator 2
 546              		.loc 1 143 29 is_stmt 0 discriminator 2
 547 02cc 03B80700 		ld	a6,0(a5)
 548              		.loc 1 143 20 discriminator 2
 549 02d0 3B07E800 		addw	a4,a6,a4
 550              	.LVL52:
 141:src/Cache.cpp ****         for(Slab* curr = slabList[i]; curr != nullptr; curr = curr->next) {
 551              		.loc 1 141 9 is_stmt 1 discriminator 2
 141:src/Cache.cpp ****         for(Slab* curr = slabList[i]; curr != nullptr; curr = curr->next) {
 552              		.loc 1 141 61 is_stmt 0 discriminator 2
 553 02d4 83B78700 		ld	a5,8(a5)
 554              	.LVL53:
 141:src/Cache.cpp ****         for(Slab* curr = slabList[i]; curr != nullptr; curr = curr->next) {
 555              		.loc 1 141 9 discriminator 2
 556 02d8 6FF0DFFE 		j	.L33
 557              	.LVL54:
 558              	.L31:
 559              	.LBE12:
 560              	.LBE14:
 144:src/Cache.cpp ****         }
 145:src/Cache.cpp ****     }
 146:src/Cache.cpp ****     (*numSlabs) = slabs;
 561              		.loc 1 146 5 is_stmt 1
 562              		.loc 1 146 17 is_stmt 0
 563 02dc 23A0D500 		sw	a3,0(a1)
 147:src/Cache.cpp ****     (*numSlots) = slots;
 564              		.loc 1 147 5 is_stmt 1
 565              		.loc 1 147 17 is_stmt 0
 566 02e0 2320E600 		sw	a4,0(a2)
 148:src/Cache.cpp **** }
 567              		.loc 1 148 1
 568 02e4 03348100 		ld	s0,8(sp)
 569              		.cfi_restore 8
 570              		.cfi_def_cfa 2, 16
 571 02e8 13010101 		addi	sp,sp,16
 572              		.cfi_def_cfa_offset 0
 573 02ec 67800000 		jr	ra
 574              		.cfi_endproc
 575              	.LFE33:
 577              		.section	.rodata.str1.8
 578 0041 00000000 		.align	3
 578      000000
GAS LISTING /tmp/cc9WFbdp.s 			page 15


 579              	.LC2:
 580 0048 696D6520 		.string	"ime kesa, velicina objekta, broj slabova, broj slotova po slabu, velicina slota, broj alo
 580      6B657361 
 580      2C207665 
 580      6C696369 
 580      6E61206F 
 581 00b2 00000000 		.align	3
 581      0000
 582              	.LC3:
 583 00b8 2C2000   		.string	", "
 584              		.text
 585              		.align	2
 586              		.globl	_ZN5Cache14printCacheInfoEv
 588              	_ZN5Cache14printCacheInfoEv:
 589              	.LFB32:
 120:src/Cache.cpp ****     int numSlabs = 0, numSlots = 0;
 590              		.loc 1 120 30 is_stmt 1
 591              		.cfi_startproc
 592              	.LVL55:
 593 02f0 130101FD 		addi	sp,sp,-48
 594              		.cfi_def_cfa_offset 48
 595 02f4 23341102 		sd	ra,40(sp)
 596 02f8 23308102 		sd	s0,32(sp)
 597 02fc 233C9100 		sd	s1,24(sp)
 598              		.cfi_offset 1, -8
 599              		.cfi_offset 8, -16
 600              		.cfi_offset 9, -24
 601 0300 13040103 		addi	s0,sp,48
 602              		.cfi_def_cfa 8, 0
 603 0304 93040500 		mv	s1,a0
 121:src/Cache.cpp ****     getNumSlabsAndSlots(&numSlabs, &numSlots);
 604              		.loc 1 121 5
 121:src/Cache.cpp ****     getNumSlabsAndSlots(&numSlabs, &numSlots);
 605              		.loc 1 121 9 is_stmt 0
 606 0308 232E04FC 		sw	zero,-36(s0)
 121:src/Cache.cpp ****     getNumSlabsAndSlots(&numSlabs, &numSlots);
 607              		.loc 1 121 23
 608 030c 232C04FC 		sw	zero,-40(s0)
 122:src/Cache.cpp ****     printString("ime kesa, velicina objekta, broj slabova, broj slotova po slabu, velicina slota, b
 609              		.loc 1 122 5 is_stmt 1
 122:src/Cache.cpp ****     printString("ime kesa, velicina objekta, broj slabova, broj slotova po slabu, velicina slota, b
 610              		.loc 1 122 24 is_stmt 0
 611 0310 130684FD 		addi	a2,s0,-40
 612 0314 9305C4FD 		addi	a1,s0,-36
 613 0318 97000000 		call	_ZN5Cache19getNumSlabsAndSlotsEPiS0_
 613      E7800000 
 614              	.LVL56:
 123:src/Cache.cpp ****     printString(cacheName);
 615              		.loc 1 123 5 is_stmt 1
 123:src/Cache.cpp ****     printString(cacheName);
 616              		.loc 1 123 16 is_stmt 0
 617 0320 17050000 		lla	a0,.LC2
 617      13050500 
 618 0328 97000000 		call	_Z11printStringPKc@plt
 618      E7800000 
 619              	.LVL57:
 124:src/Cache.cpp ****     printString(", ");
GAS LISTING /tmp/cc9WFbdp.s 			page 16


 620              		.loc 1 124 5 is_stmt 1
 124:src/Cache.cpp ****     printString(", ");
 621              		.loc 1 124 16 is_stmt 0
 622 0330 13850402 		addi	a0,s1,32
 623 0334 97000000 		call	_Z11printStringPKc@plt
 623      E7800000 
 624              	.LVL58:
 125:src/Cache.cpp ****     printInt(objectSize);
 625              		.loc 1 125 5 is_stmt 1
 125:src/Cache.cpp ****     printInt(objectSize);
 626              		.loc 1 125 16 is_stmt 0
 627 033c 17050000 		lla	a0,.LC3
 627      13050500 
 628 0344 97000000 		call	_Z11printStringPKc@plt
 628      E7800000 
 629              	.LVL59:
 126:src/Cache.cpp ****     printString(", ");
 630              		.loc 1 126 5 is_stmt 1
 126:src/Cache.cpp ****     printString(", ");
 631              		.loc 1 126 13 is_stmt 0
 632 034c 13060000 		li	a2,0
 633 0350 9305A000 		li	a1,10
 634 0354 03A50403 		lw	a0,48(s1)
 635 0358 97000000 		call	_Z8printIntiii@plt
 635      E7800000 
 636              	.LVL60:
 127:src/Cache.cpp ****     printInt(numSlabs);
 637              		.loc 1 127 5 is_stmt 1
 127:src/Cache.cpp ****     printInt(numSlabs);
 638              		.loc 1 127 16 is_stmt 0
 639 0360 17050000 		lla	a0,.LC3
 639      13050500 
 640 0368 97000000 		call	_Z11printStringPKc@plt
 640      E7800000 
 641              	.LVL61:
 128:src/Cache.cpp ****     printString(", ");
 642              		.loc 1 128 5 is_stmt 1
 128:src/Cache.cpp ****     printString(", ");
 643              		.loc 1 128 13 is_stmt 0
 644 0370 13060000 		li	a2,0
 645 0374 9305A000 		li	a1,10
 646 0378 0325C4FD 		lw	a0,-36(s0)
 647 037c 97000000 		call	_Z8printIntiii@plt
 647      E7800000 
 648              	.LVL62:
 129:src/Cache.cpp ****     printInt(optimalSlots);
 649              		.loc 1 129 5 is_stmt 1
 129:src/Cache.cpp ****     printInt(optimalSlots);
 650              		.loc 1 129 16 is_stmt 0
 651 0384 17050000 		lla	a0,.LC3
 651      13050500 
 652 038c 97000000 		call	_Z11printStringPKc@plt
 652      E7800000 
 653              	.LVL63:
 130:src/Cache.cpp ****     printString(", ");
 654              		.loc 1 130 5 is_stmt 1
 130:src/Cache.cpp ****     printString(", ");
GAS LISTING /tmp/cc9WFbdp.s 			page 17


 655              		.loc 1 130 13 is_stmt 0
 656 0394 13060000 		li	a2,0
 657 0398 9305A000 		li	a1,10
 658 039c 03A58403 		lw	a0,56(s1)
 659 03a0 97000000 		call	_Z8printIntiii@plt
 659      E7800000 
 660              	.LVL64:
 131:src/Cache.cpp ****     printInt(slotSize);
 661              		.loc 1 131 5 is_stmt 1
 131:src/Cache.cpp ****     printInt(slotSize);
 662              		.loc 1 131 16 is_stmt 0
 663 03a8 17050000 		lla	a0,.LC3
 663      13050500 
 664 03b0 97000000 		call	_Z11printStringPKc@plt
 664      E7800000 
 665              	.LVL65:
 132:src/Cache.cpp ****     printString(", ");
 666              		.loc 1 132 5 is_stmt 1
 132:src/Cache.cpp ****     printString(", ");
 667              		.loc 1 132 13 is_stmt 0
 668 03b8 13060000 		li	a2,0
 669 03bc 9305A000 		li	a1,10
 670 03c0 03A50404 		lw	a0,64(s1)
 671 03c4 97000000 		call	_Z8printIntiii@plt
 671      E7800000 
 672              	.LVL66:
 133:src/Cache.cpp ****     printInt(numSlots);
 673              		.loc 1 133 5 is_stmt 1
 133:src/Cache.cpp ****     printInt(numSlots);
 674              		.loc 1 133 16 is_stmt 0
 675 03cc 17050000 		lla	a0,.LC3
 675      13050500 
 676 03d4 97000000 		call	_Z11printStringPKc@plt
 676      E7800000 
 677              	.LVL67:
 134:src/Cache.cpp **** 
 678              		.loc 1 134 5 is_stmt 1
 134:src/Cache.cpp **** 
 679              		.loc 1 134 13 is_stmt 0
 680 03dc 13060000 		li	a2,0
 681 03e0 9305A000 		li	a1,10
 682 03e4 032584FD 		lw	a0,-40(s0)
 683 03e8 97000000 		call	_Z8printIntiii@plt
 683      E7800000 
 684              	.LVL68:
 136:src/Cache.cpp **** 
 685              		.loc 1 136 1
 686 03f0 83308102 		ld	ra,40(sp)
 687              		.cfi_restore 1
 688 03f4 03340102 		ld	s0,32(sp)
 689              		.cfi_restore 8
 690              		.cfi_def_cfa 2, 48
 691 03f8 83348101 		ld	s1,24(sp)
 692              		.cfi_restore 9
 693              	.LVL69:
 694 03fc 13010103 		addi	sp,sp,48
 695              		.cfi_def_cfa_offset 0
GAS LISTING /tmp/cc9WFbdp.s 			page 18


 696 0400 67800000 		jr	ra
 697              		.cfi_endproc
 698              	.LFE32:
 700              		.align	2
 701              		.globl	_ZN5Cache11deallocSlabEPNS_4SlabE
 703              	_ZN5Cache11deallocSlabEPNS_4SlabE:
 704              	.LFB35:
 149:src/Cache.cpp **** 
 150:src/Cache.cpp **** int Cache::deallocFreeSlabs() {
 151:src/Cache.cpp ****     int numSlabs = 0;
 152:src/Cache.cpp ****     for(Slab* curr = slabList[EMPTY]; curr != nullptr;) {
 153:src/Cache.cpp ****         numSlabs++;
 154:src/Cache.cpp ****         Slab* old = curr;
 155:src/Cache.cpp ****         curr = curr->next;
 156:src/Cache.cpp ****         deallocSlab(old);
 157:src/Cache.cpp ****     }
 158:src/Cache.cpp ****     slabList[EMPTY] = nullptr;
 159:src/Cache.cpp ****     return numSlabs;
 160:src/Cache.cpp **** }
 161:src/Cache.cpp **** 
 162:src/Cache.cpp **** void Cache::deallocSlab(Slab* slab) {
 705              		.loc 1 162 37 is_stmt 1
 706              		.cfi_startproc
 707              	.LVL70:
 708 0404 130101FD 		addi	sp,sp,-48
 709              		.cfi_def_cfa_offset 48
 710 0408 23341102 		sd	ra,40(sp)
 711 040c 23308102 		sd	s0,32(sp)
 712 0410 233C9100 		sd	s1,24(sp)
 713 0414 23382101 		sd	s2,16(sp)
 714 0418 23343101 		sd	s3,8(sp)
 715              		.cfi_offset 1, -8
 716              		.cfi_offset 8, -16
 717              		.cfi_offset 9, -24
 718              		.cfi_offset 18, -32
 719              		.cfi_offset 19, -40
 720 041c 13040103 		addi	s0,sp,48
 721              		.cfi_def_cfa 8, 0
 722 0420 93890500 		mv	s3,a1
 163:src/Cache.cpp ****     void* startAddr = (void*)((char*)slab + sizeof(Slab));
 723              		.loc 1 163 5
 724              	.LVL71:
 164:src/Cache.cpp ****     if(destructor) {
 725              		.loc 1 164 5
 726              	.LBB15:
 727              		.loc 1 164 8 is_stmt 0
 728 0424 83370505 		ld	a5,80(a0)
 729              		.loc 1 164 5
 730 0428 638A0702 		beqz	a5,.L39
 731 042c 13090500 		mv	s2,a0
 732              	.LBB16:
 165:src/Cache.cpp ****         for(size_t i = 0; i < this->optimalSlots; i++) {
 733              		.loc 1 165 20
 734 0430 93040000 		li	s1,0
 735 0434 6F000002 		j	.L40
 736              	.LVL72:
 737              	.L42:
GAS LISTING /tmp/cc9WFbdp.s 			page 19


 166:src/Cache.cpp ****             destructor((void*)((char*)startAddr + i*slotSize));
 738              		.loc 1 166 13 is_stmt 1 discriminator 2
 739 0438 83370905 		ld	a5,80(s2)
 740              		.loc 1 166 53 is_stmt 0 discriminator 2
 741 043c 03350904 		ld	a0,64(s2)
 742              		.loc 1 166 52 discriminator 2
 743 0440 33059502 		mul	a0,a0,s1
 744              		.loc 1 166 23 discriminator 2
 745 0444 13058502 		addi	a0,a0,40
 746 0448 3385A900 		add	a0,s3,a0
 747 044c E7800700 		jalr	a5
 748              	.LVL73:
 165:src/Cache.cpp ****         for(size_t i = 0; i < this->optimalSlots; i++) {
 749              		.loc 1 165 9 is_stmt 1 discriminator 2
 750 0450 93841400 		addi	s1,s1,1
 751              	.LVL74:
 752              	.L40:
 165:src/Cache.cpp ****         for(size_t i = 0; i < this->optimalSlots; i++) {
 753              		.loc 1 165 29 discriminator 3
 165:src/Cache.cpp ****         for(size_t i = 0; i < this->optimalSlots; i++) {
 754              		.loc 1 165 37 is_stmt 0 discriminator 3
 755 0454 83378903 		ld	a5,56(s2)
 165:src/Cache.cpp ****         for(size_t i = 0; i < this->optimalSlots; i++) {
 756              		.loc 1 165 29 discriminator 3
 757 0458 E3E0F4FE 		bgtu	a5,s1,.L42
 758              	.LVL75:
 759              	.L39:
 760              	.LBE16:
 761              	.LBE15:
 167:src/Cache.cpp ****         }
 168:src/Cache.cpp ****     }
 169:src/Cache.cpp ****     BuddyAllocator::buddyFree(slab, 1);
 762              		.loc 1 169 5 is_stmt 1
 763              		.loc 1 169 30 is_stmt 0
 764 045c 93051000 		li	a1,1
 765 0460 13850900 		mv	a0,s3
 766 0464 97000000 		call	_ZN14BuddyAllocator9buddyFreeEPvm@plt
 766      E7800000 
 767              	.LVL76:
 170:src/Cache.cpp **** }
 768              		.loc 1 170 1
 769 046c 83308102 		ld	ra,40(sp)
 770              		.cfi_restore 1
 771 0470 03340102 		ld	s0,32(sp)
 772              		.cfi_restore 8
 773              		.cfi_def_cfa 2, 48
 774 0474 83348101 		ld	s1,24(sp)
 775              		.cfi_restore 9
 776 0478 03390101 		ld	s2,16(sp)
 777              		.cfi_restore 18
 778 047c 83398100 		ld	s3,8(sp)
 779              		.cfi_restore 19
 780              	.LVL77:
 781 0480 13010103 		addi	sp,sp,48
 782              		.cfi_def_cfa_offset 0
 783 0484 67800000 		jr	ra
 784              		.cfi_endproc
GAS LISTING /tmp/cc9WFbdp.s 			page 20


 785              	.LFE35:
 787              		.align	2
 788              		.globl	_ZN5Cache16deallocFreeSlabsEv
 790              	_ZN5Cache16deallocFreeSlabsEv:
 791              	.LFB34:
 150:src/Cache.cpp ****     int numSlabs = 0;
 792              		.loc 1 150 31 is_stmt 1
 793              		.cfi_startproc
 794              	.LVL78:
 795 0488 130101FD 		addi	sp,sp,-48
 796              		.cfi_def_cfa_offset 48
 797 048c 23341102 		sd	ra,40(sp)
 798 0490 23308102 		sd	s0,32(sp)
 799 0494 233C9100 		sd	s1,24(sp)
 800 0498 23382101 		sd	s2,16(sp)
 801 049c 23343101 		sd	s3,8(sp)
 802              		.cfi_offset 1, -8
 803              		.cfi_offset 8, -16
 804              		.cfi_offset 9, -24
 805              		.cfi_offset 18, -32
 806              		.cfi_offset 19, -40
 807 04a0 13040103 		addi	s0,sp,48
 808              		.cfi_def_cfa 8, 0
 809 04a4 93090500 		mv	s3,a0
 151:src/Cache.cpp ****     for(Slab* curr = slabList[EMPTY]; curr != nullptr;) {
 810              		.loc 1 151 5
 811              	.LVL79:
 152:src/Cache.cpp ****         numSlabs++;
 812              		.loc 1 152 5
 813              	.LBB17:
 152:src/Cache.cpp ****         numSlabs++;
 814              		.loc 1 152 15 is_stmt 0
 815 04a8 83358500 		ld	a1,8(a0)
 816              	.LVL80:
 817              	.LBE17:
 151:src/Cache.cpp ****     for(Slab* curr = slabList[EMPTY]; curr != nullptr;) {
 818              		.loc 1 151 9
 819 04ac 93040000 		li	s1,0
 820              	.LVL81:
 821              	.L45:
 822              	.LBB19:
 152:src/Cache.cpp ****         numSlabs++;
 823              		.loc 1 152 44 is_stmt 1 discriminator 1
 824 04b0 63800502 		beqz	a1,.L44
 825              	.LBB18:
 153:src/Cache.cpp ****         Slab* old = curr;
 826              		.loc 1 153 9
 153:src/Cache.cpp ****         Slab* old = curr;
 827              		.loc 1 153 17 is_stmt 0
 828 04b4 9B841400 		addiw	s1,s1,1
 829              	.LVL82:
 154:src/Cache.cpp ****         curr = curr->next;
 830              		.loc 1 154 9 is_stmt 1
 155:src/Cache.cpp ****         deallocSlab(old);
 831              		.loc 1 155 9
 155:src/Cache.cpp ****         deallocSlab(old);
 832              		.loc 1 155 14 is_stmt 0
GAS LISTING /tmp/cc9WFbdp.s 			page 21


 833 04b8 03B98500 		ld	s2,8(a1)
 834              	.LVL83:
 156:src/Cache.cpp ****     }
 835              		.loc 1 156 9 is_stmt 1
 156:src/Cache.cpp ****     }
 836              		.loc 1 156 20 is_stmt 0
 837 04bc 13850900 		mv	a0,s3
 838 04c0 97000000 		call	_ZN5Cache11deallocSlabEPNS_4SlabE
 838      E7800000 
 839              	.LVL84:
 155:src/Cache.cpp ****         deallocSlab(old);
 840              		.loc 1 155 14
 841 04c8 93050900 		mv	a1,s2
 842              	.LBE18:
 152:src/Cache.cpp ****         numSlabs++;
 843              		.loc 1 152 5
 844 04cc 6FF05FFE 		j	.L45
 845              	.LVL85:
 846              	.L44:
 847              	.LBE19:
 158:src/Cache.cpp ****     return numSlabs;
 848              		.loc 1 158 5 is_stmt 1
 158:src/Cache.cpp ****     return numSlabs;
 849              		.loc 1 158 21 is_stmt 0
 850 04d0 23B40900 		sd	zero,8(s3)
 159:src/Cache.cpp **** }
 851              		.loc 1 159 5 is_stmt 1
 160:src/Cache.cpp **** 
 852              		.loc 1 160 1 is_stmt 0
 853 04d4 13850400 		mv	a0,s1
 854 04d8 83308102 		ld	ra,40(sp)
 855              		.cfi_restore 1
 856 04dc 03340102 		ld	s0,32(sp)
 857              		.cfi_restore 8
 858              		.cfi_def_cfa 2, 48
 859 04e0 83348101 		ld	s1,24(sp)
 860              		.cfi_restore 9
 861              	.LVL86:
 862 04e4 03390101 		ld	s2,16(sp)
 863              		.cfi_restore 18
 864 04e8 83398100 		ld	s3,8(sp)
 865              		.cfi_restore 19
 866              	.LVL87:
 867 04ec 13010103 		addi	sp,sp,48
 868              		.cfi_def_cfa_offset 0
 869 04f0 67800000 		jr	ra
 870              		.cfi_endproc
 871              	.LFE34:
 873              		.align	2
 874              		.globl	_ZN5Cache12deallocCacheEv
 876              	_ZN5Cache12deallocCacheEv:
 877              	.LFB36:
 171:src/Cache.cpp **** 
 172:src/Cache.cpp **** void Cache::deallocCache() {
 878              		.loc 1 172 28 is_stmt 1
 879              		.cfi_startproc
 880              	.LVL88:
GAS LISTING /tmp/cc9WFbdp.s 			page 22


 881 04f4 130101FD 		addi	sp,sp,-48
 882              		.cfi_def_cfa_offset 48
 883 04f8 23341102 		sd	ra,40(sp)
 884 04fc 23308102 		sd	s0,32(sp)
 885 0500 233C9100 		sd	s1,24(sp)
 886 0504 23382101 		sd	s2,16(sp)
 887 0508 23343101 		sd	s3,8(sp)
 888              		.cfi_offset 1, -8
 889              		.cfi_offset 8, -16
 890              		.cfi_offset 9, -24
 891              		.cfi_offset 18, -32
 892              		.cfi_offset 19, -40
 893 050c 13040103 		addi	s0,sp,48
 894              		.cfi_def_cfa 8, 0
 895 0510 13090500 		mv	s2,a0
 173:src/Cache.cpp ****     for(int i = 0; i < 3; i++) {
 896              		.loc 1 173 5
 897              	.LVL89:
 898              	.LBB20:
 899              		.loc 1 173 13 is_stmt 0
 900 0514 93090000 		li	s3,0
 901 0518 6F008000 		j	.L51
 902              	.LVL90:
 903              	.L49:
 904              		.loc 1 173 5 is_stmt 1 discriminator 2
 905 051c 9B891900 		addiw	s3,s3,1
 906              	.LVL91:
 907              	.L51:
 908              		.loc 1 173 22 discriminator 1
 909 0520 93072000 		li	a5,2
 910 0524 63C63703 		bgt	s3,a5,.L47
 911              	.LBB21:
 174:src/Cache.cpp ****         Slab* curr = slabList[i];
 912              		.loc 1 174 9
 913              		.loc 1 174 15 is_stmt 0
 914 0528 93973900 		slli	a5,s3,3
 915 052c B307F900 		add	a5,s2,a5
 916 0530 83B58700 		ld	a1,8(a5)
 917              	.LVL92:
 918              	.L50:
 175:src/Cache.cpp ****         while(curr) {
 919              		.loc 1 175 9 is_stmt 1
 920              		.loc 1 175 15
 921 0534 E38405FE 		beqz	a1,.L49
 922              	.LBB22:
 176:src/Cache.cpp ****             Slab* old = curr;
 923              		.loc 1 176 13
 924              	.LVL93:
 177:src/Cache.cpp ****             curr = curr->next;
 925              		.loc 1 177 13
 926              		.loc 1 177 18 is_stmt 0
 927 0538 83B48500 		ld	s1,8(a1)
 928              	.LVL94:
 178:src/Cache.cpp ****             deallocSlab(old);
 929              		.loc 1 178 13 is_stmt 1
 930              		.loc 1 178 24 is_stmt 0
 931 053c 13050900 		mv	a0,s2
GAS LISTING /tmp/cc9WFbdp.s 			page 23


 932 0540 97000000 		call	_ZN5Cache11deallocSlabEPNS_4SlabE
 932      E7800000 
 933              	.LVL95:
 177:src/Cache.cpp ****             curr = curr->next;
 934              		.loc 1 177 18
 935 0548 93850400 		mv	a1,s1
 936              	.LBE22:
 175:src/Cache.cpp ****             Slab* old = curr;
 937              		.loc 1 175 9
 938 054c 6FF09FFE 		j	.L50
 939              	.LVL96:
 940              	.L47:
 941              	.LBE21:
 942              	.LBE20:
 179:src/Cache.cpp ****         }
 180:src/Cache.cpp ****     }
 181:src/Cache.cpp **** }
 943              		.loc 1 181 1
 944 0550 83308102 		ld	ra,40(sp)
 945              		.cfi_restore 1
 946 0554 03340102 		ld	s0,32(sp)
 947              		.cfi_restore 8
 948              		.cfi_def_cfa 2, 48
 949 0558 83348101 		ld	s1,24(sp)
 950              		.cfi_restore 9
 951 055c 03390101 		ld	s2,16(sp)
 952              		.cfi_restore 18
 953              	.LVL97:
 954 0560 83398100 		ld	s3,8(sp)
 955              		.cfi_restore 19
 956              	.LVL98:
 957 0564 13010103 		addi	sp,sp,48
 958              		.cfi_def_cfa_offset 0
 959 0568 67800000 		jr	ra
 960              		.cfi_endproc
 961              	.LFE36:
 963              		.align	2
 964              		.globl	_ZN5Cache4Slab17calculateNewStateEv
 966              	_ZN5Cache4Slab17calculateNewStateEv:
 967              	.LFB38:
 182:src/Cache.cpp **** 
 183:src/Cache.cpp **** 
 184:src/Cache.cpp **** Cache::Slot *Cache::Slab::getFreeSlot() {
 185:src/Cache.cpp ****     if(!slotHead || state == FULL) return nullptr;
 186:src/Cache.cpp **** 
 187:src/Cache.cpp ****     for(Slot* curr = slotHead; curr != nullptr; curr = curr->next) {
 188:src/Cache.cpp ****         if(curr->allocated == false) {
 189:src/Cache.cpp ****             this->allocatedSlots++;
 190:src/Cache.cpp ****             curr->allocated = true;
 191:src/Cache.cpp ****             curr->parentSlab = this;
 192:src/Cache.cpp **** 
 193:src/Cache.cpp ****             SlabState newState = calculateNewState();
 194:src/Cache.cpp ****             if(this->state != newState) {
 195:src/Cache.cpp ****                 if(this->state != CREATED) parentCache->slabListRemove(this, this->state);
 196:src/Cache.cpp ****                 parentCache->slabListPut(this, newState);
 197:src/Cache.cpp ****             }
 198:src/Cache.cpp **** 
GAS LISTING /tmp/cc9WFbdp.s 			page 24


 199:src/Cache.cpp ****             return curr;
 200:src/Cache.cpp ****         }
 201:src/Cache.cpp ****     }
 202:src/Cache.cpp **** 
 203:src/Cache.cpp ****     return nullptr;
 204:src/Cache.cpp **** }
 205:src/Cache.cpp **** 
 206:src/Cache.cpp **** Cache::SlabState Cache::Slab::calculateNewState() {
 968              		.loc 1 206 51 is_stmt 1
 969              		.cfi_startproc
 970              	.LVL99:
 971 056c 130101FF 		addi	sp,sp,-16
 972              		.cfi_def_cfa_offset 16
 973 0570 23348100 		sd	s0,8(sp)
 974              		.cfi_offset 8, -8
 975 0574 13040101 		addi	s0,sp,16
 976              		.cfi_def_cfa 8, 0
 207:src/Cache.cpp ****     if(allocatedSlots == 0) {
 977              		.loc 1 207 5
 978              		.loc 1 207 8 is_stmt 0
 979 0578 83370500 		ld	a5,0(a0)
 980              		.loc 1 207 5
 981 057c 63800702 		beqz	a5,.L55
 208:src/Cache.cpp ****         return EMPTY;
 209:src/Cache.cpp ****     }
 210:src/Cache.cpp ****     else if(allocatedSlots == parentCache->optimalSlots) {
 982              		.loc 1 210 10 is_stmt 1
 983              		.loc 1 210 31 is_stmt 0
 984 0580 03378501 		ld	a4,24(a0)
 985              		.loc 1 210 44
 986 0584 03378703 		ld	a4,56(a4)
 987              		.loc 1 210 10
 988 0588 638EE700 		beq	a5,a4,.L56
 211:src/Cache.cpp ****         return FULL;
 212:src/Cache.cpp ****     }
 213:src/Cache.cpp ****     return PARTIAL;
 989              		.loc 1 213 12
 990 058c 13051000 		li	a0,1
 991              	.LVL100:
 992              	.L54:
 214:src/Cache.cpp **** }
 993              		.loc 1 214 1
 994 0590 03348100 		ld	s0,8(sp)
 995              		.cfi_remember_state
 996              		.cfi_restore 8
 997              		.cfi_def_cfa 2, 16
 998 0594 13010101 		addi	sp,sp,16
 999              		.cfi_def_cfa_offset 0
 1000 0598 67800000 		jr	ra
 1001              	.LVL101:
 1002              	.L55:
 1003              		.cfi_restore_state
 208:src/Cache.cpp ****         return EMPTY;
 1004              		.loc 1 208 16
 1005 059c 13050000 		li	a0,0
 1006              	.LVL102:
 1007 05a0 6FF01FFF 		j	.L54
GAS LISTING /tmp/cc9WFbdp.s 			page 25


 1008              	.LVL103:
 1009              	.L56:
 211:src/Cache.cpp ****         return FULL;
 1010              		.loc 1 211 16
 1011 05a4 13052000 		li	a0,2
 1012              	.LVL104:
 1013 05a8 6FF09FFE 		j	.L54
 1014              		.cfi_endproc
 1015              	.LFE38:
 1017              		.align	2
 1018              		.globl	_ZN5Cache8freeSlotEPNS_4SlotE
 1020              	_ZN5Cache8freeSlotEPNS_4SlotE:
 1021              	.LFB29:
  78:src/Cache.cpp ****     if(slot->parentSlab->parentCache != this) {
 1022              		.loc 1 78 34 is_stmt 1
 1023              		.cfi_startproc
 1024              	.LVL105:
 1025 05ac 130101FD 		addi	sp,sp,-48
 1026              		.cfi_def_cfa_offset 48
 1027 05b0 23341102 		sd	ra,40(sp)
 1028 05b4 23308102 		sd	s0,32(sp)
 1029 05b8 233C9100 		sd	s1,24(sp)
 1030 05bc 23382101 		sd	s2,16(sp)
 1031 05c0 23343101 		sd	s3,8(sp)
 1032              		.cfi_offset 1, -8
 1033              		.cfi_offset 8, -16
 1034              		.cfi_offset 9, -24
 1035              		.cfi_offset 18, -32
 1036              		.cfi_offset 19, -40
 1037 05c4 13040103 		addi	s0,sp,48
 1038              		.cfi_def_cfa 8, 0
  79:src/Cache.cpp ****         errortype = FREESLOTERROR;
 1039              		.loc 1 79 5
  79:src/Cache.cpp ****         errortype = FREESLOTERROR;
 1040              		.loc 1 79 14 is_stmt 0
 1041 05c8 83B40501 		ld	s1,16(a1)
  79:src/Cache.cpp ****         errortype = FREESLOTERROR;
 1042              		.loc 1 79 26
 1043 05cc 03B98401 		ld	s2,24(s1)
  79:src/Cache.cpp ****         errortype = FREESLOTERROR;
 1044              		.loc 1 79 5
 1045 05d0 6304A902 		beq	s2,a0,.L59
  80:src/Cache.cpp ****         return;
 1046              		.loc 1 80 9 is_stmt 1
  80:src/Cache.cpp ****         return;
 1047              		.loc 1 80 19 is_stmt 0
 1048 05d4 93071000 		li	a5,1
 1049 05d8 2320F500 		sw	a5,0(a0)
  81:src/Cache.cpp ****     }
 1050              		.loc 1 81 9 is_stmt 1
 1051              	.LVL106:
 1052              	.L58:
  94:src/Cache.cpp **** 
 1053              		.loc 1 94 1 is_stmt 0
 1054 05dc 83308102 		ld	ra,40(sp)
 1055              		.cfi_remember_state
 1056              		.cfi_restore 1
GAS LISTING /tmp/cc9WFbdp.s 			page 26


 1057 05e0 03340102 		ld	s0,32(sp)
 1058              		.cfi_restore 8
 1059              		.cfi_def_cfa 2, 48
 1060 05e4 83348101 		ld	s1,24(sp)
 1061              		.cfi_restore 9
 1062 05e8 03390101 		ld	s2,16(sp)
 1063              		.cfi_restore 18
 1064 05ec 83398100 		ld	s3,8(sp)
 1065              		.cfi_restore 19
 1066 05f0 13010103 		addi	sp,sp,48
 1067              		.cfi_def_cfa_offset 0
 1068 05f4 67800000 		jr	ra
 1069              	.LVL107:
 1070              	.L59:
 1071              		.cfi_restore_state
  84:src/Cache.cpp ****     Cache* parentCache = parentSlab->parentCache;
 1072              		.loc 1 84 5 is_stmt 1
  85:src/Cache.cpp ****     slot->allocated = false;
 1073              		.loc 1 85 5
  86:src/Cache.cpp ****     parentSlab->allocatedSlots--;
 1074              		.loc 1 86 5
  86:src/Cache.cpp ****     parentSlab->allocatedSlots--;
 1075              		.loc 1 86 21 is_stmt 0
 1076 05f8 23800500 		sb	zero,0(a1)
  87:src/Cache.cpp **** 
 1077              		.loc 1 87 5 is_stmt 1
  87:src/Cache.cpp **** 
 1078              		.loc 1 87 17 is_stmt 0
 1079 05fc 83B70400 		ld	a5,0(s1)
  87:src/Cache.cpp **** 
 1080              		.loc 1 87 31
 1081 0600 9387F7FF 		addi	a5,a5,-1
 1082 0604 23B0F400 		sd	a5,0(s1)
  89:src/Cache.cpp ****     if(parentSlab->state != newState) {
 1083              		.loc 1 89 5 is_stmt 1
  89:src/Cache.cpp ****     if(parentSlab->state != newState) {
 1084              		.loc 1 89 55 is_stmt 0
 1085 0608 13850400 		mv	a0,s1
 1086              	.LVL108:
 1087 060c 97000000 		call	_ZN5Cache4Slab17calculateNewStateEv
 1087      E7800000 
 1088              	.LVL109:
 1089 0614 93090500 		mv	s3,a0
 1090              	.LVL110:
  90:src/Cache.cpp ****         if(parentSlab->state != CREATED) parentCache->slabListRemove(parentSlab, parentSlab->state)
 1091              		.loc 1 90 5 is_stmt 1
  90:src/Cache.cpp ****         if(parentSlab->state != CREATED) parentCache->slabListRemove(parentSlab, parentSlab->state)
 1092              		.loc 1 90 20 is_stmt 0
 1093 0618 03A60401 		lw	a2,16(s1)
  90:src/Cache.cpp ****         if(parentSlab->state != CREATED) parentCache->slabListRemove(parentSlab, parentSlab->state)
 1094              		.loc 1 90 5
 1095 061c E300A6FC 		beq	a2,a0,.L58
  91:src/Cache.cpp ****         parentCache->slabListPut(parentSlab, newState);
 1096              		.loc 1 91 9 is_stmt 1
 1097 0620 93073000 		li	a5,3
 1098 0624 631EF600 		bne	a2,a5,.L63
 1099              	.LVL111:
GAS LISTING /tmp/cc9WFbdp.s 			page 27


 1100              	.L61:
  92:src/Cache.cpp ****     }
 1101              		.loc 1 92 9
  92:src/Cache.cpp ****     }
 1102              		.loc 1 92 33 is_stmt 0
 1103 0628 1B860900 		sext.w	a2,s3
 1104 062c 93850400 		mv	a1,s1
 1105 0630 13050900 		mv	a0,s2
 1106 0634 97000000 		call	_ZN5Cache11slabListPutEPNS_4SlabEi
 1106      E7800000 
 1107              	.LVL112:
 1108 063c 6FF01FFA 		j	.L58
 1109              	.LVL113:
 1110              	.L63:
  91:src/Cache.cpp ****         parentCache->slabListPut(parentSlab, newState);
 1111              		.loc 1 91 42 is_stmt 1 discriminator 1
  91:src/Cache.cpp ****         parentCache->slabListPut(parentSlab, newState);
 1112              		.loc 1 91 69 is_stmt 0 discriminator 1
 1113 0640 93850400 		mv	a1,s1
 1114 0644 13050900 		mv	a0,s2
 1115              	.LVL114:
 1116 0648 97000000 		call	_ZN5Cache14slabListRemoveEPNS_4SlabEi
 1116      E7800000 
 1117              	.LVL115:
 1118 0650 6FF09FFD 		j	.L61
 1119              		.cfi_endproc
 1120              	.LFE29:
 1122              		.align	2
 1123              		.globl	_ZN5Cache4Slab11getFreeSlotEv
 1125              	_ZN5Cache4Slab11getFreeSlotEv:
 1126              	.LFB37:
 184:src/Cache.cpp ****     if(!slotHead || state == FULL) return nullptr;
 1127              		.loc 1 184 41 is_stmt 1
 1128              		.cfi_startproc
 1129              	.LVL116:
 1130 0654 130101FD 		addi	sp,sp,-48
 1131              		.cfi_def_cfa_offset 48
 1132 0658 23341102 		sd	ra,40(sp)
 1133 065c 23308102 		sd	s0,32(sp)
 1134 0660 233C9100 		sd	s1,24(sp)
 1135 0664 23382101 		sd	s2,16(sp)
 1136 0668 23343101 		sd	s3,8(sp)
 1137              		.cfi_offset 1, -8
 1138              		.cfi_offset 8, -16
 1139              		.cfi_offset 9, -24
 1140              		.cfi_offset 18, -32
 1141              		.cfi_offset 19, -40
 1142 066c 13040103 		addi	s0,sp,48
 1143              		.cfi_def_cfa 8, 0
 185:src/Cache.cpp **** 
 1144              		.loc 1 185 5
 185:src/Cache.cpp **** 
 1145              		.loc 1 185 9 is_stmt 0
 1146 0670 83340502 		ld	s1,32(a0)
 185:src/Cache.cpp **** 
 1147              		.loc 1 185 5
 1148 0674 638A0406 		beqz	s1,.L64
GAS LISTING /tmp/cc9WFbdp.s 			page 28


 1149 0678 13090500 		mv	s2,a0
 185:src/Cache.cpp **** 
 1150              		.loc 1 185 21 discriminator 2
 1151 067c 03270501 		lw	a4,16(a0)
 185:src/Cache.cpp **** 
 1152              		.loc 1 185 18 discriminator 2
 1153 0680 93072000 		li	a5,2
 1154 0684 630CF708 		beq	a4,a5,.L70
 1155              	.L69:
 1156              	.LVL117:
 1157              	.LBB23:
 187:src/Cache.cpp ****         if(curr->allocated == false) {
 1158              		.loc 1 187 37 is_stmt 1 discriminator 1
 1159 0688 63800406 		beqz	s1,.L64
 1160              	.LBE23:
 188:src/Cache.cpp ****             this->allocatedSlots++;
 1161              		.loc 1 188 9
 1162              	.LBB29:
 1163              	.LBB24:
 188:src/Cache.cpp ****             this->allocatedSlots++;
 1164              		.loc 1 188 18 is_stmt 0
 1165 068c 83C70400 		lbu	a5,0(s1)
 188:src/Cache.cpp ****             this->allocatedSlots++;
 1166              		.loc 1 188 9
 1167 0690 63860700 		beqz	a5,.L72
 1168              	.LBE24:
 187:src/Cache.cpp ****         if(curr->allocated == false) {
 1169              		.loc 1 187 5 is_stmt 1 discriminator 2
 187:src/Cache.cpp ****         if(curr->allocated == false) {
 1170              		.loc 1 187 54 is_stmt 0 discriminator 2
 1171 0694 83B48400 		ld	s1,8(s1)
 1172              	.LVL118:
 187:src/Cache.cpp ****         if(curr->allocated == false) {
 1173              		.loc 1 187 5 discriminator 2
 1174 0698 6FF01FFF 		j	.L69
 1175              	.L72:
 1176              	.LBB27:
 1177              	.LBB25:
 189:src/Cache.cpp ****             curr->allocated = true;
 1178              		.loc 1 189 13 is_stmt 1
 189:src/Cache.cpp ****             curr->allocated = true;
 1179              		.loc 1 189 19 is_stmt 0
 1180 069c 83370900 		ld	a5,0(s2)
 189:src/Cache.cpp ****             curr->allocated = true;
 1181              		.loc 1 189 33
 1182 06a0 93871700 		addi	a5,a5,1
 1183 06a4 2330F900 		sd	a5,0(s2)
 190:src/Cache.cpp ****             curr->parentSlab = this;
 1184              		.loc 1 190 13 is_stmt 1
 190:src/Cache.cpp ****             curr->parentSlab = this;
 1185              		.loc 1 190 29 is_stmt 0
 1186 06a8 93071000 		li	a5,1
 1187 06ac 2380F400 		sb	a5,0(s1)
 191:src/Cache.cpp **** 
 1188              		.loc 1 191 13 is_stmt 1
 191:src/Cache.cpp **** 
 1189              		.loc 1 191 30 is_stmt 0
GAS LISTING /tmp/cc9WFbdp.s 			page 29


 1190 06b0 23B82401 		sd	s2,16(s1)
 193:src/Cache.cpp ****             if(this->state != newState) {
 1191              		.loc 1 193 13 is_stmt 1
 193:src/Cache.cpp ****             if(this->state != newState) {
 1192              		.loc 1 193 51 is_stmt 0
 1193 06b4 13050900 		mv	a0,s2
 1194              	.LVL119:
 1195 06b8 97000000 		call	_ZN5Cache4Slab17calculateNewStateEv
 1195      E7800000 
 1196              	.LVL120:
 1197 06c0 93090500 		mv	s3,a0
 1198              	.LVL121:
 194:src/Cache.cpp ****                 if(this->state != CREATED) parentCache->slabListRemove(this, this->state);
 1199              		.loc 1 194 13 is_stmt 1
 194:src/Cache.cpp ****                 if(this->state != CREATED) parentCache->slabListRemove(this, this->state);
 1200              		.loc 1 194 22 is_stmt 0
 1201 06c4 03260901 		lw	a2,16(s2)
 194:src/Cache.cpp ****                 if(this->state != CREATED) parentCache->slabListRemove(this, this->state);
 1202              		.loc 1 194 13
 1203 06c8 6300A602 		beq	a2,a0,.L64
 195:src/Cache.cpp ****                 parentCache->slabListPut(this, newState);
 1204              		.loc 1 195 17 is_stmt 1
 1205 06cc 93073000 		li	a5,3
 1206 06d0 631CF602 		bne	a2,a5,.L73
 1207              	.LVL122:
 1208              	.L68:
 196:src/Cache.cpp ****             }
 1209              		.loc 1 196 17
 196:src/Cache.cpp ****             }
 1210              		.loc 1 196 41 is_stmt 0
 1211 06d4 1B860900 		sext.w	a2,s3
 1212 06d8 93050900 		mv	a1,s2
 1213 06dc 03358901 		ld	a0,24(s2)
 1214 06e0 97000000 		call	_ZN5Cache11slabListPutEPNS_4SlabEi
 1214      E7800000 
 1215              	.LVL123:
 199:src/Cache.cpp ****         }
 1216              		.loc 1 199 13 is_stmt 1
 1217              	.L64:
 1218              	.LBE25:
 1219              	.LBE27:
 1220              	.LBE29:
 204:src/Cache.cpp **** 
 1221              		.loc 1 204 1 is_stmt 0
 1222 06e8 13850400 		mv	a0,s1
 1223 06ec 83308102 		ld	ra,40(sp)
 1224              		.cfi_remember_state
 1225              		.cfi_restore 1
 1226 06f0 03340102 		ld	s0,32(sp)
 1227              		.cfi_restore 8
 1228              		.cfi_def_cfa 2, 48
 1229 06f4 83348101 		ld	s1,24(sp)
 1230              		.cfi_restore 9
 1231 06f8 03390101 		ld	s2,16(sp)
 1232              		.cfi_restore 18
 1233 06fc 83398100 		ld	s3,8(sp)
 1234              		.cfi_restore 19
GAS LISTING /tmp/cc9WFbdp.s 			page 30


 1235 0700 13010103 		addi	sp,sp,48
 1236              		.cfi_def_cfa_offset 0
 1237 0704 67800000 		jr	ra
 1238              	.LVL124:
 1239              	.L73:
 1240              		.cfi_restore_state
 1241              	.LBB30:
 1242              	.LBB28:
 1243              	.LBB26:
 195:src/Cache.cpp ****                 parentCache->slabListPut(this, newState);
 1244              		.loc 1 195 44 is_stmt 1 discriminator 1
 195:src/Cache.cpp ****                 parentCache->slabListPut(this, newState);
 1245              		.loc 1 195 71 is_stmt 0 discriminator 1
 1246 0708 93050900 		mv	a1,s2
 1247 070c 03358901 		ld	a0,24(s2)
 1248              	.LVL125:
 1249 0710 97000000 		call	_ZN5Cache14slabListRemoveEPNS_4SlabEi
 1249      E7800000 
 1250              	.LVL126:
 1251 0718 6FF0DFFB 		j	.L68
 1252              	.LVL127:
 1253              	.L70:
 1254              	.LBE26:
 1255              	.LBE28:
 1256              	.LBE30:
 185:src/Cache.cpp **** 
 1257              		.loc 1 185 43
 1258 071c 93040000 		li	s1,0
 1259 0720 6FF09FFC 		j	.L64
 1260              		.cfi_endproc
 1261              	.LFE37:
 1263              		.align	2
 1264              		.globl	_ZN5Cache12allocateSlotEv
 1266              	_ZN5Cache12allocateSlotEv:
 1267              	.LFB26:
  24:src/Cache.cpp ****     if(slabList[PARTIAL]) {
 1268              		.loc 1 24 29 is_stmt 1
 1269              		.cfi_startproc
 1270              	.LVL128:
 1271 0724 130101FF 		addi	sp,sp,-16
 1272              		.cfi_def_cfa_offset 16
 1273 0728 23341100 		sd	ra,8(sp)
 1274 072c 23308100 		sd	s0,0(sp)
 1275              		.cfi_offset 1, -8
 1276              		.cfi_offset 8, -16
 1277 0730 13040101 		addi	s0,sp,16
 1278              		.cfi_def_cfa 8, 0
 1279 0734 93070500 		mv	a5,a0
  25:src/Cache.cpp ****         Slab* slab = slabList[PARTIAL];
 1280              		.loc 1 25 5
 1281              	.LBB31:
  25:src/Cache.cpp ****         Slab* slab = slabList[PARTIAL];
 1282              		.loc 1 25 24 is_stmt 0
 1283 0738 03350501 		ld	a0,16(a0)
 1284              	.LVL129:
  25:src/Cache.cpp ****         Slab* slab = slabList[PARTIAL];
 1285              		.loc 1 25 5
GAS LISTING /tmp/cc9WFbdp.s 			page 31


 1286 073c 630E0500 		beqz	a0,.L75
 1287              	.LBB32:
  26:src/Cache.cpp ****         return slab->getFreeSlot();
 1288              		.loc 1 26 9 is_stmt 1
 1289              	.LVL130:
  27:src/Cache.cpp ****     }
 1290              		.loc 1 27 9
  27:src/Cache.cpp ****     }
 1291              		.loc 1 27 33 is_stmt 0
 1292 0740 97000000 		call	_ZN5Cache4Slab11getFreeSlotEv
 1292      E7800000 
 1293              	.LVL131:
 1294              	.L74:
 1295              	.LBE32:
 1296              	.LBE31:
  38:src/Cache.cpp **** 
 1297              		.loc 1 38 1
 1298 0748 83308100 		ld	ra,8(sp)
 1299              		.cfi_remember_state
 1300              		.cfi_restore 1
 1301 074c 03340100 		ld	s0,0(sp)
 1302              		.cfi_restore 8
 1303              		.cfi_def_cfa 2, 16
 1304 0750 13010101 		addi	sp,sp,16
 1305              		.cfi_def_cfa_offset 0
 1306 0754 67800000 		jr	ra
 1307              	.LVL132:
 1308              	.L75:
 1309              		.cfi_restore_state
  29:src/Cache.cpp ****         Slab* slab = slabList[EMPTY];
 1310              		.loc 1 29 10 is_stmt 1
 1311              	.LBB35:
 1312              	.LBB33:
  29:src/Cache.cpp ****         Slab* slab = slabList[EMPTY];
 1313              		.loc 1 29 27 is_stmt 0
 1314 0758 03B58700 		ld	a0,8(a5)
  29:src/Cache.cpp ****         Slab* slab = slabList[EMPTY];
 1315              		.loc 1 29 10
 1316 075c 63080500 		beqz	a0,.L77
 1317              	.LBB34:
  30:src/Cache.cpp ****         Slot* slot = slab->getFreeSlot();
 1318              		.loc 1 30 9 is_stmt 1
 1319              	.LVL133:
  31:src/Cache.cpp **** 
 1320              		.loc 1 31 9
  31:src/Cache.cpp **** 
 1321              		.loc 1 31 39 is_stmt 0
 1322 0760 97000000 		call	_ZN5Cache4Slab11getFreeSlotEv
 1322      E7800000 
 1323              	.LVL134:
  33:src/Cache.cpp ****     }
 1324              		.loc 1 33 9 is_stmt 1
  33:src/Cache.cpp ****     }
 1325              		.loc 1 33 16 is_stmt 0
 1326 0768 6FF01FFE 		j	.L74
 1327              	.LVL135:
 1328              	.L77:
GAS LISTING /tmp/cc9WFbdp.s 			page 32


 1329              	.LBE34:
 1330              	.LBE33:
 1331              	.LBE35:
  36:src/Cache.cpp ****     return slab->getFreeSlot();
 1332              		.loc 1 36 5 is_stmt 1
  36:src/Cache.cpp ****     return slab->getFreeSlot();
 1333              		.loc 1 36 30 is_stmt 0
 1334 076c 13850700 		mv	a0,a5
 1335 0770 97000000 		call	_ZN5Cache12allocateSlabEv
 1335      E7800000 
 1336              	.LVL136:
  37:src/Cache.cpp **** }
 1337              		.loc 1 37 5 is_stmt 1
  37:src/Cache.cpp **** }
 1338              		.loc 1 37 29 is_stmt 0
 1339 0778 97000000 		call	_ZN5Cache4Slab11getFreeSlotEv
 1339      E7800000 
 1340              	.LVL137:
  37:src/Cache.cpp **** }
 1341              		.loc 1 37 30
 1342 0780 6FF09FFC 		j	.L74
 1343              		.cfi_endproc
 1344              	.LFE26:
 1346              	.Letext0:
 1347              		.file 2 "src/../h/hw.h"
 1348              		.file 3 "src/../h/Cache.h"
 1349              		.file 4 "src/../h/BuddyAllocator.h"
 1350              		.file 5 "src/../h/syscall_c.h"
 1351              		.file 6 "src/../h/printing.hpp"
GAS LISTING /tmp/cc9WFbdp.s 			page 33


DEFINED SYMBOLS
                            *ABS*:0000000000000000 Cache.cpp
     /tmp/cc9WFbdp.s:9      .text:0000000000000000 _ZN5Cache11getNumSlotsEm
     /tmp/cc9WFbdp.s:13     .text:0000000000000000 .L0 
     /tmp/cc9WFbdp.s:15     .text:0000000000000000 .L0 
     /tmp/cc9WFbdp.s:16     .text:0000000000000004 .L0 
     /tmp/cc9WFbdp.s:18     .text:0000000000000008 .L0 
     /tmp/cc9WFbdp.s:20     .text:000000000000000c .L0 
     /tmp/cc9WFbdp.s:22     .text:000000000000000c .L0 
     /tmp/cc9WFbdp.s:23     .text:000000000000000c .L0 
     /tmp/cc9WFbdp.s:28     .text:0000000000000018 .L0 
     /tmp/cc9WFbdp.s:30     .text:0000000000000020 .L0 
     /tmp/cc9WFbdp.s:31     .text:0000000000000020 .L0 
     /tmp/cc9WFbdp.s:33     .text:0000000000000024 .L0 
     /tmp/cc9WFbdp.s:35     .text:0000000000000028 .L0 
     /tmp/cc9WFbdp.s:41     .text:0000000000000028 _ZN5Cache9initCacheEPKcmPFvPvES4_
     /tmp/cc9WFbdp.s:44     .text:0000000000000028 .L0 
     /tmp/cc9WFbdp.s:46     .text:0000000000000028 .L0 
     /tmp/cc9WFbdp.s:47     .text:000000000000002c .L0 
     /tmp/cc9WFbdp.s:51     .text:0000000000000038 .L0 
     /tmp/cc9WFbdp.s:52     .text:0000000000000038 .L0 
     /tmp/cc9WFbdp.s:53     .text:0000000000000038 .L0 
     /tmp/cc9WFbdp.s:55     .text:000000000000003c .L0 
     /tmp/cc9WFbdp.s:60     .text:0000000000000040 .L0 
     /tmp/cc9WFbdp.s:61     .text:0000000000000040 .L0 
     /tmp/cc9WFbdp.s:65     .text:0000000000000044 .L0 
     /tmp/cc9WFbdp.s:66     .text:0000000000000044 .L0 
     /tmp/cc9WFbdp.s:69     .text:000000000000004c .L0 
     /tmp/cc9WFbdp.s:72     .text:0000000000000054 .L0 
     /tmp/cc9WFbdp.s:73     .text:0000000000000054 .L0 
     /tmp/cc9WFbdp.s:75     .text:0000000000000058 .L0 
     /tmp/cc9WFbdp.s:77     .text:000000000000005c .L0 
     /tmp/cc9WFbdp.s:80     .text:0000000000000060 .L0 
     /tmp/cc9WFbdp.s:81     .text:0000000000000060 .L0 
     /tmp/cc9WFbdp.s:87     .text:0000000000000064 .L0 
     /tmp/cc9WFbdp.s:91     .text:0000000000000068 .L0 
     /tmp/cc9WFbdp.s:94     .text:0000000000000070 .L0 
     /tmp/cc9WFbdp.s:95     .text:0000000000000070 .L0 
     /tmp/cc9WFbdp.s:99     .text:000000000000007c .L0 
     /tmp/cc9WFbdp.s:106    .text:0000000000000084 .L0 
     /tmp/cc9WFbdp.s:107    .text:0000000000000084 .L0 
     /tmp/cc9WFbdp.s:109    .text:0000000000000088 .L0 
     /tmp/cc9WFbdp.s:110    .text:0000000000000088 .L0 
     /tmp/cc9WFbdp.s:112    .text:000000000000008c .L0 
     /tmp/cc9WFbdp.s:113    .text:000000000000008c .L0 
     /tmp/cc9WFbdp.s:115    .text:0000000000000090 .L0 
     /tmp/cc9WFbdp.s:116    .text:0000000000000090 .L0 
     /tmp/cc9WFbdp.s:118    .text:0000000000000094 .L0 
     /tmp/cc9WFbdp.s:120    .text:0000000000000098 .L0 
     /tmp/cc9WFbdp.s:121    .text:0000000000000098 .L0 
     /tmp/cc9WFbdp.s:124    .text:00000000000000a0 .L0 
     /tmp/cc9WFbdp.s:126    .text:00000000000000a4 .L0 
     /tmp/cc9WFbdp.s:127    .text:00000000000000a8 .L0 
     /tmp/cc9WFbdp.s:129    .text:00000000000000ac .L0 
     /tmp/cc9WFbdp.s:130    .text:00000000000000ac .L0 
     /tmp/cc9WFbdp.s:132    .text:00000000000000b0 .L0 
     /tmp/cc9WFbdp.s:135    .text:00000000000000b4 .L0 
GAS LISTING /tmp/cc9WFbdp.s 			page 34


     /tmp/cc9WFbdp.s:137    .text:00000000000000b8 .L0 
     /tmp/cc9WFbdp.s:143    .text:00000000000000b8 _ZN5Cache12allocateSlabEv
     /tmp/cc9WFbdp.s:146    .text:00000000000000b8 .L0 
     /tmp/cc9WFbdp.s:148    .text:00000000000000b8 .L0 
     /tmp/cc9WFbdp.s:149    .text:00000000000000bc .L0 
     /tmp/cc9WFbdp.s:157    .text:00000000000000d8 .L0 
     /tmp/cc9WFbdp.s:158    .text:00000000000000d8 .L0 
     /tmp/cc9WFbdp.s:159    .text:00000000000000d8 .L0 
     /tmp/cc9WFbdp.s:160    .text:00000000000000d8 .L0 
     /tmp/cc9WFbdp.s:161    .text:00000000000000d8 .L0 
     /tmp/cc9WFbdp.s:162    .text:00000000000000d8 .L0 
     /tmp/cc9WFbdp.s:163    .text:00000000000000d8 .L0 
     /tmp/cc9WFbdp.s:165    .text:00000000000000dc .L0 
     /tmp/cc9WFbdp.s:168    .text:00000000000000e0 .L0 
     /tmp/cc9WFbdp.s:169    .text:00000000000000e0 .L0 
     /tmp/cc9WFbdp.s:176    .text:00000000000000f0 .L0 
     /tmp/cc9WFbdp.s:177    .text:00000000000000f0 .L0 
     /tmp/cc9WFbdp.s:179    .text:00000000000000f4 .L0 
     /tmp/cc9WFbdp.s:180    .text:00000000000000f4 .L0 
     /tmp/cc9WFbdp.s:182    .text:00000000000000f8 .L0 
     /tmp/cc9WFbdp.s:183    .text:00000000000000f8 .L0 
     /tmp/cc9WFbdp.s:186    .text:0000000000000100 .L0 
     /tmp/cc9WFbdp.s:187    .text:0000000000000100 .L0 
     /tmp/cc9WFbdp.s:189    .text:0000000000000104 .L0 
     /tmp/cc9WFbdp.s:190    .text:0000000000000104 .L0 
     /tmp/cc9WFbdp.s:193    .text:0000000000000108 .L0 
     /tmp/cc9WFbdp.s:195    .text:0000000000000108 .L0 
     /tmp/cc9WFbdp.s:196    .text:0000000000000108 .L0 
     /tmp/cc9WFbdp.s:199    .text:000000000000010c .L0 
     /tmp/cc9WFbdp.s:206    .text:0000000000000114 .L0 
     /tmp/cc9WFbdp.s:207    .text:0000000000000114 .L0 
     /tmp/cc9WFbdp.s:210    .text:0000000000000118 .L0 
     /tmp/cc9WFbdp.s:211    .text:0000000000000118 .L0 
     /tmp/cc9WFbdp.s:215    .text:000000000000011c .L0 
     /tmp/cc9WFbdp.s:216    .text:000000000000011c .L0 
     /tmp/cc9WFbdp.s:220    .text:0000000000000120 .L0 
     /tmp/cc9WFbdp.s:225    .text:0000000000000124 .L0 
     /tmp/cc9WFbdp.s:226    .text:0000000000000124 .L0 
     /tmp/cc9WFbdp.s:228    .text:0000000000000128 .L0 
     /tmp/cc9WFbdp.s:231    .text:000000000000012c .L0 
     /tmp/cc9WFbdp.s:232    .text:000000000000012c .L0 
     /tmp/cc9WFbdp.s:234    .text:0000000000000130 .L0 
     /tmp/cc9WFbdp.s:236    .text:0000000000000134 .L0 
     /tmp/cc9WFbdp.s:237    .text:0000000000000134 .L0 
     /tmp/cc9WFbdp.s:239    .text:0000000000000138 .L0 
     /tmp/cc9WFbdp.s:241    .text:000000000000013c .L0 
     /tmp/cc9WFbdp.s:246    .text:0000000000000144 .L0 
     /tmp/cc9WFbdp.s:247    .text:0000000000000144 .L0 
     /tmp/cc9WFbdp.s:249    .text:0000000000000148 .L0 
     /tmp/cc9WFbdp.s:251    .text:000000000000014c .L0 
     /tmp/cc9WFbdp.s:254    .text:0000000000000150 .L0 
     /tmp/cc9WFbdp.s:255    .text:0000000000000150 .L0 
     /tmp/cc9WFbdp.s:257    .text:0000000000000154 .L0 
     /tmp/cc9WFbdp.s:258    .text:0000000000000154 .L0 
     /tmp/cc9WFbdp.s:260    .text:0000000000000158 .L0 
     /tmp/cc9WFbdp.s:262    .text:000000000000015c .L0 
     /tmp/cc9WFbdp.s:263    .text:000000000000015c .L0 
GAS LISTING /tmp/cc9WFbdp.s 			page 35


     /tmp/cc9WFbdp.s:270    .text:0000000000000164 .L0 
     /tmp/cc9WFbdp.s:272    .text:000000000000016c .L0 
     /tmp/cc9WFbdp.s:274    .text:0000000000000170 .L0 
     /tmp/cc9WFbdp.s:275    .text:0000000000000170 .L0 
     /tmp/cc9WFbdp.s:277    .text:0000000000000174 .L0 
     /tmp/cc9WFbdp.s:280    .text:0000000000000178 .L0 
     /tmp/cc9WFbdp.s:283    .text:000000000000017c .L0 
     /tmp/cc9WFbdp.s:286    .text:0000000000000180 .L0 
     /tmp/cc9WFbdp.s:289    .text:0000000000000184 .L0 
     /tmp/cc9WFbdp.s:292    .text:0000000000000188 .L0 
     /tmp/cc9WFbdp.s:294    .text:000000000000018c .L0 
     /tmp/cc9WFbdp.s:300    .text:000000000000018c _ZN5Cache11slabListPutEPNS_4SlabEi
     /tmp/cc9WFbdp.s:303    .text:000000000000018c .L0 
     /tmp/cc9WFbdp.s:305    .text:000000000000018c .L0 
     /tmp/cc9WFbdp.s:306    .text:0000000000000190 .L0 
     /tmp/cc9WFbdp.s:308    .text:0000000000000194 .L0 
     /tmp/cc9WFbdp.s:310    .text:0000000000000198 .L0 
     /tmp/cc9WFbdp.s:312    .text:0000000000000198 .L0 
     /tmp/cc9WFbdp.s:314    .text:000000000000019c .L0 
     /tmp/cc9WFbdp.s:316    .text:00000000000001a0 .L0 
     /tmp/cc9WFbdp.s:319    .text:00000000000001a8 .L0 
     /tmp/cc9WFbdp.s:320    .text:00000000000001a8 .L0 
     /tmp/cc9WFbdp.s:322    .text:00000000000001ac .L0 
     /tmp/cc9WFbdp.s:323    .text:00000000000001ac .L0 
     /tmp/cc9WFbdp.s:327    .text:00000000000001b8 .L0 
     /tmp/cc9WFbdp.s:329    .text:00000000000001bc .L0 
     /tmp/cc9WFbdp.s:330    .text:00000000000001bc .L0 
     /tmp/cc9WFbdp.s:333    .text:00000000000001c0 .L0 
     /tmp/cc9WFbdp.s:334    .text:00000000000001c0 .L0 
     /tmp/cc9WFbdp.s:341    .text:00000000000001cc .L0 
     /tmp/cc9WFbdp.s:342    .text:00000000000001d0 .L0 
     /tmp/cc9WFbdp.s:343    .text:00000000000001d0 .L0 
     /tmp/cc9WFbdp.s:345    .text:00000000000001d4 .L0 
     /tmp/cc9WFbdp.s:347    .text:00000000000001d8 .L0 
     /tmp/cc9WFbdp.s:353    .text:00000000000001d8 _ZN5Cache14slabListRemoveEPNS_4SlabEi
     /tmp/cc9WFbdp.s:356    .text:00000000000001d8 .L0 
     /tmp/cc9WFbdp.s:358    .text:00000000000001d8 .L0 
     /tmp/cc9WFbdp.s:359    .text:00000000000001dc .L0 
     /tmp/cc9WFbdp.s:361    .text:00000000000001e0 .L0 
     /tmp/cc9WFbdp.s:363    .text:00000000000001e4 .L0 
     /tmp/cc9WFbdp.s:365    .text:00000000000001e4 .L0 
     /tmp/cc9WFbdp.s:367    .text:00000000000001e8 .L0 
     /tmp/cc9WFbdp.s:369    .text:00000000000001ec .L0 
     /tmp/cc9WFbdp.s:373    .text:00000000000001f4 .L0 
     /tmp/cc9WFbdp.s:375    .text:00000000000001f4 .L0 
     /tmp/cc9WFbdp.s:376    .text:00000000000001f4 .L0 
     /tmp/cc9WFbdp.s:383    .text:0000000000000200 .L0 
     /tmp/cc9WFbdp.s:388    .text:0000000000000204 .L0 
     /tmp/cc9WFbdp.s:390    .text:0000000000000208 .L0 
     /tmp/cc9WFbdp.s:393    .text:000000000000020c .L0 
     /tmp/cc9WFbdp.s:394    .text:000000000000020c .L0 
     /tmp/cc9WFbdp.s:395    .text:000000000000020c .L0 
     /tmp/cc9WFbdp.s:397    .text:0000000000000210 .L0 
     /tmp/cc9WFbdp.s:400    .text:0000000000000214 .L0 
     /tmp/cc9WFbdp.s:403    .text:0000000000000218 .L0 
     /tmp/cc9WFbdp.s:404    .text:0000000000000218 .L0 
     /tmp/cc9WFbdp.s:406    .text:000000000000021c .L0 
GAS LISTING /tmp/cc9WFbdp.s 			page 36


     /tmp/cc9WFbdp.s:408    .text:0000000000000220 .L0 
     /tmp/cc9WFbdp.s:409    .text:0000000000000220 .L0 
     /tmp/cc9WFbdp.s:414    .text:0000000000000224 .L0 
     /tmp/cc9WFbdp.s:415    .text:0000000000000224 .L0 
     /tmp/cc9WFbdp.s:416    .text:0000000000000228 .L0 
     /tmp/cc9WFbdp.s:417    .text:0000000000000228 .L0 
     /tmp/cc9WFbdp.s:419    .text:000000000000022c .L0 
     /tmp/cc9WFbdp.s:421    .text:0000000000000230 .L0 
     /tmp/cc9WFbdp.s:435    .text:0000000000000230 _ZN5Cache17printErrorMessageEv
     /tmp/cc9WFbdp.s:438    .text:0000000000000230 .L0 
     /tmp/cc9WFbdp.s:440    .text:0000000000000230 .L0 
     /tmp/cc9WFbdp.s:441    .text:0000000000000234 .L0 
     /tmp/cc9WFbdp.s:445    .text:0000000000000240 .L0 
     /tmp/cc9WFbdp.s:446    .text:0000000000000240 .L0 
     /tmp/cc9WFbdp.s:447    .text:0000000000000240 .L0 
     /tmp/cc9WFbdp.s:449    .text:0000000000000244 .L0 
     /tmp/cc9WFbdp.s:452    .text:0000000000000248 .L0 
     /tmp/cc9WFbdp.s:453    .text:0000000000000248 .L0 
     /tmp/cc9WFbdp.s:455    .text:000000000000024c .L0 
     /tmp/cc9WFbdp.s:460    .text:0000000000000254 .L0 
     /tmp/cc9WFbdp.s:461    .text:0000000000000254 .L0 
     /tmp/cc9WFbdp.s:462    .text:0000000000000254 .L0 
     /tmp/cc9WFbdp.s:466    .text:0000000000000264 .L0 
     /tmp/cc9WFbdp.s:467    .text:0000000000000264 .L0 
     /tmp/cc9WFbdp.s:469    .text:000000000000026c .L0 
     /tmp/cc9WFbdp.s:470    .text:000000000000026c .L0 
     /tmp/cc9WFbdp.s:472    .text:0000000000000270 .L0 
     /tmp/cc9WFbdp.s:473    .text:0000000000000270 .L0 
     /tmp/cc9WFbdp.s:475    .text:0000000000000274 .L0 
     /tmp/cc9WFbdp.s:478    .text:0000000000000278 .L0 
     /tmp/cc9WFbdp.s:482    .text:000000000000027c .L0 
     /tmp/cc9WFbdp.s:484    .text:000000000000027c .L0 
     /tmp/cc9WFbdp.s:485    .text:000000000000027c .L0 
     /tmp/cc9WFbdp.s:486    .text:000000000000027c .L0 
     /tmp/cc9WFbdp.s:490    .text:0000000000000290 .L0 
     /tmp/cc9WFbdp.s:496    .text:0000000000000290 _ZN5Cache19getNumSlabsAndSlotsEPiS0_
     /tmp/cc9WFbdp.s:499    .text:0000000000000290 .L0 
     /tmp/cc9WFbdp.s:501    .text:0000000000000290 .L0 
     /tmp/cc9WFbdp.s:502    .text:0000000000000294 .L0 
     /tmp/cc9WFbdp.s:504    .text:0000000000000298 .L0 
     /tmp/cc9WFbdp.s:506    .text:000000000000029c .L0 
     /tmp/cc9WFbdp.s:509    .text:000000000000029c .L0 
     /tmp/cc9WFbdp.s:511    .text:000000000000029c .L0 
     /tmp/cc9WFbdp.s:512    .text:000000000000029c .L0 
     /tmp/cc9WFbdp.s:515    .text:00000000000002a0 .L0 
     /tmp/cc9WFbdp.s:517    .text:00000000000002a4 .L0 
     /tmp/cc9WFbdp.s:523    .text:00000000000002ac .L0 
     /tmp/cc9WFbdp.s:527    .text:00000000000002b0 .L0 
     /tmp/cc9WFbdp.s:533    .text:00000000000002b8 .L0 
     /tmp/cc9WFbdp.s:534    .text:00000000000002b8 .L0 
     /tmp/cc9WFbdp.s:540    .text:00000000000002c4 .L0 
     /tmp/cc9WFbdp.s:542    .text:00000000000002c8 .L0 
     /tmp/cc9WFbdp.s:543    .text:00000000000002c8 .L0 
     /tmp/cc9WFbdp.s:546    .text:00000000000002cc .L0 
     /tmp/cc9WFbdp.s:547    .text:00000000000002cc .L0 
     /tmp/cc9WFbdp.s:549    .text:00000000000002d0 .L0 
     /tmp/cc9WFbdp.s:552    .text:00000000000002d4 .L0 
GAS LISTING /tmp/cc9WFbdp.s 			page 37


     /tmp/cc9WFbdp.s:553    .text:00000000000002d4 .L0 
     /tmp/cc9WFbdp.s:556    .text:00000000000002d8 .L0 
     /tmp/cc9WFbdp.s:562    .text:00000000000002dc .L0 
     /tmp/cc9WFbdp.s:563    .text:00000000000002dc .L0 
     /tmp/cc9WFbdp.s:565    .text:00000000000002e0 .L0 
     /tmp/cc9WFbdp.s:566    .text:00000000000002e0 .L0 
     /tmp/cc9WFbdp.s:568    .text:00000000000002e4 .L0 
     /tmp/cc9WFbdp.s:569    .text:00000000000002e8 .L0 
     /tmp/cc9WFbdp.s:570    .text:00000000000002e8 .L0 
     /tmp/cc9WFbdp.s:572    .text:00000000000002ec .L0 
     /tmp/cc9WFbdp.s:574    .text:00000000000002f0 .L0 
     /tmp/cc9WFbdp.s:588    .text:00000000000002f0 _ZN5Cache14printCacheInfoEv
     /tmp/cc9WFbdp.s:591    .text:00000000000002f0 .L0 
     /tmp/cc9WFbdp.s:593    .text:00000000000002f0 .L0 
     /tmp/cc9WFbdp.s:594    .text:00000000000002f4 .L0 
     /tmp/cc9WFbdp.s:598    .text:0000000000000300 .L0 
     /tmp/cc9WFbdp.s:599    .text:0000000000000300 .L0 
     /tmp/cc9WFbdp.s:600    .text:0000000000000300 .L0 
     /tmp/cc9WFbdp.s:602    .text:0000000000000304 .L0 
     /tmp/cc9WFbdp.s:605    .text:0000000000000308 .L0 
     /tmp/cc9WFbdp.s:606    .text:0000000000000308 .L0 
     /tmp/cc9WFbdp.s:608    .text:000000000000030c .L0 
     /tmp/cc9WFbdp.s:610    .text:0000000000000310 .L0 
     /tmp/cc9WFbdp.s:611    .text:0000000000000310 .L0 
     /tmp/cc9WFbdp.s:616    .text:0000000000000320 .L0 
     /tmp/cc9WFbdp.s:617    .text:0000000000000320 .L0 
     /tmp/cc9WFbdp.s:621    .text:0000000000000330 .L0 
     /tmp/cc9WFbdp.s:622    .text:0000000000000330 .L0 
     /tmp/cc9WFbdp.s:626    .text:000000000000033c .L0 
     /tmp/cc9WFbdp.s:627    .text:000000000000033c .L0 
     /tmp/cc9WFbdp.s:631    .text:000000000000034c .L0 
     /tmp/cc9WFbdp.s:632    .text:000000000000034c .L0 
     /tmp/cc9WFbdp.s:638    .text:0000000000000360 .L0 
     /tmp/cc9WFbdp.s:639    .text:0000000000000360 .L0 
     /tmp/cc9WFbdp.s:643    .text:0000000000000370 .L0 
     /tmp/cc9WFbdp.s:644    .text:0000000000000370 .L0 
     /tmp/cc9WFbdp.s:650    .text:0000000000000384 .L0 
     /tmp/cc9WFbdp.s:651    .text:0000000000000384 .L0 
     /tmp/cc9WFbdp.s:655    .text:0000000000000394 .L0 
     /tmp/cc9WFbdp.s:656    .text:0000000000000394 .L0 
     /tmp/cc9WFbdp.s:662    .text:00000000000003a8 .L0 
     /tmp/cc9WFbdp.s:663    .text:00000000000003a8 .L0 
     /tmp/cc9WFbdp.s:667    .text:00000000000003b8 .L0 
     /tmp/cc9WFbdp.s:668    .text:00000000000003b8 .L0 
     /tmp/cc9WFbdp.s:674    .text:00000000000003cc .L0 
     /tmp/cc9WFbdp.s:675    .text:00000000000003cc .L0 
     /tmp/cc9WFbdp.s:679    .text:00000000000003dc .L0 
     /tmp/cc9WFbdp.s:680    .text:00000000000003dc .L0 
     /tmp/cc9WFbdp.s:686    .text:00000000000003f0 .L0 
     /tmp/cc9WFbdp.s:687    .text:00000000000003f4 .L0 
     /tmp/cc9WFbdp.s:689    .text:00000000000003f8 .L0 
     /tmp/cc9WFbdp.s:690    .text:00000000000003f8 .L0 
     /tmp/cc9WFbdp.s:692    .text:00000000000003fc .L0 
     /tmp/cc9WFbdp.s:695    .text:0000000000000400 .L0 
     /tmp/cc9WFbdp.s:697    .text:0000000000000404 .L0 
     /tmp/cc9WFbdp.s:703    .text:0000000000000404 _ZN5Cache11deallocSlabEPNS_4SlabE
     /tmp/cc9WFbdp.s:706    .text:0000000000000404 .L0 
GAS LISTING /tmp/cc9WFbdp.s 			page 38


     /tmp/cc9WFbdp.s:708    .text:0000000000000404 .L0 
     /tmp/cc9WFbdp.s:709    .text:0000000000000408 .L0 
     /tmp/cc9WFbdp.s:715    .text:000000000000041c .L0 
     /tmp/cc9WFbdp.s:716    .text:000000000000041c .L0 
     /tmp/cc9WFbdp.s:717    .text:000000000000041c .L0 
     /tmp/cc9WFbdp.s:718    .text:000000000000041c .L0 
     /tmp/cc9WFbdp.s:719    .text:000000000000041c .L0 
     /tmp/cc9WFbdp.s:721    .text:0000000000000420 .L0 
     /tmp/cc9WFbdp.s:725    .text:0000000000000424 .L0 
     /tmp/cc9WFbdp.s:727    .text:0000000000000424 .L0 
     /tmp/cc9WFbdp.s:728    .text:0000000000000424 .L0 
     /tmp/cc9WFbdp.s:730    .text:0000000000000428 .L0 
     /tmp/cc9WFbdp.s:734    .text:0000000000000430 .L0 
     /tmp/cc9WFbdp.s:739    .text:0000000000000438 .L0 
     /tmp/cc9WFbdp.s:741    .text:000000000000043c .L0 
     /tmp/cc9WFbdp.s:743    .text:0000000000000440 .L0 
     /tmp/cc9WFbdp.s:745    .text:0000000000000444 .L0 
     /tmp/cc9WFbdp.s:750    .text:0000000000000450 .L0 
     /tmp/cc9WFbdp.s:754    .text:0000000000000454 .L0 
     /tmp/cc9WFbdp.s:755    .text:0000000000000454 .L0 
     /tmp/cc9WFbdp.s:757    .text:0000000000000458 .L0 
     /tmp/cc9WFbdp.s:763    .text:000000000000045c .L0 
     /tmp/cc9WFbdp.s:764    .text:000000000000045c .L0 
     /tmp/cc9WFbdp.s:769    .text:000000000000046c .L0 
     /tmp/cc9WFbdp.s:770    .text:0000000000000470 .L0 
     /tmp/cc9WFbdp.s:772    .text:0000000000000474 .L0 
     /tmp/cc9WFbdp.s:773    .text:0000000000000474 .L0 
     /tmp/cc9WFbdp.s:775    .text:0000000000000478 .L0 
     /tmp/cc9WFbdp.s:777    .text:000000000000047c .L0 
     /tmp/cc9WFbdp.s:779    .text:0000000000000480 .L0 
     /tmp/cc9WFbdp.s:782    .text:0000000000000484 .L0 
     /tmp/cc9WFbdp.s:784    .text:0000000000000488 .L0 
     /tmp/cc9WFbdp.s:790    .text:0000000000000488 _ZN5Cache16deallocFreeSlabsEv
     /tmp/cc9WFbdp.s:793    .text:0000000000000488 .L0 
     /tmp/cc9WFbdp.s:795    .text:0000000000000488 .L0 
     /tmp/cc9WFbdp.s:796    .text:000000000000048c .L0 
     /tmp/cc9WFbdp.s:802    .text:00000000000004a0 .L0 
     /tmp/cc9WFbdp.s:803    .text:00000000000004a0 .L0 
     /tmp/cc9WFbdp.s:804    .text:00000000000004a0 .L0 
     /tmp/cc9WFbdp.s:805    .text:00000000000004a0 .L0 
     /tmp/cc9WFbdp.s:806    .text:00000000000004a0 .L0 
     /tmp/cc9WFbdp.s:808    .text:00000000000004a4 .L0 
     /tmp/cc9WFbdp.s:812    .text:00000000000004a8 .L0 
     /tmp/cc9WFbdp.s:814    .text:00000000000004a8 .L0 
     /tmp/cc9WFbdp.s:815    .text:00000000000004a8 .L0 
     /tmp/cc9WFbdp.s:819    .text:00000000000004ac .L0 
     /tmp/cc9WFbdp.s:824    .text:00000000000004b0 .L0 
     /tmp/cc9WFbdp.s:827    .text:00000000000004b4 .L0 
     /tmp/cc9WFbdp.s:828    .text:00000000000004b4 .L0 
     /tmp/cc9WFbdp.s:831    .text:00000000000004b8 .L0 
     /tmp/cc9WFbdp.s:832    .text:00000000000004b8 .L0 
     /tmp/cc9WFbdp.s:833    .text:00000000000004b8 .L0 
     /tmp/cc9WFbdp.s:836    .text:00000000000004bc .L0 
     /tmp/cc9WFbdp.s:837    .text:00000000000004bc .L0 
     /tmp/cc9WFbdp.s:841    .text:00000000000004c8 .L0 
     /tmp/cc9WFbdp.s:844    .text:00000000000004cc .L0 
     /tmp/cc9WFbdp.s:849    .text:00000000000004d0 .L0 
GAS LISTING /tmp/cc9WFbdp.s 			page 39


     /tmp/cc9WFbdp.s:850    .text:00000000000004d0 .L0 
     /tmp/cc9WFbdp.s:852    .text:00000000000004d4 .L0 
     /tmp/cc9WFbdp.s:853    .text:00000000000004d4 .L0 
     /tmp/cc9WFbdp.s:855    .text:00000000000004dc .L0 
     /tmp/cc9WFbdp.s:857    .text:00000000000004e0 .L0 
     /tmp/cc9WFbdp.s:858    .text:00000000000004e0 .L0 
     /tmp/cc9WFbdp.s:860    .text:00000000000004e4 .L0 
     /tmp/cc9WFbdp.s:863    .text:00000000000004e8 .L0 
     /tmp/cc9WFbdp.s:865    .text:00000000000004ec .L0 
     /tmp/cc9WFbdp.s:868    .text:00000000000004f0 .L0 
     /tmp/cc9WFbdp.s:870    .text:00000000000004f4 .L0 
     /tmp/cc9WFbdp.s:876    .text:00000000000004f4 _ZN5Cache12deallocCacheEv
     /tmp/cc9WFbdp.s:879    .text:00000000000004f4 .L0 
     /tmp/cc9WFbdp.s:881    .text:00000000000004f4 .L0 
     /tmp/cc9WFbdp.s:882    .text:00000000000004f8 .L0 
     /tmp/cc9WFbdp.s:888    .text:000000000000050c .L0 
     /tmp/cc9WFbdp.s:889    .text:000000000000050c .L0 
     /tmp/cc9WFbdp.s:890    .text:000000000000050c .L0 
     /tmp/cc9WFbdp.s:891    .text:000000000000050c .L0 
     /tmp/cc9WFbdp.s:892    .text:000000000000050c .L0 
     /tmp/cc9WFbdp.s:894    .text:0000000000000510 .L0 
     /tmp/cc9WFbdp.s:899    .text:0000000000000514 .L0 
     /tmp/cc9WFbdp.s:900    .text:0000000000000514 .L0 
     /tmp/cc9WFbdp.s:905    .text:000000000000051c .L0 
     /tmp/cc9WFbdp.s:909    .text:0000000000000520 .L0 
     /tmp/cc9WFbdp.s:913    .text:0000000000000528 .L0 
     /tmp/cc9WFbdp.s:914    .text:0000000000000528 .L0 
     /tmp/cc9WFbdp.s:920    .text:0000000000000534 .L0 
     /tmp/cc9WFbdp.s:921    .text:0000000000000534 .L0 
     /tmp/cc9WFbdp.s:925    .text:0000000000000538 .L0 
     /tmp/cc9WFbdp.s:926    .text:0000000000000538 .L0 
     /tmp/cc9WFbdp.s:927    .text:0000000000000538 .L0 
     /tmp/cc9WFbdp.s:930    .text:000000000000053c .L0 
     /tmp/cc9WFbdp.s:931    .text:000000000000053c .L0 
     /tmp/cc9WFbdp.s:935    .text:0000000000000548 .L0 
     /tmp/cc9WFbdp.s:938    .text:000000000000054c .L0 
     /tmp/cc9WFbdp.s:944    .text:0000000000000550 .L0 
     /tmp/cc9WFbdp.s:945    .text:0000000000000554 .L0 
     /tmp/cc9WFbdp.s:947    .text:0000000000000558 .L0 
     /tmp/cc9WFbdp.s:948    .text:0000000000000558 .L0 
     /tmp/cc9WFbdp.s:950    .text:000000000000055c .L0 
     /tmp/cc9WFbdp.s:952    .text:0000000000000560 .L0 
     /tmp/cc9WFbdp.s:955    .text:0000000000000564 .L0 
     /tmp/cc9WFbdp.s:958    .text:0000000000000568 .L0 
     /tmp/cc9WFbdp.s:960    .text:000000000000056c .L0 
     /tmp/cc9WFbdp.s:966    .text:000000000000056c _ZN5Cache4Slab17calculateNewStateEv
     /tmp/cc9WFbdp.s:969    .text:000000000000056c .L0 
     /tmp/cc9WFbdp.s:971    .text:000000000000056c .L0 
     /tmp/cc9WFbdp.s:972    .text:0000000000000570 .L0 
     /tmp/cc9WFbdp.s:974    .text:0000000000000574 .L0 
     /tmp/cc9WFbdp.s:976    .text:0000000000000578 .L0 
     /tmp/cc9WFbdp.s:978    .text:0000000000000578 .L0 
     /tmp/cc9WFbdp.s:979    .text:0000000000000578 .L0 
     /tmp/cc9WFbdp.s:981    .text:000000000000057c .L0 
     /tmp/cc9WFbdp.s:983    .text:0000000000000580 .L0 
     /tmp/cc9WFbdp.s:984    .text:0000000000000580 .L0 
     /tmp/cc9WFbdp.s:986    .text:0000000000000584 .L0 
GAS LISTING /tmp/cc9WFbdp.s 			page 40


     /tmp/cc9WFbdp.s:988    .text:0000000000000588 .L0 
     /tmp/cc9WFbdp.s:990    .text:000000000000058c .L0 
     /tmp/cc9WFbdp.s:994    .text:0000000000000590 .L0 
     /tmp/cc9WFbdp.s:995    .text:0000000000000594 .L0 
     /tmp/cc9WFbdp.s:996    .text:0000000000000594 .L0 
     /tmp/cc9WFbdp.s:997    .text:0000000000000594 .L0 
     /tmp/cc9WFbdp.s:999    .text:0000000000000598 .L0 
     /tmp/cc9WFbdp.s:1003   .text:000000000000059c .L0 
     /tmp/cc9WFbdp.s:1005   .text:000000000000059c .L0 
     /tmp/cc9WFbdp.s:1011   .text:00000000000005a4 .L0 
     /tmp/cc9WFbdp.s:1014   .text:00000000000005ac .L0 
     /tmp/cc9WFbdp.s:1020   .text:00000000000005ac _ZN5Cache8freeSlotEPNS_4SlotE
     /tmp/cc9WFbdp.s:1023   .text:00000000000005ac .L0 
     /tmp/cc9WFbdp.s:1025   .text:00000000000005ac .L0 
     /tmp/cc9WFbdp.s:1026   .text:00000000000005b0 .L0 
     /tmp/cc9WFbdp.s:1032   .text:00000000000005c4 .L0 
     /tmp/cc9WFbdp.s:1033   .text:00000000000005c4 .L0 
     /tmp/cc9WFbdp.s:1034   .text:00000000000005c4 .L0 
     /tmp/cc9WFbdp.s:1035   .text:00000000000005c4 .L0 
     /tmp/cc9WFbdp.s:1036   .text:00000000000005c4 .L0 
     /tmp/cc9WFbdp.s:1038   .text:00000000000005c8 .L0 
     /tmp/cc9WFbdp.s:1040   .text:00000000000005c8 .L0 
     /tmp/cc9WFbdp.s:1041   .text:00000000000005c8 .L0 
     /tmp/cc9WFbdp.s:1043   .text:00000000000005cc .L0 
     /tmp/cc9WFbdp.s:1045   .text:00000000000005d0 .L0 
     /tmp/cc9WFbdp.s:1047   .text:00000000000005d4 .L0 
     /tmp/cc9WFbdp.s:1048   .text:00000000000005d4 .L0 
     /tmp/cc9WFbdp.s:1053   .text:00000000000005dc .L0 
     /tmp/cc9WFbdp.s:1054   .text:00000000000005dc .L0 
     /tmp/cc9WFbdp.s:1055   .text:00000000000005e0 .L0 
     /tmp/cc9WFbdp.s:1056   .text:00000000000005e0 .L0 
     /tmp/cc9WFbdp.s:1058   .text:00000000000005e4 .L0 
     /tmp/cc9WFbdp.s:1059   .text:00000000000005e4 .L0 
     /tmp/cc9WFbdp.s:1061   .text:00000000000005e8 .L0 
     /tmp/cc9WFbdp.s:1063   .text:00000000000005ec .L0 
     /tmp/cc9WFbdp.s:1065   .text:00000000000005f0 .L0 
     /tmp/cc9WFbdp.s:1067   .text:00000000000005f4 .L0 
     /tmp/cc9WFbdp.s:1071   .text:00000000000005f8 .L0 
     /tmp/cc9WFbdp.s:1073   .text:00000000000005f8 .L0 
     /tmp/cc9WFbdp.s:1074   .text:00000000000005f8 .L0 
     /tmp/cc9WFbdp.s:1075   .text:00000000000005f8 .L0 
     /tmp/cc9WFbdp.s:1076   .text:00000000000005f8 .L0 
     /tmp/cc9WFbdp.s:1078   .text:00000000000005fc .L0 
     /tmp/cc9WFbdp.s:1079   .text:00000000000005fc .L0 
     /tmp/cc9WFbdp.s:1081   .text:0000000000000600 .L0 
     /tmp/cc9WFbdp.s:1084   .text:0000000000000608 .L0 
     /tmp/cc9WFbdp.s:1085   .text:0000000000000608 .L0 
     /tmp/cc9WFbdp.s:1092   .text:0000000000000618 .L0 
     /tmp/cc9WFbdp.s:1093   .text:0000000000000618 .L0 
     /tmp/cc9WFbdp.s:1095   .text:000000000000061c .L0 
     /tmp/cc9WFbdp.s:1097   .text:0000000000000620 .L0 
     /tmp/cc9WFbdp.s:1102   .text:0000000000000628 .L0 
     /tmp/cc9WFbdp.s:1103   .text:0000000000000628 .L0 
     /tmp/cc9WFbdp.s:1112   .text:0000000000000640 .L0 
     /tmp/cc9WFbdp.s:1113   .text:0000000000000640 .L0 
     /tmp/cc9WFbdp.s:1119   .text:0000000000000654 .L0 
     /tmp/cc9WFbdp.s:1125   .text:0000000000000654 _ZN5Cache4Slab11getFreeSlotEv
GAS LISTING /tmp/cc9WFbdp.s 			page 41


     /tmp/cc9WFbdp.s:1128   .text:0000000000000654 .L0 
     /tmp/cc9WFbdp.s:1130   .text:0000000000000654 .L0 
     /tmp/cc9WFbdp.s:1131   .text:0000000000000658 .L0 
     /tmp/cc9WFbdp.s:1137   .text:000000000000066c .L0 
     /tmp/cc9WFbdp.s:1138   .text:000000000000066c .L0 
     /tmp/cc9WFbdp.s:1139   .text:000000000000066c .L0 
     /tmp/cc9WFbdp.s:1140   .text:000000000000066c .L0 
     /tmp/cc9WFbdp.s:1141   .text:000000000000066c .L0 
     /tmp/cc9WFbdp.s:1143   .text:0000000000000670 .L0 
     /tmp/cc9WFbdp.s:1145   .text:0000000000000670 .L0 
     /tmp/cc9WFbdp.s:1146   .text:0000000000000670 .L0 
     /tmp/cc9WFbdp.s:1148   .text:0000000000000674 .L0 
     /tmp/cc9WFbdp.s:1151   .text:000000000000067c .L0 
     /tmp/cc9WFbdp.s:1153   .text:0000000000000680 .L0 
     /tmp/cc9WFbdp.s:1159   .text:0000000000000688 .L0 
     /tmp/cc9WFbdp.s:1164   .text:000000000000068c .L0 
     /tmp/cc9WFbdp.s:1165   .text:000000000000068c .L0 
     /tmp/cc9WFbdp.s:1167   .text:0000000000000690 .L0 
     /tmp/cc9WFbdp.s:1170   .text:0000000000000694 .L0 
     /tmp/cc9WFbdp.s:1171   .text:0000000000000694 .L0 
     /tmp/cc9WFbdp.s:1174   .text:0000000000000698 .L0 
     /tmp/cc9WFbdp.s:1179   .text:000000000000069c .L0 
     /tmp/cc9WFbdp.s:1180   .text:000000000000069c .L0 
     /tmp/cc9WFbdp.s:1182   .text:00000000000006a0 .L0 
     /tmp/cc9WFbdp.s:1185   .text:00000000000006a8 .L0 
     /tmp/cc9WFbdp.s:1186   .text:00000000000006a8 .L0 
     /tmp/cc9WFbdp.s:1189   .text:00000000000006b0 .L0 
     /tmp/cc9WFbdp.s:1190   .text:00000000000006b0 .L0 
     /tmp/cc9WFbdp.s:1192   .text:00000000000006b4 .L0 
     /tmp/cc9WFbdp.s:1193   .text:00000000000006b4 .L0 
     /tmp/cc9WFbdp.s:1200   .text:00000000000006c4 .L0 
     /tmp/cc9WFbdp.s:1201   .text:00000000000006c4 .L0 
     /tmp/cc9WFbdp.s:1203   .text:00000000000006c8 .L0 
     /tmp/cc9WFbdp.s:1205   .text:00000000000006cc .L0 
     /tmp/cc9WFbdp.s:1210   .text:00000000000006d4 .L0 
     /tmp/cc9WFbdp.s:1211   .text:00000000000006d4 .L0 
     /tmp/cc9WFbdp.s:1221   .text:00000000000006e8 .L0 
     /tmp/cc9WFbdp.s:1222   .text:00000000000006e8 .L0 
     /tmp/cc9WFbdp.s:1224   .text:00000000000006f0 .L0 
     /tmp/cc9WFbdp.s:1225   .text:00000000000006f0 .L0 
     /tmp/cc9WFbdp.s:1227   .text:00000000000006f4 .L0 
     /tmp/cc9WFbdp.s:1228   .text:00000000000006f4 .L0 
     /tmp/cc9WFbdp.s:1230   .text:00000000000006f8 .L0 
     /tmp/cc9WFbdp.s:1232   .text:00000000000006fc .L0 
     /tmp/cc9WFbdp.s:1234   .text:0000000000000700 .L0 
     /tmp/cc9WFbdp.s:1236   .text:0000000000000704 .L0 
     /tmp/cc9WFbdp.s:1240   .text:0000000000000708 .L0 
     /tmp/cc9WFbdp.s:1245   .text:0000000000000708 .L0 
     /tmp/cc9WFbdp.s:1246   .text:0000000000000708 .L0 
     /tmp/cc9WFbdp.s:1258   .text:000000000000071c .L0 
     /tmp/cc9WFbdp.s:1260   .text:0000000000000724 .L0 
     /tmp/cc9WFbdp.s:1266   .text:0000000000000724 _ZN5Cache12allocateSlotEv
     /tmp/cc9WFbdp.s:1269   .text:0000000000000724 .L0 
     /tmp/cc9WFbdp.s:1271   .text:0000000000000724 .L0 
     /tmp/cc9WFbdp.s:1272   .text:0000000000000728 .L0 
     /tmp/cc9WFbdp.s:1275   .text:0000000000000730 .L0 
     /tmp/cc9WFbdp.s:1276   .text:0000000000000730 .L0 
GAS LISTING /tmp/cc9WFbdp.s 			page 42


     /tmp/cc9WFbdp.s:1278   .text:0000000000000734 .L0 
     /tmp/cc9WFbdp.s:1282   .text:0000000000000738 .L0 
     /tmp/cc9WFbdp.s:1283   .text:0000000000000738 .L0 
     /tmp/cc9WFbdp.s:1286   .text:000000000000073c .L0 
     /tmp/cc9WFbdp.s:1290   .text:0000000000000740 .L0 
     /tmp/cc9WFbdp.s:1291   .text:0000000000000740 .L0 
     /tmp/cc9WFbdp.s:1292   .text:0000000000000740 .L0 
     /tmp/cc9WFbdp.s:1298   .text:0000000000000748 .L0 
     /tmp/cc9WFbdp.s:1299   .text:000000000000074c .L0 
     /tmp/cc9WFbdp.s:1300   .text:000000000000074c .L0 
     /tmp/cc9WFbdp.s:1302   .text:0000000000000750 .L0 
     /tmp/cc9WFbdp.s:1303   .text:0000000000000750 .L0 
     /tmp/cc9WFbdp.s:1305   .text:0000000000000754 .L0 
     /tmp/cc9WFbdp.s:1309   .text:0000000000000758 .L0 
     /tmp/cc9WFbdp.s:1313   .text:0000000000000758 .L0 
     /tmp/cc9WFbdp.s:1314   .text:0000000000000758 .L0 
     /tmp/cc9WFbdp.s:1316   .text:000000000000075c .L0 
     /tmp/cc9WFbdp.s:1320   .text:0000000000000760 .L0 
     /tmp/cc9WFbdp.s:1321   .text:0000000000000760 .L0 
     /tmp/cc9WFbdp.s:1322   .text:0000000000000760 .L0 
     /tmp/cc9WFbdp.s:1325   .text:0000000000000768 .L0 
     /tmp/cc9WFbdp.s:1326   .text:0000000000000768 .L0 
     /tmp/cc9WFbdp.s:1333   .text:000000000000076c .L0 
     /tmp/cc9WFbdp.s:1334   .text:000000000000076c .L0 
     /tmp/cc9WFbdp.s:1338   .text:0000000000000778 .L0 
     /tmp/cc9WFbdp.s:1339   .text:0000000000000778 .L0 
     /tmp/cc9WFbdp.s:1342   .text:0000000000000780 .L0 
     /tmp/cc9WFbdp.s:1343   .text:0000000000000784 .L0 
     /tmp/cc9WFbdp.s:1352   .text:0000000000000784 .L0 
     /tmp/cc9WFbdp.s:429    .rodata.str1.8:0000000000000020 .LC1
     /tmp/cc9WFbdp.s:462    .text:0000000000000254 .L0 
     /tmp/cc9WFbdp.s:426    .rodata.str1.8:0000000000000000 .LC0
     /tmp/cc9WFbdp.s:486    .text:000000000000027c .L0 
     /tmp/cc9WFbdp.s:579    .rodata.str1.8:0000000000000048 .LC2
     /tmp/cc9WFbdp.s:617    .text:0000000000000320 .L0 
     /tmp/cc9WFbdp.s:582    .rodata.str1.8:00000000000000b8 .LC3
     /tmp/cc9WFbdp.s:627    .text:000000000000033c .L0 
     /tmp/cc9WFbdp.s:639    .text:0000000000000360 .L0 
     /tmp/cc9WFbdp.s:651    .text:0000000000000384 .L0 
     /tmp/cc9WFbdp.s:663    .text:00000000000003a8 .L0 
     /tmp/cc9WFbdp.s:675    .text:00000000000003cc .L0 
     /tmp/cc9WFbdp.s:83     .text:0000000000000064 .L7
     /tmp/cc9WFbdp.s:63     .text:0000000000000044 .L5
     /tmp/cc9WFbdp.s:103    .text:0000000000000084 .L6
     /tmp/cc9WFbdp.s:89     .text:0000000000000068 .L4
     /tmp/cc9WFbdp.s:222    .text:0000000000000124 .L14
     /tmp/cc9WFbdp.s:266    .text:0000000000000164 .L9
     /tmp/cc9WFbdp.s:244    .text:0000000000000144 .L11
     /tmp/cc9WFbdp.s:202    .text:0000000000000114 .L12
     /tmp/cc9WFbdp.s:208    .text:0000000000000118 .L13
     /tmp/cc9WFbdp.s:339    .text:00000000000001cc .L16
     /tmp/cc9WFbdp.s:331    .text:00000000000001c0 .L18
     /tmp/cc9WFbdp.s:412    .text:0000000000000224 .L20
     /tmp/cc9WFbdp.s:401    .text:0000000000000218 .L25
     /tmp/cc9WFbdp.s:385    .text:0000000000000204 .L23
     /tmp/cc9WFbdp.s:481    .text:000000000000027c .L29
     /tmp/cc9WFbdp.s:458    .text:0000000000000254 .L27
GAS LISTING /tmp/cc9WFbdp.s 			page 43


     /tmp/cc9WFbdp.s:525    .text:00000000000002b0 .L34
     /tmp/cc9WFbdp.s:558    .text:00000000000002dc .L31
     /tmp/cc9WFbdp.s:520    .text:00000000000002ac .L32
     /tmp/cc9WFbdp.s:538    .text:00000000000002c4 .L33
     /tmp/cc9WFbdp.s:759    .text:000000000000045c .L39
     /tmp/cc9WFbdp.s:752    .text:0000000000000454 .L40
     /tmp/cc9WFbdp.s:737    .text:0000000000000438 .L42
     /tmp/cc9WFbdp.s:846    .text:00000000000004d0 .L44
     /tmp/cc9WFbdp.s:821    .text:00000000000004b0 .L45
     /tmp/cc9WFbdp.s:907    .text:0000000000000520 .L51
     /tmp/cc9WFbdp.s:940    .text:0000000000000550 .L47
     /tmp/cc9WFbdp.s:903    .text:000000000000051c .L49
     /tmp/cc9WFbdp.s:918    .text:0000000000000534 .L50
     /tmp/cc9WFbdp.s:1002   .text:000000000000059c .L55
     /tmp/cc9WFbdp.s:1009   .text:00000000000005a4 .L56
     /tmp/cc9WFbdp.s:992    .text:0000000000000590 .L54
     /tmp/cc9WFbdp.s:1070   .text:00000000000005f8 .L59
     /tmp/cc9WFbdp.s:1052   .text:00000000000005dc .L58
     /tmp/cc9WFbdp.s:1110   .text:0000000000000640 .L63
     /tmp/cc9WFbdp.s:1100   .text:0000000000000628 .L61
     /tmp/cc9WFbdp.s:1217   .text:00000000000006e8 .L64
     /tmp/cc9WFbdp.s:1253   .text:000000000000071c .L70
     /tmp/cc9WFbdp.s:1175   .text:000000000000069c .L72
     /tmp/cc9WFbdp.s:1155   .text:0000000000000688 .L69
     /tmp/cc9WFbdp.s:1239   .text:0000000000000708 .L73
     /tmp/cc9WFbdp.s:1208   .text:00000000000006d4 .L68
     /tmp/cc9WFbdp.s:1308   .text:0000000000000758 .L75
     /tmp/cc9WFbdp.s:1328   .text:000000000000076c .L77
     /tmp/cc9WFbdp.s:1294   .text:0000000000000748 .L74
     /tmp/cc9WFbdp.s:3214   .debug_abbrev:0000000000000000 .Ldebug_abbrev0
     /tmp/cc9WFbdp.s:5347   .debug_str:0000000000000700 .LASF129
     /tmp/cc9WFbdp.s:5117   .debug_str:000000000000000d .LASF130
     /tmp/cc9WFbdp.s:5205   .debug_str:00000000000002a4 .LASF131
     /tmp/cc9WFbdp.s:5      .text:0000000000000000 .Ltext0
     /tmp/cc9WFbdp.s:1346   .text:0000000000000784 .Letext0
     /tmp/cc9WFbdp.s:5113   .debug_line:0000000000000000 .Ldebug_line0
     /tmp/cc9WFbdp.s:5209   .debug_str:00000000000002d3 .LASF0
     /tmp/cc9WFbdp.s:5231   .debug_str:0000000000000379 .LASF1
     /tmp/cc9WFbdp.s:5303   .debug_str:00000000000005b7 .LASF2
     /tmp/cc9WFbdp.s:5309   .debug_str:00000000000005e0 .LASF4
     /tmp/cc9WFbdp.s:5213   .debug_str:00000000000002f1 .LASF3
     /tmp/cc9WFbdp.s:5121   .debug_str:0000000000000027 .LASF5
     /tmp/cc9WFbdp.s:5281   .debug_str:0000000000000502 .LASF6
     /tmp/cc9WFbdp.s:5221   .debug_str:0000000000000341 .LASF7
     /tmp/cc9WFbdp.s:5193   .debug_str:0000000000000236 .LASF8
     /tmp/cc9WFbdp.s:5201   .debug_str:0000000000000270 .LASF9
     /tmp/cc9WFbdp.s:5153   .debug_str:0000000000000110 .LASF10
     /tmp/cc9WFbdp.s:5181   .debug_str:00000000000001f2 .LASF11
     /tmp/cc9WFbdp.s:5163   .debug_str:000000000000014b .LASF12
     /tmp/cc9WFbdp.s:5151   .debug_str:0000000000000100 .LASF13
     /tmp/cc9WFbdp.s:5329   .debug_str:0000000000000692 .LASF14
     /tmp/cc9WFbdp.s:5173   .debug_str:000000000000018f .LASF15
     /tmp/cc9WFbdp.s:5323   .debug_str:0000000000000652 .LASF16
     /tmp/cc9WFbdp.s:5363   .debug_str:000000000000084a .LASF77
     /tmp/cc9WFbdp.s:5167   .debug_str:0000000000000160 .LASF132
     /tmp/cc9WFbdp.s:5243   .debug_str:00000000000003e7 .LASF17
     /tmp/cc9WFbdp.s:5129   .debug_str:0000000000000069 .LASF18
GAS LISTING /tmp/cc9WFbdp.s 			page 44


     /tmp/cc9WFbdp.s:5377   .debug_str:0000000000000914 .LASF133
     /tmp/cc9WFbdp.s:5141   .debug_str:00000000000000c1 .LASF19
     /tmp/cc9WFbdp.s:5195   .debug_str:0000000000000246 .LASF20
     /tmp/cc9WFbdp.s:5275   .debug_str:00000000000004ed .LASF21
     /tmp/cc9WFbdp.s:5295   .debug_str:0000000000000592 .LASF22
     /tmp/cc9WFbdp.s:5225   .debug_str:0000000000000360 .LASF26
     /tmp/cc9WFbdp.s:5265   .debug_str:0000000000000499 .LASF23
     /tmp/cc9WFbdp.s:5155   .debug_str:000000000000011f .LASF24
     /tmp/cc9WFbdp.s:5145   .debug_str:00000000000000cc .LASF25
     /tmp/cc9WFbdp.s:5341   .debug_str:00000000000006e6 .LASF27
     /tmp/cc9WFbdp.s:5177   .debug_str:00000000000001c0 .LASF28
     /tmp/cc9WFbdp.s:5171   .debug_str:0000000000000189 .LASF29
     /tmp/cc9WFbdp.s:5189   .debug_str:0000000000000222 .LASF30
     /tmp/cc9WFbdp.s:5133   .debug_str:000000000000007c .LASF55
     /tmp/cc9WFbdp.s:5253   .debug_str:0000000000000423 .LASF57
     /tmp/cc9WFbdp.s:5321   .debug_str:0000000000000649 .LASF31
     /tmp/cc9WFbdp.s:5273   .debug_str:00000000000004db .LASF34
     /tmp/cc9WFbdp.s:5137   .debug_str:0000000000000091 .LASF36
     /tmp/cc9WFbdp.s:5289   .debug_str:0000000000000549 .LASF32
     /tmp/cc9WFbdp.s:5237   .debug_str:00000000000003b3 .LASF33
     /tmp/cc9WFbdp.s:5299   .debug_str:00000000000005a6 .LASF35
     /tmp/cc9WFbdp.s:5359   .debug_str:000000000000081d .LASF37
     /tmp/cc9WFbdp.s:5293   .debug_str:0000000000000583 .LASF38
     /tmp/cc9WFbdp.s:5203   .debug_str:000000000000027e .LASF39
     /tmp/cc9WFbdp.s:5197   .debug_str:000000000000024e .LASF40
     /tmp/cc9WFbdp.s:5385   .debug_str:000000000000094b .LASF41
     /tmp/cc9WFbdp.s:5183   .debug_str:0000000000000201 .LASF42
     /tmp/cc9WFbdp.s:5135   .debug_str:0000000000000088 .LASF43
     /tmp/cc9WFbdp.s:5119   .debug_str:000000000000001b .LASF44
     /tmp/cc9WFbdp.s:5223   .debug_str:0000000000000354 .LASF45
     /tmp/cc9WFbdp.s:5279   .debug_str:00000000000004f7 .LASF46
     /tmp/cc9WFbdp.s:5343   .debug_str:00000000000006eb .LASF47
     /tmp/cc9WFbdp.s:5379   .debug_str:000000000000091e .LASF48
     /tmp/cc9WFbdp.s:5251   .debug_str:00000000000003fe .LASF49
     /tmp/cc9WFbdp.s:5297   .debug_str:000000000000059a .LASF50
     /tmp/cc9WFbdp.s:5375   .debug_str:00000000000008fb .LASF51
     /tmp/cc9WFbdp.s:5127   .debug_str:000000000000005b .LASF52
     /tmp/cc9WFbdp.s:5149   .debug_str:00000000000000f2 .LASF53
     /tmp/cc9WFbdp.s:5191   .debug_str:000000000000022e .LASF54
     /tmp/cc9WFbdp.s:5319   .debug_str:0000000000000637 .LASF61
     /tmp/cc9WFbdp.s:5169   .debug_str:000000000000016a .LASF63
     /tmp/cc9WFbdp.s:5187   .debug_str:0000000000000213 .LASF56
     /tmp/cc9WFbdp.s:5255   .debug_str:0000000000000441 .LASF58
     /tmp/cc9WFbdp.s:5357   .debug_str:0000000000000813 .LASF59
     /tmp/cc9WFbdp.s:5123   .debug_str:000000000000002e .LASF60
     /tmp/cc9WFbdp.s:5217   .debug_str:0000000000000327 .LASF62
     /tmp/cc9WFbdp.s:5311   .debug_str:00000000000005e7 .LASF64
     /tmp/cc9WFbdp.s:5387   .debug_str:0000000000000956 .LASF65
     /tmp/cc9WFbdp.s:5313   .debug_str:0000000000000601 .LASF66
     /tmp/cc9WFbdp.s:5307   .debug_str:00000000000005cf .LASF67
     /tmp/cc9WFbdp.s:5371   .debug_str:00000000000008ae .LASF68
     /tmp/cc9WFbdp.s:5383   .debug_str:000000000000093e .LASF69
     /tmp/cc9WFbdp.s:5351   .debug_str:00000000000007e4 .LASF70
     /tmp/cc9WFbdp.s:5139   .debug_str:00000000000000b5 .LASF71
     /tmp/cc9WFbdp.s:5285   .debug_str:000000000000051e .LASF72
     /tmp/cc9WFbdp.s:5263   .debug_str:000000000000048c .LASF73
     /tmp/cc9WFbdp.s:5259   .debug_str:000000000000046c .LASF74
GAS LISTING /tmp/cc9WFbdp.s 			page 45


     /tmp/cc9WFbdp.s:5249   .debug_str:00000000000003f9 .LASF75
     /tmp/cc9WFbdp.s:5339   .debug_str:00000000000006e1 .LASF76
     /tmp/cc9WFbdp.s:5257   .debug_str:000000000000045d .LASF78
     /tmp/cc9WFbdp.s:5355   .debug_str:0000000000000808 .LASF79
     /tmp/cc9WFbdp.s:5325   .debug_str:0000000000000668 .LASF80
     /tmp/cc9WFbdp.s:5143   .debug_str:00000000000000c7 .LASF81
     /tmp/cc9WFbdp.s:5227   .debug_str:0000000000000365 .LASF82
     /tmp/cc9WFbdp.s:5291   .debug_str:0000000000000553 .LASF83
     /tmp/cc9WFbdp.s:5241   .debug_str:00000000000003de .LASF84
     /tmp/cc9WFbdp.s:5373   .debug_str:00000000000008cc .LASF85
     /tmp/cc9WFbdp.s:5361   .debug_str:0000000000000840 .LASF86
     /tmp/cc9WFbdp.s:5353   .debug_str:00000000000007fe .LASF87
     /tmp/cc9WFbdp.s:5269   .debug_str:00000000000004c5 .LASF88
     /tmp/cc9WFbdp.s:5199   .debug_str:0000000000000258 .LASF89
     /tmp/cc9WFbdp.s:5261   .debug_str:0000000000000486 .LASF90
     /tmp/cc9WFbdp.s:5345   .debug_str:00000000000006f6 .LASF91
     /tmp/cc9WFbdp.s:5115   .debug_str:0000000000000000 .LASF92
     /tmp/cc9WFbdp.s:5215   .debug_str:0000000000000303 .LASF93
     /tmp/cc9WFbdp.s:5219   .debug_str:0000000000000334 .LASF94
     /tmp/cc9WFbdp.s:5369   .debug_str:000000000000088a .LASF95
     /tmp/cc9WFbdp.s:5211   .debug_str:00000000000002e0 .LASF96
     /tmp/cc9WFbdp.s:5365   .debug_str:0000000000000850 .LASF97
     /tmp/cc9WFbdp.s:5157   .debug_str:0000000000000124 .LASF98
     /tmp/cc9WFbdp.s:5179   .debug_str:00000000000001cf .LASF99
     /tmp/cc9WFbdp.s:5367   .debug_str:000000000000087a .LASF100
     /tmp/cc9WFbdp.s:5333   .debug_str:00000000000006a8 .LASF101
     /tmp/cc9WFbdp.s:5335   .debug_str:00000000000006d0 .LASF134
     /tmp/cc9WFbdp.s:5239   .debug_str:00000000000003bc .LASF135
     /tmp/cc9WFbdp.s:5125   .debug_str:0000000000000050 .LASF102
     /tmp/cc9WFbdp.s:5233   .debug_str:000000000000038c .LASF103
     /tmp/cc9WFbdp.s:5331   .debug_str:000000000000069e .LASF104
     /tmp/cc9WFbdp.s:5267   .debug_str:00000000000004a3 .LASF105
     /tmp/cc9WFbdp.s:5207   .debug_str:00000000000002c9 .LASF136
     /tmp/cc9WFbdp.s:5349   .debug_str:00000000000007c4 .LASF137
     /tmp/cc9WFbdp.s:5147   .debug_str:00000000000000d7 .LASF106
     /tmp/cc9WFbdp.s:5305   .debug_str:00000000000005c5 .LASF107
     /tmp/cc9WFbdp.s:5175   .debug_str:00000000000001a5 .LASF108
     /tmp/cc9WFbdp.s:967    .text:000000000000056c .LFB38
     /tmp/cc9WFbdp.s:1015   .text:00000000000005ac .LFE38
     /tmp/cc9WFbdp.s:5185   .debug_str:000000000000020e .LASF109
     /tmp/cc9WFbdp.s:4294   .debug_loc:0000000000000000 .LLST36
     /tmp/cc9WFbdp.s:1126   .text:0000000000000654 .LFB37
     /tmp/cc9WFbdp.s:1261   .text:0000000000000724 .LFE37
     /tmp/cc9WFbdp.s:4330   .debug_loc:000000000000008b .LLST40
     /tmp/cc9WFbdp.s:5063   .debug_ranges:0000000000000000 .Ldebug_ranges0
     /tmp/cc9WFbdp.s:5389   .debug_str:000000000000095f .LASF110
     /tmp/cc9WFbdp.s:4356   .debug_loc:00000000000000fd .LLST41
     /tmp/cc9WFbdp.s:5271   .debug_str:00000000000004d2 .LASF111
     /tmp/cc9WFbdp.s:4367   .debug_loc:0000000000000133 .LLST42
     /tmp/cc9WFbdp.s:1196   .text:00000000000006c0 .LVL120
     /tmp/cc9WFbdp.s:1215   .text:00000000000006e8 .LVL123
     /tmp/cc9WFbdp.s:1250   .text:0000000000000718 .LVL126
     /tmp/cc9WFbdp.s:877    .text:00000000000004f4 .LFB36
     /tmp/cc9WFbdp.s:961    .text:000000000000056c .LFE36
     /tmp/cc9WFbdp.s:4378   .debug_loc:0000000000000169 .LLST32
     /tmp/cc9WFbdp.s:898    .text:0000000000000514 .LBB20
     /tmp/cc9WFbdp.s:942    .text:0000000000000550 .LBE20
GAS LISTING /tmp/cc9WFbdp.s 			page 46


     /tmp/cc9WFbdp.s:4396   .debug_loc:00000000000001b5 .LLST33
     /tmp/cc9WFbdp.s:911    .text:0000000000000528 .LBB21
     /tmp/cc9WFbdp.s:941    .text:0000000000000550 .LBE21
     /tmp/cc9WFbdp.s:4408   .debug_loc:00000000000001ec .LLST34
     /tmp/cc9WFbdp.s:922    .text:0000000000000538 .LBB22
     /tmp/cc9WFbdp.s:936    .text:000000000000054c .LBE22
     /tmp/cc9WFbdp.s:4423   .debug_loc:0000000000000235 .LLST35
     /tmp/cc9WFbdp.s:933    .text:0000000000000548 .LVL95
     /tmp/cc9WFbdp.s:704    .text:0000000000000404 .LFB35
     /tmp/cc9WFbdp.s:785    .text:0000000000000488 .LFE35
     /tmp/cc9WFbdp.s:4430   .debug_loc:0000000000000258 .LLST24
     /tmp/cc9WFbdp.s:5277   .debug_str:00000000000004f2 .LASF113
     /tmp/cc9WFbdp.s:4448   .debug_loc:00000000000002a4 .LLST25
     /tmp/cc9WFbdp.s:4466   .debug_loc:00000000000002f0 .LLST26
     /tmp/cc9WFbdp.s:732    .text:0000000000000430 .LBB16
     /tmp/cc9WFbdp.s:760    .text:000000000000045c .LBE16
     /tmp/cc9WFbdp.s:4490   .debug_loc:0000000000000342 .LLST27
     /tmp/cc9WFbdp.s:767    .text:000000000000046c .LVL76
     /tmp/cc9WFbdp.s:791    .text:0000000000000488 .LFB34
     /tmp/cc9WFbdp.s:871    .text:00000000000004f4 .LFE34
     /tmp/cc9WFbdp.s:4497   .debug_loc:0000000000000365 .LLST28
     /tmp/cc9WFbdp.s:5287   .debug_str:0000000000000540 .LASF112
     /tmp/cc9WFbdp.s:4515   .debug_loc:00000000000003b1 .LLST29
     /tmp/cc9WFbdp.s:4531   .debug_loc:00000000000003fb .LLST30
     /tmp/cc9WFbdp.s:825    .text:00000000000004b4 .LBB18
     /tmp/cc9WFbdp.s:842    .text:00000000000004cc .LBE18
     /tmp/cc9WFbdp.s:4546   .debug_loc:0000000000000444 .LLST31
     /tmp/cc9WFbdp.s:839    .text:00000000000004c8 .LVL84
     /tmp/cc9WFbdp.s:497    .text:0000000000000290 .LFB33
     /tmp/cc9WFbdp.s:575    .text:00000000000002f0 .LFE33
     /tmp/cc9WFbdp.s:5317   .debug_str:000000000000062e .LASF114
     /tmp/cc9WFbdp.s:5327   .debug_str:000000000000068c .LASF115
     /tmp/cc9WFbdp.s:4553   .debug_loc:0000000000000467 .LLST19
     /tmp/cc9WFbdp.s:5337   .debug_str:00000000000006db .LASF116
     /tmp/cc9WFbdp.s:4569   .debug_loc:00000000000004b1 .LLST20
     /tmp/cc9WFbdp.s:4585   .debug_loc:00000000000004fb .LLST21
     /tmp/cc9WFbdp.s:532    .text:00000000000002b8 .LBB12
     /tmp/cc9WFbdp.s:559    .text:00000000000002dc .LBE12
     /tmp/cc9WFbdp.s:4597   .debug_loc:0000000000000532 .LLST22
     /tmp/cc9WFbdp.s:589    .text:00000000000002f0 .LFB32
     /tmp/cc9WFbdp.s:698    .text:0000000000000404 .LFE32
     /tmp/cc9WFbdp.s:4608   .debug_loc:0000000000000568 .LLST23
     /tmp/cc9WFbdp.s:614    .text:0000000000000320 .LVL56
     /tmp/cc9WFbdp.s:619    .text:0000000000000330 .LVL57
     /tmp/cc9WFbdp.s:624    .text:000000000000033c .LVL58
     /tmp/cc9WFbdp.s:629    .text:000000000000034c .LVL59
     /tmp/cc9WFbdp.s:636    .text:0000000000000360 .LVL60
     /tmp/cc9WFbdp.s:641    .text:0000000000000370 .LVL61
     /tmp/cc9WFbdp.s:648    .text:0000000000000384 .LVL62
     /tmp/cc9WFbdp.s:653    .text:0000000000000394 .LVL63
     /tmp/cc9WFbdp.s:660    .text:00000000000003a8 .LVL64
     /tmp/cc9WFbdp.s:665    .text:00000000000003b8 .LVL65
     /tmp/cc9WFbdp.s:672    .text:00000000000003cc .LVL66
     /tmp/cc9WFbdp.s:677    .text:00000000000003dc .LVL67
     /tmp/cc9WFbdp.s:684    .text:00000000000003f0 .LVL68
     /tmp/cc9WFbdp.s:436    .text:0000000000000230 .LFB31
     /tmp/cc9WFbdp.s:491    .text:0000000000000290 .LFE31
GAS LISTING /tmp/cc9WFbdp.s 			page 47


     /tmp/cc9WFbdp.s:4626   .debug_loc:00000000000005b4 .LLST18
     /tmp/cc9WFbdp.s:464    .text:0000000000000264 .LVL42
     /tmp/cc9WFbdp.s:488    .text:000000000000028c .LVL45
     /tmp/cc9WFbdp.s:354    .text:00000000000001d8 .LFB30
     /tmp/cc9WFbdp.s:422    .text:0000000000000230 .LFE30
     /tmp/cc9WFbdp.s:5229   .debug_str:0000000000000371 .LASF117
     /tmp/cc9WFbdp.s:4648   .debug_loc:0000000000000613 .LLST15
     /tmp/cc9WFbdp.s:5131   .debug_str:0000000000000077 .LASF118
     /tmp/cc9WFbdp.s:4662   .debug_loc:000000000000064c .LLST16
     /tmp/cc9WFbdp.s:4682   .debug_loc:00000000000006a9 .LLST17
     /tmp/cc9WFbdp.s:1021   .text:00000000000005ac .LFB29
     /tmp/cc9WFbdp.s:1120   .text:0000000000000654 .LFE29
     /tmp/cc9WFbdp.s:4698   .debug_loc:00000000000006f3 .LLST37
     /tmp/cc9WFbdp.s:5245   .debug_str:00000000000003ef .LASF119
     /tmp/cc9WFbdp.s:4723   .debug_loc:0000000000000755 .LLST38
     /tmp/cc9WFbdp.s:4748   .debug_loc:00000000000007b7 .LLST39
     /tmp/cc9WFbdp.s:1088   .text:0000000000000614 .LVL109
     /tmp/cc9WFbdp.s:1107   .text:000000000000063c .LVL112
     /tmp/cc9WFbdp.s:1117   .text:0000000000000650 .LVL115
     /tmp/cc9WFbdp.s:301    .text:000000000000018c .LFB28
     /tmp/cc9WFbdp.s:348    .text:00000000000001d8 .LFE28
     /tmp/cc9WFbdp.s:4759   .debug_loc:00000000000007ed .LLST14
     /tmp/cc9WFbdp.s:144    .text:00000000000000b8 .LFB27
     /tmp/cc9WFbdp.s:295    .text:000000000000018c .LFE27
     /tmp/cc9WFbdp.s:4778   .debug_loc:000000000000083a .LLST8
     /tmp/cc9WFbdp.s:4796   .debug_loc:0000000000000886 .LLST9
     /tmp/cc9WFbdp.s:4811   .debug_loc:00000000000008cf .LLST10
     /tmp/cc9WFbdp.s:4824   .debug_loc:0000000000000907 .LLST11
     /tmp/cc9WFbdp.s:4844   .debug_loc:0000000000000964 .LLST12
     /tmp/cc9WFbdp.s:4856   .debug_loc:000000000000099b .LLST13
     /tmp/cc9WFbdp.s:172    .text:00000000000000ec .LVL14
     /tmp/cc9WFbdp.s:1267   .text:0000000000000724 .LFB26
     /tmp/cc9WFbdp.s:1344   .text:0000000000000784 .LFE26
     /tmp/cc9WFbdp.s:4867   .debug_loc:00000000000009d1 .LLST43
     /tmp/cc9WFbdp.s:4907   .debug_loc:0000000000000a6f .LLST44
     /tmp/cc9WFbdp.s:1287   .text:0000000000000740 .LBB32
     /tmp/cc9WFbdp.s:1295   .text:0000000000000748 .LBE32
     /tmp/cc9WFbdp.s:4914   .debug_loc:0000000000000a92 .LLST45
     /tmp/cc9WFbdp.s:1293   .text:0000000000000748 .LVL131
     /tmp/cc9WFbdp.s:1317   .text:0000000000000760 .LBB34
     /tmp/cc9WFbdp.s:1329   .text:000000000000076c .LBE34
     /tmp/cc9WFbdp.s:4921   .debug_loc:0000000000000ab5 .LLST46
     /tmp/cc9WFbdp.s:4928   .debug_loc:0000000000000ad8 .LLST47
     /tmp/cc9WFbdp.s:1323   .text:0000000000000768 .LVL134
     /tmp/cc9WFbdp.s:1336   .text:0000000000000778 .LVL136
     /tmp/cc9WFbdp.s:1340   .text:0000000000000780 .LVL137
     /tmp/cc9WFbdp.s:10     .text:0000000000000000 .LFB25
     /tmp/cc9WFbdp.s:36     .text:0000000000000028 .LFE25
     /tmp/cc9WFbdp.s:5159   .debug_str:0000000000000130 .LASF120
     /tmp/cc9WFbdp.s:4935   .debug_loc:0000000000000afb .LLST0
     /tmp/cc9WFbdp.s:42     .text:0000000000000028 .LFB24
     /tmp/cc9WFbdp.s:138    .text:00000000000000b8 .LFE24
     /tmp/cc9WFbdp.s:4949   .debug_loc:0000000000000b34 .LLST1
     /tmp/cc9WFbdp.s:5235   .debug_str:00000000000003ae .LASF121
     /tmp/cc9WFbdp.s:4967   .debug_loc:0000000000000b80 .LLST2
     /tmp/cc9WFbdp.s:5165   .debug_str:000000000000015b .LASF122
     /tmp/cc9WFbdp.s:4981   .debug_loc:0000000000000bb9 .LLST3
GAS LISTING /tmp/cc9WFbdp.s 			page 48


     /tmp/cc9WFbdp.s:5247   .debug_str:00000000000003f4 .LASF123
     /tmp/cc9WFbdp.s:4995   .debug_loc:0000000000000bf2 .LLST4
     /tmp/cc9WFbdp.s:5301   .debug_str:00000000000005b2 .LASF124
     /tmp/cc9WFbdp.s:5009   .debug_loc:0000000000000c2b .LLST5
     /tmp/cc9WFbdp.s:59     .text:0000000000000040 .LBB2
     /tmp/cc9WFbdp.s:84     .text:0000000000000064 .LBE2
     /tmp/cc9WFbdp.s:5023   .debug_loc:0000000000000c64 .LLST6
     /tmp/cc9WFbdp.s:85     .text:0000000000000064 .LBB3
     /tmp/cc9WFbdp.s:104    .text:0000000000000084 .LBE3
     /tmp/cc9WFbdp.s:5039   .debug_loc:0000000000000cae .LLST7
     /tmp/cc9WFbdp.s:122    .text:00000000000000a0 .LVL10
     /tmp/cc9WFbdp.s:5161   .debug_str:0000000000000138 .LASF125
     /tmp/cc9WFbdp.s:5381   .debug_str:0000000000000932 .LASF127
     /tmp/cc9WFbdp.s:5315   .debug_str:000000000000061f .LASF126
     /tmp/cc9WFbdp.s:5283   .debug_str:0000000000000515 .LASF128
     /tmp/cc9WFbdp.s:970    .text:000000000000056c .LVL99
     /tmp/cc9WFbdp.s:991    .text:0000000000000590 .LVL100
     /tmp/cc9WFbdp.s:1001   .text:000000000000059c .LVL101
     /tmp/cc9WFbdp.s:1006   .text:00000000000005a0 .LVL102
     /tmp/cc9WFbdp.s:1008   .text:00000000000005a4 .LVL103
     /tmp/cc9WFbdp.s:1012   .text:00000000000005a8 .LVL104
     /tmp/cc9WFbdp.s:1129   .text:0000000000000654 .LVL116
     /tmp/cc9WFbdp.s:1194   .text:00000000000006b8 .LVL119
     /tmp/cc9WFbdp.s:1238   .text:0000000000000708 .LVL124
     /tmp/cc9WFbdp.s:1252   .text:000000000000071c .LVL127
     /tmp/cc9WFbdp.s:1156   .text:0000000000000688 .LVL117
     /tmp/cc9WFbdp.s:1198   .text:00000000000006c4 .LVL121
     /tmp/cc9WFbdp.s:1207   .text:00000000000006d4 .LVL122
     /tmp/cc9WFbdp.s:1248   .text:0000000000000710 .LVL125
     /tmp/cc9WFbdp.s:880    .text:00000000000004f4 .LVL88
     /tmp/cc9WFbdp.s:902    .text:000000000000051c .LVL90
     /tmp/cc9WFbdp.s:953    .text:0000000000000560 .LVL97
     /tmp/cc9WFbdp.s:897    .text:0000000000000514 .LVL89
     /tmp/cc9WFbdp.s:956    .text:0000000000000564 .LVL98
     /tmp/cc9WFbdp.s:906    .text:0000000000000520 .LVL91
     /tmp/cc9WFbdp.s:917    .text:0000000000000534 .LVL92
     /tmp/cc9WFbdp.s:928    .text:000000000000053c .LVL94
     /tmp/cc9WFbdp.s:939    .text:0000000000000550 .LVL96
     /tmp/cc9WFbdp.s:924    .text:0000000000000538 .LVL93
     /tmp/cc9WFbdp.s:707    .text:0000000000000404 .LVL70
     /tmp/cc9WFbdp.s:736    .text:0000000000000438 .LVL72
     /tmp/cc9WFbdp.s:758    .text:000000000000045c .LVL75
     /tmp/cc9WFbdp.s:780    .text:0000000000000480 .LVL77
     /tmp/cc9WFbdp.s:724    .text:0000000000000424 .LVL71
     /tmp/cc9WFbdp.s:794    .text:0000000000000488 .LVL78
     /tmp/cc9WFbdp.s:820    .text:00000000000004b0 .LVL81
     /tmp/cc9WFbdp.s:866    .text:00000000000004ec .LVL87
     /tmp/cc9WFbdp.s:811    .text:00000000000004a8 .LVL79
     /tmp/cc9WFbdp.s:829    .text:00000000000004b8 .LVL82
     /tmp/cc9WFbdp.s:845    .text:00000000000004d0 .LVL85
     /tmp/cc9WFbdp.s:861    .text:00000000000004e4 .LVL86
     /tmp/cc9WFbdp.s:816    .text:00000000000004ac .LVL80
     /tmp/cc9WFbdp.s:834    .text:00000000000004bc .LVL83
     /tmp/cc9WFbdp.s:508    .text:000000000000029c .LVL47
     /tmp/cc9WFbdp.s:519    .text:00000000000002ac .LVL48
     /tmp/cc9WFbdp.s:544    .text:00000000000002cc .LVL51
     /tmp/cc9WFbdp.s:557    .text:00000000000002dc .LVL54
GAS LISTING /tmp/cc9WFbdp.s 			page 49


     /tmp/cc9WFbdp.s:550    .text:00000000000002d4 .LVL52
     /tmp/cc9WFbdp.s:524    .text:00000000000002b0 .LVL49
     /tmp/cc9WFbdp.s:537    .text:00000000000002c4 .LVL50
     /tmp/cc9WFbdp.s:592    .text:00000000000002f0 .LVL55
     /tmp/cc9WFbdp.s:693    .text:00000000000003fc .LVL69
     /tmp/cc9WFbdp.s:439    .text:0000000000000230 .LVL40
     /tmp/cc9WFbdp.s:457    .text:0000000000000254 .LVL41
     /tmp/cc9WFbdp.s:476    .text:0000000000000274 .LVL43
     /tmp/cc9WFbdp.s:480    .text:000000000000027c .LVL44
     /tmp/cc9WFbdp.s:357    .text:00000000000001d8 .LVL32
     /tmp/cc9WFbdp.s:377    .text:00000000000001f8 .LVL34
     /tmp/cc9WFbdp.s:372    .text:00000000000001f4 .LVL33
     /tmp/cc9WFbdp.s:384    .text:0000000000000204 .LVL36
     /tmp/cc9WFbdp.s:392    .text:000000000000020c .LVL37
     /tmp/cc9WFbdp.s:398    .text:0000000000000214 .LVL38
     /tmp/cc9WFbdp.s:411    .text:0000000000000224 .LVL39
     /tmp/cc9WFbdp.s:380    .text:0000000000000200 .LVL35
     /tmp/cc9WFbdp.s:1024   .text:00000000000005ac .LVL105
     /tmp/cc9WFbdp.s:1051   .text:00000000000005dc .LVL106
     /tmp/cc9WFbdp.s:1069   .text:00000000000005f8 .LVL107
     /tmp/cc9WFbdp.s:1086   .text:000000000000060c .LVL108
     /tmp/cc9WFbdp.s:1090   .text:0000000000000618 .LVL110
     /tmp/cc9WFbdp.s:1099   .text:0000000000000628 .LVL111
     /tmp/cc9WFbdp.s:1109   .text:0000000000000640 .LVL113
     /tmp/cc9WFbdp.s:1115   .text:0000000000000648 .LVL114
     /tmp/cc9WFbdp.s:304    .text:000000000000018c .LVL29
     /tmp/cc9WFbdp.s:335    .text:00000000000001c4 .LVL30
     /tmp/cc9WFbdp.s:338    .text:00000000000001cc .LVL31
     /tmp/cc9WFbdp.s:147    .text:00000000000000b8 .LVL12
     /tmp/cc9WFbdp.s:170    .text:00000000000000e4 .LVL13
     /tmp/cc9WFbdp.s:281    .text:0000000000000178 .LVL25
     /tmp/cc9WFbdp.s:174    .text:00000000000000f0 .LVL15
     /tmp/cc9WFbdp.s:201    .text:0000000000000114 .LVL17
     /tmp/cc9WFbdp.s:287    .text:0000000000000180 .LVL27
     /tmp/cc9WFbdp.s:191    .text:0000000000000108 .LVL16
     /tmp/cc9WFbdp.s:290    .text:0000000000000184 .LVL28
     /tmp/cc9WFbdp.s:213    .text:000000000000011c .LVL18
     /tmp/cc9WFbdp.s:221    .text:0000000000000124 .LVL20
     /tmp/cc9WFbdp.s:284    .text:000000000000017c .LVL26
     /tmp/cc9WFbdp.s:278    .text:0000000000000174 .LVL24
     /tmp/cc9WFbdp.s:252    .text:0000000000000150 .LVL22
     /tmp/cc9WFbdp.s:265    .text:0000000000000164 .LVL23
     /tmp/cc9WFbdp.s:1270   .text:0000000000000724 .LVL128
     /tmp/cc9WFbdp.s:1284   .text:000000000000073c .LVL129
     /tmp/cc9WFbdp.s:1307   .text:0000000000000758 .LVL132
     /tmp/cc9WFbdp.s:1327   .text:000000000000076c .LVL135
     /tmp/cc9WFbdp.s:1289   .text:0000000000000740 .LVL130
     /tmp/cc9WFbdp.s:1319   .text:0000000000000760 .LVL133
     /tmp/cc9WFbdp.s:14     .text:0000000000000000 .LVL0
     /tmp/cc9WFbdp.s:26     .text:0000000000000018 .LVL1
     /tmp/cc9WFbdp.s:45     .text:0000000000000028 .LVL2
     /tmp/cc9WFbdp.s:102    .text:0000000000000084 .LVL9
     /tmp/cc9WFbdp.s:133    .text:00000000000000b0 .LVL11
     /tmp/cc9WFbdp.s:88     .text:0000000000000068 .LVL7
     /tmp/cc9WFbdp.s:58     .text:0000000000000040 .LVL3
     /tmp/cc9WFbdp.s:62     .text:0000000000000044 .LVL4
     /tmp/cc9WFbdp.s:78     .text:0000000000000060 .LVL5
GAS LISTING /tmp/cc9WFbdp.s 			page 50


     /tmp/cc9WFbdp.s:82     .text:0000000000000064 .LVL6
     /tmp/cc9WFbdp.s:100    .text:0000000000000080 .LVL8
     /tmp/cc9WFbdp.s:1353   .debug_info:0000000000000000 .Ldebug_info0
     /tmp/cc9WFbdp.s:194    .text:0000000000000108 .LBB4
     /tmp/cc9WFbdp.s:197    .text:000000000000010c .LBE4
     /tmp/cc9WFbdp.s:203    .text:0000000000000114 .LBB8
     /tmp/cc9WFbdp.s:268    .text:0000000000000164 .LBE8
     /tmp/cc9WFbdp.s:204    .text:0000000000000114 .LBB5
     /tmp/cc9WFbdp.s:214    .text:000000000000011c .LBE5
     /tmp/cc9WFbdp.s:218    .text:0000000000000120 .LBB6
     /tmp/cc9WFbdp.s:223    .text:0000000000000124 .LBE6
     /tmp/cc9WFbdp.s:229    .text:000000000000012c .LBB7
     /tmp/cc9WFbdp.s:267    .text:0000000000000164 .LBE7
     /tmp/cc9WFbdp.s:374    .text:00000000000001f4 .LBB9
     /tmp/cc9WFbdp.s:381    .text:0000000000000200 .LBE9
     /tmp/cc9WFbdp.s:386    .text:0000000000000204 .LBB10
     /tmp/cc9WFbdp.s:413    .text:0000000000000224 .LBE10
     /tmp/cc9WFbdp.s:510    .text:000000000000029c .LBB11
     /tmp/cc9WFbdp.s:513    .text:00000000000002a0 .LBE11
     /tmp/cc9WFbdp.s:521    .text:00000000000002ac .LBB13
     /tmp/cc9WFbdp.s:529    .text:00000000000002b8 .LBE13
     /tmp/cc9WFbdp.s:531    .text:00000000000002b8 .LBB14
     /tmp/cc9WFbdp.s:560    .text:00000000000002dc .LBE14
     /tmp/cc9WFbdp.s:813    .text:00000000000004a8 .LBB17
     /tmp/cc9WFbdp.s:817    .text:00000000000004ac .LBE17
     /tmp/cc9WFbdp.s:822    .text:00000000000004b0 .LBB19
     /tmp/cc9WFbdp.s:847    .text:00000000000004d0 .LBE19
     /tmp/cc9WFbdp.s:1157   .text:0000000000000688 .LBB23
     /tmp/cc9WFbdp.s:1160   .text:000000000000068c .LBE23
     /tmp/cc9WFbdp.s:1162   .text:000000000000068c .LBB29
     /tmp/cc9WFbdp.s:1220   .text:00000000000006e8 .LBE29
     /tmp/cc9WFbdp.s:1241   .text:0000000000000708 .LBB30
     /tmp/cc9WFbdp.s:1256   .text:000000000000071c .LBE30
     /tmp/cc9WFbdp.s:1177   .text:000000000000069c .LBB25
     /tmp/cc9WFbdp.s:1218   .text:00000000000006e8 .LBE25
     /tmp/cc9WFbdp.s:1243   .text:0000000000000708 .LBB26
     /tmp/cc9WFbdp.s:1254   .text:000000000000071c .LBE26

UNDEFINED SYMBOLS
_ZN14BuddyAllocator10buddyAllocEm
_Z11printStringPKc
_Z8printIntiii
_ZN14BuddyAllocator9buddyFreeEPvm
