GAS LISTING /tmp/ccnxh8e3.s 			page 1


   1              		.file	"Cache.cpp"
   2              		.option pic
   3              		.option norelax
   4              		.text
   5              	.Ltext0:
   6              		.align	2
   7              		.globl	_ZN5Cache11getNumSlotsEmm
   9              	_ZN5Cache11getNumSlotsEmm:
  10              	.LFB25:
  11              		.file 1 "src/Cache.cpp"
   1:src/Cache.cpp **** #include "../h/Cache.h"
   2:src/Cache.cpp **** #include "../h/BuddyAllocator.h"
   3:src/Cache.cpp **** #include "../h/printing.hpp"
   4:src/Cache.cpp **** #include "../h/hw.h"
   5:src/Cache.cpp **** 
   6:src/Cache.cpp **** const char* Cache::bufferNames[MAXSIZEBUFFER - MINSIZEBUFFER + 1] = {"size-32", "size-64", "size-12
   7:src/Cache.cpp ****                                                                   "size-512", "size-1024", "size-20
   8:src/Cache.cpp ****                                                                   "size-4096", "size-8192", "size-1
   9:src/Cache.cpp ****                                                                   "size-32768", "size-65536", "size
  10:src/Cache.cpp **** 
  11:src/Cache.cpp **** Cache* Cache::bufferCache[MAXSIZEBUFFER - MINSIZEBUFFER + 1] = {};
  12:src/Cache.cpp **** void Cache::initCache(const char *name, size_t size, void (*ctor)(void *), void (*dtor)(void *)) {
  13:src/Cache.cpp ****     strcpy(cacheName, name);
  14:src/Cache.cpp ****     for(int i = 0; i < 3; i++) {
  15:src/Cache.cpp ****         slabList[i] = nullptr;
  16:src/Cache.cpp ****     }
  17:src/Cache.cpp ****     objectSize = size;
  18:src/Cache.cpp ****     constructor = ctor;
  19:src/Cache.cpp ****     destructor = dtor;
  20:src/Cache.cpp ****     slotSize = objectSize + sizeof(Slot);
  21:src/Cache.cpp ****     slabSize = slotSize / BLKSIZE;
  22:src/Cache.cpp ****     if(slotSize % BLKSIZE != 0) slabSize++; // u blokovima
  23:src/Cache.cpp **** 
  24:src/Cache.cpp ****     optimalSlots = getNumSlots(slabSize, slotSize);
  25:src/Cache.cpp **** }
  26:src/Cache.cpp **** 
  27:src/Cache.cpp **** int Cache::getNumSlots(size_t slabSize, size_t objSize) {
  12              		.loc 1 27 57
  13              		.cfi_startproc
  14              	.LVL0:
  15 0000 130101FF 		addi	sp,sp,-16
  16              		.cfi_def_cfa_offset 16
  17 0004 23348100 		sd	s0,8(sp)
  18              		.cfi_offset 8, -8
  19 0008 13040101 		addi	s0,sp,16
  20              		.cfi_def_cfa 8, 0
  28:src/Cache.cpp ****     return (slabSize*BLKSIZE - sizeof(Slab)) / objSize;
  21              		.loc 1 28 5
  22              		.loc 1 28 21 is_stmt 0
  23 000c 1315C500 		slli	a0,a0,12
  24              	.LVL1:
  25              		.loc 1 28 30
  26 0010 130585FD 		addi	a0,a0,-40
  27              		.loc 1 28 46
  28 0014 3355B502 		divu	a0,a0,a1
  29:src/Cache.cpp **** }
  29              		.loc 1 29 1
GAS LISTING /tmp/ccnxh8e3.s 			page 2


  30 0018 1B050500 		sext.w	a0,a0
  31 001c 03348100 		ld	s0,8(sp)
  32              		.cfi_restore 8
  33              		.cfi_def_cfa 2, 16
  34 0020 13010101 		addi	sp,sp,16
  35              		.cfi_def_cfa_offset 0
  36 0024 67800000 		jr	ra
  37              		.cfi_endproc
  38              	.LFE25:
  40              		.align	2
  41              		.globl	_ZN5Cache11slabListPutEPNS_4SlabEi
  43              	_ZN5Cache11slabListPutEPNS_4SlabEi:
  44              	.LFB28:
  30:src/Cache.cpp **** 
  31:src/Cache.cpp **** void *Cache::allocateSlot() {
  32:src/Cache.cpp ****     if(slabList[PARTIAL]) {
  33:src/Cache.cpp ****         Slab* slab = slabList[PARTIAL];
  34:src/Cache.cpp ****         return slab->getFreeSlot();
  35:src/Cache.cpp ****     }
  36:src/Cache.cpp ****     else if(slabList[EMPTY]) {
  37:src/Cache.cpp ****         Slab* slab = slabList[EMPTY];
  38:src/Cache.cpp ****         Slot* slot = slab->getFreeSlot();
  39:src/Cache.cpp **** 
  40:src/Cache.cpp ****         return slot;
  41:src/Cache.cpp ****     }
  42:src/Cache.cpp **** 
  43:src/Cache.cpp ****     Slab* slab = allocateSlab();
  44:src/Cache.cpp ****     return slab->getFreeSlot();
  45:src/Cache.cpp **** }
  46:src/Cache.cpp **** 
  47:src/Cache.cpp **** Cache::Slab *Cache::allocateSlab() {
  48:src/Cache.cpp **** 
  49:src/Cache.cpp ****     Slab* slab = (Slab*)BuddyAllocator::buddyAlloc(powerOfTwo(slabSize) + 1); // 2 ako nije dovoljn
  50:src/Cache.cpp ****     slab->parentCache = this;
  51:src/Cache.cpp ****     slab->next = nullptr;
  52:src/Cache.cpp ****     slab->state = CREATED;
  53:src/Cache.cpp ****     slab->allocatedSlots = 0;
  54:src/Cache.cpp ****     void* startAddr = (void*)((char*)slab + sizeof(Slab));
  55:src/Cache.cpp ****     Slot* prev = nullptr;
  56:src/Cache.cpp ****     for(size_t i = 0; i < this->optimalSlots; i++) {
  57:src/Cache.cpp ****         if(constructor) {
  58:src/Cache.cpp ****             constructor((void*)((char*)startAddr + i*slotSize + sizeof(Slot)));
  59:src/Cache.cpp ****         }
  60:src/Cache.cpp ****         Slot* curr = (Slot*)((char*)startAddr + i*slotSize);
  61:src/Cache.cpp ****         curr->parentSlab = slab;
  62:src/Cache.cpp ****         curr->allocated = false;
  63:src/Cache.cpp ****         if(prev) {
  64:src/Cache.cpp ****             prev->next= curr;
  65:src/Cache.cpp ****         }
  66:src/Cache.cpp ****         else {
  67:src/Cache.cpp ****             slab->slotHead = curr;
  68:src/Cache.cpp ****         }
  69:src/Cache.cpp ****         curr->next = nullptr;
  70:src/Cache.cpp ****         prev = curr;
  71:src/Cache.cpp ****     }
  72:src/Cache.cpp **** 
  73:src/Cache.cpp ****     return slab;
GAS LISTING /tmp/ccnxh8e3.s 			page 3


  74:src/Cache.cpp **** }
  75:src/Cache.cpp **** 
  76:src/Cache.cpp **** 
  77:src/Cache.cpp **** void Cache::slabListPut(Cache::Slab *slab, int listNum) {
  45              		.loc 1 77 57 is_stmt 1
  46              		.cfi_startproc
  47              	.LVL2:
  48 0028 130101FF 		addi	sp,sp,-16
  49              		.cfi_def_cfa_offset 16
  50 002c 23348100 		sd	s0,8(sp)
  51              		.cfi_offset 8, -8
  52 0030 13040101 		addi	s0,sp,16
  53              		.cfi_def_cfa 8, 0
  78:src/Cache.cpp ****     if (!slab || listNum < 0 || listNum > 2) return;
  54              		.loc 1 78 5
  55 0034 638A0502 		beqz	a1,.L3
  56              		.loc 1 78 15 is_stmt 0 discriminator 2
  57 0038 63480602 		bltz	a2,.L3
  58              		.loc 1 78 30 discriminator 4
  59 003c 93072000 		li	a5,2
  60 0040 63C4C702 		bgt	a2,a5,.L3
  79:src/Cache.cpp ****     slab->state = (SlabState)listNum;
  61              		.loc 1 79 5 is_stmt 1
  62              		.loc 1 79 17 is_stmt 0
  63 0044 23A8C500 		sw	a2,16(a1)
  80:src/Cache.cpp ****     if(slabList[listNum]) {
  64              		.loc 1 80 5 is_stmt 1
  65              		.loc 1 80 24 is_stmt 0
  66 0048 93173600 		slli	a5,a2,3
  67 004c B307F500 		add	a5,a0,a5
  68 0050 83B78700 		ld	a5,8(a5)
  69              		.loc 1 80 5
  70 0054 63840700 		beqz	a5,.L5
  81:src/Cache.cpp ****         slab->next = slabList[listNum];
  71              		.loc 1 81 9 is_stmt 1
  72              		.loc 1 81 20 is_stmt 0
  73 0058 23B4F500 		sd	a5,8(a1)
  74              	.L5:
  82:src/Cache.cpp ****     }
  83:src/Cache.cpp ****     slabList[listNum] = slab;
  75              		.loc 1 83 5 is_stmt 1
  76              		.loc 1 83 23 is_stmt 0
  77 005c 13163600 		slli	a2,a2,3
  78              	.LVL3:
  79 0060 3306C500 		add	a2,a0,a2
  80 0064 2334B600 		sd	a1,8(a2)
  81              	.LVL4:
  82              	.L3:
  84:src/Cache.cpp **** }
  83              		.loc 1 84 1
  84 0068 03348100 		ld	s0,8(sp)
  85              		.cfi_restore 8
  86              		.cfi_def_cfa 2, 16
  87 006c 13010101 		addi	sp,sp,16
  88              		.cfi_def_cfa_offset 0
  89 0070 67800000 		jr	ra
  90              		.cfi_endproc
GAS LISTING /tmp/ccnxh8e3.s 			page 4


  91              	.LFE28:
  93              		.align	2
  94              		.globl	_ZN5Cache14slabListRemoveEPNS_4SlabEi
  96              	_ZN5Cache14slabListRemoveEPNS_4SlabEi:
  97              	.LFB30:
  85:src/Cache.cpp **** 
  86:src/Cache.cpp **** void Cache::freeSlot(Slot* slot) {
  87:src/Cache.cpp ****     if(slot->parentSlab->parentCache != this) {
  88:src/Cache.cpp ****         errortype = FreeSlotError;
  89:src/Cache.cpp ****         return;
  90:src/Cache.cpp ****     }
  91:src/Cache.cpp **** 
  92:src/Cache.cpp ****     Slab* parentSlab = slot->parentSlab;
  93:src/Cache.cpp ****     Cache* parentCache = parentSlab->parentCache;
  94:src/Cache.cpp ****     slot->allocated = false;
  95:src/Cache.cpp ****     parentSlab->allocatedSlots--;
  96:src/Cache.cpp **** 
  97:src/Cache.cpp ****     SlabState newState = parentSlab->calculateNewState();
  98:src/Cache.cpp ****     if(parentSlab->state != newState) {
  99:src/Cache.cpp ****         if(parentSlab->state != CREATED) parentCache->slabListRemove(parentSlab, parentSlab->state)
 100:src/Cache.cpp ****         parentCache->slabListPut(parentSlab, newState);
 101:src/Cache.cpp ****     }
 102:src/Cache.cpp **** }
 103:src/Cache.cpp **** 
 104:src/Cache.cpp **** void Cache::slabListRemove(Cache::Slab *slab, int listNum) {
  98              		.loc 1 104 60 is_stmt 1
  99              		.cfi_startproc
 100              	.LVL5:
 101 0074 130101FF 		addi	sp,sp,-16
 102              		.cfi_def_cfa_offset 16
 103 0078 23348100 		sd	s0,8(sp)
 104              		.cfi_offset 8, -8
 105 007c 13040101 		addi	s0,sp,16
 106              		.cfi_def_cfa 8, 0
 105:src/Cache.cpp ****     if(!slab || listNum < 0 || listNum > 2) return;
 107              		.loc 1 105 5
 108 0080 63820504 		beqz	a1,.L7
 109              		.loc 1 105 14 is_stmt 0 discriminator 2
 110 0084 63400604 		bltz	a2,.L7
 111              		.loc 1 105 29 discriminator 4
 112 0088 93072000 		li	a5,2
 113 008c 63CCC702 		bgt	a2,a5,.L7
 106:src/Cache.cpp **** 
 107:src/Cache.cpp ****     Slab* prev = nullptr;
 114              		.loc 1 107 5 is_stmt 1
 115              	.LVL6:
 108:src/Cache.cpp ****     for(Slab* curr = slabList[listNum]; curr != nullptr; curr = curr->next) {
 116              		.loc 1 108 5
 117              	.LBB2:
 118              		.loc 1 108 15 is_stmt 0
 119 0090 93173600 		slli	a5,a2,3
 120 0094 B307F500 		add	a5,a0,a5
 121 0098 83B78700 		ld	a5,8(a5)
 122              	.LVL7:
 123              	.LBE2:
 107:src/Cache.cpp ****     for(Slab* curr = slabList[listNum]; curr != nullptr; curr = curr->next) {
 124              		.loc 1 107 11
GAS LISTING /tmp/ccnxh8e3.s 			page 5


 125 009c 13070000 		li	a4,0
 126              	.LVL8:
 127              	.L12:
 128              	.LBB3:
 129              		.loc 1 108 46 is_stmt 1 discriminator 1
 130 00a0 63820702 		beqz	a5,.L7
 109:src/Cache.cpp ****         if(curr == slab) {
 131              		.loc 1 109 9
 132 00a4 6388B700 		beq	a5,a1,.L14
 110:src/Cache.cpp ****             if(prev) {
 111:src/Cache.cpp ****                 prev->next = curr->next;
 112:src/Cache.cpp ****             }
 113:src/Cache.cpp ****             else {
 114:src/Cache.cpp ****                 slabList[listNum] = curr->next;
 115:src/Cache.cpp ****             }
 116:src/Cache.cpp ****             curr->next = nullptr;
 117:src/Cache.cpp ****             break;
 118:src/Cache.cpp ****         }
 119:src/Cache.cpp ****         prev = curr;
 133              		.loc 1 119 9 discriminator 2
 134              	.LVL9:
 108:src/Cache.cpp ****         if(curr == slab) {
 135              		.loc 1 108 5 discriminator 2
 136              		.loc 1 119 14 is_stmt 0 discriminator 2
 137 00a8 13870700 		mv	a4,a5
 108:src/Cache.cpp ****         if(curr == slab) {
 138              		.loc 1 108 63 discriminator 2
 139 00ac 83B78700 		ld	a5,8(a5)
 140              	.LVL10:
 108:src/Cache.cpp ****         if(curr == slab) {
 141              		.loc 1 108 5 discriminator 2
 142 00b0 6FF01FFF 		j	.L12
 143              	.L14:
 110:src/Cache.cpp ****             if(prev) {
 144              		.loc 1 110 13 is_stmt 1
 145 00b4 630E0700 		beqz	a4,.L10
 111:src/Cache.cpp ****             }
 146              		.loc 1 111 17
 111:src/Cache.cpp ****             }
 147              		.loc 1 111 36 is_stmt 0
 148 00b8 83B68700 		ld	a3,8(a5)
 111:src/Cache.cpp ****             }
 149              		.loc 1 111 28
 150 00bc 2334D700 		sd	a3,8(a4)
 151              	.LVL11:
 152              	.L11:
 116:src/Cache.cpp ****             break;
 153              		.loc 1 116 13 is_stmt 1
 116:src/Cache.cpp ****             break;
 154              		.loc 1 116 24 is_stmt 0
 155 00c0 23B40700 		sd	zero,8(a5)
 117:src/Cache.cpp ****         }
 156              		.loc 1 117 13 is_stmt 1
 157              	.LVL12:
 158              	.L7:
 159              	.LBE3:
 120:src/Cache.cpp ****     }
GAS LISTING /tmp/ccnxh8e3.s 			page 6


 121:src/Cache.cpp **** }
 160              		.loc 1 121 1 is_stmt 0
 161 00c4 03348100 		ld	s0,8(sp)
 162              		.cfi_remember_state
 163              		.cfi_restore 8
 164              		.cfi_def_cfa 2, 16
 165 00c8 13010101 		addi	sp,sp,16
 166              		.cfi_def_cfa_offset 0
 167 00cc 67800000 		jr	ra
 168              	.LVL13:
 169              	.L10:
 170              		.cfi_restore_state
 171              	.LBB4:
 114:src/Cache.cpp ****             }
 172              		.loc 1 114 17 is_stmt 1
 114:src/Cache.cpp ****             }
 173              		.loc 1 114 43 is_stmt 0
 174 00d0 03B78700 		ld	a4,8(a5)
 175              	.LVL14:
 114:src/Cache.cpp ****             }
 176              		.loc 1 114 35
 177 00d4 13163600 		slli	a2,a2,3
 178              	.LVL15:
 179 00d8 3306C500 		add	a2,a0,a2
 180 00dc 2334E600 		sd	a4,8(a2)
 181 00e0 6FF01FFE 		j	.L11
 182              	.LBE4:
 183              		.cfi_endproc
 184              	.LFE30:
 186              		.section	.rodata.str1.8,"aMS",@progbits,1
 187              		.align	3
 188              	.LC0:
 189 0000 47726573 		.string	"Greska u oslobadjanju slota"
 189      6B612075 
 189      206F736C 
 189      6F626164 
 189      6A616E6A 
 190 001c 00000000 		.align	3
 191              	.LC1:
 192 0020 4E696A65 		.string	"Nije bilo greske u radu sa kesom"
 192      2062696C 
 192      6F206772 
 192      65736B65 
 192      20752072 
 193              		.text
 194              		.align	2
 195              		.globl	_ZN5Cache17printErrorMessageEv
 197              	_ZN5Cache17printErrorMessageEv:
 198              	.LFB31:
 122:src/Cache.cpp **** 
 123:src/Cache.cpp **** int Cache::printErrorMessage() {
 199              		.loc 1 123 32 is_stmt 1
 200              		.cfi_startproc
 201              	.LVL16:
 202 00e4 130101FE 		addi	sp,sp,-32
 203              		.cfi_def_cfa_offset 32
 204 00e8 233C1100 		sd	ra,24(sp)
GAS LISTING /tmp/ccnxh8e3.s 			page 7


 205 00ec 23388100 		sd	s0,16(sp)
 206 00f0 23349100 		sd	s1,8(sp)
 207              		.cfi_offset 1, -8
 208              		.cfi_offset 8, -16
 209              		.cfi_offset 9, -24
 210 00f4 13040102 		addi	s0,sp,32
 211              		.cfi_def_cfa 8, 0
 212 00f8 93040500 		mv	s1,a0
 124:src/Cache.cpp ****     switch(errortype) {
 213              		.loc 1 124 5
 214              		.loc 1 124 12 is_stmt 0
 215 00fc 03270500 		lw	a4,0(a0)
 216              		.loc 1 124 5
 217 0100 93071000 		li	a5,1
 218 0104 6306F702 		beq	a4,a5,.L18
 219              	.LVL17:
 220              	.L16:
 125:src/Cache.cpp ****         case FreeSlotError:
 126:src/Cache.cpp ****             printString("Greska u oslobadjanju slota");
 127:src/Cache.cpp ****         default:
 221              		.loc 1 127 9 is_stmt 1
 128:src/Cache.cpp ****             printString("Nije bilo greske u radu sa kesom");
 222              		.loc 1 128 13
 223              		.loc 1 128 24 is_stmt 0
 224 0108 17050000 		lla	a0,.LC1
 224      13050500 
 225 0110 97000000 		call	_Z11printStringPKc@plt
 225      E7800000 
 226              	.LVL18:
 129:src/Cache.cpp ****     }
 130:src/Cache.cpp ****     return errortype;
 227              		.loc 1 130 5 is_stmt 1
 131:src/Cache.cpp **** }
 228              		.loc 1 131 1 is_stmt 0
 229 0118 03A50400 		lw	a0,0(s1)
 230 011c 83308101 		ld	ra,24(sp)
 231              		.cfi_remember_state
 232              		.cfi_restore 1
 233 0120 03340101 		ld	s0,16(sp)
 234              		.cfi_restore 8
 235              		.cfi_def_cfa 2, 32
 236 0124 83348100 		ld	s1,8(sp)
 237              		.cfi_restore 9
 238              	.LVL19:
 239 0128 13010102 		addi	sp,sp,32
 240              		.cfi_def_cfa_offset 0
 241 012c 67800000 		jr	ra
 242              	.LVL20:
 243              	.L18:
 244              		.cfi_restore_state
 125:src/Cache.cpp ****             printString("Greska u oslobadjanju slota");
 245              		.loc 1 125 9 is_stmt 1
 126:src/Cache.cpp ****         default:
 246              		.loc 1 126 13
 126:src/Cache.cpp ****         default:
 247              		.loc 1 126 24 is_stmt 0
 248 0130 17050000 		lla	a0,.LC0
GAS LISTING /tmp/ccnxh8e3.s 			page 8


 248      13050500 
 249 0138 97000000 		call	_Z11printStringPKc@plt
 249      E7800000 
 250              	.LVL21:
 251 0140 6FF09FFC 		j	.L16
 252              		.cfi_endproc
 253              	.LFE31:
 255              		.align	2
 256              		.globl	_ZN5Cache19getNumSlabsAndSlotsEPiS0_
 258              	_ZN5Cache19getNumSlabsAndSlotsEPiS0_:
 259              	.LFB33:
 132:src/Cache.cpp **** // Ispis poruke: ime kesa, velicina objekta, broj slabova, broj slotova po slabu, broj alociranih s
 133:src/Cache.cpp **** void Cache::printCacheInfo() {
 134:src/Cache.cpp ****     int numSlabs = 0, numSlots = 0;
 135:src/Cache.cpp ****     getNumSlabsAndSlots(&numSlabs, &numSlots);
 136:src/Cache.cpp ****    // printString("ime kesa, velicina objekta, velicina slaba, broj slabova, broj slotova po slabu,
 137:src/Cache.cpp ****     printString(cacheName);
 138:src/Cache.cpp ****     printString(", ");
 139:src/Cache.cpp ****     printInt(objectSize);
 140:src/Cache.cpp ****     printString(", ");
 141:src/Cache.cpp ****     printInt(BLKSIZE*slabSize);
 142:src/Cache.cpp ****     printString(", ");
 143:src/Cache.cpp ****     printInt(numSlabs);
 144:src/Cache.cpp ****     printString(", ");
 145:src/Cache.cpp ****     printInt(optimalSlots);
 146:src/Cache.cpp ****     printString(", ");
 147:src/Cache.cpp ****     printInt(slotSize);
 148:src/Cache.cpp ****     printString(", ");
 149:src/Cache.cpp ****     printInt(numSlots);
 150:src/Cache.cpp ****     printString("\n");
 151:src/Cache.cpp **** }
 152:src/Cache.cpp **** 
 153:src/Cache.cpp **** void Cache::getNumSlabsAndSlots(int *numSlabs, int *numSlots) {
 260              		.loc 1 153 63 is_stmt 1
 261              		.cfi_startproc
 262              	.LVL22:
 263 0144 130101FF 		addi	sp,sp,-16
 264              		.cfi_def_cfa_offset 16
 265 0148 23348100 		sd	s0,8(sp)
 266              		.cfi_offset 8, -8
 267 014c 13040101 		addi	s0,sp,16
 268              		.cfi_def_cfa 8, 0
 154:src/Cache.cpp ****     int slabs = 0, slots = 0;
 269              		.loc 1 154 5
 270              	.LVL23:
 155:src/Cache.cpp ****     for(int i = 0; i < 3; i++) {
 271              		.loc 1 155 5
 272              	.LBB5:
 273              		.loc 1 155 13 is_stmt 0
 274 0150 93080000 		li	a7,0
 275              	.LBE5:
 154:src/Cache.cpp ****     int slabs = 0, slots = 0;
 276              		.loc 1 154 20
 277 0154 13070000 		li	a4,0
 154:src/Cache.cpp ****     int slabs = 0, slots = 0;
 278              		.loc 1 154 9
 279 0158 93060000 		li	a3,0
GAS LISTING /tmp/ccnxh8e3.s 			page 9


 280 015c 6F008000 		j	.L23
 281              	.LVL24:
 282              	.L21:
 283              	.LBB7:
 284              		.loc 1 155 5 is_stmt 1 discriminator 2
 285 0160 9B881800 		addiw	a7,a7,1
 286              	.LVL25:
 287              	.L23:
 288              		.loc 1 155 22 discriminator 1
 289 0164 93072000 		li	a5,2
 290 0168 63C41703 		bgt	a7,a5,.L20
 291              	.LBE7:
 156:src/Cache.cpp ****         for(Slab* curr = slabList[i]; curr != nullptr; curr = curr->next) {
 292              		.loc 1 156 9
 293              	.LBB8:
 294              	.LBB6:
 295              		.loc 1 156 19 is_stmt 0
 296 016c 93973800 		slli	a5,a7,3
 297 0170 B307F500 		add	a5,a0,a5
 298 0174 83B78700 		ld	a5,8(a5)
 299              	.LVL26:
 300              	.L22:
 301              		.loc 1 156 44 is_stmt 1 discriminator 3
 302 0178 E38407FE 		beqz	a5,.L21
 157:src/Cache.cpp ****              slabs++;
 303              		.loc 1 157 14 discriminator 2
 304              		.loc 1 157 19 is_stmt 0 discriminator 2
 305 017c 9B861600 		addiw	a3,a3,1
 306              	.LVL27:
 158:src/Cache.cpp ****              slots += curr->allocatedSlots;
 307              		.loc 1 158 14 is_stmt 1 discriminator 2
 308              		.loc 1 158 29 is_stmt 0 discriminator 2
 309 0180 03B80700 		ld	a6,0(a5)
 310              		.loc 1 158 20 discriminator 2
 311 0184 3B07E800 		addw	a4,a6,a4
 312              	.LVL28:
 156:src/Cache.cpp ****         for(Slab* curr = slabList[i]; curr != nullptr; curr = curr->next) {
 313              		.loc 1 156 9 is_stmt 1 discriminator 2
 156:src/Cache.cpp ****         for(Slab* curr = slabList[i]; curr != nullptr; curr = curr->next) {
 314              		.loc 1 156 61 is_stmt 0 discriminator 2
 315 0188 83B78700 		ld	a5,8(a5)
 316              	.LVL29:
 156:src/Cache.cpp ****         for(Slab* curr = slabList[i]; curr != nullptr; curr = curr->next) {
 317              		.loc 1 156 9 discriminator 2
 318 018c 6FF0DFFE 		j	.L22
 319              	.LVL30:
 320              	.L20:
 321              	.LBE6:
 322              	.LBE8:
 159:src/Cache.cpp ****         }
 160:src/Cache.cpp ****     }
 161:src/Cache.cpp ****     (*numSlabs) = slabs;
 323              		.loc 1 161 5 is_stmt 1
 324              		.loc 1 161 17 is_stmt 0
 325 0190 23A0D500 		sw	a3,0(a1)
 162:src/Cache.cpp ****     (*numSlots) = slots;
 326              		.loc 1 162 5 is_stmt 1
GAS LISTING /tmp/ccnxh8e3.s 			page 10


 327              		.loc 1 162 17 is_stmt 0
 328 0194 2320E600 		sw	a4,0(a2)
 163:src/Cache.cpp **** }
 329              		.loc 1 163 1
 330 0198 03348100 		ld	s0,8(sp)
 331              		.cfi_restore 8
 332              		.cfi_def_cfa 2, 16
 333 019c 13010101 		addi	sp,sp,16
 334              		.cfi_def_cfa_offset 0
 335 01a0 67800000 		jr	ra
 336              		.cfi_endproc
 337              	.LFE33:
 339              		.section	.rodata.str1.8
 340 0041 00000000 		.align	3
 340      000000
 341              	.LC2:
 342 0048 2C2000   		.string	", "
 343 004b 00000000 		.align	3
 343      00
 344              	.LC3:
 345 0050 0A00     		.string	"\n"
 346              		.text
 347              		.align	2
 348              		.globl	_ZN5Cache14printCacheInfoEv
 350              	_ZN5Cache14printCacheInfoEv:
 351              	.LFB32:
 133:src/Cache.cpp ****     int numSlabs = 0, numSlots = 0;
 352              		.loc 1 133 30 is_stmt 1
 353              		.cfi_startproc
 354              	.LVL31:
 355 01a4 130101FD 		addi	sp,sp,-48
 356              		.cfi_def_cfa_offset 48
 357 01a8 23341102 		sd	ra,40(sp)
 358 01ac 23308102 		sd	s0,32(sp)
 359 01b0 233C9100 		sd	s1,24(sp)
 360              		.cfi_offset 1, -8
 361              		.cfi_offset 8, -16
 362              		.cfi_offset 9, -24
 363 01b4 13040103 		addi	s0,sp,48
 364              		.cfi_def_cfa 8, 0
 365 01b8 93040500 		mv	s1,a0
 134:src/Cache.cpp ****     getNumSlabsAndSlots(&numSlabs, &numSlots);
 366              		.loc 1 134 5
 134:src/Cache.cpp ****     getNumSlabsAndSlots(&numSlabs, &numSlots);
 367              		.loc 1 134 9 is_stmt 0
 368 01bc 232E04FC 		sw	zero,-36(s0)
 134:src/Cache.cpp ****     getNumSlabsAndSlots(&numSlabs, &numSlots);
 369              		.loc 1 134 23
 370 01c0 232C04FC 		sw	zero,-40(s0)
 135:src/Cache.cpp ****    // printString("ime kesa, velicina objekta, velicina slaba, broj slabova, broj slotova po slabu,
 371              		.loc 1 135 5 is_stmt 1
 135:src/Cache.cpp ****    // printString("ime kesa, velicina objekta, velicina slaba, broj slabova, broj slotova po slabu,
 372              		.loc 1 135 24 is_stmt 0
 373 01c4 130684FD 		addi	a2,s0,-40
 374 01c8 9305C4FD 		addi	a1,s0,-36
 375 01cc 97000000 		call	_ZN5Cache19getNumSlabsAndSlotsEPiS0_
 375      E7800000 
GAS LISTING /tmp/ccnxh8e3.s 			page 11


 376              	.LVL32:
 137:src/Cache.cpp ****     printString(", ");
 377              		.loc 1 137 5 is_stmt 1
 137:src/Cache.cpp ****     printString(", ");
 378              		.loc 1 137 16 is_stmt 0
 379 01d4 13850402 		addi	a0,s1,32
 380 01d8 97000000 		call	_Z11printStringPKc@plt
 380      E7800000 
 381              	.LVL33:
 138:src/Cache.cpp ****     printInt(objectSize);
 382              		.loc 1 138 5 is_stmt 1
 138:src/Cache.cpp ****     printInt(objectSize);
 383              		.loc 1 138 16 is_stmt 0
 384 01e0 17050000 		lla	a0,.LC2
 384      13050500 
 385 01e8 97000000 		call	_Z11printStringPKc@plt
 385      E7800000 
 386              	.LVL34:
 139:src/Cache.cpp ****     printString(", ");
 387              		.loc 1 139 5 is_stmt 1
 139:src/Cache.cpp ****     printString(", ");
 388              		.loc 1 139 13 is_stmt 0
 389 01f0 13060000 		li	a2,0
 390 01f4 9305A000 		li	a1,10
 391 01f8 03A50403 		lw	a0,48(s1)
 392 01fc 97000000 		call	_Z8printIntiii@plt
 392      E7800000 
 393              	.LVL35:
 140:src/Cache.cpp ****     printInt(BLKSIZE*slabSize);
 394              		.loc 1 140 5 is_stmt 1
 140:src/Cache.cpp ****     printInt(BLKSIZE*slabSize);
 395              		.loc 1 140 16 is_stmt 0
 396 0204 17050000 		lla	a0,.LC2
 396      13050500 
 397 020c 97000000 		call	_Z11printStringPKc@plt
 397      E7800000 
 398              	.LVL36:
 141:src/Cache.cpp ****     printString(", ");
 399              		.loc 1 141 5 is_stmt 1
 141:src/Cache.cpp ****     printString(", ");
 400              		.loc 1 141 22 is_stmt 0
 401 0214 03B58404 		ld	a0,72(s1)
 141:src/Cache.cpp ****     printString(", ");
 402              		.loc 1 141 13
 403 0218 13060000 		li	a2,0
 404 021c 9305A000 		li	a1,10
 405 0220 1B15C500 		slliw	a0,a0,12
 406 0224 97000000 		call	_Z8printIntiii@plt
 406      E7800000 
 407              	.LVL37:
 142:src/Cache.cpp ****     printInt(numSlabs);
 408              		.loc 1 142 5 is_stmt 1
 142:src/Cache.cpp ****     printInt(numSlabs);
 409              		.loc 1 142 16 is_stmt 0
 410 022c 17050000 		lla	a0,.LC2
 410      13050500 
 411 0234 97000000 		call	_Z11printStringPKc@plt
GAS LISTING /tmp/ccnxh8e3.s 			page 12


 411      E7800000 
 412              	.LVL38:
 143:src/Cache.cpp ****     printString(", ");
 413              		.loc 1 143 5 is_stmt 1
 143:src/Cache.cpp ****     printString(", ");
 414              		.loc 1 143 13 is_stmt 0
 415 023c 13060000 		li	a2,0
 416 0240 9305A000 		li	a1,10
 417 0244 0325C4FD 		lw	a0,-36(s0)
 418 0248 97000000 		call	_Z8printIntiii@plt
 418      E7800000 
 419              	.LVL39:
 144:src/Cache.cpp ****     printInt(optimalSlots);
 420              		.loc 1 144 5 is_stmt 1
 144:src/Cache.cpp ****     printInt(optimalSlots);
 421              		.loc 1 144 16 is_stmt 0
 422 0250 17050000 		lla	a0,.LC2
 422      13050500 
 423 0258 97000000 		call	_Z11printStringPKc@plt
 423      E7800000 
 424              	.LVL40:
 145:src/Cache.cpp ****     printString(", ");
 425              		.loc 1 145 5 is_stmt 1
 145:src/Cache.cpp ****     printString(", ");
 426              		.loc 1 145 13 is_stmt 0
 427 0260 13060000 		li	a2,0
 428 0264 9305A000 		li	a1,10
 429 0268 03A58403 		lw	a0,56(s1)
 430 026c 97000000 		call	_Z8printIntiii@plt
 430      E7800000 
 431              	.LVL41:
 146:src/Cache.cpp ****     printInt(slotSize);
 432              		.loc 1 146 5 is_stmt 1
 146:src/Cache.cpp ****     printInt(slotSize);
 433              		.loc 1 146 16 is_stmt 0
 434 0274 17050000 		lla	a0,.LC2
 434      13050500 
 435 027c 97000000 		call	_Z11printStringPKc@plt
 435      E7800000 
 436              	.LVL42:
 147:src/Cache.cpp ****     printString(", ");
 437              		.loc 1 147 5 is_stmt 1
 147:src/Cache.cpp ****     printString(", ");
 438              		.loc 1 147 13 is_stmt 0
 439 0284 13060000 		li	a2,0
 440 0288 9305A000 		li	a1,10
 441 028c 03A50404 		lw	a0,64(s1)
 442 0290 97000000 		call	_Z8printIntiii@plt
 442      E7800000 
 443              	.LVL43:
 148:src/Cache.cpp ****     printInt(numSlots);
 444              		.loc 1 148 5 is_stmt 1
 148:src/Cache.cpp ****     printInt(numSlots);
 445              		.loc 1 148 16 is_stmt 0
 446 0298 17050000 		lla	a0,.LC2
 446      13050500 
 447 02a0 97000000 		call	_Z11printStringPKc@plt
GAS LISTING /tmp/ccnxh8e3.s 			page 13


 447      E7800000 
 448              	.LVL44:
 149:src/Cache.cpp ****     printString("\n");
 449              		.loc 1 149 5 is_stmt 1
 149:src/Cache.cpp ****     printString("\n");
 450              		.loc 1 149 13 is_stmt 0
 451 02a8 13060000 		li	a2,0
 452 02ac 9305A000 		li	a1,10
 453 02b0 032584FD 		lw	a0,-40(s0)
 454 02b4 97000000 		call	_Z8printIntiii@plt
 454      E7800000 
 455              	.LVL45:
 150:src/Cache.cpp **** }
 456              		.loc 1 150 5 is_stmt 1
 150:src/Cache.cpp **** }
 457              		.loc 1 150 16 is_stmt 0
 458 02bc 17050000 		lla	a0,.LC3
 458      13050500 
 459 02c4 97000000 		call	_Z11printStringPKc@plt
 459      E7800000 
 460              	.LVL46:
 151:src/Cache.cpp **** 
 461              		.loc 1 151 1
 462 02cc 83308102 		ld	ra,40(sp)
 463              		.cfi_restore 1
 464 02d0 03340102 		ld	s0,32(sp)
 465              		.cfi_restore 8
 466              		.cfi_def_cfa 2, 48
 467 02d4 83348101 		ld	s1,24(sp)
 468              		.cfi_restore 9
 469              	.LVL47:
 470 02d8 13010103 		addi	sp,sp,48
 471              		.cfi_def_cfa_offset 0
 472 02dc 67800000 		jr	ra
 473              		.cfi_endproc
 474              	.LFE32:
 476              		.align	2
 477              		.globl	_ZN5Cache11deallocSlabEPNS_4SlabE
 479              	_ZN5Cache11deallocSlabEPNS_4SlabE:
 480              	.LFB35:
 164:src/Cache.cpp **** 
 165:src/Cache.cpp **** int Cache::deallocFreeSlabs() {
 166:src/Cache.cpp ****     int numSlabs = 0;
 167:src/Cache.cpp ****     for(Slab* curr = slabList[EMPTY]; curr != nullptr;) {
 168:src/Cache.cpp ****         numSlabs++;
 169:src/Cache.cpp ****         Slab* old = curr;
 170:src/Cache.cpp ****         curr = curr->next;
 171:src/Cache.cpp ****         deallocSlab(old);
 172:src/Cache.cpp ****     }
 173:src/Cache.cpp ****     slabList[EMPTY] = nullptr;
 174:src/Cache.cpp ****     return numSlabs;
 175:src/Cache.cpp **** }
 176:src/Cache.cpp **** 
 177:src/Cache.cpp **** void Cache::deallocSlab(Slab* slab) {
 481              		.loc 1 177 37 is_stmt 1
 482              		.cfi_startproc
 483              	.LVL48:
GAS LISTING /tmp/ccnxh8e3.s 			page 14


 484 02e0 130101FD 		addi	sp,sp,-48
 485              		.cfi_def_cfa_offset 48
 486 02e4 23341102 		sd	ra,40(sp)
 487 02e8 23308102 		sd	s0,32(sp)
 488 02ec 233C9100 		sd	s1,24(sp)
 489 02f0 23382101 		sd	s2,16(sp)
 490 02f4 23343101 		sd	s3,8(sp)
 491              		.cfi_offset 1, -8
 492              		.cfi_offset 8, -16
 493              		.cfi_offset 9, -24
 494              		.cfi_offset 18, -32
 495              		.cfi_offset 19, -40
 496 02f8 13040103 		addi	s0,sp,48
 497              		.cfi_def_cfa 8, 0
 498 02fc 93890500 		mv	s3,a1
 178:src/Cache.cpp ****     void* startAddr = (void*)((char*)slab + sizeof(Slab));
 499              		.loc 1 178 5
 500              	.LVL49:
 179:src/Cache.cpp ****     if(destructor) {
 501              		.loc 1 179 5
 502              	.LBB9:
 503              		.loc 1 179 8 is_stmt 0
 504 0300 83378505 		ld	a5,88(a0)
 505              		.loc 1 179 5
 506 0304 638A0702 		beqz	a5,.L28
 507 0308 13090500 		mv	s2,a0
 508              	.LBB10:
 180:src/Cache.cpp ****         for(size_t i = 0; i < this->optimalSlots; i++) {
 509              		.loc 1 180 20
 510 030c 93040000 		li	s1,0
 511 0310 6F000002 		j	.L29
 512              	.LVL50:
 513              	.L31:
 181:src/Cache.cpp ****             destructor((void*)((char*)startAddr + i*slotSize));
 514              		.loc 1 181 13 is_stmt 1 discriminator 2
 515 0314 83378905 		ld	a5,88(s2)
 516              		.loc 1 181 53 is_stmt 0 discriminator 2
 517 0318 03350904 		ld	a0,64(s2)
 518              		.loc 1 181 52 discriminator 2
 519 031c 33059502 		mul	a0,a0,s1
 520              		.loc 1 181 23 discriminator 2
 521 0320 13058502 		addi	a0,a0,40
 522 0324 3385A900 		add	a0,s3,a0
 523 0328 E7800700 		jalr	a5
 524              	.LVL51:
 180:src/Cache.cpp ****         for(size_t i = 0; i < this->optimalSlots; i++) {
 525              		.loc 1 180 9 is_stmt 1 discriminator 2
 526 032c 93841400 		addi	s1,s1,1
 527              	.LVL52:
 528              	.L29:
 180:src/Cache.cpp ****         for(size_t i = 0; i < this->optimalSlots; i++) {
 529              		.loc 1 180 29 discriminator 3
 180:src/Cache.cpp ****         for(size_t i = 0; i < this->optimalSlots; i++) {
 530              		.loc 1 180 37 is_stmt 0 discriminator 3
 531 0330 83378903 		ld	a5,56(s2)
 180:src/Cache.cpp ****         for(size_t i = 0; i < this->optimalSlots; i++) {
 532              		.loc 1 180 29 discriminator 3
GAS LISTING /tmp/ccnxh8e3.s 			page 15


 533 0334 E3E0F4FE 		bgtu	a5,s1,.L31
 534              	.LVL53:
 535              	.L28:
 536              	.LBE10:
 537              	.LBE9:
 182:src/Cache.cpp ****         }
 183:src/Cache.cpp ****     }
 184:src/Cache.cpp ****     BuddyAllocator::buddyFree(slab, 1);
 538              		.loc 1 184 5 is_stmt 1
 539              		.loc 1 184 30 is_stmt 0
 540 0338 93051000 		li	a1,1
 541 033c 13850900 		mv	a0,s3
 542 0340 97000000 		call	_ZN14BuddyAllocator9buddyFreeEPvm@plt
 542      E7800000 
 543              	.LVL54:
 185:src/Cache.cpp **** }
 544              		.loc 1 185 1
 545 0348 83308102 		ld	ra,40(sp)
 546              		.cfi_restore 1
 547 034c 03340102 		ld	s0,32(sp)
 548              		.cfi_restore 8
 549              		.cfi_def_cfa 2, 48
 550 0350 83348101 		ld	s1,24(sp)
 551              		.cfi_restore 9
 552 0354 03390101 		ld	s2,16(sp)
 553              		.cfi_restore 18
 554 0358 83398100 		ld	s3,8(sp)
 555              		.cfi_restore 19
 556              	.LVL55:
 557 035c 13010103 		addi	sp,sp,48
 558              		.cfi_def_cfa_offset 0
 559 0360 67800000 		jr	ra
 560              		.cfi_endproc
 561              	.LFE35:
 563              		.align	2
 564              		.globl	_ZN5Cache16deallocFreeSlabsEv
 566              	_ZN5Cache16deallocFreeSlabsEv:
 567              	.LFB34:
 165:src/Cache.cpp ****     int numSlabs = 0;
 568              		.loc 1 165 31 is_stmt 1
 569              		.cfi_startproc
 570              	.LVL56:
 571 0364 130101FD 		addi	sp,sp,-48
 572              		.cfi_def_cfa_offset 48
 573 0368 23341102 		sd	ra,40(sp)
 574 036c 23308102 		sd	s0,32(sp)
 575 0370 233C9100 		sd	s1,24(sp)
 576 0374 23382101 		sd	s2,16(sp)
 577 0378 23343101 		sd	s3,8(sp)
 578              		.cfi_offset 1, -8
 579              		.cfi_offset 8, -16
 580              		.cfi_offset 9, -24
 581              		.cfi_offset 18, -32
 582              		.cfi_offset 19, -40
 583 037c 13040103 		addi	s0,sp,48
 584              		.cfi_def_cfa 8, 0
 585 0380 93090500 		mv	s3,a0
GAS LISTING /tmp/ccnxh8e3.s 			page 16


 166:src/Cache.cpp ****     for(Slab* curr = slabList[EMPTY]; curr != nullptr;) {
 586              		.loc 1 166 5
 587              	.LVL57:
 167:src/Cache.cpp ****         numSlabs++;
 588              		.loc 1 167 5
 589              	.LBB11:
 167:src/Cache.cpp ****         numSlabs++;
 590              		.loc 1 167 15 is_stmt 0
 591 0384 83358500 		ld	a1,8(a0)
 592              	.LVL58:
 593              	.LBE11:
 166:src/Cache.cpp ****     for(Slab* curr = slabList[EMPTY]; curr != nullptr;) {
 594              		.loc 1 166 9
 595 0388 93040000 		li	s1,0
 596              	.LVL59:
 597              	.L34:
 598              	.LBB13:
 167:src/Cache.cpp ****         numSlabs++;
 599              		.loc 1 167 44 is_stmt 1 discriminator 1
 600 038c 63800502 		beqz	a1,.L33
 601              	.LBB12:
 168:src/Cache.cpp ****         Slab* old = curr;
 602              		.loc 1 168 9
 168:src/Cache.cpp ****         Slab* old = curr;
 603              		.loc 1 168 17 is_stmt 0
 604 0390 9B841400 		addiw	s1,s1,1
 605              	.LVL60:
 169:src/Cache.cpp ****         curr = curr->next;
 606              		.loc 1 169 9 is_stmt 1
 170:src/Cache.cpp ****         deallocSlab(old);
 607              		.loc 1 170 9
 170:src/Cache.cpp ****         deallocSlab(old);
 608              		.loc 1 170 14 is_stmt 0
 609 0394 03B98500 		ld	s2,8(a1)
 610              	.LVL61:
 171:src/Cache.cpp ****     }
 611              		.loc 1 171 9 is_stmt 1
 171:src/Cache.cpp ****     }
 612              		.loc 1 171 20 is_stmt 0
 613 0398 13850900 		mv	a0,s3
 614 039c 97000000 		call	_ZN5Cache11deallocSlabEPNS_4SlabE
 614      E7800000 
 615              	.LVL62:
 170:src/Cache.cpp ****         deallocSlab(old);
 616              		.loc 1 170 14
 617 03a4 93050900 		mv	a1,s2
 618              	.LBE12:
 167:src/Cache.cpp ****         numSlabs++;
 619              		.loc 1 167 5
 620 03a8 6FF05FFE 		j	.L34
 621              	.LVL63:
 622              	.L33:
 623              	.LBE13:
 173:src/Cache.cpp ****     return numSlabs;
 624              		.loc 1 173 5 is_stmt 1
 173:src/Cache.cpp ****     return numSlabs;
 625              		.loc 1 173 21 is_stmt 0
GAS LISTING /tmp/ccnxh8e3.s 			page 17


 626 03ac 23B40900 		sd	zero,8(s3)
 174:src/Cache.cpp **** }
 627              		.loc 1 174 5 is_stmt 1
 175:src/Cache.cpp **** 
 628              		.loc 1 175 1 is_stmt 0
 629 03b0 13850400 		mv	a0,s1
 630 03b4 83308102 		ld	ra,40(sp)
 631              		.cfi_restore 1
 632 03b8 03340102 		ld	s0,32(sp)
 633              		.cfi_restore 8
 634              		.cfi_def_cfa 2, 48
 635 03bc 83348101 		ld	s1,24(sp)
 636              		.cfi_restore 9
 637              	.LVL64:
 638 03c0 03390101 		ld	s2,16(sp)
 639              		.cfi_restore 18
 640 03c4 83398100 		ld	s3,8(sp)
 641              		.cfi_restore 19
 642              	.LVL65:
 643 03c8 13010103 		addi	sp,sp,48
 644              		.cfi_def_cfa_offset 0
 645 03cc 67800000 		jr	ra
 646              		.cfi_endproc
 647              	.LFE34:
 649              		.align	2
 650              		.globl	_ZN5Cache12deallocCacheEv
 652              	_ZN5Cache12deallocCacheEv:
 653              	.LFB36:
 186:src/Cache.cpp **** 
 187:src/Cache.cpp **** void Cache::deallocCache() {
 654              		.loc 1 187 28 is_stmt 1
 655              		.cfi_startproc
 656              	.LVL66:
 657 03d0 130101FD 		addi	sp,sp,-48
 658              		.cfi_def_cfa_offset 48
 659 03d4 23341102 		sd	ra,40(sp)
 660 03d8 23308102 		sd	s0,32(sp)
 661 03dc 233C9100 		sd	s1,24(sp)
 662 03e0 23382101 		sd	s2,16(sp)
 663 03e4 23343101 		sd	s3,8(sp)
 664              		.cfi_offset 1, -8
 665              		.cfi_offset 8, -16
 666              		.cfi_offset 9, -24
 667              		.cfi_offset 18, -32
 668              		.cfi_offset 19, -40
 669 03e8 13040103 		addi	s0,sp,48
 670              		.cfi_def_cfa 8, 0
 671 03ec 13090500 		mv	s2,a0
 188:src/Cache.cpp ****     for(int i = 0; i < 3; i++) {
 672              		.loc 1 188 5
 673              	.LVL67:
 674              	.LBB14:
 675              		.loc 1 188 13 is_stmt 0
 676 03f0 93090000 		li	s3,0
 677 03f4 6F008000 		j	.L40
 678              	.LVL68:
 679              	.L38:
GAS LISTING /tmp/ccnxh8e3.s 			page 18


 680              		.loc 1 188 5 is_stmt 1 discriminator 2
 681 03f8 9B891900 		addiw	s3,s3,1
 682              	.LVL69:
 683              	.L40:
 684              		.loc 1 188 22 discriminator 1
 685 03fc 93072000 		li	a5,2
 686 0400 63C63703 		bgt	s3,a5,.L36
 687              	.LBB15:
 189:src/Cache.cpp ****         Slab* curr = slabList[i];
 688              		.loc 1 189 9
 689              		.loc 1 189 15 is_stmt 0
 690 0404 93973900 		slli	a5,s3,3
 691 0408 B307F900 		add	a5,s2,a5
 692 040c 83B58700 		ld	a1,8(a5)
 693              	.LVL70:
 694              	.L39:
 190:src/Cache.cpp ****         while(curr) {
 695              		.loc 1 190 9 is_stmt 1
 696              		.loc 1 190 15
 697 0410 E38405FE 		beqz	a1,.L38
 698              	.LBB16:
 191:src/Cache.cpp ****             Slab* old = curr;
 699              		.loc 1 191 13
 700              	.LVL71:
 192:src/Cache.cpp ****             curr = curr->next;
 701              		.loc 1 192 13
 702              		.loc 1 192 18 is_stmt 0
 703 0414 83B48500 		ld	s1,8(a1)
 704              	.LVL72:
 193:src/Cache.cpp ****             deallocSlab(old);
 705              		.loc 1 193 13 is_stmt 1
 706              		.loc 1 193 24 is_stmt 0
 707 0418 13050900 		mv	a0,s2
 708 041c 97000000 		call	_ZN5Cache11deallocSlabEPNS_4SlabE
 708      E7800000 
 709              	.LVL73:
 192:src/Cache.cpp ****             curr = curr->next;
 710              		.loc 1 192 18
 711 0424 93850400 		mv	a1,s1
 712              	.LBE16:
 190:src/Cache.cpp ****             Slab* old = curr;
 713              		.loc 1 190 9
 714 0428 6FF09FFE 		j	.L39
 715              	.LVL74:
 716              	.L36:
 717              	.LBE15:
 718              	.LBE14:
 194:src/Cache.cpp ****         }
 195:src/Cache.cpp ****     }
 196:src/Cache.cpp **** }
 719              		.loc 1 196 1
 720 042c 83308102 		ld	ra,40(sp)
 721              		.cfi_restore 1
 722 0430 03340102 		ld	s0,32(sp)
 723              		.cfi_restore 8
 724              		.cfi_def_cfa 2, 48
 725 0434 83348101 		ld	s1,24(sp)
GAS LISTING /tmp/ccnxh8e3.s 			page 19


 726              		.cfi_restore 9
 727 0438 03390101 		ld	s2,16(sp)
 728              		.cfi_restore 18
 729              	.LVL75:
 730 043c 83398100 		ld	s3,8(sp)
 731              		.cfi_restore 19
 732              	.LVL76:
 733 0440 13010103 		addi	sp,sp,48
 734              		.cfi_def_cfa_offset 0
 735 0444 67800000 		jr	ra
 736              		.cfi_endproc
 737              	.LFE36:
 739              		.align	2
 740              		.globl	_ZN5Cache10powerOfTwoEm
 742              	_ZN5Cache10powerOfTwoEm:
 743              	.LFB39:
 197:src/Cache.cpp **** 
 198:src/Cache.cpp **** // Alocira jedan mali mem bafer velicine size(kao objectSize parametar)
 199:src/Cache.cpp **** void *Cache::allocateBuffer(size_t size) {
 200:src/Cache.cpp ****     size_t objectPowSize = powerOfTwo(size);
 201:src/Cache.cpp ****     if(objectPowSize <  MINSIZEBUFFER || objectPowSize > MAXSIZEBUFFER) {
 202:src/Cache.cpp ****         return nullptr;
 203:src/Cache.cpp ****     }
 204:src/Cache.cpp ****     size_t entry = objectPowSize - MINSIZEBUFFER;
 205:src/Cache.cpp ****     if(bufferCache[entry] == nullptr) {
 206:src/Cache.cpp ****         bufferCache[entry] = createCache();
 207:src/Cache.cpp ****         bufferCache[entry]->initCache(bufferNames[entry], 1<<objectPowSize, NULL,NULL);
 208:src/Cache.cpp ****     }
 209:src/Cache.cpp ****     return bufferCache[entry]->allocateSlot();
 210:src/Cache.cpp **** }
 211:src/Cache.cpp **** 
 212:src/Cache.cpp **** void Cache::freeBuffer(Slot* slot) {
 213:src/Cache.cpp ****     Cache* parentCache = slot->parentSlab->parentCache;
 214:src/Cache.cpp ****     parentCache->freeSlot(slot);
 215:src/Cache.cpp **** }
 216:src/Cache.cpp **** 
 217:src/Cache.cpp **** size_t Cache::powerOfTwo(size_t size) {
 744              		.loc 1 217 39 is_stmt 1
 745              		.cfi_startproc
 746              	.LVL77:
 747 0448 130101FF 		addi	sp,sp,-16
 748              		.cfi_def_cfa_offset 16
 749 044c 23348100 		sd	s0,8(sp)
 750              		.cfi_offset 8, -8
 751 0450 13040101 		addi	s0,sp,16
 752              		.cfi_def_cfa 8, 0
 753 0454 13060500 		mv	a2,a0
 218:src/Cache.cpp ****     size_t t = size;
 754              		.loc 1 218 5
 755              	.LVL78:
 219:src/Cache.cpp ****     size_t pow = 0, powerValue = 1;
 756              		.loc 1 219 5
 218:src/Cache.cpp ****     size_t t = size;
 757              		.loc 1 218 12 is_stmt 0
 758 0458 93070500 		mv	a5,a0
 759              		.loc 1 219 21
 760 045c 13071000 		li	a4,1
GAS LISTING /tmp/ccnxh8e3.s 			page 20


 761              		.loc 1 219 12
 762 0460 13050000 		li	a0,0
 763              	.LVL79:
 764              	.L44:
 220:src/Cache.cpp ****     while(t > 1) {
 765              		.loc 1 220 5 is_stmt 1
 766              		.loc 1 220 13
 767 0464 93061000 		li	a3,1
 768 0468 63FAF600 		bleu	a5,a3,.L43
 221:src/Cache.cpp ****         t /= 2;
 769              		.loc 1 221 9
 770              		.loc 1 221 11 is_stmt 0
 771 046c 93D71700 		srli	a5,a5,1
 772              	.LVL80:
 222:src/Cache.cpp ****         powerValue *= 2;
 773              		.loc 1 222 9 is_stmt 1
 774              		.loc 1 222 20 is_stmt 0
 775 0470 13171700 		slli	a4,a4,1
 776              	.LVL81:
 223:src/Cache.cpp ****         pow++;
 777              		.loc 1 223 9 is_stmt 1
 778              		.loc 1 223 12 is_stmt 0
 779 0474 13051500 		addi	a0,a0,1
 780              	.LVL82:
 220:src/Cache.cpp ****         t /= 2;
 781              		.loc 1 220 5
 782 0478 6FF0DFFE 		j	.L44
 783              	.L43:
 224:src/Cache.cpp ****     }
 225:src/Cache.cpp ****     if(size != powerValue) pow++;
 784              		.loc 1 225 5 is_stmt 1
 785 047c 6304C700 		beq	a4,a2,.L42
 786              		.loc 1 225 28 discriminator 1
 787              		.loc 1 225 31 is_stmt 0 discriminator 1
 788 0480 13051500 		addi	a0,a0,1
 789              	.LVL83:
 226:src/Cache.cpp ****     return pow;
 790              		.loc 1 226 5 is_stmt 1 discriminator 1
 791              	.L42:
 227:src/Cache.cpp **** }
 792              		.loc 1 227 1 is_stmt 0
 793 0484 03348100 		ld	s0,8(sp)
 794              		.cfi_restore 8
 795              		.cfi_def_cfa 2, 16
 796 0488 13010101 		addi	sp,sp,16
 797              		.cfi_def_cfa_offset 0
 798 048c 67800000 		jr	ra
 799              		.cfi_endproc
 800              	.LFE39:
 802              		.align	2
 803              		.globl	_ZN5Cache12allocateSlabEv
 805              	_ZN5Cache12allocateSlabEv:
 806              	.LFB27:
  47:src/Cache.cpp **** 
 807              		.loc 1 47 36 is_stmt 1
 808              		.cfi_startproc
 809              	.LVL84:
GAS LISTING /tmp/ccnxh8e3.s 			page 21


 810 0490 130101FC 		addi	sp,sp,-64
 811              		.cfi_def_cfa_offset 64
 812 0494 233C1102 		sd	ra,56(sp)
 813 0498 23388102 		sd	s0,48(sp)
 814 049c 23349102 		sd	s1,40(sp)
 815 04a0 23302103 		sd	s2,32(sp)
 816 04a4 233C3101 		sd	s3,24(sp)
 817 04a8 23384101 		sd	s4,16(sp)
 818 04ac 23345101 		sd	s5,8(sp)
 819              		.cfi_offset 1, -8
 820              		.cfi_offset 8, -16
 821              		.cfi_offset 9, -24
 822              		.cfi_offset 18, -32
 823              		.cfi_offset 19, -40
 824              		.cfi_offset 20, -48
 825              		.cfi_offset 21, -56
 826 04b0 13040104 		addi	s0,sp,64
 827              		.cfi_def_cfa 8, 0
 828 04b4 13090500 		mv	s2,a0
  49:src/Cache.cpp ****     slab->parentCache = this;
 829              		.loc 1 49 5
  49:src/Cache.cpp ****     slab->parentCache = this;
 830              		.loc 1 49 62 is_stmt 0
 831 04b8 03358504 		ld	a0,72(a0)
 832              	.LVL85:
 833 04bc 97000000 		call	_ZN5Cache10powerOfTwoEm
 833      E7800000 
 834              	.LVL86:
  49:src/Cache.cpp ****     slab->parentCache = this;
 835              		.loc 1 49 51
 836 04c4 13051500 		addi	a0,a0,1
 837 04c8 97000000 		call	_ZN14BuddyAllocator10buddyAllocEm@plt
 837      E7800000 
 838              	.LVL87:
 839 04d0 130A0500 		mv	s4,a0
 840              	.LVL88:
  50:src/Cache.cpp ****     slab->next = nullptr;
 841              		.loc 1 50 5 is_stmt 1
  50:src/Cache.cpp ****     slab->next = nullptr;
 842              		.loc 1 50 23 is_stmt 0
 843 04d4 233C2501 		sd	s2,24(a0)
  51:src/Cache.cpp ****     slab->state = CREATED;
 844              		.loc 1 51 5 is_stmt 1
  51:src/Cache.cpp ****     slab->state = CREATED;
 845              		.loc 1 51 16 is_stmt 0
 846 04d8 23340500 		sd	zero,8(a0)
  52:src/Cache.cpp ****     slab->allocatedSlots = 0;
 847              		.loc 1 52 5 is_stmt 1
  52:src/Cache.cpp ****     slab->allocatedSlots = 0;
 848              		.loc 1 52 17 is_stmt 0
 849 04dc 93073000 		li	a5,3
 850 04e0 2328F500 		sw	a5,16(a0)
  53:src/Cache.cpp ****     void* startAddr = (void*)((char*)slab + sizeof(Slab));
 851              		.loc 1 53 5 is_stmt 1
  53:src/Cache.cpp ****     void* startAddr = (void*)((char*)slab + sizeof(Slab));
 852              		.loc 1 53 26 is_stmt 0
 853 04e4 23300500 		sd	zero,0(a0)
GAS LISTING /tmp/ccnxh8e3.s 			page 22


  54:src/Cache.cpp ****     Slot* prev = nullptr;
 854              		.loc 1 54 5 is_stmt 1
  54:src/Cache.cpp ****     Slot* prev = nullptr;
 855              		.loc 1 54 11 is_stmt 0
 856 04e8 930A8502 		addi	s5,a0,40
 857              	.LVL89:
  55:src/Cache.cpp ****     for(size_t i = 0; i < this->optimalSlots; i++) {
 858              		.loc 1 55 5 is_stmt 1
  56:src/Cache.cpp ****         if(constructor) {
 859              		.loc 1 56 5
 860              	.LBB17:
  56:src/Cache.cpp ****         if(constructor) {
 861              		.loc 1 56 16 is_stmt 0
 862 04ec 93040000 		li	s1,0
 863              	.LBE17:
  55:src/Cache.cpp ****     for(size_t i = 0; i < this->optimalSlots; i++) {
 864              		.loc 1 55 11
 865 04f0 93090000 		li	s3,0
 866 04f4 6F004001 		j	.L52
 867              	.LVL90:
 868              	.L50:
 869              	.LBB21:
 870              	.LBB18:
  67:src/Cache.cpp ****         }
 871              		.loc 1 67 13 is_stmt 1
  67:src/Cache.cpp ****         }
 872              		.loc 1 67 28 is_stmt 0
 873 04f8 2330FA02 		sd	a5,32(s4)
 874              	.L51:
  69:src/Cache.cpp ****         prev = curr;
 875              		.loc 1 69 9 is_stmt 1 discriminator 2
  69:src/Cache.cpp ****         prev = curr;
 876              		.loc 1 69 20 is_stmt 0 discriminator 2
 877 04fc 23B40700 		sd	zero,8(a5)
  70:src/Cache.cpp ****     }
 878              		.loc 1 70 9 is_stmt 1 discriminator 2
 879              	.LVL91:
 880              	.LBE18:
  56:src/Cache.cpp ****         if(constructor) {
 881              		.loc 1 56 5 discriminator 2
 882 0500 93841400 		addi	s1,s1,1
 883              	.LVL92:
 884              	.LBB19:
  70:src/Cache.cpp ****     }
 885              		.loc 1 70 14 is_stmt 0 discriminator 2
 886 0504 93890700 		mv	s3,a5
 887              	.LVL93:
 888              	.L52:
 889              	.LBE19:
  56:src/Cache.cpp ****         if(constructor) {
 890              		.loc 1 56 25 is_stmt 1 discriminator 1
  56:src/Cache.cpp ****         if(constructor) {
 891              		.loc 1 56 33 is_stmt 0 discriminator 1
 892 0508 83378903 		ld	a5,56(s2)
  56:src/Cache.cpp ****         if(constructor) {
 893              		.loc 1 56 25 discriminator 1
 894 050c 63F0F404 		bleu	a5,s1,.L47
GAS LISTING /tmp/ccnxh8e3.s 			page 23


 895              	.LBB20:
  57:src/Cache.cpp ****             constructor((void*)((char*)startAddr + i*slotSize + sizeof(Slot)));
 896              		.loc 1 57 9 is_stmt 1
  57:src/Cache.cpp ****             constructor((void*)((char*)startAddr + i*slotSize + sizeof(Slot)));
 897              		.loc 1 57 12 is_stmt 0
 898 0510 83370905 		ld	a5,80(s2)
  57:src/Cache.cpp ****             constructor((void*)((char*)startAddr + i*slotSize + sizeof(Slot)));
 899              		.loc 1 57 9
 900 0514 638C0700 		beqz	a5,.L49
  58:src/Cache.cpp ****         }
 901              		.loc 1 58 13 is_stmt 1
  58:src/Cache.cpp ****         }
 902              		.loc 1 58 54 is_stmt 0
 903 0518 03350904 		ld	a0,64(s2)
  58:src/Cache.cpp ****         }
 904              		.loc 1 58 53
 905 051c 33059502 		mul	a0,a0,s1
  58:src/Cache.cpp ****         }
 906              		.loc 1 58 63
 907 0520 13058501 		addi	a0,a0,24
  58:src/Cache.cpp ****         }
 908              		.loc 1 58 24
 909 0524 3385AA00 		add	a0,s5,a0
 910 0528 E7800700 		jalr	a5
 911              	.LVL94:
 912              	.L49:
  60:src/Cache.cpp ****         curr->parentSlab = slab;
 913              		.loc 1 60 9 is_stmt 1
  60:src/Cache.cpp ****         curr->parentSlab = slab;
 914              		.loc 1 60 51 is_stmt 0
 915 052c 83370904 		ld	a5,64(s2)
  60:src/Cache.cpp ****         curr->parentSlab = slab;
 916              		.loc 1 60 50
 917 0530 B3879702 		mul	a5,a5,s1
  60:src/Cache.cpp ****         curr->parentSlab = slab;
 918              		.loc 1 60 15
 919 0534 B387FA00 		add	a5,s5,a5
 920              	.LVL95:
  61:src/Cache.cpp ****         curr->allocated = false;
 921              		.loc 1 61 9 is_stmt 1
  61:src/Cache.cpp ****         curr->allocated = false;
 922              		.loc 1 61 26 is_stmt 0
 923 0538 23B84701 		sd	s4,16(a5)
  62:src/Cache.cpp ****         if(prev) {
 924              		.loc 1 62 9 is_stmt 1
  62:src/Cache.cpp ****         if(prev) {
 925              		.loc 1 62 25 is_stmt 0
 926 053c 23800700 		sb	zero,0(a5)
  63:src/Cache.cpp ****             prev->next= curr;
 927              		.loc 1 63 9 is_stmt 1
 928 0540 E38C09FA 		beqz	s3,.L50
  64:src/Cache.cpp ****         }
 929              		.loc 1 64 13
  64:src/Cache.cpp ****         }
 930              		.loc 1 64 23 is_stmt 0
 931 0544 23B4F900 		sd	a5,8(s3)
 932 0548 6FF05FFB 		j	.L51
GAS LISTING /tmp/ccnxh8e3.s 			page 24


 933              	.LVL96:
 934              	.L47:
 935              	.LBE20:
 936              	.LBE21:
  74:src/Cache.cpp **** 
 937              		.loc 1 74 1
 938 054c 13050A00 		mv	a0,s4
 939 0550 83308103 		ld	ra,56(sp)
 940              		.cfi_restore 1
 941 0554 03340103 		ld	s0,48(sp)
 942              		.cfi_restore 8
 943              		.cfi_def_cfa 2, 64
 944 0558 83348102 		ld	s1,40(sp)
 945              		.cfi_restore 9
 946              	.LVL97:
 947 055c 03390102 		ld	s2,32(sp)
 948              		.cfi_restore 18
 949              	.LVL98:
 950 0560 83398101 		ld	s3,24(sp)
 951              		.cfi_restore 19
 952              	.LVL99:
 953 0564 033A0101 		ld	s4,16(sp)
 954              		.cfi_restore 20
 955              	.LVL100:
 956 0568 833A8100 		ld	s5,8(sp)
 957              		.cfi_restore 21
 958              	.LVL101:
 959 056c 13010104 		addi	sp,sp,64
 960              		.cfi_def_cfa_offset 0
 961 0570 67800000 		jr	ra
 962              		.cfi_endproc
 963              	.LFE27:
 965              		.align	2
 966              		.globl	_ZN5Cache11createCacheEv
 968              	_ZN5Cache11createCacheEv:
 969              	.LFB40:
 228:src/Cache.cpp **** 
 229:src/Cache.cpp **** Cache *Cache::createCache() {
 970              		.loc 1 229 29 is_stmt 1
 971              		.cfi_startproc
 972 0574 130101FF 		addi	sp,sp,-16
 973              		.cfi_def_cfa_offset 16
 974 0578 23341100 		sd	ra,8(sp)
 975 057c 23308100 		sd	s0,0(sp)
 976              		.cfi_offset 1, -8
 977              		.cfi_offset 8, -16
 978 0580 13040101 		addi	s0,sp,16
 979              		.cfi_def_cfa 8, 0
 230:src/Cache.cpp ****     return (Cache*)BuddyAllocator::buddyAlloc(1);
 980              		.loc 1 230 5
 981              		.loc 1 230 46 is_stmt 0
 982 0584 13051000 		li	a0,1
 983 0588 97000000 		call	_ZN14BuddyAllocator10buddyAllocEm@plt
 983      E7800000 
 984              	.LVL102:
 231:src/Cache.cpp **** }
 985              		.loc 1 231 1
GAS LISTING /tmp/ccnxh8e3.s 			page 25


 986 0590 83308100 		ld	ra,8(sp)
 987              		.cfi_restore 1
 988 0594 03340100 		ld	s0,0(sp)
 989              		.cfi_restore 8
 990              		.cfi_def_cfa 2, 16
 991 0598 13010101 		addi	sp,sp,16
 992              		.cfi_def_cfa_offset 0
 993 059c 67800000 		jr	ra
 994              		.cfi_endproc
 995              	.LFE40:
 997              		.align	2
 998              		.globl	_ZN5Cache6strcpyEPcPKc
 1000              	_ZN5Cache6strcpyEPcPKc:
 1001              	.LFB41:
 232:src/Cache.cpp **** 
 233:src/Cache.cpp **** void Cache::strcpy(char *string1, const char *string2) {
 1002              		.loc 1 233 56 is_stmt 1
 1003              		.cfi_startproc
 1004              	.LVL103:
 1005 05a0 130101FF 		addi	sp,sp,-16
 1006              		.cfi_def_cfa_offset 16
 1007 05a4 23348100 		sd	s0,8(sp)
 1008              		.cfi_offset 8, -8
 1009 05a8 13040101 		addi	s0,sp,16
 1010              		.cfi_def_cfa 8, 0
 234:src/Cache.cpp ****         for(int i = 0;; i++) {
 1011              		.loc 1 234 9
 1012              	.LVL104:
 1013              	.LBB22:
 1014              		.loc 1 234 17 is_stmt 0
 1015 05ac 93060000 		li	a3,0
 1016              	.LVL105:
 1017              	.L58:
 235:src/Cache.cpp ****             string1[i] = string2[i];
 1018              		.loc 1 235 13 is_stmt 1
 1019              		.loc 1 235 35 is_stmt 0
 1020 05b0 B387D500 		add	a5,a1,a3
 1021              		.loc 1 235 22
 1022 05b4 3307D500 		add	a4,a0,a3
 1023              		.loc 1 235 35
 1024 05b8 03C60700 		lbu	a2,0(a5)
 1025              		.loc 1 235 24
 1026 05bc 2300C700 		sb	a2,0(a4)
 236:src/Cache.cpp ****             if(string2[i] == '\0') break;
 1027              		.loc 1 236 13 is_stmt 1
 1028              		.loc 1 236 25 is_stmt 0
 1029 05c0 83C70700 		lbu	a5,0(a5)
 1030              		.loc 1 236 13
 1031 05c4 63860700 		beqz	a5,.L56
 234:src/Cache.cpp ****         for(int i = 0;; i++) {
 1032              		.loc 1 234 9 is_stmt 1
 1033 05c8 9B861600 		addiw	a3,a3,1
 1034              	.LVL106:
 234:src/Cache.cpp ****         for(int i = 0;; i++) {
 1035              		.loc 1 234 9
 235:src/Cache.cpp ****             string1[i] = string2[i];
 1036              		.loc 1 235 24 is_stmt 0
GAS LISTING /tmp/ccnxh8e3.s 			page 26


 1037 05cc 6FF05FFE 		j	.L58
 1038              	.LVL107:
 1039              	.L56:
 1040              	.LBE22:
 237:src/Cache.cpp ****         }
 238:src/Cache.cpp **** }
 1041              		.loc 1 238 1
 1042 05d0 03348100 		ld	s0,8(sp)
 1043              		.cfi_restore 8
 1044              		.cfi_def_cfa 2, 16
 1045 05d4 13010101 		addi	sp,sp,16
 1046              		.cfi_def_cfa_offset 0
 1047 05d8 67800000 		jr	ra
 1048              		.cfi_endproc
 1049              	.LFE41:
 1051              		.align	2
 1052              		.globl	_ZN5Cache9initCacheEPKcmPFvPvES4_
 1054              	_ZN5Cache9initCacheEPKcmPFvPvES4_:
 1055              	.LFB24:
  12:src/Cache.cpp ****     strcpy(cacheName, name);
 1056              		.loc 1 12 98 is_stmt 1
 1057              		.cfi_startproc
 1058              	.LVL108:
 1059 05dc 130101FD 		addi	sp,sp,-48
 1060              		.cfi_def_cfa_offset 48
 1061 05e0 23341102 		sd	ra,40(sp)
 1062 05e4 23308102 		sd	s0,32(sp)
 1063 05e8 233C9100 		sd	s1,24(sp)
 1064 05ec 23382101 		sd	s2,16(sp)
 1065 05f0 23343101 		sd	s3,8(sp)
 1066 05f4 23304101 		sd	s4,0(sp)
 1067              		.cfi_offset 1, -8
 1068              		.cfi_offset 8, -16
 1069              		.cfi_offset 9, -24
 1070              		.cfi_offset 18, -32
 1071              		.cfi_offset 19, -40
 1072              		.cfi_offset 20, -48
 1073 05f8 13040103 		addi	s0,sp,48
 1074              		.cfi_def_cfa 8, 0
 1075 05fc 93040500 		mv	s1,a0
 1076 0600 13090600 		mv	s2,a2
 1077 0604 138A0600 		mv	s4,a3
 1078 0608 93090700 		mv	s3,a4
  13:src/Cache.cpp ****     for(int i = 0; i < 3; i++) {
 1079              		.loc 1 13 5
  13:src/Cache.cpp ****     for(int i = 0; i < 3; i++) {
 1080              		.loc 1 13 11 is_stmt 0
 1081 060c 13050502 		addi	a0,a0,32
 1082              	.LVL109:
 1083 0610 97000000 		call	_ZN5Cache6strcpyEPcPKc
 1083      E7800000 
 1084              	.LVL110:
  14:src/Cache.cpp ****         slabList[i] = nullptr;
 1085              		.loc 1 14 5 is_stmt 1
 1086              	.LBB23:
  14:src/Cache.cpp ****         slabList[i] = nullptr;
 1087              		.loc 1 14 13 is_stmt 0
GAS LISTING /tmp/ccnxh8e3.s 			page 27


 1088 0618 93070000 		li	a5,0
 1089 061c 6F004001 		j	.L62
 1090              	.LVL111:
 1091              	.L65:
  15:src/Cache.cpp ****     }
 1092              		.loc 1 15 9 is_stmt 1 discriminator 2
  15:src/Cache.cpp ****     }
 1093              		.loc 1 15 21 is_stmt 0 discriminator 2
 1094 0620 13953700 		slli	a0,a5,3
 1095 0624 3385A400 		add	a0,s1,a0
 1096 0628 23340500 		sd	zero,8(a0)
  14:src/Cache.cpp ****         slabList[i] = nullptr;
 1097              		.loc 1 14 5 is_stmt 1 discriminator 2
 1098 062c 9B871700 		addiw	a5,a5,1
 1099              	.LVL112:
 1100              	.L62:
  14:src/Cache.cpp ****         slabList[i] = nullptr;
 1101              		.loc 1 14 22 discriminator 3
 1102 0630 13062000 		li	a2,2
 1103 0634 E356F6FE 		ble	a5,a2,.L65
 1104              	.LBE23:
  17:src/Cache.cpp ****     constructor = ctor;
 1105              		.loc 1 17 5
  17:src/Cache.cpp ****     constructor = ctor;
 1106              		.loc 1 17 16 is_stmt 0
 1107 0638 23B82403 		sd	s2,48(s1)
  18:src/Cache.cpp ****     destructor = dtor;
 1108              		.loc 1 18 5 is_stmt 1
  18:src/Cache.cpp ****     destructor = dtor;
 1109              		.loc 1 18 17 is_stmt 0
 1110 063c 23B84405 		sd	s4,80(s1)
  19:src/Cache.cpp ****     slotSize = objectSize + sizeof(Slot);
 1111              		.loc 1 19 5 is_stmt 1
  19:src/Cache.cpp ****     slotSize = objectSize + sizeof(Slot);
 1112              		.loc 1 19 16 is_stmt 0
 1113 0640 23BC3405 		sd	s3,88(s1)
  20:src/Cache.cpp ****     slabSize = slotSize / BLKSIZE;
 1114              		.loc 1 20 5 is_stmt 1
  20:src/Cache.cpp ****     slabSize = slotSize / BLKSIZE;
 1115              		.loc 1 20 27 is_stmt 0
 1116 0644 93058901 		addi	a1,s2,24
  20:src/Cache.cpp ****     slabSize = slotSize / BLKSIZE;
 1117              		.loc 1 20 14
 1118 0648 23B0B404 		sd	a1,64(s1)
  21:src/Cache.cpp ****     if(slotSize % BLKSIZE != 0) slabSize++; // u blokovima
 1119              		.loc 1 21 5 is_stmt 1
  21:src/Cache.cpp ****     if(slotSize % BLKSIZE != 0) slabSize++; // u blokovima
 1120              		.loc 1 21 25 is_stmt 0
 1121 064c 13D7C500 		srli	a4,a1,12
  21:src/Cache.cpp ****     if(slotSize % BLKSIZE != 0) slabSize++; // u blokovima
 1122              		.loc 1 21 14
 1123 0650 23B4E404 		sd	a4,72(s1)
  22:src/Cache.cpp **** 
 1124              		.loc 1 22 5 is_stmt 1
  22:src/Cache.cpp **** 
 1125              		.loc 1 22 17 is_stmt 0
 1126 0654 B7170000 		li	a5,4096
GAS LISTING /tmp/ccnxh8e3.s 			page 28


 1127              	.LVL113:
 1128 0658 9387F7FF 		addi	a5,a5,-1
 1129 065c B3F7F500 		and	a5,a1,a5
  22:src/Cache.cpp **** 
 1130              		.loc 1 22 5
 1131 0660 63860700 		beqz	a5,.L63
  22:src/Cache.cpp **** 
 1132              		.loc 1 22 33 is_stmt 1 discriminator 1
  22:src/Cache.cpp **** 
 1133              		.loc 1 22 41 is_stmt 0 discriminator 1
 1134 0664 13071700 		addi	a4,a4,1
 1135 0668 23B4E404 		sd	a4,72(s1)
 1136              	.L63:
  24:src/Cache.cpp **** }
 1137              		.loc 1 24 5 is_stmt 1
  24:src/Cache.cpp **** }
 1138              		.loc 1 24 31 is_stmt 0
 1139 066c 03B58404 		ld	a0,72(s1)
 1140 0670 97000000 		call	_ZN5Cache11getNumSlotsEmm
 1140      E7800000 
 1141              	.LVL114:
  24:src/Cache.cpp **** }
 1142              		.loc 1 24 18
 1143 0678 23BCA402 		sd	a0,56(s1)
  25:src/Cache.cpp **** 
 1144              		.loc 1 25 1
 1145 067c 83308102 		ld	ra,40(sp)
 1146              		.cfi_restore 1
 1147 0680 03340102 		ld	s0,32(sp)
 1148              		.cfi_restore 8
 1149              		.cfi_def_cfa 2, 48
 1150 0684 83348101 		ld	s1,24(sp)
 1151              		.cfi_restore 9
 1152              	.LVL115:
 1153 0688 03390101 		ld	s2,16(sp)
 1154              		.cfi_restore 18
 1155              	.LVL116:
 1156 068c 83398100 		ld	s3,8(sp)
 1157              		.cfi_restore 19
 1158              	.LVL117:
 1159 0690 033A0100 		ld	s4,0(sp)
 1160              		.cfi_restore 20
 1161              	.LVL118:
 1162 0694 13010103 		addi	sp,sp,48
 1163              		.cfi_def_cfa_offset 0
 1164 0698 67800000 		jr	ra
 1165              		.cfi_endproc
 1166              	.LFE24:
 1168              		.section	.rodata.str1.8
 1169 0052 00000000 		.align	3
 1169      0000
 1170              	.LC4:
 1171 0058 696D6520 		.string	"ime kesa, velicina objekta, velicina slaba, broj slabova, broj slotova po slabu, velicina
 1171      6B657361 
 1171      2C207665 
 1171      6C696369 
 1171      6E61206F 
GAS LISTING /tmp/ccnxh8e3.s 			page 29


 1172              		.text
 1173              		.align	2
 1174              		.globl	_ZN5Cache13allBufferInfoEv
 1176              	_ZN5Cache13allBufferInfoEv:
 1177              	.LFB42:
 239:src/Cache.cpp **** 
 240:src/Cache.cpp **** void Cache::allBufferInfo() {
 1178              		.loc 1 240 29 is_stmt 1
 1179              		.cfi_startproc
 1180 069c 130101FE 		addi	sp,sp,-32
 1181              		.cfi_def_cfa_offset 32
 1182 06a0 233C1100 		sd	ra,24(sp)
 1183 06a4 23388100 		sd	s0,16(sp)
 1184 06a8 23349100 		sd	s1,8(sp)
 1185              		.cfi_offset 1, -8
 1186              		.cfi_offset 8, -16
 1187              		.cfi_offset 9, -24
 1188 06ac 13040102 		addi	s0,sp,32
 1189              		.cfi_def_cfa 8, 0
 241:src/Cache.cpp ****     printString("ime kesa, velicina objekta, velicina slaba, broj slabova, broj slotova po slabu, v
 1190              		.loc 1 241 5
 1191              		.loc 1 241 16 is_stmt 0
 1192 06b0 17050000 		lla	a0,.LC4
 1192      13050500 
 1193 06b8 97000000 		call	_Z11printStringPKc@plt
 1193      E7800000 
 1194              	.LVL119:
 242:src/Cache.cpp ****     for(int i = 0; i < MAXSIZEBUFFER - MINSIZEBUFFER + 1; i++) {
 1195              		.loc 1 242 5 is_stmt 1
 1196              	.LBB24:
 1197              		.loc 1 242 13 is_stmt 0
 1198 06c0 93040000 		li	s1,0
 1199 06c4 6F000002 		j	.L69
 1200              	.LVL120:
 1201              	.L71:
 243:src/Cache.cpp ****         if(bufferCache[i]) {
 244:src/Cache.cpp ****             bufferCache[i]->printCacheInfo();
 1202              		.loc 1 244 13 is_stmt 1
 1203              		.loc 1 244 43 is_stmt 0
 1204 06c8 97000000 		call	_ZN5Cache14printCacheInfoEv
 1204      E7800000 
 1205              	.LVL121:
 245:src/Cache.cpp ****             printString("\n");
 1206              		.loc 1 245 13 is_stmt 1
 1207              		.loc 1 245 24 is_stmt 0
 1208 06d0 17050000 		lla	a0,.LC3
 1208      13050500 
 1209 06d8 97000000 		call	_Z11printStringPKc@plt
 1209      E7800000 
 1210              	.LVL122:
 1211              	.L68:
 242:src/Cache.cpp ****     for(int i = 0; i < MAXSIZEBUFFER - MINSIZEBUFFER + 1; i++) {
 1212              		.loc 1 242 5 is_stmt 1 discriminator 2
 1213 06e0 9B841400 		addiw	s1,s1,1
 1214              	.LVL123:
 1215              	.L69:
 242:src/Cache.cpp ****     for(int i = 0; i < MAXSIZEBUFFER - MINSIZEBUFFER + 1; i++) {
GAS LISTING /tmp/ccnxh8e3.s 			page 30


 1216              		.loc 1 242 22 discriminator 1
 1217 06e4 9307C000 		li	a5,12
 1218 06e8 63C09702 		bgt	s1,a5,.L66
 243:src/Cache.cpp ****         if(bufferCache[i]) {
 1219              		.loc 1 243 9
 243:src/Cache.cpp ****         if(bufferCache[i]) {
 1220              		.loc 1 243 25 is_stmt 0
 1221 06ec 13973400 		slli	a4,s1,3
 1222 06f0 97070000 		lla	a5,.LANCHOR0
 1222      93870700 
 1223 06f8 B387E700 		add	a5,a5,a4
 1224 06fc 03B50700 		ld	a0,0(a5)
 243:src/Cache.cpp ****         if(bufferCache[i]) {
 1225              		.loc 1 243 9
 1226 0700 E31405FC 		bnez	a0,.L71
 1227 0704 6FF0DFFD 		j	.L68
 1228              	.L66:
 1229              	.LBE24:
 246:src/Cache.cpp ****         }
 247:src/Cache.cpp ****     }
 248:src/Cache.cpp **** }
 1230              		.loc 1 248 1
 1231 0708 83308101 		ld	ra,24(sp)
 1232              		.cfi_restore 1
 1233 070c 03340101 		ld	s0,16(sp)
 1234              		.cfi_restore 8
 1235              		.cfi_def_cfa 2, 32
 1236 0710 83348100 		ld	s1,8(sp)
 1237              		.cfi_restore 9
 1238              	.LVL124:
 1239 0714 13010102 		addi	sp,sp,32
 1240              		.cfi_def_cfa_offset 0
 1241 0718 67800000 		jr	ra
 1242              		.cfi_endproc
 1243              	.LFE42:
 1245              		.align	2
 1246              		.globl	_ZN5Cache4Slab17calculateNewStateEv
 1248              	_ZN5Cache4Slab17calculateNewStateEv:
 1249              	.LFB44:
 249:src/Cache.cpp **** 
 250:src/Cache.cpp **** 
 251:src/Cache.cpp **** Cache::Slot *Cache::Slab::getFreeSlot() {
 252:src/Cache.cpp ****     if(!slotHead || state == FULL) return nullptr;
 253:src/Cache.cpp **** 
 254:src/Cache.cpp ****     for(Slot* curr = slotHead; curr != nullptr; curr = curr->next) {
 255:src/Cache.cpp ****         if(curr->allocated == false) {
 256:src/Cache.cpp ****             this->allocatedSlots++;
 257:src/Cache.cpp ****             curr->allocated = true;
 258:src/Cache.cpp ****             curr->parentSlab = this;
 259:src/Cache.cpp **** 
 260:src/Cache.cpp ****             SlabState newState = calculateNewState();
 261:src/Cache.cpp ****             if(this->state != newState) {
 262:src/Cache.cpp ****                 if(this->state != CREATED) parentCache->slabListRemove(this, this->state);
 263:src/Cache.cpp ****                 parentCache->slabListPut(this, newState);
 264:src/Cache.cpp ****             }
 265:src/Cache.cpp **** 
 266:src/Cache.cpp ****             return curr;
GAS LISTING /tmp/ccnxh8e3.s 			page 31


 267:src/Cache.cpp ****         }
 268:src/Cache.cpp ****     }
 269:src/Cache.cpp **** 
 270:src/Cache.cpp ****     return nullptr;
 271:src/Cache.cpp **** }
 272:src/Cache.cpp **** 
 273:src/Cache.cpp **** Cache::SlabState Cache::Slab::calculateNewState() {
 1250              		.loc 1 273 51 is_stmt 1
 1251              		.cfi_startproc
 1252              	.LVL125:
 1253 071c 130101FF 		addi	sp,sp,-16
 1254              		.cfi_def_cfa_offset 16
 1255 0720 23348100 		sd	s0,8(sp)
 1256              		.cfi_offset 8, -8
 1257 0724 13040101 		addi	s0,sp,16
 1258              		.cfi_def_cfa 8, 0
 274:src/Cache.cpp ****     if(allocatedSlots == 0) {
 1259              		.loc 1 274 5
 1260              		.loc 1 274 8 is_stmt 0
 1261 0728 83370500 		ld	a5,0(a0)
 1262              		.loc 1 274 5
 1263 072c 63800702 		beqz	a5,.L74
 275:src/Cache.cpp ****         return EMPTY;
 276:src/Cache.cpp ****     }
 277:src/Cache.cpp ****     else if(allocatedSlots == parentCache->optimalSlots) {
 1264              		.loc 1 277 10 is_stmt 1
 1265              		.loc 1 277 31 is_stmt 0
 1266 0730 03378501 		ld	a4,24(a0)
 1267              		.loc 1 277 44
 1268 0734 03378703 		ld	a4,56(a4)
 1269              		.loc 1 277 10
 1270 0738 638EE700 		beq	a5,a4,.L75
 278:src/Cache.cpp ****         return FULL;
 279:src/Cache.cpp ****     }
 280:src/Cache.cpp ****     return PARTIAL;
 1271              		.loc 1 280 12
 1272 073c 13051000 		li	a0,1
 1273              	.LVL126:
 1274              	.L73:
 281:src/Cache.cpp **** }
 1275              		.loc 1 281 1
 1276 0740 03348100 		ld	s0,8(sp)
 1277              		.cfi_remember_state
 1278              		.cfi_restore 8
 1279              		.cfi_def_cfa 2, 16
 1280 0744 13010101 		addi	sp,sp,16
 1281              		.cfi_def_cfa_offset 0
 1282 0748 67800000 		jr	ra
 1283              	.LVL127:
 1284              	.L74:
 1285              		.cfi_restore_state
 275:src/Cache.cpp ****         return EMPTY;
 1286              		.loc 1 275 16
 1287 074c 13050000 		li	a0,0
 1288              	.LVL128:
 1289 0750 6FF01FFF 		j	.L73
 1290              	.LVL129:
GAS LISTING /tmp/ccnxh8e3.s 			page 32


 1291              	.L75:
 278:src/Cache.cpp ****         return FULL;
 1292              		.loc 1 278 16
 1293 0754 13052000 		li	a0,2
 1294              	.LVL130:
 1295 0758 6FF09FFE 		j	.L73
 1296              		.cfi_endproc
 1297              	.LFE44:
 1299              		.align	2
 1300              		.globl	_ZN5Cache8freeSlotEPNS_4SlotE
 1302              	_ZN5Cache8freeSlotEPNS_4SlotE:
 1303              	.LFB29:
  86:src/Cache.cpp ****     if(slot->parentSlab->parentCache != this) {
 1304              		.loc 1 86 34 is_stmt 1
 1305              		.cfi_startproc
 1306              	.LVL131:
 1307 075c 130101FD 		addi	sp,sp,-48
 1308              		.cfi_def_cfa_offset 48
 1309 0760 23341102 		sd	ra,40(sp)
 1310 0764 23308102 		sd	s0,32(sp)
 1311 0768 233C9100 		sd	s1,24(sp)
 1312 076c 23382101 		sd	s2,16(sp)
 1313 0770 23343101 		sd	s3,8(sp)
 1314              		.cfi_offset 1, -8
 1315              		.cfi_offset 8, -16
 1316              		.cfi_offset 9, -24
 1317              		.cfi_offset 18, -32
 1318              		.cfi_offset 19, -40
 1319 0774 13040103 		addi	s0,sp,48
 1320              		.cfi_def_cfa 8, 0
  87:src/Cache.cpp ****         errortype = FreeSlotError;
 1321              		.loc 1 87 5
  87:src/Cache.cpp ****         errortype = FreeSlotError;
 1322              		.loc 1 87 14 is_stmt 0
 1323 0778 83B40501 		ld	s1,16(a1)
  87:src/Cache.cpp ****         errortype = FreeSlotError;
 1324              		.loc 1 87 26
 1325 077c 03B98401 		ld	s2,24(s1)
  87:src/Cache.cpp ****         errortype = FreeSlotError;
 1326              		.loc 1 87 5
 1327 0780 6304A902 		beq	s2,a0,.L78
  88:src/Cache.cpp ****         return;
 1328              		.loc 1 88 9 is_stmt 1
  88:src/Cache.cpp ****         return;
 1329              		.loc 1 88 19 is_stmt 0
 1330 0784 93071000 		li	a5,1
 1331 0788 2320F500 		sw	a5,0(a0)
  89:src/Cache.cpp ****     }
 1332              		.loc 1 89 9 is_stmt 1
 1333              	.LVL132:
 1334              	.L77:
 102:src/Cache.cpp **** 
 1335              		.loc 1 102 1 is_stmt 0
 1336 078c 83308102 		ld	ra,40(sp)
 1337              		.cfi_remember_state
 1338              		.cfi_restore 1
 1339 0790 03340102 		ld	s0,32(sp)
GAS LISTING /tmp/ccnxh8e3.s 			page 33


 1340              		.cfi_restore 8
 1341              		.cfi_def_cfa 2, 48
 1342 0794 83348101 		ld	s1,24(sp)
 1343              		.cfi_restore 9
 1344 0798 03390101 		ld	s2,16(sp)
 1345              		.cfi_restore 18
 1346 079c 83398100 		ld	s3,8(sp)
 1347              		.cfi_restore 19
 1348 07a0 13010103 		addi	sp,sp,48
 1349              		.cfi_def_cfa_offset 0
 1350 07a4 67800000 		jr	ra
 1351              	.LVL133:
 1352              	.L78:
 1353              		.cfi_restore_state
  92:src/Cache.cpp ****     Cache* parentCache = parentSlab->parentCache;
 1354              		.loc 1 92 5 is_stmt 1
  93:src/Cache.cpp ****     slot->allocated = false;
 1355              		.loc 1 93 5
  94:src/Cache.cpp ****     parentSlab->allocatedSlots--;
 1356              		.loc 1 94 5
  94:src/Cache.cpp ****     parentSlab->allocatedSlots--;
 1357              		.loc 1 94 21 is_stmt 0
 1358 07a8 23800500 		sb	zero,0(a1)
  95:src/Cache.cpp **** 
 1359              		.loc 1 95 5 is_stmt 1
  95:src/Cache.cpp **** 
 1360              		.loc 1 95 17 is_stmt 0
 1361 07ac 83B70400 		ld	a5,0(s1)
  95:src/Cache.cpp **** 
 1362              		.loc 1 95 31
 1363 07b0 9387F7FF 		addi	a5,a5,-1
 1364 07b4 23B0F400 		sd	a5,0(s1)
  97:src/Cache.cpp ****     if(parentSlab->state != newState) {
 1365              		.loc 1 97 5 is_stmt 1
  97:src/Cache.cpp ****     if(parentSlab->state != newState) {
 1366              		.loc 1 97 55 is_stmt 0
 1367 07b8 13850400 		mv	a0,s1
 1368              	.LVL134:
 1369 07bc 97000000 		call	_ZN5Cache4Slab17calculateNewStateEv
 1369      E7800000 
 1370              	.LVL135:
 1371 07c4 93090500 		mv	s3,a0
 1372              	.LVL136:
  98:src/Cache.cpp ****         if(parentSlab->state != CREATED) parentCache->slabListRemove(parentSlab, parentSlab->state)
 1373              		.loc 1 98 5 is_stmt 1
  98:src/Cache.cpp ****         if(parentSlab->state != CREATED) parentCache->slabListRemove(parentSlab, parentSlab->state)
 1374              		.loc 1 98 20 is_stmt 0
 1375 07c8 03A60401 		lw	a2,16(s1)
  98:src/Cache.cpp ****         if(parentSlab->state != CREATED) parentCache->slabListRemove(parentSlab, parentSlab->state)
 1376              		.loc 1 98 5
 1377 07cc E300A6FC 		beq	a2,a0,.L77
  99:src/Cache.cpp ****         parentCache->slabListPut(parentSlab, newState);
 1378              		.loc 1 99 9 is_stmt 1
 1379 07d0 93073000 		li	a5,3
 1380 07d4 631EF600 		bne	a2,a5,.L82
 1381              	.LVL137:
 1382              	.L80:
GAS LISTING /tmp/ccnxh8e3.s 			page 34


 100:src/Cache.cpp ****     }
 1383              		.loc 1 100 9
 100:src/Cache.cpp ****     }
 1384              		.loc 1 100 33 is_stmt 0
 1385 07d8 1B860900 		sext.w	a2,s3
 1386 07dc 93850400 		mv	a1,s1
 1387 07e0 13050900 		mv	a0,s2
 1388 07e4 97000000 		call	_ZN5Cache11slabListPutEPNS_4SlabEi
 1388      E7800000 
 1389              	.LVL138:
 1390 07ec 6FF01FFA 		j	.L77
 1391              	.LVL139:
 1392              	.L82:
  99:src/Cache.cpp ****         parentCache->slabListPut(parentSlab, newState);
 1393              		.loc 1 99 42 is_stmt 1 discriminator 1
  99:src/Cache.cpp ****         parentCache->slabListPut(parentSlab, newState);
 1394              		.loc 1 99 69 is_stmt 0 discriminator 1
 1395 07f0 93850400 		mv	a1,s1
 1396 07f4 13050900 		mv	a0,s2
 1397              	.LVL140:
 1398 07f8 97000000 		call	_ZN5Cache14slabListRemoveEPNS_4SlabEi
 1398      E7800000 
 1399              	.LVL141:
 1400 0800 6FF09FFD 		j	.L80
 1401              		.cfi_endproc
 1402              	.LFE29:
 1404              		.align	2
 1405              		.globl	_ZN5Cache10freeBufferEPNS_4SlotE
 1407              	_ZN5Cache10freeBufferEPNS_4SlotE:
 1408              	.LFB38:
 212:src/Cache.cpp ****     Cache* parentCache = slot->parentSlab->parentCache;
 1409              		.loc 1 212 36 is_stmt 1
 1410              		.cfi_startproc
 1411              	.LVL142:
 1412 0804 130101FF 		addi	sp,sp,-16
 1413              		.cfi_def_cfa_offset 16
 1414 0808 23341100 		sd	ra,8(sp)
 1415 080c 23308100 		sd	s0,0(sp)
 1416              		.cfi_offset 1, -8
 1417              		.cfi_offset 8, -16
 1418 0810 13040101 		addi	s0,sp,16
 1419              		.cfi_def_cfa 8, 0
 1420 0814 93050500 		mv	a1,a0
 213:src/Cache.cpp ****     parentCache->freeSlot(slot);
 1421              		.loc 1 213 5
 213:src/Cache.cpp ****     parentCache->freeSlot(slot);
 1422              		.loc 1 213 32 is_stmt 0
 1423 0818 83370501 		ld	a5,16(a0)
 1424              	.LVL143:
 214:src/Cache.cpp **** }
 1425              		.loc 1 214 5 is_stmt 1
 214:src/Cache.cpp **** }
 1426              		.loc 1 214 26 is_stmt 0
 1427 081c 03B58701 		ld	a0,24(a5)
 1428              	.LVL144:
 1429 0820 97000000 		call	_ZN5Cache8freeSlotEPNS_4SlotE
 1429      E7800000 
GAS LISTING /tmp/ccnxh8e3.s 			page 35


 1430              	.LVL145:
 215:src/Cache.cpp **** 
 1431              		.loc 1 215 1
 1432 0828 83308100 		ld	ra,8(sp)
 1433              		.cfi_restore 1
 1434 082c 03340100 		ld	s0,0(sp)
 1435              		.cfi_restore 8
 1436              		.cfi_def_cfa 2, 16
 1437 0830 13010101 		addi	sp,sp,16
 1438              		.cfi_def_cfa_offset 0
 1439 0834 67800000 		jr	ra
 1440              		.cfi_endproc
 1441              	.LFE38:
 1443              		.align	2
 1444              		.globl	_ZN5Cache4Slab11getFreeSlotEv
 1446              	_ZN5Cache4Slab11getFreeSlotEv:
 1447              	.LFB43:
 251:src/Cache.cpp ****     if(!slotHead || state == FULL) return nullptr;
 1448              		.loc 1 251 41 is_stmt 1
 1449              		.cfi_startproc
 1450              	.LVL146:
 1451 0838 130101FD 		addi	sp,sp,-48
 1452              		.cfi_def_cfa_offset 48
 1453 083c 23341102 		sd	ra,40(sp)
 1454 0840 23308102 		sd	s0,32(sp)
 1455 0844 233C9100 		sd	s1,24(sp)
 1456 0848 23382101 		sd	s2,16(sp)
 1457 084c 23343101 		sd	s3,8(sp)
 1458              		.cfi_offset 1, -8
 1459              		.cfi_offset 8, -16
 1460              		.cfi_offset 9, -24
 1461              		.cfi_offset 18, -32
 1462              		.cfi_offset 19, -40
 1463 0850 13040103 		addi	s0,sp,48
 1464              		.cfi_def_cfa 8, 0
 252:src/Cache.cpp **** 
 1465              		.loc 1 252 5
 252:src/Cache.cpp **** 
 1466              		.loc 1 252 9 is_stmt 0
 1467 0854 83340502 		ld	s1,32(a0)
 252:src/Cache.cpp **** 
 1468              		.loc 1 252 5
 1469 0858 638A0406 		beqz	s1,.L85
 1470 085c 13090500 		mv	s2,a0
 252:src/Cache.cpp **** 
 1471              		.loc 1 252 21 discriminator 2
 1472 0860 03270501 		lw	a4,16(a0)
 252:src/Cache.cpp **** 
 1473              		.loc 1 252 18 discriminator 2
 1474 0864 93072000 		li	a5,2
 1475 0868 630CF708 		beq	a4,a5,.L91
 1476              	.L90:
 1477              	.LVL147:
 1478              	.LBB25:
 254:src/Cache.cpp ****         if(curr->allocated == false) {
 1479              		.loc 1 254 37 is_stmt 1 discriminator 1
 1480 086c 63800406 		beqz	s1,.L85
GAS LISTING /tmp/ccnxh8e3.s 			page 36


 1481              	.LBE25:
 255:src/Cache.cpp ****             this->allocatedSlots++;
 1482              		.loc 1 255 9
 1483              	.LBB31:
 1484              	.LBB26:
 255:src/Cache.cpp ****             this->allocatedSlots++;
 1485              		.loc 1 255 18 is_stmt 0
 1486 0870 83C70400 		lbu	a5,0(s1)
 255:src/Cache.cpp ****             this->allocatedSlots++;
 1487              		.loc 1 255 9
 1488 0874 63860700 		beqz	a5,.L93
 1489              	.LBE26:
 254:src/Cache.cpp ****         if(curr->allocated == false) {
 1490              		.loc 1 254 5 is_stmt 1 discriminator 2
 254:src/Cache.cpp ****         if(curr->allocated == false) {
 1491              		.loc 1 254 54 is_stmt 0 discriminator 2
 1492 0878 83B48400 		ld	s1,8(s1)
 1493              	.LVL148:
 254:src/Cache.cpp ****         if(curr->allocated == false) {
 1494              		.loc 1 254 5 discriminator 2
 1495 087c 6FF01FFF 		j	.L90
 1496              	.L93:
 1497              	.LBB29:
 1498              	.LBB27:
 256:src/Cache.cpp ****             curr->allocated = true;
 1499              		.loc 1 256 13 is_stmt 1
 256:src/Cache.cpp ****             curr->allocated = true;
 1500              		.loc 1 256 19 is_stmt 0
 1501 0880 83370900 		ld	a5,0(s2)
 256:src/Cache.cpp ****             curr->allocated = true;
 1502              		.loc 1 256 33
 1503 0884 93871700 		addi	a5,a5,1
 1504 0888 2330F900 		sd	a5,0(s2)
 257:src/Cache.cpp ****             curr->parentSlab = this;
 1505              		.loc 1 257 13 is_stmt 1
 257:src/Cache.cpp ****             curr->parentSlab = this;
 1506              		.loc 1 257 29 is_stmt 0
 1507 088c 93071000 		li	a5,1
 1508 0890 2380F400 		sb	a5,0(s1)
 258:src/Cache.cpp **** 
 1509              		.loc 1 258 13 is_stmt 1
 258:src/Cache.cpp **** 
 1510              		.loc 1 258 30 is_stmt 0
 1511 0894 23B82401 		sd	s2,16(s1)
 260:src/Cache.cpp ****             if(this->state != newState) {
 1512              		.loc 1 260 13 is_stmt 1
 260:src/Cache.cpp ****             if(this->state != newState) {
 1513              		.loc 1 260 51 is_stmt 0
 1514 0898 13050900 		mv	a0,s2
 1515              	.LVL149:
 1516 089c 97000000 		call	_ZN5Cache4Slab17calculateNewStateEv
 1516      E7800000 
 1517              	.LVL150:
 1518 08a4 93090500 		mv	s3,a0
 1519              	.LVL151:
 261:src/Cache.cpp ****                 if(this->state != CREATED) parentCache->slabListRemove(this, this->state);
 1520              		.loc 1 261 13 is_stmt 1
GAS LISTING /tmp/ccnxh8e3.s 			page 37


 261:src/Cache.cpp ****                 if(this->state != CREATED) parentCache->slabListRemove(this, this->state);
 1521              		.loc 1 261 22 is_stmt 0
 1522 08a8 03260901 		lw	a2,16(s2)
 261:src/Cache.cpp ****                 if(this->state != CREATED) parentCache->slabListRemove(this, this->state);
 1523              		.loc 1 261 13
 1524 08ac 6300A602 		beq	a2,a0,.L85
 262:src/Cache.cpp ****                 parentCache->slabListPut(this, newState);
 1525              		.loc 1 262 17 is_stmt 1
 1526 08b0 93073000 		li	a5,3
 1527 08b4 631CF602 		bne	a2,a5,.L94
 1528              	.LVL152:
 1529              	.L89:
 263:src/Cache.cpp ****             }
 1530              		.loc 1 263 17
 263:src/Cache.cpp ****             }
 1531              		.loc 1 263 41 is_stmt 0
 1532 08b8 1B860900 		sext.w	a2,s3
 1533 08bc 93050900 		mv	a1,s2
 1534 08c0 03358901 		ld	a0,24(s2)
 1535 08c4 97000000 		call	_ZN5Cache11slabListPutEPNS_4SlabEi
 1535      E7800000 
 1536              	.LVL153:
 266:src/Cache.cpp ****         }
 1537              		.loc 1 266 13 is_stmt 1
 1538              	.L85:
 1539              	.LBE27:
 1540              	.LBE29:
 1541              	.LBE31:
 271:src/Cache.cpp **** 
 1542              		.loc 1 271 1 is_stmt 0
 1543 08cc 13850400 		mv	a0,s1
 1544 08d0 83308102 		ld	ra,40(sp)
 1545              		.cfi_remember_state
 1546              		.cfi_restore 1
 1547 08d4 03340102 		ld	s0,32(sp)
 1548              		.cfi_restore 8
 1549              		.cfi_def_cfa 2, 48
 1550 08d8 83348101 		ld	s1,24(sp)
 1551              		.cfi_restore 9
 1552 08dc 03390101 		ld	s2,16(sp)
 1553              		.cfi_restore 18
 1554 08e0 83398100 		ld	s3,8(sp)
 1555              		.cfi_restore 19
 1556 08e4 13010103 		addi	sp,sp,48
 1557              		.cfi_def_cfa_offset 0
 1558 08e8 67800000 		jr	ra
 1559              	.LVL154:
 1560              	.L94:
 1561              		.cfi_restore_state
 1562              	.LBB32:
 1563              	.LBB30:
 1564              	.LBB28:
 262:src/Cache.cpp ****                 parentCache->slabListPut(this, newState);
 1565              		.loc 1 262 44 is_stmt 1 discriminator 1
 262:src/Cache.cpp ****                 parentCache->slabListPut(this, newState);
 1566              		.loc 1 262 71 is_stmt 0 discriminator 1
 1567 08ec 93050900 		mv	a1,s2
GAS LISTING /tmp/ccnxh8e3.s 			page 38


 1568 08f0 03358901 		ld	a0,24(s2)
 1569              	.LVL155:
 1570 08f4 97000000 		call	_ZN5Cache14slabListRemoveEPNS_4SlabEi
 1570      E7800000 
 1571              	.LVL156:
 1572 08fc 6FF0DFFB 		j	.L89
 1573              	.LVL157:
 1574              	.L91:
 1575              	.LBE28:
 1576              	.LBE30:
 1577              	.LBE32:
 252:src/Cache.cpp **** 
 1578              		.loc 1 252 43
 1579 0900 93040000 		li	s1,0
 1580 0904 6FF09FFC 		j	.L85
 1581              		.cfi_endproc
 1582              	.LFE43:
 1584              		.align	2
 1585              		.globl	_ZN5Cache12allocateSlotEv
 1587              	_ZN5Cache12allocateSlotEv:
 1588              	.LFB26:
  31:src/Cache.cpp ****     if(slabList[PARTIAL]) {
 1589              		.loc 1 31 29 is_stmt 1
 1590              		.cfi_startproc
 1591              	.LVL158:
 1592 0908 130101FF 		addi	sp,sp,-16
 1593              		.cfi_def_cfa_offset 16
 1594 090c 23341100 		sd	ra,8(sp)
 1595 0910 23308100 		sd	s0,0(sp)
 1596              		.cfi_offset 1, -8
 1597              		.cfi_offset 8, -16
 1598 0914 13040101 		addi	s0,sp,16
 1599              		.cfi_def_cfa 8, 0
 1600 0918 93070500 		mv	a5,a0
  32:src/Cache.cpp ****         Slab* slab = slabList[PARTIAL];
 1601              		.loc 1 32 5
 1602              	.LBB33:
  32:src/Cache.cpp ****         Slab* slab = slabList[PARTIAL];
 1603              		.loc 1 32 24 is_stmt 0
 1604 091c 03350501 		ld	a0,16(a0)
 1605              	.LVL159:
  32:src/Cache.cpp ****         Slab* slab = slabList[PARTIAL];
 1606              		.loc 1 32 5
 1607 0920 630E0500 		beqz	a0,.L96
 1608              	.LBB34:
  33:src/Cache.cpp ****         return slab->getFreeSlot();
 1609              		.loc 1 33 9 is_stmt 1
 1610              	.LVL160:
  34:src/Cache.cpp ****     }
 1611              		.loc 1 34 9
  34:src/Cache.cpp ****     }
 1612              		.loc 1 34 33 is_stmt 0
 1613 0924 97000000 		call	_ZN5Cache4Slab11getFreeSlotEv
 1613      E7800000 
 1614              	.LVL161:
 1615              	.L95:
 1616              	.LBE34:
GAS LISTING /tmp/ccnxh8e3.s 			page 39


 1617              	.LBE33:
  45:src/Cache.cpp **** 
 1618              		.loc 1 45 1
 1619 092c 83308100 		ld	ra,8(sp)
 1620              		.cfi_remember_state
 1621              		.cfi_restore 1
 1622 0930 03340100 		ld	s0,0(sp)
 1623              		.cfi_restore 8
 1624              		.cfi_def_cfa 2, 16
 1625 0934 13010101 		addi	sp,sp,16
 1626              		.cfi_def_cfa_offset 0
 1627 0938 67800000 		jr	ra
 1628              	.LVL162:
 1629              	.L96:
 1630              		.cfi_restore_state
  36:src/Cache.cpp ****         Slab* slab = slabList[EMPTY];
 1631              		.loc 1 36 10 is_stmt 1
 1632              	.LBB37:
 1633              	.LBB35:
  36:src/Cache.cpp ****         Slab* slab = slabList[EMPTY];
 1634              		.loc 1 36 27 is_stmt 0
 1635 093c 03B58700 		ld	a0,8(a5)
  36:src/Cache.cpp ****         Slab* slab = slabList[EMPTY];
 1636              		.loc 1 36 10
 1637 0940 63080500 		beqz	a0,.L98
 1638              	.LBB36:
  37:src/Cache.cpp ****         Slot* slot = slab->getFreeSlot();
 1639              		.loc 1 37 9 is_stmt 1
 1640              	.LVL163:
  38:src/Cache.cpp **** 
 1641              		.loc 1 38 9
  38:src/Cache.cpp **** 
 1642              		.loc 1 38 39 is_stmt 0
 1643 0944 97000000 		call	_ZN5Cache4Slab11getFreeSlotEv
 1643      E7800000 
 1644              	.LVL164:
  40:src/Cache.cpp ****     }
 1645              		.loc 1 40 9 is_stmt 1
  40:src/Cache.cpp ****     }
 1646              		.loc 1 40 16 is_stmt 0
 1647 094c 6FF01FFE 		j	.L95
 1648              	.LVL165:
 1649              	.L98:
 1650              	.LBE36:
 1651              	.LBE35:
 1652              	.LBE37:
  43:src/Cache.cpp ****     return slab->getFreeSlot();
 1653              		.loc 1 43 5 is_stmt 1
  43:src/Cache.cpp ****     return slab->getFreeSlot();
 1654              		.loc 1 43 30 is_stmt 0
 1655 0950 13850700 		mv	a0,a5
 1656 0954 97000000 		call	_ZN5Cache12allocateSlabEv
 1656      E7800000 
 1657              	.LVL166:
  44:src/Cache.cpp **** }
 1658              		.loc 1 44 5 is_stmt 1
  44:src/Cache.cpp **** }
GAS LISTING /tmp/ccnxh8e3.s 			page 40


 1659              		.loc 1 44 29 is_stmt 0
 1660 095c 97000000 		call	_ZN5Cache4Slab11getFreeSlotEv
 1660      E7800000 
 1661              	.LVL167:
  44:src/Cache.cpp **** }
 1662              		.loc 1 44 30
 1663 0964 6FF09FFC 		j	.L95
 1664              		.cfi_endproc
 1665              	.LFE26:
 1667              		.align	2
 1668              		.globl	_ZN5Cache14allocateBufferEm
 1670              	_ZN5Cache14allocateBufferEm:
 1671              	.LFB37:
 199:src/Cache.cpp ****     size_t objectPowSize = powerOfTwo(size);
 1672              		.loc 1 199 42 is_stmt 1
 1673              		.cfi_startproc
 1674              	.LVL168:
 1675 0968 130101FE 		addi	sp,sp,-32
 1676              		.cfi_def_cfa_offset 32
 1677 096c 233C1100 		sd	ra,24(sp)
 1678 0970 23388100 		sd	s0,16(sp)
 1679 0974 23349100 		sd	s1,8(sp)
 1680 0978 23302101 		sd	s2,0(sp)
 1681              		.cfi_offset 1, -8
 1682              		.cfi_offset 8, -16
 1683              		.cfi_offset 9, -24
 1684              		.cfi_offset 18, -32
 1685 097c 13040102 		addi	s0,sp,32
 1686              		.cfi_def_cfa 8, 0
 200:src/Cache.cpp ****     if(objectPowSize <  MINSIZEBUFFER || objectPowSize > MAXSIZEBUFFER) {
 1687              		.loc 1 200 5
 200:src/Cache.cpp ****     if(objectPowSize <  MINSIZEBUFFER || objectPowSize > MAXSIZEBUFFER) {
 1688              		.loc 1 200 38 is_stmt 0
 1689 0980 97000000 		call	_ZN5Cache10powerOfTwoEm
 1689      E7800000 
 1690              	.LVL169:
 201:src/Cache.cpp ****         return nullptr;
 1691              		.loc 1 201 5 is_stmt 1
 201:src/Cache.cpp ****         return nullptr;
 1692              		.loc 1 201 39 is_stmt 0
 1693 0988 9304B5FF 		addi	s1,a0,-5
 201:src/Cache.cpp ****         return nullptr;
 1694              		.loc 1 201 5
 1695 098c 9307C000 		li	a5,12
 1696 0990 63EE9708 		bgtu	s1,a5,.L103
 1697 0994 13090500 		mv	s2,a0
 204:src/Cache.cpp ****     if(bufferCache[entry] == nullptr) {
 1698              		.loc 1 204 5 is_stmt 1
 1699              	.LVL170:
 205:src/Cache.cpp ****         bufferCache[entry] = createCache();
 1700              		.loc 1 205 5
 205:src/Cache.cpp ****         bufferCache[entry] = createCache();
 1701              		.loc 1 205 25 is_stmt 0
 1702 0998 13973400 		slli	a4,s1,3
 1703 099c 97070000 		lla	a5,.LANCHOR0
 1703      93870700 
 1704 09a4 B387E700 		add	a5,a5,a4
GAS LISTING /tmp/ccnxh8e3.s 			page 41


 1705 09a8 83B70700 		ld	a5,0(a5)
 205:src/Cache.cpp ****         bufferCache[entry] = createCache();
 1706              		.loc 1 205 5
 1707 09ac 638C0702 		beqz	a5,.L105
 1708              	.LVL171:
 1709              	.L102:
 209:src/Cache.cpp **** }
 1710              		.loc 1 209 5 is_stmt 1
 209:src/Cache.cpp **** }
 1711              		.loc 1 209 29 is_stmt 0
 1712 09b0 93943400 		slli	s1,s1,3
 1713              	.LVL172:
 1714 09b4 97070000 		lla	a5,.LANCHOR0
 1714      93870700 
 1715 09bc B3849700 		add	s1,a5,s1
 209:src/Cache.cpp **** }
 1716              		.loc 1 209 44
 1717 09c0 03B50400 		ld	a0,0(s1)
 1718 09c4 97000000 		call	_ZN5Cache12allocateSlotEv
 1718      E7800000 
 1719              	.LVL173:
 1720              	.L100:
 210:src/Cache.cpp **** 
 1721              		.loc 1 210 1
 1722 09cc 83308101 		ld	ra,24(sp)
 1723              		.cfi_remember_state
 1724              		.cfi_restore 1
 1725 09d0 03340101 		ld	s0,16(sp)
 1726              		.cfi_restore 8
 1727              		.cfi_def_cfa 2, 32
 1728 09d4 83348100 		ld	s1,8(sp)
 1729              		.cfi_restore 9
 1730 09d8 03390100 		ld	s2,0(sp)
 1731              		.cfi_restore 18
 1732 09dc 13010102 		addi	sp,sp,32
 1733              		.cfi_def_cfa_offset 0
 1734 09e0 67800000 		jr	ra
 1735              	.LVL174:
 1736              	.L105:
 1737              		.cfi_restore_state
 206:src/Cache.cpp ****         bufferCache[entry]->initCache(bufferNames[entry], 1<<objectPowSize, NULL,NULL);
 1738              		.loc 1 206 9 is_stmt 1
 206:src/Cache.cpp ****         bufferCache[entry]->initCache(bufferNames[entry], 1<<objectPowSize, NULL,NULL);
 1739              		.loc 1 206 41 is_stmt 0
 1740 09e4 97000000 		call	_ZN5Cache11createCacheEv
 1740      E7800000 
 1741              	.LVL175:
 206:src/Cache.cpp ****         bufferCache[entry]->initCache(bufferNames[entry], 1<<objectPowSize, NULL,NULL);
 1742              		.loc 1 206 28
 1743 09ec 93963400 		slli	a3,s1,3
 1744 09f0 17070000 		lla	a4,.LANCHOR0
 1744      13070700 
 1745 09f8 3307D700 		add	a4,a4,a3
 1746 09fc 2330A700 		sd	a0,0(a4)
 207:src/Cache.cpp ****     }
 1747              		.loc 1 207 9 is_stmt 1
 207:src/Cache.cpp ****     }
GAS LISTING /tmp/ccnxh8e3.s 			page 42


 1748              		.loc 1 207 38 is_stmt 0
 1749 0a00 97070000 		lla	a5,.LANCHOR1
 1749      93870700 
 1750 0a08 B387D700 		add	a5,a5,a3
 1751 0a0c 13070000 		li	a4,0
 1752 0a10 93060000 		li	a3,0
 1753 0a14 13061000 		li	a2,1
 1754 0a18 3B162601 		sllw	a2,a2,s2
 1755 0a1c 83B50700 		ld	a1,0(a5)
 1756 0a20 97000000 		call	_ZN5Cache9initCacheEPKcmPFvPvES4_
 1756      E7800000 
 1757              	.LVL176:
 1758 0a28 6FF09FF8 		j	.L102
 1759              	.LVL177:
 1760              	.L103:
 202:src/Cache.cpp ****     }
 1761              		.loc 1 202 16
 1762 0a2c 13050000 		li	a0,0
 1763              	.LVL178:
 1764 0a30 6FF0DFF9 		j	.L100
 1765              		.cfi_endproc
 1766              	.LFE37:
 1768              		.globl	_ZN5Cache11bufferCacheE
 1769              		.globl	_ZN5Cache11bufferNamesE
 1770              		.section	.rodata.str1.8
 1771 00d2 00000000 		.align	3
 1771      0000
 1772              	.LC5:
 1773 00d8 73697A65 		.string	"size-32"
 1773      2D333200 
 1774              		.align	3
 1775              	.LC6:
 1776 00e0 73697A65 		.string	"size-64"
 1776      2D363400 
 1777              		.align	3
 1778              	.LC7:
 1779 00e8 73697A65 		.string	"size-128"
 1779      2D313238 
 1779      00
 1780 00f1 00000000 		.align	3
 1780      000000
 1781              	.LC8:
 1782 00f8 73697A65 		.string	"size-256"
 1782      2D323536 
 1782      00
 1783 0101 00000000 		.align	3
 1783      000000
 1784              	.LC9:
 1785 0108 73697A65 		.string	"size-512"
 1785      2D353132 
 1785      00
 1786 0111 00000000 		.align	3
 1786      000000
 1787              	.LC10:
 1788 0118 73697A65 		.string	"size-1024"
 1788      2D313032 
 1788      3400
GAS LISTING /tmp/ccnxh8e3.s 			page 43


 1789 0122 00000000 		.align	3
 1789      0000
 1790              	.LC11:
 1791 0128 73697A65 		.string	"size-2048"
 1791      2D323034 
 1791      3800
 1792 0132 00000000 		.align	3
 1792      0000
 1793              	.LC12:
 1794 0138 73697A65 		.string	"size-4096"
 1794      2D343039 
 1794      3600
 1795 0142 00000000 		.align	3
 1795      0000
 1796              	.LC13:
 1797 0148 73697A65 		.string	"size-8192"
 1797      2D383139 
 1797      3200
 1798 0152 00000000 		.align	3
 1798      0000
 1799              	.LC14:
 1800 0158 73697A65 		.string	"size-16384"
 1800      2D313633 
 1800      383400
 1801 0163 00000000 		.align	3
 1801      00
 1802              	.LC15:
 1803 0168 73697A65 		.string	"size-32768"
 1803      2D333237 
 1803      363800
 1804 0173 00000000 		.align	3
 1804      00
 1805              	.LC16:
 1806 0178 73697A65 		.string	"size-65536"
 1806      2D363535 
 1806      333600
 1807 0183 00000000 		.align	3
 1807      00
 1808              	.LC17:
 1809 0188 73697A65 		.string	"size-131072"
 1809      2D313331 
 1809      30373200 
 1810              		.bss
 1811              		.align	3
 1812              		.set	.LANCHOR0,. + 0
 1815              	_ZN5Cache11bufferCacheE:
 1816 0000 00000000 		.zero	104
 1816      00000000 
 1816      00000000 
 1816      00000000 
 1816      00000000 
 1817              		.section	.data.rel.local,"aw"
 1818              		.align	3
 1819              		.set	.LANCHOR1,. + 0
 1822              	_ZN5Cache11bufferNamesE:
 1823 0000 00000000 		.dword	.LC5
 1823      00000000 
GAS LISTING /tmp/ccnxh8e3.s 			page 44


 1824 0008 00000000 		.dword	.LC6
 1824      00000000 
 1825 0010 00000000 		.dword	.LC7
 1825      00000000 
 1826 0018 00000000 		.dword	.LC8
 1826      00000000 
 1827 0020 00000000 		.dword	.LC9
 1827      00000000 
 1828 0028 00000000 		.dword	.LC10
 1828      00000000 
 1829 0030 00000000 		.dword	.LC11
 1829      00000000 
 1830 0038 00000000 		.dword	.LC12
 1830      00000000 
 1831 0040 00000000 		.dword	.LC13
 1831      00000000 
 1832 0048 00000000 		.dword	.LC14
 1832      00000000 
 1833 0050 00000000 		.dword	.LC15
 1833      00000000 
 1834 0058 00000000 		.dword	.LC16
 1834      00000000 
 1835 0060 00000000 		.dword	.LC17
 1835      00000000 
 1836              		.text
 1837              	.Letext0:
 1838              		.file 2 "src/../h/hw.h"
 1839              		.file 3 "src/../h/Cache.h"
 1840              		.file 4 "src/../h/BuddyAllocator.h"
 1841              		.file 5 "src/../h/syscall_c.h"
 1842              		.file 6 "src/../h/printing.hpp"
GAS LISTING /tmp/ccnxh8e3.s 			page 45


DEFINED SYMBOLS
                            *ABS*:0000000000000000 Cache.cpp
     /tmp/ccnxh8e3.s:9      .text:0000000000000000 _ZN5Cache11getNumSlotsEmm
     /tmp/ccnxh8e3.s:13     .text:0000000000000000 .L0 
     /tmp/ccnxh8e3.s:15     .text:0000000000000000 .L0 
     /tmp/ccnxh8e3.s:16     .text:0000000000000004 .L0 
     /tmp/ccnxh8e3.s:18     .text:0000000000000008 .L0 
     /tmp/ccnxh8e3.s:20     .text:000000000000000c .L0 
     /tmp/ccnxh8e3.s:22     .text:000000000000000c .L0 
     /tmp/ccnxh8e3.s:23     .text:000000000000000c .L0 
     /tmp/ccnxh8e3.s:26     .text:0000000000000010 .L0 
     /tmp/ccnxh8e3.s:28     .text:0000000000000014 .L0 
     /tmp/ccnxh8e3.s:30     .text:0000000000000018 .L0 
     /tmp/ccnxh8e3.s:32     .text:0000000000000020 .L0 
     /tmp/ccnxh8e3.s:33     .text:0000000000000020 .L0 
     /tmp/ccnxh8e3.s:35     .text:0000000000000024 .L0 
     /tmp/ccnxh8e3.s:37     .text:0000000000000028 .L0 
     /tmp/ccnxh8e3.s:43     .text:0000000000000028 _ZN5Cache11slabListPutEPNS_4SlabEi
     /tmp/ccnxh8e3.s:46     .text:0000000000000028 .L0 
     /tmp/ccnxh8e3.s:48     .text:0000000000000028 .L0 
     /tmp/ccnxh8e3.s:49     .text:000000000000002c .L0 
     /tmp/ccnxh8e3.s:51     .text:0000000000000030 .L0 
     /tmp/ccnxh8e3.s:53     .text:0000000000000034 .L0 
     /tmp/ccnxh8e3.s:55     .text:0000000000000034 .L0 
     /tmp/ccnxh8e3.s:57     .text:0000000000000038 .L0 
     /tmp/ccnxh8e3.s:59     .text:000000000000003c .L0 
     /tmp/ccnxh8e3.s:62     .text:0000000000000044 .L0 
     /tmp/ccnxh8e3.s:63     .text:0000000000000044 .L0 
     /tmp/ccnxh8e3.s:65     .text:0000000000000048 .L0 
     /tmp/ccnxh8e3.s:66     .text:0000000000000048 .L0 
     /tmp/ccnxh8e3.s:70     .text:0000000000000054 .L0 
     /tmp/ccnxh8e3.s:72     .text:0000000000000058 .L0 
     /tmp/ccnxh8e3.s:73     .text:0000000000000058 .L0 
     /tmp/ccnxh8e3.s:76     .text:000000000000005c .L0 
     /tmp/ccnxh8e3.s:77     .text:000000000000005c .L0 
     /tmp/ccnxh8e3.s:84     .text:0000000000000068 .L0 
     /tmp/ccnxh8e3.s:85     .text:000000000000006c .L0 
     /tmp/ccnxh8e3.s:86     .text:000000000000006c .L0 
     /tmp/ccnxh8e3.s:88     .text:0000000000000070 .L0 
     /tmp/ccnxh8e3.s:90     .text:0000000000000074 .L0 
     /tmp/ccnxh8e3.s:96     .text:0000000000000074 _ZN5Cache14slabListRemoveEPNS_4SlabEi
     /tmp/ccnxh8e3.s:99     .text:0000000000000074 .L0 
     /tmp/ccnxh8e3.s:101    .text:0000000000000074 .L0 
     /tmp/ccnxh8e3.s:102    .text:0000000000000078 .L0 
     /tmp/ccnxh8e3.s:104    .text:000000000000007c .L0 
     /tmp/ccnxh8e3.s:106    .text:0000000000000080 .L0 
     /tmp/ccnxh8e3.s:108    .text:0000000000000080 .L0 
     /tmp/ccnxh8e3.s:110    .text:0000000000000084 .L0 
     /tmp/ccnxh8e3.s:112    .text:0000000000000088 .L0 
     /tmp/ccnxh8e3.s:116    .text:0000000000000090 .L0 
     /tmp/ccnxh8e3.s:118    .text:0000000000000090 .L0 
     /tmp/ccnxh8e3.s:119    .text:0000000000000090 .L0 
     /tmp/ccnxh8e3.s:125    .text:000000000000009c .L0 
     /tmp/ccnxh8e3.s:130    .text:00000000000000a0 .L0 
     /tmp/ccnxh8e3.s:132    .text:00000000000000a4 .L0 
     /tmp/ccnxh8e3.s:135    .text:00000000000000a8 .L0 
     /tmp/ccnxh8e3.s:136    .text:00000000000000a8 .L0 
GAS LISTING /tmp/ccnxh8e3.s 			page 46


     /tmp/ccnxh8e3.s:137    .text:00000000000000a8 .L0 
     /tmp/ccnxh8e3.s:139    .text:00000000000000ac .L0 
     /tmp/ccnxh8e3.s:142    .text:00000000000000b0 .L0 
     /tmp/ccnxh8e3.s:145    .text:00000000000000b4 .L0 
     /tmp/ccnxh8e3.s:147    .text:00000000000000b8 .L0 
     /tmp/ccnxh8e3.s:148    .text:00000000000000b8 .L0 
     /tmp/ccnxh8e3.s:150    .text:00000000000000bc .L0 
     /tmp/ccnxh8e3.s:154    .text:00000000000000c0 .L0 
     /tmp/ccnxh8e3.s:155    .text:00000000000000c0 .L0 
     /tmp/ccnxh8e3.s:160    .text:00000000000000c4 .L0 
     /tmp/ccnxh8e3.s:161    .text:00000000000000c4 .L0 
     /tmp/ccnxh8e3.s:162    .text:00000000000000c8 .L0 
     /tmp/ccnxh8e3.s:163    .text:00000000000000c8 .L0 
     /tmp/ccnxh8e3.s:164    .text:00000000000000c8 .L0 
     /tmp/ccnxh8e3.s:166    .text:00000000000000cc .L0 
     /tmp/ccnxh8e3.s:170    .text:00000000000000d0 .L0 
     /tmp/ccnxh8e3.s:173    .text:00000000000000d0 .L0 
     /tmp/ccnxh8e3.s:174    .text:00000000000000d0 .L0 
     /tmp/ccnxh8e3.s:177    .text:00000000000000d4 .L0 
     /tmp/ccnxh8e3.s:183    .text:00000000000000e4 .L0 
     /tmp/ccnxh8e3.s:197    .text:00000000000000e4 _ZN5Cache17printErrorMessageEv
     /tmp/ccnxh8e3.s:200    .text:00000000000000e4 .L0 
     /tmp/ccnxh8e3.s:202    .text:00000000000000e4 .L0 
     /tmp/ccnxh8e3.s:203    .text:00000000000000e8 .L0 
     /tmp/ccnxh8e3.s:207    .text:00000000000000f4 .L0 
     /tmp/ccnxh8e3.s:208    .text:00000000000000f4 .L0 
     /tmp/ccnxh8e3.s:209    .text:00000000000000f4 .L0 
     /tmp/ccnxh8e3.s:211    .text:00000000000000f8 .L0 
     /tmp/ccnxh8e3.s:214    .text:00000000000000fc .L0 
     /tmp/ccnxh8e3.s:215    .text:00000000000000fc .L0 
     /tmp/ccnxh8e3.s:217    .text:0000000000000100 .L0 
     /tmp/ccnxh8e3.s:222    .text:0000000000000108 .L0 
     /tmp/ccnxh8e3.s:223    .text:0000000000000108 .L0 
     /tmp/ccnxh8e3.s:224    .text:0000000000000108 .L0 
     /tmp/ccnxh8e3.s:228    .text:0000000000000118 .L0 
     /tmp/ccnxh8e3.s:229    .text:0000000000000118 .L0 
     /tmp/ccnxh8e3.s:231    .text:0000000000000120 .L0 
     /tmp/ccnxh8e3.s:232    .text:0000000000000120 .L0 
     /tmp/ccnxh8e3.s:234    .text:0000000000000124 .L0 
     /tmp/ccnxh8e3.s:235    .text:0000000000000124 .L0 
     /tmp/ccnxh8e3.s:237    .text:0000000000000128 .L0 
     /tmp/ccnxh8e3.s:240    .text:000000000000012c .L0 
     /tmp/ccnxh8e3.s:244    .text:0000000000000130 .L0 
     /tmp/ccnxh8e3.s:246    .text:0000000000000130 .L0 
     /tmp/ccnxh8e3.s:247    .text:0000000000000130 .L0 
     /tmp/ccnxh8e3.s:248    .text:0000000000000130 .L0 
     /tmp/ccnxh8e3.s:252    .text:0000000000000144 .L0 
     /tmp/ccnxh8e3.s:258    .text:0000000000000144 _ZN5Cache19getNumSlabsAndSlotsEPiS0_
     /tmp/ccnxh8e3.s:261    .text:0000000000000144 .L0 
     /tmp/ccnxh8e3.s:263    .text:0000000000000144 .L0 
     /tmp/ccnxh8e3.s:264    .text:0000000000000148 .L0 
     /tmp/ccnxh8e3.s:266    .text:000000000000014c .L0 
     /tmp/ccnxh8e3.s:268    .text:0000000000000150 .L0 
     /tmp/ccnxh8e3.s:271    .text:0000000000000150 .L0 
     /tmp/ccnxh8e3.s:273    .text:0000000000000150 .L0 
     /tmp/ccnxh8e3.s:274    .text:0000000000000150 .L0 
     /tmp/ccnxh8e3.s:277    .text:0000000000000154 .L0 
GAS LISTING /tmp/ccnxh8e3.s 			page 47


     /tmp/ccnxh8e3.s:279    .text:0000000000000158 .L0 
     /tmp/ccnxh8e3.s:285    .text:0000000000000160 .L0 
     /tmp/ccnxh8e3.s:289    .text:0000000000000164 .L0 
     /tmp/ccnxh8e3.s:295    .text:000000000000016c .L0 
     /tmp/ccnxh8e3.s:296    .text:000000000000016c .L0 
     /tmp/ccnxh8e3.s:302    .text:0000000000000178 .L0 
     /tmp/ccnxh8e3.s:304    .text:000000000000017c .L0 
     /tmp/ccnxh8e3.s:305    .text:000000000000017c .L0 
     /tmp/ccnxh8e3.s:308    .text:0000000000000180 .L0 
     /tmp/ccnxh8e3.s:309    .text:0000000000000180 .L0 
     /tmp/ccnxh8e3.s:311    .text:0000000000000184 .L0 
     /tmp/ccnxh8e3.s:314    .text:0000000000000188 .L0 
     /tmp/ccnxh8e3.s:315    .text:0000000000000188 .L0 
     /tmp/ccnxh8e3.s:318    .text:000000000000018c .L0 
     /tmp/ccnxh8e3.s:324    .text:0000000000000190 .L0 
     /tmp/ccnxh8e3.s:325    .text:0000000000000190 .L0 
     /tmp/ccnxh8e3.s:327    .text:0000000000000194 .L0 
     /tmp/ccnxh8e3.s:328    .text:0000000000000194 .L0 
     /tmp/ccnxh8e3.s:330    .text:0000000000000198 .L0 
     /tmp/ccnxh8e3.s:331    .text:000000000000019c .L0 
     /tmp/ccnxh8e3.s:332    .text:000000000000019c .L0 
     /tmp/ccnxh8e3.s:334    .text:00000000000001a0 .L0 
     /tmp/ccnxh8e3.s:336    .text:00000000000001a4 .L0 
     /tmp/ccnxh8e3.s:350    .text:00000000000001a4 _ZN5Cache14printCacheInfoEv
     /tmp/ccnxh8e3.s:353    .text:00000000000001a4 .L0 
     /tmp/ccnxh8e3.s:355    .text:00000000000001a4 .L0 
     /tmp/ccnxh8e3.s:356    .text:00000000000001a8 .L0 
     /tmp/ccnxh8e3.s:360    .text:00000000000001b4 .L0 
     /tmp/ccnxh8e3.s:361    .text:00000000000001b4 .L0 
     /tmp/ccnxh8e3.s:362    .text:00000000000001b4 .L0 
     /tmp/ccnxh8e3.s:364    .text:00000000000001b8 .L0 
     /tmp/ccnxh8e3.s:367    .text:00000000000001bc .L0 
     /tmp/ccnxh8e3.s:368    .text:00000000000001bc .L0 
     /tmp/ccnxh8e3.s:370    .text:00000000000001c0 .L0 
     /tmp/ccnxh8e3.s:372    .text:00000000000001c4 .L0 
     /tmp/ccnxh8e3.s:373    .text:00000000000001c4 .L0 
     /tmp/ccnxh8e3.s:378    .text:00000000000001d4 .L0 
     /tmp/ccnxh8e3.s:379    .text:00000000000001d4 .L0 
     /tmp/ccnxh8e3.s:383    .text:00000000000001e0 .L0 
     /tmp/ccnxh8e3.s:384    .text:00000000000001e0 .L0 
     /tmp/ccnxh8e3.s:388    .text:00000000000001f0 .L0 
     /tmp/ccnxh8e3.s:389    .text:00000000000001f0 .L0 
     /tmp/ccnxh8e3.s:395    .text:0000000000000204 .L0 
     /tmp/ccnxh8e3.s:396    .text:0000000000000204 .L0 
     /tmp/ccnxh8e3.s:400    .text:0000000000000214 .L0 
     /tmp/ccnxh8e3.s:401    .text:0000000000000214 .L0 
     /tmp/ccnxh8e3.s:403    .text:0000000000000218 .L0 
     /tmp/ccnxh8e3.s:409    .text:000000000000022c .L0 
     /tmp/ccnxh8e3.s:410    .text:000000000000022c .L0 
     /tmp/ccnxh8e3.s:414    .text:000000000000023c .L0 
     /tmp/ccnxh8e3.s:415    .text:000000000000023c .L0 
     /tmp/ccnxh8e3.s:421    .text:0000000000000250 .L0 
     /tmp/ccnxh8e3.s:422    .text:0000000000000250 .L0 
     /tmp/ccnxh8e3.s:426    .text:0000000000000260 .L0 
     /tmp/ccnxh8e3.s:427    .text:0000000000000260 .L0 
     /tmp/ccnxh8e3.s:433    .text:0000000000000274 .L0 
     /tmp/ccnxh8e3.s:434    .text:0000000000000274 .L0 
GAS LISTING /tmp/ccnxh8e3.s 			page 48


     /tmp/ccnxh8e3.s:438    .text:0000000000000284 .L0 
     /tmp/ccnxh8e3.s:439    .text:0000000000000284 .L0 
     /tmp/ccnxh8e3.s:445    .text:0000000000000298 .L0 
     /tmp/ccnxh8e3.s:446    .text:0000000000000298 .L0 
     /tmp/ccnxh8e3.s:450    .text:00000000000002a8 .L0 
     /tmp/ccnxh8e3.s:451    .text:00000000000002a8 .L0 
     /tmp/ccnxh8e3.s:457    .text:00000000000002bc .L0 
     /tmp/ccnxh8e3.s:458    .text:00000000000002bc .L0 
     /tmp/ccnxh8e3.s:462    .text:00000000000002cc .L0 
     /tmp/ccnxh8e3.s:463    .text:00000000000002d0 .L0 
     /tmp/ccnxh8e3.s:465    .text:00000000000002d4 .L0 
     /tmp/ccnxh8e3.s:466    .text:00000000000002d4 .L0 
     /tmp/ccnxh8e3.s:468    .text:00000000000002d8 .L0 
     /tmp/ccnxh8e3.s:471    .text:00000000000002dc .L0 
     /tmp/ccnxh8e3.s:473    .text:00000000000002e0 .L0 
     /tmp/ccnxh8e3.s:479    .text:00000000000002e0 _ZN5Cache11deallocSlabEPNS_4SlabE
     /tmp/ccnxh8e3.s:482    .text:00000000000002e0 .L0 
     /tmp/ccnxh8e3.s:484    .text:00000000000002e0 .L0 
     /tmp/ccnxh8e3.s:485    .text:00000000000002e4 .L0 
     /tmp/ccnxh8e3.s:491    .text:00000000000002f8 .L0 
     /tmp/ccnxh8e3.s:492    .text:00000000000002f8 .L0 
     /tmp/ccnxh8e3.s:493    .text:00000000000002f8 .L0 
     /tmp/ccnxh8e3.s:494    .text:00000000000002f8 .L0 
     /tmp/ccnxh8e3.s:495    .text:00000000000002f8 .L0 
     /tmp/ccnxh8e3.s:497    .text:00000000000002fc .L0 
     /tmp/ccnxh8e3.s:501    .text:0000000000000300 .L0 
     /tmp/ccnxh8e3.s:503    .text:0000000000000300 .L0 
     /tmp/ccnxh8e3.s:504    .text:0000000000000300 .L0 
     /tmp/ccnxh8e3.s:506    .text:0000000000000304 .L0 
     /tmp/ccnxh8e3.s:510    .text:000000000000030c .L0 
     /tmp/ccnxh8e3.s:515    .text:0000000000000314 .L0 
     /tmp/ccnxh8e3.s:517    .text:0000000000000318 .L0 
     /tmp/ccnxh8e3.s:519    .text:000000000000031c .L0 
     /tmp/ccnxh8e3.s:521    .text:0000000000000320 .L0 
     /tmp/ccnxh8e3.s:526    .text:000000000000032c .L0 
     /tmp/ccnxh8e3.s:530    .text:0000000000000330 .L0 
     /tmp/ccnxh8e3.s:531    .text:0000000000000330 .L0 
     /tmp/ccnxh8e3.s:533    .text:0000000000000334 .L0 
     /tmp/ccnxh8e3.s:539    .text:0000000000000338 .L0 
     /tmp/ccnxh8e3.s:540    .text:0000000000000338 .L0 
     /tmp/ccnxh8e3.s:545    .text:0000000000000348 .L0 
     /tmp/ccnxh8e3.s:546    .text:000000000000034c .L0 
     /tmp/ccnxh8e3.s:548    .text:0000000000000350 .L0 
     /tmp/ccnxh8e3.s:549    .text:0000000000000350 .L0 
     /tmp/ccnxh8e3.s:551    .text:0000000000000354 .L0 
     /tmp/ccnxh8e3.s:553    .text:0000000000000358 .L0 
     /tmp/ccnxh8e3.s:555    .text:000000000000035c .L0 
     /tmp/ccnxh8e3.s:558    .text:0000000000000360 .L0 
     /tmp/ccnxh8e3.s:560    .text:0000000000000364 .L0 
     /tmp/ccnxh8e3.s:566    .text:0000000000000364 _ZN5Cache16deallocFreeSlabsEv
     /tmp/ccnxh8e3.s:569    .text:0000000000000364 .L0 
     /tmp/ccnxh8e3.s:571    .text:0000000000000364 .L0 
     /tmp/ccnxh8e3.s:572    .text:0000000000000368 .L0 
     /tmp/ccnxh8e3.s:578    .text:000000000000037c .L0 
     /tmp/ccnxh8e3.s:579    .text:000000000000037c .L0 
     /tmp/ccnxh8e3.s:580    .text:000000000000037c .L0 
     /tmp/ccnxh8e3.s:581    .text:000000000000037c .L0 
GAS LISTING /tmp/ccnxh8e3.s 			page 49


     /tmp/ccnxh8e3.s:582    .text:000000000000037c .L0 
     /tmp/ccnxh8e3.s:584    .text:0000000000000380 .L0 
     /tmp/ccnxh8e3.s:588    .text:0000000000000384 .L0 
     /tmp/ccnxh8e3.s:590    .text:0000000000000384 .L0 
     /tmp/ccnxh8e3.s:591    .text:0000000000000384 .L0 
     /tmp/ccnxh8e3.s:595    .text:0000000000000388 .L0 
     /tmp/ccnxh8e3.s:600    .text:000000000000038c .L0 
     /tmp/ccnxh8e3.s:603    .text:0000000000000390 .L0 
     /tmp/ccnxh8e3.s:604    .text:0000000000000390 .L0 
     /tmp/ccnxh8e3.s:607    .text:0000000000000394 .L0 
     /tmp/ccnxh8e3.s:608    .text:0000000000000394 .L0 
     /tmp/ccnxh8e3.s:609    .text:0000000000000394 .L0 
     /tmp/ccnxh8e3.s:612    .text:0000000000000398 .L0 
     /tmp/ccnxh8e3.s:613    .text:0000000000000398 .L0 
     /tmp/ccnxh8e3.s:617    .text:00000000000003a4 .L0 
     /tmp/ccnxh8e3.s:620    .text:00000000000003a8 .L0 
     /tmp/ccnxh8e3.s:625    .text:00000000000003ac .L0 
     /tmp/ccnxh8e3.s:626    .text:00000000000003ac .L0 
     /tmp/ccnxh8e3.s:628    .text:00000000000003b0 .L0 
     /tmp/ccnxh8e3.s:629    .text:00000000000003b0 .L0 
     /tmp/ccnxh8e3.s:631    .text:00000000000003b8 .L0 
     /tmp/ccnxh8e3.s:633    .text:00000000000003bc .L0 
     /tmp/ccnxh8e3.s:634    .text:00000000000003bc .L0 
     /tmp/ccnxh8e3.s:636    .text:00000000000003c0 .L0 
     /tmp/ccnxh8e3.s:639    .text:00000000000003c4 .L0 
     /tmp/ccnxh8e3.s:641    .text:00000000000003c8 .L0 
     /tmp/ccnxh8e3.s:644    .text:00000000000003cc .L0 
     /tmp/ccnxh8e3.s:646    .text:00000000000003d0 .L0 
     /tmp/ccnxh8e3.s:652    .text:00000000000003d0 _ZN5Cache12deallocCacheEv
     /tmp/ccnxh8e3.s:655    .text:00000000000003d0 .L0 
     /tmp/ccnxh8e3.s:657    .text:00000000000003d0 .L0 
     /tmp/ccnxh8e3.s:658    .text:00000000000003d4 .L0 
     /tmp/ccnxh8e3.s:664    .text:00000000000003e8 .L0 
     /tmp/ccnxh8e3.s:665    .text:00000000000003e8 .L0 
     /tmp/ccnxh8e3.s:666    .text:00000000000003e8 .L0 
     /tmp/ccnxh8e3.s:667    .text:00000000000003e8 .L0 
     /tmp/ccnxh8e3.s:668    .text:00000000000003e8 .L0 
     /tmp/ccnxh8e3.s:670    .text:00000000000003ec .L0 
     /tmp/ccnxh8e3.s:675    .text:00000000000003f0 .L0 
     /tmp/ccnxh8e3.s:676    .text:00000000000003f0 .L0 
     /tmp/ccnxh8e3.s:681    .text:00000000000003f8 .L0 
     /tmp/ccnxh8e3.s:685    .text:00000000000003fc .L0 
     /tmp/ccnxh8e3.s:689    .text:0000000000000404 .L0 
     /tmp/ccnxh8e3.s:690    .text:0000000000000404 .L0 
     /tmp/ccnxh8e3.s:696    .text:0000000000000410 .L0 
     /tmp/ccnxh8e3.s:697    .text:0000000000000410 .L0 
     /tmp/ccnxh8e3.s:701    .text:0000000000000414 .L0 
     /tmp/ccnxh8e3.s:702    .text:0000000000000414 .L0 
     /tmp/ccnxh8e3.s:703    .text:0000000000000414 .L0 
     /tmp/ccnxh8e3.s:706    .text:0000000000000418 .L0 
     /tmp/ccnxh8e3.s:707    .text:0000000000000418 .L0 
     /tmp/ccnxh8e3.s:711    .text:0000000000000424 .L0 
     /tmp/ccnxh8e3.s:714    .text:0000000000000428 .L0 
     /tmp/ccnxh8e3.s:720    .text:000000000000042c .L0 
     /tmp/ccnxh8e3.s:721    .text:0000000000000430 .L0 
     /tmp/ccnxh8e3.s:723    .text:0000000000000434 .L0 
     /tmp/ccnxh8e3.s:724    .text:0000000000000434 .L0 
GAS LISTING /tmp/ccnxh8e3.s 			page 50


     /tmp/ccnxh8e3.s:726    .text:0000000000000438 .L0 
     /tmp/ccnxh8e3.s:728    .text:000000000000043c .L0 
     /tmp/ccnxh8e3.s:731    .text:0000000000000440 .L0 
     /tmp/ccnxh8e3.s:734    .text:0000000000000444 .L0 
     /tmp/ccnxh8e3.s:736    .text:0000000000000448 .L0 
     /tmp/ccnxh8e3.s:742    .text:0000000000000448 _ZN5Cache10powerOfTwoEm
     /tmp/ccnxh8e3.s:745    .text:0000000000000448 .L0 
     /tmp/ccnxh8e3.s:747    .text:0000000000000448 .L0 
     /tmp/ccnxh8e3.s:748    .text:000000000000044c .L0 
     /tmp/ccnxh8e3.s:750    .text:0000000000000450 .L0 
     /tmp/ccnxh8e3.s:752    .text:0000000000000454 .L0 
     /tmp/ccnxh8e3.s:756    .text:0000000000000458 .L0 
     /tmp/ccnxh8e3.s:757    .text:0000000000000458 .L0 
     /tmp/ccnxh8e3.s:758    .text:0000000000000458 .L0 
     /tmp/ccnxh8e3.s:760    .text:000000000000045c .L0 
     /tmp/ccnxh8e3.s:762    .text:0000000000000460 .L0 
     /tmp/ccnxh8e3.s:766    .text:0000000000000464 .L0 
     /tmp/ccnxh8e3.s:767    .text:0000000000000464 .L0 
     /tmp/ccnxh8e3.s:770    .text:000000000000046c .L0 
     /tmp/ccnxh8e3.s:771    .text:000000000000046c .L0 
     /tmp/ccnxh8e3.s:774    .text:0000000000000470 .L0 
     /tmp/ccnxh8e3.s:775    .text:0000000000000470 .L0 
     /tmp/ccnxh8e3.s:778    .text:0000000000000474 .L0 
     /tmp/ccnxh8e3.s:779    .text:0000000000000474 .L0 
     /tmp/ccnxh8e3.s:782    .text:0000000000000478 .L0 
     /tmp/ccnxh8e3.s:785    .text:000000000000047c .L0 
     /tmp/ccnxh8e3.s:787    .text:0000000000000480 .L0 
     /tmp/ccnxh8e3.s:788    .text:0000000000000480 .L0 
     /tmp/ccnxh8e3.s:792    .text:0000000000000484 .L0 
     /tmp/ccnxh8e3.s:793    .text:0000000000000484 .L0 
     /tmp/ccnxh8e3.s:794    .text:0000000000000488 .L0 
     /tmp/ccnxh8e3.s:795    .text:0000000000000488 .L0 
     /tmp/ccnxh8e3.s:797    .text:000000000000048c .L0 
     /tmp/ccnxh8e3.s:799    .text:0000000000000490 .L0 
     /tmp/ccnxh8e3.s:805    .text:0000000000000490 _ZN5Cache12allocateSlabEv
     /tmp/ccnxh8e3.s:808    .text:0000000000000490 .L0 
     /tmp/ccnxh8e3.s:810    .text:0000000000000490 .L0 
     /tmp/ccnxh8e3.s:811    .text:0000000000000494 .L0 
     /tmp/ccnxh8e3.s:819    .text:00000000000004b0 .L0 
     /tmp/ccnxh8e3.s:820    .text:00000000000004b0 .L0 
     /tmp/ccnxh8e3.s:821    .text:00000000000004b0 .L0 
     /tmp/ccnxh8e3.s:822    .text:00000000000004b0 .L0 
     /tmp/ccnxh8e3.s:823    .text:00000000000004b0 .L0 
     /tmp/ccnxh8e3.s:824    .text:00000000000004b0 .L0 
     /tmp/ccnxh8e3.s:825    .text:00000000000004b0 .L0 
     /tmp/ccnxh8e3.s:827    .text:00000000000004b4 .L0 
     /tmp/ccnxh8e3.s:830    .text:00000000000004b8 .L0 
     /tmp/ccnxh8e3.s:831    .text:00000000000004b8 .L0 
     /tmp/ccnxh8e3.s:836    .text:00000000000004c4 .L0 
     /tmp/ccnxh8e3.s:842    .text:00000000000004d4 .L0 
     /tmp/ccnxh8e3.s:843    .text:00000000000004d4 .L0 
     /tmp/ccnxh8e3.s:845    .text:00000000000004d8 .L0 
     /tmp/ccnxh8e3.s:846    .text:00000000000004d8 .L0 
     /tmp/ccnxh8e3.s:848    .text:00000000000004dc .L0 
     /tmp/ccnxh8e3.s:849    .text:00000000000004dc .L0 
     /tmp/ccnxh8e3.s:852    .text:00000000000004e4 .L0 
     /tmp/ccnxh8e3.s:853    .text:00000000000004e4 .L0 
GAS LISTING /tmp/ccnxh8e3.s 			page 51


     /tmp/ccnxh8e3.s:855    .text:00000000000004e8 .L0 
     /tmp/ccnxh8e3.s:856    .text:00000000000004e8 .L0 
     /tmp/ccnxh8e3.s:859    .text:00000000000004ec .L0 
     /tmp/ccnxh8e3.s:861    .text:00000000000004ec .L0 
     /tmp/ccnxh8e3.s:862    .text:00000000000004ec .L0 
     /tmp/ccnxh8e3.s:865    .text:00000000000004f0 .L0 
     /tmp/ccnxh8e3.s:872    .text:00000000000004f8 .L0 
     /tmp/ccnxh8e3.s:873    .text:00000000000004f8 .L0 
     /tmp/ccnxh8e3.s:876    .text:00000000000004fc .L0 
     /tmp/ccnxh8e3.s:877    .text:00000000000004fc .L0 
     /tmp/ccnxh8e3.s:881    .text:0000000000000500 .L0 
     /tmp/ccnxh8e3.s:882    .text:0000000000000500 .L0 
     /tmp/ccnxh8e3.s:886    .text:0000000000000504 .L0 
     /tmp/ccnxh8e3.s:891    .text:0000000000000508 .L0 
     /tmp/ccnxh8e3.s:892    .text:0000000000000508 .L0 
     /tmp/ccnxh8e3.s:894    .text:000000000000050c .L0 
     /tmp/ccnxh8e3.s:897    .text:0000000000000510 .L0 
     /tmp/ccnxh8e3.s:898    .text:0000000000000510 .L0 
     /tmp/ccnxh8e3.s:900    .text:0000000000000514 .L0 
     /tmp/ccnxh8e3.s:902    .text:0000000000000518 .L0 
     /tmp/ccnxh8e3.s:903    .text:0000000000000518 .L0 
     /tmp/ccnxh8e3.s:905    .text:000000000000051c .L0 
     /tmp/ccnxh8e3.s:907    .text:0000000000000520 .L0 
     /tmp/ccnxh8e3.s:909    .text:0000000000000524 .L0 
     /tmp/ccnxh8e3.s:914    .text:000000000000052c .L0 
     /tmp/ccnxh8e3.s:915    .text:000000000000052c .L0 
     /tmp/ccnxh8e3.s:917    .text:0000000000000530 .L0 
     /tmp/ccnxh8e3.s:919    .text:0000000000000534 .L0 
     /tmp/ccnxh8e3.s:922    .text:0000000000000538 .L0 
     /tmp/ccnxh8e3.s:923    .text:0000000000000538 .L0 
     /tmp/ccnxh8e3.s:925    .text:000000000000053c .L0 
     /tmp/ccnxh8e3.s:926    .text:000000000000053c .L0 
     /tmp/ccnxh8e3.s:928    .text:0000000000000540 .L0 
     /tmp/ccnxh8e3.s:930    .text:0000000000000544 .L0 
     /tmp/ccnxh8e3.s:931    .text:0000000000000544 .L0 
     /tmp/ccnxh8e3.s:938    .text:000000000000054c .L0 
     /tmp/ccnxh8e3.s:940    .text:0000000000000554 .L0 
     /tmp/ccnxh8e3.s:942    .text:0000000000000558 .L0 
     /tmp/ccnxh8e3.s:943    .text:0000000000000558 .L0 
     /tmp/ccnxh8e3.s:945    .text:000000000000055c .L0 
     /tmp/ccnxh8e3.s:948    .text:0000000000000560 .L0 
     /tmp/ccnxh8e3.s:951    .text:0000000000000564 .L0 
     /tmp/ccnxh8e3.s:954    .text:0000000000000568 .L0 
     /tmp/ccnxh8e3.s:957    .text:000000000000056c .L0 
     /tmp/ccnxh8e3.s:960    .text:0000000000000570 .L0 
     /tmp/ccnxh8e3.s:962    .text:0000000000000574 .L0 
     /tmp/ccnxh8e3.s:968    .text:0000000000000574 _ZN5Cache11createCacheEv
     /tmp/ccnxh8e3.s:971    .text:0000000000000574 .L0 
     /tmp/ccnxh8e3.s:972    .text:0000000000000574 .L0 
     /tmp/ccnxh8e3.s:973    .text:0000000000000578 .L0 
     /tmp/ccnxh8e3.s:976    .text:0000000000000580 .L0 
     /tmp/ccnxh8e3.s:977    .text:0000000000000580 .L0 
     /tmp/ccnxh8e3.s:979    .text:0000000000000584 .L0 
     /tmp/ccnxh8e3.s:981    .text:0000000000000584 .L0 
     /tmp/ccnxh8e3.s:982    .text:0000000000000584 .L0 
     /tmp/ccnxh8e3.s:986    .text:0000000000000590 .L0 
     /tmp/ccnxh8e3.s:987    .text:0000000000000594 .L0 
GAS LISTING /tmp/ccnxh8e3.s 			page 52


     /tmp/ccnxh8e3.s:989    .text:0000000000000598 .L0 
     /tmp/ccnxh8e3.s:990    .text:0000000000000598 .L0 
     /tmp/ccnxh8e3.s:992    .text:000000000000059c .L0 
     /tmp/ccnxh8e3.s:994    .text:00000000000005a0 .L0 
     /tmp/ccnxh8e3.s:1000   .text:00000000000005a0 _ZN5Cache6strcpyEPcPKc
     /tmp/ccnxh8e3.s:1003   .text:00000000000005a0 .L0 
     /tmp/ccnxh8e3.s:1005   .text:00000000000005a0 .L0 
     /tmp/ccnxh8e3.s:1006   .text:00000000000005a4 .L0 
     /tmp/ccnxh8e3.s:1008   .text:00000000000005a8 .L0 
     /tmp/ccnxh8e3.s:1010   .text:00000000000005ac .L0 
     /tmp/ccnxh8e3.s:1014   .text:00000000000005ac .L0 
     /tmp/ccnxh8e3.s:1015   .text:00000000000005ac .L0 
     /tmp/ccnxh8e3.s:1019   .text:00000000000005b0 .L0 
     /tmp/ccnxh8e3.s:1020   .text:00000000000005b0 .L0 
     /tmp/ccnxh8e3.s:1022   .text:00000000000005b4 .L0 
     /tmp/ccnxh8e3.s:1024   .text:00000000000005b8 .L0 
     /tmp/ccnxh8e3.s:1026   .text:00000000000005bc .L0 
     /tmp/ccnxh8e3.s:1028   .text:00000000000005c0 .L0 
     /tmp/ccnxh8e3.s:1029   .text:00000000000005c0 .L0 
     /tmp/ccnxh8e3.s:1031   .text:00000000000005c4 .L0 
     /tmp/ccnxh8e3.s:1033   .text:00000000000005c8 .L0 
     /tmp/ccnxh8e3.s:1036   .text:00000000000005cc .L0 
     /tmp/ccnxh8e3.s:1037   .text:00000000000005cc .L0 
     /tmp/ccnxh8e3.s:1042   .text:00000000000005d0 .L0 
     /tmp/ccnxh8e3.s:1043   .text:00000000000005d4 .L0 
     /tmp/ccnxh8e3.s:1044   .text:00000000000005d4 .L0 
     /tmp/ccnxh8e3.s:1046   .text:00000000000005d8 .L0 
     /tmp/ccnxh8e3.s:1048   .text:00000000000005dc .L0 
     /tmp/ccnxh8e3.s:1054   .text:00000000000005dc _ZN5Cache9initCacheEPKcmPFvPvES4_
     /tmp/ccnxh8e3.s:1057   .text:00000000000005dc .L0 
     /tmp/ccnxh8e3.s:1059   .text:00000000000005dc .L0 
     /tmp/ccnxh8e3.s:1060   .text:00000000000005e0 .L0 
     /tmp/ccnxh8e3.s:1067   .text:00000000000005f8 .L0 
     /tmp/ccnxh8e3.s:1068   .text:00000000000005f8 .L0 
     /tmp/ccnxh8e3.s:1069   .text:00000000000005f8 .L0 
     /tmp/ccnxh8e3.s:1070   .text:00000000000005f8 .L0 
     /tmp/ccnxh8e3.s:1071   .text:00000000000005f8 .L0 
     /tmp/ccnxh8e3.s:1072   .text:00000000000005f8 .L0 
     /tmp/ccnxh8e3.s:1074   .text:00000000000005fc .L0 
     /tmp/ccnxh8e3.s:1080   .text:000000000000060c .L0 
     /tmp/ccnxh8e3.s:1081   .text:000000000000060c .L0 
     /tmp/ccnxh8e3.s:1087   .text:0000000000000618 .L0 
     /tmp/ccnxh8e3.s:1088   .text:0000000000000618 .L0 
     /tmp/ccnxh8e3.s:1093   .text:0000000000000620 .L0 
     /tmp/ccnxh8e3.s:1094   .text:0000000000000620 .L0 
     /tmp/ccnxh8e3.s:1098   .text:000000000000062c .L0 
     /tmp/ccnxh8e3.s:1102   .text:0000000000000630 .L0 
     /tmp/ccnxh8e3.s:1106   .text:0000000000000638 .L0 
     /tmp/ccnxh8e3.s:1107   .text:0000000000000638 .L0 
     /tmp/ccnxh8e3.s:1109   .text:000000000000063c .L0 
     /tmp/ccnxh8e3.s:1110   .text:000000000000063c .L0 
     /tmp/ccnxh8e3.s:1112   .text:0000000000000640 .L0 
     /tmp/ccnxh8e3.s:1113   .text:0000000000000640 .L0 
     /tmp/ccnxh8e3.s:1115   .text:0000000000000644 .L0 
     /tmp/ccnxh8e3.s:1116   .text:0000000000000644 .L0 
     /tmp/ccnxh8e3.s:1118   .text:0000000000000648 .L0 
     /tmp/ccnxh8e3.s:1120   .text:000000000000064c .L0 
GAS LISTING /tmp/ccnxh8e3.s 			page 53


     /tmp/ccnxh8e3.s:1121   .text:000000000000064c .L0 
     /tmp/ccnxh8e3.s:1123   .text:0000000000000650 .L0 
     /tmp/ccnxh8e3.s:1125   .text:0000000000000654 .L0 
     /tmp/ccnxh8e3.s:1126   .text:0000000000000654 .L0 
     /tmp/ccnxh8e3.s:1131   .text:0000000000000660 .L0 
     /tmp/ccnxh8e3.s:1133   .text:0000000000000664 .L0 
     /tmp/ccnxh8e3.s:1134   .text:0000000000000664 .L0 
     /tmp/ccnxh8e3.s:1138   .text:000000000000066c .L0 
     /tmp/ccnxh8e3.s:1139   .text:000000000000066c .L0 
     /tmp/ccnxh8e3.s:1143   .text:0000000000000678 .L0 
     /tmp/ccnxh8e3.s:1145   .text:000000000000067c .L0 
     /tmp/ccnxh8e3.s:1146   .text:0000000000000680 .L0 
     /tmp/ccnxh8e3.s:1148   .text:0000000000000684 .L0 
     /tmp/ccnxh8e3.s:1149   .text:0000000000000684 .L0 
     /tmp/ccnxh8e3.s:1151   .text:0000000000000688 .L0 
     /tmp/ccnxh8e3.s:1154   .text:000000000000068c .L0 
     /tmp/ccnxh8e3.s:1157   .text:0000000000000690 .L0 
     /tmp/ccnxh8e3.s:1160   .text:0000000000000694 .L0 
     /tmp/ccnxh8e3.s:1163   .text:0000000000000698 .L0 
     /tmp/ccnxh8e3.s:1165   .text:000000000000069c .L0 
     /tmp/ccnxh8e3.s:1176   .text:000000000000069c _ZN5Cache13allBufferInfoEv
     /tmp/ccnxh8e3.s:1179   .text:000000000000069c .L0 
     /tmp/ccnxh8e3.s:1180   .text:000000000000069c .L0 
     /tmp/ccnxh8e3.s:1181   .text:00000000000006a0 .L0 
     /tmp/ccnxh8e3.s:1185   .text:00000000000006ac .L0 
     /tmp/ccnxh8e3.s:1186   .text:00000000000006ac .L0 
     /tmp/ccnxh8e3.s:1187   .text:00000000000006ac .L0 
     /tmp/ccnxh8e3.s:1189   .text:00000000000006b0 .L0 
     /tmp/ccnxh8e3.s:1191   .text:00000000000006b0 .L0 
     /tmp/ccnxh8e3.s:1192   .text:00000000000006b0 .L0 
     /tmp/ccnxh8e3.s:1197   .text:00000000000006c0 .L0 
     /tmp/ccnxh8e3.s:1198   .text:00000000000006c0 .L0 
     /tmp/ccnxh8e3.s:1203   .text:00000000000006c8 .L0 
     /tmp/ccnxh8e3.s:1204   .text:00000000000006c8 .L0 
     /tmp/ccnxh8e3.s:1207   .text:00000000000006d0 .L0 
     /tmp/ccnxh8e3.s:1208   .text:00000000000006d0 .L0 
     /tmp/ccnxh8e3.s:1213   .text:00000000000006e0 .L0 
     /tmp/ccnxh8e3.s:1217   .text:00000000000006e4 .L0 
     /tmp/ccnxh8e3.s:1220   .text:00000000000006ec .L0 
     /tmp/ccnxh8e3.s:1221   .text:00000000000006ec .L0 
     /tmp/ccnxh8e3.s:1226   .text:0000000000000700 .L0 
     /tmp/ccnxh8e3.s:1231   .text:0000000000000708 .L0 
     /tmp/ccnxh8e3.s:1232   .text:000000000000070c .L0 
     /tmp/ccnxh8e3.s:1234   .text:0000000000000710 .L0 
     /tmp/ccnxh8e3.s:1235   .text:0000000000000710 .L0 
     /tmp/ccnxh8e3.s:1237   .text:0000000000000714 .L0 
     /tmp/ccnxh8e3.s:1240   .text:0000000000000718 .L0 
     /tmp/ccnxh8e3.s:1242   .text:000000000000071c .L0 
     /tmp/ccnxh8e3.s:1248   .text:000000000000071c _ZN5Cache4Slab17calculateNewStateEv
     /tmp/ccnxh8e3.s:1251   .text:000000000000071c .L0 
     /tmp/ccnxh8e3.s:1253   .text:000000000000071c .L0 
     /tmp/ccnxh8e3.s:1254   .text:0000000000000720 .L0 
     /tmp/ccnxh8e3.s:1256   .text:0000000000000724 .L0 
     /tmp/ccnxh8e3.s:1258   .text:0000000000000728 .L0 
     /tmp/ccnxh8e3.s:1260   .text:0000000000000728 .L0 
     /tmp/ccnxh8e3.s:1261   .text:0000000000000728 .L0 
     /tmp/ccnxh8e3.s:1263   .text:000000000000072c .L0 
GAS LISTING /tmp/ccnxh8e3.s 			page 54


     /tmp/ccnxh8e3.s:1265   .text:0000000000000730 .L0 
     /tmp/ccnxh8e3.s:1266   .text:0000000000000730 .L0 
     /tmp/ccnxh8e3.s:1268   .text:0000000000000734 .L0 
     /tmp/ccnxh8e3.s:1270   .text:0000000000000738 .L0 
     /tmp/ccnxh8e3.s:1272   .text:000000000000073c .L0 
     /tmp/ccnxh8e3.s:1276   .text:0000000000000740 .L0 
     /tmp/ccnxh8e3.s:1277   .text:0000000000000744 .L0 
     /tmp/ccnxh8e3.s:1278   .text:0000000000000744 .L0 
     /tmp/ccnxh8e3.s:1279   .text:0000000000000744 .L0 
     /tmp/ccnxh8e3.s:1281   .text:0000000000000748 .L0 
     /tmp/ccnxh8e3.s:1285   .text:000000000000074c .L0 
     /tmp/ccnxh8e3.s:1287   .text:000000000000074c .L0 
     /tmp/ccnxh8e3.s:1293   .text:0000000000000754 .L0 
     /tmp/ccnxh8e3.s:1296   .text:000000000000075c .L0 
     /tmp/ccnxh8e3.s:1302   .text:000000000000075c _ZN5Cache8freeSlotEPNS_4SlotE
     /tmp/ccnxh8e3.s:1305   .text:000000000000075c .L0 
     /tmp/ccnxh8e3.s:1307   .text:000000000000075c .L0 
     /tmp/ccnxh8e3.s:1308   .text:0000000000000760 .L0 
     /tmp/ccnxh8e3.s:1314   .text:0000000000000774 .L0 
     /tmp/ccnxh8e3.s:1315   .text:0000000000000774 .L0 
     /tmp/ccnxh8e3.s:1316   .text:0000000000000774 .L0 
     /tmp/ccnxh8e3.s:1317   .text:0000000000000774 .L0 
     /tmp/ccnxh8e3.s:1318   .text:0000000000000774 .L0 
     /tmp/ccnxh8e3.s:1320   .text:0000000000000778 .L0 
     /tmp/ccnxh8e3.s:1322   .text:0000000000000778 .L0 
     /tmp/ccnxh8e3.s:1323   .text:0000000000000778 .L0 
     /tmp/ccnxh8e3.s:1325   .text:000000000000077c .L0 
     /tmp/ccnxh8e3.s:1327   .text:0000000000000780 .L0 
     /tmp/ccnxh8e3.s:1329   .text:0000000000000784 .L0 
     /tmp/ccnxh8e3.s:1330   .text:0000000000000784 .L0 
     /tmp/ccnxh8e3.s:1335   .text:000000000000078c .L0 
     /tmp/ccnxh8e3.s:1336   .text:000000000000078c .L0 
     /tmp/ccnxh8e3.s:1337   .text:0000000000000790 .L0 
     /tmp/ccnxh8e3.s:1338   .text:0000000000000790 .L0 
     /tmp/ccnxh8e3.s:1340   .text:0000000000000794 .L0 
     /tmp/ccnxh8e3.s:1341   .text:0000000000000794 .L0 
     /tmp/ccnxh8e3.s:1343   .text:0000000000000798 .L0 
     /tmp/ccnxh8e3.s:1345   .text:000000000000079c .L0 
     /tmp/ccnxh8e3.s:1347   .text:00000000000007a0 .L0 
     /tmp/ccnxh8e3.s:1349   .text:00000000000007a4 .L0 
     /tmp/ccnxh8e3.s:1353   .text:00000000000007a8 .L0 
     /tmp/ccnxh8e3.s:1355   .text:00000000000007a8 .L0 
     /tmp/ccnxh8e3.s:1356   .text:00000000000007a8 .L0 
     /tmp/ccnxh8e3.s:1357   .text:00000000000007a8 .L0 
     /tmp/ccnxh8e3.s:1358   .text:00000000000007a8 .L0 
     /tmp/ccnxh8e3.s:1360   .text:00000000000007ac .L0 
     /tmp/ccnxh8e3.s:1361   .text:00000000000007ac .L0 
     /tmp/ccnxh8e3.s:1363   .text:00000000000007b0 .L0 
     /tmp/ccnxh8e3.s:1366   .text:00000000000007b8 .L0 
     /tmp/ccnxh8e3.s:1367   .text:00000000000007b8 .L0 
     /tmp/ccnxh8e3.s:1374   .text:00000000000007c8 .L0 
     /tmp/ccnxh8e3.s:1375   .text:00000000000007c8 .L0 
     /tmp/ccnxh8e3.s:1377   .text:00000000000007cc .L0 
     /tmp/ccnxh8e3.s:1379   .text:00000000000007d0 .L0 
     /tmp/ccnxh8e3.s:1384   .text:00000000000007d8 .L0 
     /tmp/ccnxh8e3.s:1385   .text:00000000000007d8 .L0 
     /tmp/ccnxh8e3.s:1394   .text:00000000000007f0 .L0 
GAS LISTING /tmp/ccnxh8e3.s 			page 55


     /tmp/ccnxh8e3.s:1395   .text:00000000000007f0 .L0 
     /tmp/ccnxh8e3.s:1401   .text:0000000000000804 .L0 
     /tmp/ccnxh8e3.s:1407   .text:0000000000000804 _ZN5Cache10freeBufferEPNS_4SlotE
     /tmp/ccnxh8e3.s:1410   .text:0000000000000804 .L0 
     /tmp/ccnxh8e3.s:1412   .text:0000000000000804 .L0 
     /tmp/ccnxh8e3.s:1413   .text:0000000000000808 .L0 
     /tmp/ccnxh8e3.s:1416   .text:0000000000000810 .L0 
     /tmp/ccnxh8e3.s:1417   .text:0000000000000810 .L0 
     /tmp/ccnxh8e3.s:1419   .text:0000000000000814 .L0 
     /tmp/ccnxh8e3.s:1422   .text:0000000000000818 .L0 
     /tmp/ccnxh8e3.s:1423   .text:0000000000000818 .L0 
     /tmp/ccnxh8e3.s:1426   .text:000000000000081c .L0 
     /tmp/ccnxh8e3.s:1427   .text:000000000000081c .L0 
     /tmp/ccnxh8e3.s:1432   .text:0000000000000828 .L0 
     /tmp/ccnxh8e3.s:1433   .text:000000000000082c .L0 
     /tmp/ccnxh8e3.s:1435   .text:0000000000000830 .L0 
     /tmp/ccnxh8e3.s:1436   .text:0000000000000830 .L0 
     /tmp/ccnxh8e3.s:1438   .text:0000000000000834 .L0 
     /tmp/ccnxh8e3.s:1440   .text:0000000000000838 .L0 
     /tmp/ccnxh8e3.s:1446   .text:0000000000000838 _ZN5Cache4Slab11getFreeSlotEv
     /tmp/ccnxh8e3.s:1449   .text:0000000000000838 .L0 
     /tmp/ccnxh8e3.s:1451   .text:0000000000000838 .L0 
     /tmp/ccnxh8e3.s:1452   .text:000000000000083c .L0 
     /tmp/ccnxh8e3.s:1458   .text:0000000000000850 .L0 
     /tmp/ccnxh8e3.s:1459   .text:0000000000000850 .L0 
     /tmp/ccnxh8e3.s:1460   .text:0000000000000850 .L0 
     /tmp/ccnxh8e3.s:1461   .text:0000000000000850 .L0 
     /tmp/ccnxh8e3.s:1462   .text:0000000000000850 .L0 
     /tmp/ccnxh8e3.s:1464   .text:0000000000000854 .L0 
     /tmp/ccnxh8e3.s:1466   .text:0000000000000854 .L0 
     /tmp/ccnxh8e3.s:1467   .text:0000000000000854 .L0 
     /tmp/ccnxh8e3.s:1469   .text:0000000000000858 .L0 
     /tmp/ccnxh8e3.s:1472   .text:0000000000000860 .L0 
     /tmp/ccnxh8e3.s:1474   .text:0000000000000864 .L0 
     /tmp/ccnxh8e3.s:1480   .text:000000000000086c .L0 
     /tmp/ccnxh8e3.s:1485   .text:0000000000000870 .L0 
     /tmp/ccnxh8e3.s:1486   .text:0000000000000870 .L0 
     /tmp/ccnxh8e3.s:1488   .text:0000000000000874 .L0 
     /tmp/ccnxh8e3.s:1491   .text:0000000000000878 .L0 
     /tmp/ccnxh8e3.s:1492   .text:0000000000000878 .L0 
     /tmp/ccnxh8e3.s:1495   .text:000000000000087c .L0 
     /tmp/ccnxh8e3.s:1500   .text:0000000000000880 .L0 
     /tmp/ccnxh8e3.s:1501   .text:0000000000000880 .L0 
     /tmp/ccnxh8e3.s:1503   .text:0000000000000884 .L0 
     /tmp/ccnxh8e3.s:1506   .text:000000000000088c .L0 
     /tmp/ccnxh8e3.s:1507   .text:000000000000088c .L0 
     /tmp/ccnxh8e3.s:1510   .text:0000000000000894 .L0 
     /tmp/ccnxh8e3.s:1511   .text:0000000000000894 .L0 
     /tmp/ccnxh8e3.s:1513   .text:0000000000000898 .L0 
     /tmp/ccnxh8e3.s:1514   .text:0000000000000898 .L0 
     /tmp/ccnxh8e3.s:1521   .text:00000000000008a8 .L0 
     /tmp/ccnxh8e3.s:1522   .text:00000000000008a8 .L0 
     /tmp/ccnxh8e3.s:1524   .text:00000000000008ac .L0 
     /tmp/ccnxh8e3.s:1526   .text:00000000000008b0 .L0 
     /tmp/ccnxh8e3.s:1531   .text:00000000000008b8 .L0 
     /tmp/ccnxh8e3.s:1532   .text:00000000000008b8 .L0 
     /tmp/ccnxh8e3.s:1542   .text:00000000000008cc .L0 
GAS LISTING /tmp/ccnxh8e3.s 			page 56


     /tmp/ccnxh8e3.s:1543   .text:00000000000008cc .L0 
     /tmp/ccnxh8e3.s:1545   .text:00000000000008d4 .L0 
     /tmp/ccnxh8e3.s:1546   .text:00000000000008d4 .L0 
     /tmp/ccnxh8e3.s:1548   .text:00000000000008d8 .L0 
     /tmp/ccnxh8e3.s:1549   .text:00000000000008d8 .L0 
     /tmp/ccnxh8e3.s:1551   .text:00000000000008dc .L0 
     /tmp/ccnxh8e3.s:1553   .text:00000000000008e0 .L0 
     /tmp/ccnxh8e3.s:1555   .text:00000000000008e4 .L0 
     /tmp/ccnxh8e3.s:1557   .text:00000000000008e8 .L0 
     /tmp/ccnxh8e3.s:1561   .text:00000000000008ec .L0 
     /tmp/ccnxh8e3.s:1566   .text:00000000000008ec .L0 
     /tmp/ccnxh8e3.s:1567   .text:00000000000008ec .L0 
     /tmp/ccnxh8e3.s:1579   .text:0000000000000900 .L0 
     /tmp/ccnxh8e3.s:1581   .text:0000000000000908 .L0 
     /tmp/ccnxh8e3.s:1587   .text:0000000000000908 _ZN5Cache12allocateSlotEv
     /tmp/ccnxh8e3.s:1590   .text:0000000000000908 .L0 
     /tmp/ccnxh8e3.s:1592   .text:0000000000000908 .L0 
     /tmp/ccnxh8e3.s:1593   .text:000000000000090c .L0 
     /tmp/ccnxh8e3.s:1596   .text:0000000000000914 .L0 
     /tmp/ccnxh8e3.s:1597   .text:0000000000000914 .L0 
     /tmp/ccnxh8e3.s:1599   .text:0000000000000918 .L0 
     /tmp/ccnxh8e3.s:1603   .text:000000000000091c .L0 
     /tmp/ccnxh8e3.s:1604   .text:000000000000091c .L0 
     /tmp/ccnxh8e3.s:1607   .text:0000000000000920 .L0 
     /tmp/ccnxh8e3.s:1611   .text:0000000000000924 .L0 
     /tmp/ccnxh8e3.s:1612   .text:0000000000000924 .L0 
     /tmp/ccnxh8e3.s:1613   .text:0000000000000924 .L0 
     /tmp/ccnxh8e3.s:1619   .text:000000000000092c .L0 
     /tmp/ccnxh8e3.s:1620   .text:0000000000000930 .L0 
     /tmp/ccnxh8e3.s:1621   .text:0000000000000930 .L0 
     /tmp/ccnxh8e3.s:1623   .text:0000000000000934 .L0 
     /tmp/ccnxh8e3.s:1624   .text:0000000000000934 .L0 
     /tmp/ccnxh8e3.s:1626   .text:0000000000000938 .L0 
     /tmp/ccnxh8e3.s:1630   .text:000000000000093c .L0 
     /tmp/ccnxh8e3.s:1634   .text:000000000000093c .L0 
     /tmp/ccnxh8e3.s:1635   .text:000000000000093c .L0 
     /tmp/ccnxh8e3.s:1637   .text:0000000000000940 .L0 
     /tmp/ccnxh8e3.s:1641   .text:0000000000000944 .L0 
     /tmp/ccnxh8e3.s:1642   .text:0000000000000944 .L0 
     /tmp/ccnxh8e3.s:1643   .text:0000000000000944 .L0 
     /tmp/ccnxh8e3.s:1646   .text:000000000000094c .L0 
     /tmp/ccnxh8e3.s:1647   .text:000000000000094c .L0 
     /tmp/ccnxh8e3.s:1654   .text:0000000000000950 .L0 
     /tmp/ccnxh8e3.s:1655   .text:0000000000000950 .L0 
     /tmp/ccnxh8e3.s:1659   .text:000000000000095c .L0 
     /tmp/ccnxh8e3.s:1660   .text:000000000000095c .L0 
     /tmp/ccnxh8e3.s:1663   .text:0000000000000964 .L0 
     /tmp/ccnxh8e3.s:1664   .text:0000000000000968 .L0 
     /tmp/ccnxh8e3.s:1670   .text:0000000000000968 _ZN5Cache14allocateBufferEm
     /tmp/ccnxh8e3.s:1673   .text:0000000000000968 .L0 
     /tmp/ccnxh8e3.s:1675   .text:0000000000000968 .L0 
     /tmp/ccnxh8e3.s:1676   .text:000000000000096c .L0 
     /tmp/ccnxh8e3.s:1681   .text:000000000000097c .L0 
     /tmp/ccnxh8e3.s:1682   .text:000000000000097c .L0 
     /tmp/ccnxh8e3.s:1683   .text:000000000000097c .L0 
     /tmp/ccnxh8e3.s:1684   .text:000000000000097c .L0 
     /tmp/ccnxh8e3.s:1686   .text:0000000000000980 .L0 
GAS LISTING /tmp/ccnxh8e3.s 			page 57


     /tmp/ccnxh8e3.s:1688   .text:0000000000000980 .L0 
     /tmp/ccnxh8e3.s:1689   .text:0000000000000980 .L0 
     /tmp/ccnxh8e3.s:1692   .text:0000000000000988 .L0 
     /tmp/ccnxh8e3.s:1693   .text:0000000000000988 .L0 
     /tmp/ccnxh8e3.s:1695   .text:000000000000098c .L0 
     /tmp/ccnxh8e3.s:1700   .text:0000000000000998 .L0 
     /tmp/ccnxh8e3.s:1701   .text:0000000000000998 .L0 
     /tmp/ccnxh8e3.s:1702   .text:0000000000000998 .L0 
     /tmp/ccnxh8e3.s:1707   .text:00000000000009ac .L0 
     /tmp/ccnxh8e3.s:1711   .text:00000000000009b0 .L0 
     /tmp/ccnxh8e3.s:1712   .text:00000000000009b0 .L0 
     /tmp/ccnxh8e3.s:1717   .text:00000000000009c0 .L0 
     /tmp/ccnxh8e3.s:1722   .text:00000000000009cc .L0 
     /tmp/ccnxh8e3.s:1723   .text:00000000000009d0 .L0 
     /tmp/ccnxh8e3.s:1724   .text:00000000000009d0 .L0 
     /tmp/ccnxh8e3.s:1726   .text:00000000000009d4 .L0 
     /tmp/ccnxh8e3.s:1727   .text:00000000000009d4 .L0 
     /tmp/ccnxh8e3.s:1729   .text:00000000000009d8 .L0 
     /tmp/ccnxh8e3.s:1731   .text:00000000000009dc .L0 
     /tmp/ccnxh8e3.s:1733   .text:00000000000009e0 .L0 
     /tmp/ccnxh8e3.s:1737   .text:00000000000009e4 .L0 
     /tmp/ccnxh8e3.s:1739   .text:00000000000009e4 .L0 
     /tmp/ccnxh8e3.s:1740   .text:00000000000009e4 .L0 
     /tmp/ccnxh8e3.s:1743   .text:00000000000009ec .L0 
     /tmp/ccnxh8e3.s:1748   .text:0000000000000a00 .L0 
     /tmp/ccnxh8e3.s:1749   .text:0000000000000a00 .L0 
     /tmp/ccnxh8e3.s:1762   .text:0000000000000a2c .L0 
     /tmp/ccnxh8e3.s:1765   .text:0000000000000a34 .L0 
     /tmp/ccnxh8e3.s:1815   .bss:0000000000000000 _ZN5Cache11bufferCacheE
     /tmp/ccnxh8e3.s:1822   .data.rel.local:0000000000000000 _ZN5Cache11bufferNamesE
     /tmp/ccnxh8e3.s:1812   .bss:0000000000000000 .LANCHOR0
     /tmp/ccnxh8e3.s:1819   .data.rel.local:0000000000000000 .LANCHOR1
     /tmp/ccnxh8e3.s:1843   .text:0000000000000a34 .L0 
     /tmp/ccnxh8e3.s:191    .rodata.str1.8:0000000000000020 .LC1
     /tmp/ccnxh8e3.s:224    .text:0000000000000108 .L0 
     /tmp/ccnxh8e3.s:188    .rodata.str1.8:0000000000000000 .LC0
     /tmp/ccnxh8e3.s:248    .text:0000000000000130 .L0 
     /tmp/ccnxh8e3.s:341    .rodata.str1.8:0000000000000048 .LC2
     /tmp/ccnxh8e3.s:384    .text:00000000000001e0 .L0 
     /tmp/ccnxh8e3.s:396    .text:0000000000000204 .L0 
     /tmp/ccnxh8e3.s:410    .text:000000000000022c .L0 
     /tmp/ccnxh8e3.s:422    .text:0000000000000250 .L0 
     /tmp/ccnxh8e3.s:434    .text:0000000000000274 .L0 
     /tmp/ccnxh8e3.s:446    .text:0000000000000298 .L0 
     /tmp/ccnxh8e3.s:344    .rodata.str1.8:0000000000000050 .LC3
     /tmp/ccnxh8e3.s:458    .text:00000000000002bc .L0 
     /tmp/ccnxh8e3.s:1170   .rodata.str1.8:0000000000000058 .LC4
     /tmp/ccnxh8e3.s:1192   .text:00000000000006b0 .L0 
     /tmp/ccnxh8e3.s:1208   .text:00000000000006d0 .L0 
     /tmp/ccnxh8e3.s:1222   .text:00000000000006f0 .L0 
     /tmp/ccnxh8e3.s:1703   .text:000000000000099c .L0 
     /tmp/ccnxh8e3.s:1714   .text:00000000000009b4 .L0 
     /tmp/ccnxh8e3.s:1744   .text:00000000000009f0 .L0 
     /tmp/ccnxh8e3.s:1749   .text:0000000000000a00 .L0 
     /tmp/ccnxh8e3.s:82     .text:0000000000000068 .L3
     /tmp/ccnxh8e3.s:74     .text:000000000000005c .L5
     /tmp/ccnxh8e3.s:158    .text:00000000000000c4 .L7
GAS LISTING /tmp/ccnxh8e3.s 			page 58


     /tmp/ccnxh8e3.s:143    .text:00000000000000b4 .L14
     /tmp/ccnxh8e3.s:127    .text:00000000000000a0 .L12
     /tmp/ccnxh8e3.s:169    .text:00000000000000d0 .L10
     /tmp/ccnxh8e3.s:152    .text:00000000000000c0 .L11
     /tmp/ccnxh8e3.s:243    .text:0000000000000130 .L18
     /tmp/ccnxh8e3.s:220    .text:0000000000000108 .L16
     /tmp/ccnxh8e3.s:287    .text:0000000000000164 .L23
     /tmp/ccnxh8e3.s:320    .text:0000000000000190 .L20
     /tmp/ccnxh8e3.s:282    .text:0000000000000160 .L21
     /tmp/ccnxh8e3.s:300    .text:0000000000000178 .L22
     /tmp/ccnxh8e3.s:535    .text:0000000000000338 .L28
     /tmp/ccnxh8e3.s:528    .text:0000000000000330 .L29
     /tmp/ccnxh8e3.s:513    .text:0000000000000314 .L31
     /tmp/ccnxh8e3.s:622    .text:00000000000003ac .L33
     /tmp/ccnxh8e3.s:597    .text:000000000000038c .L34
     /tmp/ccnxh8e3.s:683    .text:00000000000003fc .L40
     /tmp/ccnxh8e3.s:716    .text:000000000000042c .L36
     /tmp/ccnxh8e3.s:679    .text:00000000000003f8 .L38
     /tmp/ccnxh8e3.s:694    .text:0000000000000410 .L39
     /tmp/ccnxh8e3.s:783    .text:000000000000047c .L43
     /tmp/ccnxh8e3.s:764    .text:0000000000000464 .L44
     /tmp/ccnxh8e3.s:791    .text:0000000000000484 .L42
     /tmp/ccnxh8e3.s:888    .text:0000000000000508 .L52
     /tmp/ccnxh8e3.s:934    .text:000000000000054c .L47
     /tmp/ccnxh8e3.s:912    .text:000000000000052c .L49
     /tmp/ccnxh8e3.s:868    .text:00000000000004f8 .L50
     /tmp/ccnxh8e3.s:874    .text:00000000000004fc .L51
     /tmp/ccnxh8e3.s:1039   .text:00000000000005d0 .L56
     /tmp/ccnxh8e3.s:1017   .text:00000000000005b0 .L58
     /tmp/ccnxh8e3.s:1100   .text:0000000000000630 .L62
     /tmp/ccnxh8e3.s:1091   .text:0000000000000620 .L65
     /tmp/ccnxh8e3.s:1136   .text:000000000000066c .L63
     /tmp/ccnxh8e3.s:1215   .text:00000000000006e4 .L69
     /tmp/ccnxh8e3.s:1228   .text:0000000000000708 .L66
     /tmp/ccnxh8e3.s:1201   .text:00000000000006c8 .L71
     /tmp/ccnxh8e3.s:1211   .text:00000000000006e0 .L68
     /tmp/ccnxh8e3.s:1284   .text:000000000000074c .L74
     /tmp/ccnxh8e3.s:1291   .text:0000000000000754 .L75
     /tmp/ccnxh8e3.s:1274   .text:0000000000000740 .L73
     /tmp/ccnxh8e3.s:1352   .text:00000000000007a8 .L78
     /tmp/ccnxh8e3.s:1334   .text:000000000000078c .L77
     /tmp/ccnxh8e3.s:1392   .text:00000000000007f0 .L82
     /tmp/ccnxh8e3.s:1382   .text:00000000000007d8 .L80
     /tmp/ccnxh8e3.s:1538   .text:00000000000008cc .L85
     /tmp/ccnxh8e3.s:1574   .text:0000000000000900 .L91
     /tmp/ccnxh8e3.s:1496   .text:0000000000000880 .L93
     /tmp/ccnxh8e3.s:1476   .text:000000000000086c .L90
     /tmp/ccnxh8e3.s:1560   .text:00000000000008ec .L94
     /tmp/ccnxh8e3.s:1529   .text:00000000000008b8 .L89
     /tmp/ccnxh8e3.s:1629   .text:000000000000093c .L96
     /tmp/ccnxh8e3.s:1649   .text:0000000000000950 .L98
     /tmp/ccnxh8e3.s:1615   .text:000000000000092c .L95
     /tmp/ccnxh8e3.s:1760   .text:0000000000000a2c .L103
     /tmp/ccnxh8e3.s:1736   .text:00000000000009e4 .L105
     /tmp/ccnxh8e3.s:1709   .text:00000000000009b0 .L102
     /tmp/ccnxh8e3.s:1720   .text:00000000000009cc .L100
     /tmp/ccnxh8e3.s:1772   .rodata.str1.8:00000000000000d8 .LC5
GAS LISTING /tmp/ccnxh8e3.s 			page 59


     /tmp/ccnxh8e3.s:1775   .rodata.str1.8:00000000000000e0 .LC6
     /tmp/ccnxh8e3.s:1778   .rodata.str1.8:00000000000000e8 .LC7
     /tmp/ccnxh8e3.s:1781   .rodata.str1.8:00000000000000f8 .LC8
     /tmp/ccnxh8e3.s:1784   .rodata.str1.8:0000000000000108 .LC9
     /tmp/ccnxh8e3.s:1787   .rodata.str1.8:0000000000000118 .LC10
     /tmp/ccnxh8e3.s:1790   .rodata.str1.8:0000000000000128 .LC11
     /tmp/ccnxh8e3.s:1793   .rodata.str1.8:0000000000000138 .LC12
     /tmp/ccnxh8e3.s:1796   .rodata.str1.8:0000000000000148 .LC13
     /tmp/ccnxh8e3.s:1799   .rodata.str1.8:0000000000000158 .LC14
     /tmp/ccnxh8e3.s:1802   .rodata.str1.8:0000000000000168 .LC15
     /tmp/ccnxh8e3.s:1805   .rodata.str1.8:0000000000000178 .LC16
     /tmp/ccnxh8e3.s:1808   .rodata.str1.8:0000000000000188 .LC17
     /tmp/ccnxh8e3.s:4113   .debug_abbrev:0000000000000000 .Ldebug_abbrev0
     /tmp/ccnxh8e3.s:6292   .debug_str:0000000000000082 .LASF155
     /tmp/ccnxh8e3.s:6278   .debug_str:000000000000001b .LASF156
     /tmp/ccnxh8e3.s:6376   .debug_str:00000000000003b5 .LASF157
     /tmp/ccnxh8e3.s:5      .text:0000000000000000 .Ltext0
     /tmp/ccnxh8e3.s:1837   .text:0000000000000a34 .Letext0
     /tmp/ccnxh8e3.s:6272   .debug_line:0000000000000000 .Ldebug_line0
     /tmp/ccnxh8e3.s:6380   .debug_str:00000000000003e4 .LASF0
     /tmp/ccnxh8e3.s:6404   .debug_str:000000000000048c .LASF1
     /tmp/ccnxh8e3.s:6490   .debug_str:0000000000000750 .LASF2
     /tmp/ccnxh8e3.s:6496   .debug_str:0000000000000779 .LASF4
     /tmp/ccnxh8e3.s:6386   .debug_str:0000000000000407 .LASF3
     /tmp/ccnxh8e3.s:6284   .debug_str:0000000000000040 .LASF5
     /tmp/ccnxh8e3.s:6466   .debug_str:0000000000000693 .LASF6
     /tmp/ccnxh8e3.s:6394   .debug_str:0000000000000457 .LASF7
     /tmp/ccnxh8e3.s:6360   .debug_str:0000000000000337 .LASF8
     /tmp/ccnxh8e3.s:6368   .debug_str:0000000000000371 .LASF9
     /tmp/ccnxh8e3.s:6318   .debug_str:00000000000001f1 .LASF10
     /tmp/ccnxh8e3.s:6348   .debug_str:00000000000002f3 .LASF11
     /tmp/ccnxh8e3.s:6330   .debug_str:0000000000000237 .LASF12
     /tmp/ccnxh8e3.s:6316   .debug_str:00000000000001e1 .LASF13
     /tmp/ccnxh8e3.s:6530   .debug_str:00000000000008a7 .LASF14
     /tmp/ccnxh8e3.s:6338   .debug_str:0000000000000276 .LASF15
     /tmp/ccnxh8e3.s:6520   .debug_str:000000000000083a .LASF16
     /tmp/ccnxh8e3.s:6562   .debug_str:000000000000099b .LASF88
     /tmp/ccnxh8e3.s:6332   .debug_str:0000000000000247 .LASF158
     /tmp/ccnxh8e3.s:6486   .debug_str:0000000000000743 .LASF17
     /tmp/ccnxh8e3.s:6516   .debug_str:0000000000000823 .LASF18
     /tmp/ccnxh8e3.s:6576   .debug_str:0000000000000a64 .LASF159
     /tmp/ccnxh8e3.s:6306   .debug_str:00000000000001a2 .LASF19
     /tmp/ccnxh8e3.s:6362   .debug_str:0000000000000347 .LASF20
     /tmp/ccnxh8e3.s:6460   .debug_str:000000000000067e .LASF21
     /tmp/ccnxh8e3.s:6480   .debug_str:0000000000000723 .LASF22
     /tmp/ccnxh8e3.s:6398   .debug_str:0000000000000476 .LASF26
     /tmp/ccnxh8e3.s:6446   .debug_str:000000000000060c .LASF23
     /tmp/ccnxh8e3.s:6320   .debug_str:0000000000000200 .LASF24
     /tmp/ccnxh8e3.s:6310   .debug_str:00000000000001ad .LASF25
     /tmp/ccnxh8e3.s:6542   .debug_str:00000000000008fb .LASF27
     /tmp/ccnxh8e3.s:6344   .debug_str:00000000000002c1 .LASF28
     /tmp/ccnxh8e3.s:6336   .debug_str:0000000000000270 .LASF29
     /tmp/ccnxh8e3.s:6356   .debug_str:0000000000000323 .LASF30
     /tmp/ccnxh8e3.s:6296   .debug_str:0000000000000157 .LASF58
     /tmp/ccnxh8e3.s:6430   .debug_str:0000000000000572 .LASF60
     /tmp/ccnxh8e3.s:6518   .debug_str:0000000000000831 .LASF31
     /tmp/ccnxh8e3.s:6458   .debug_str:000000000000066c .LASF34
GAS LISTING /tmp/ccnxh8e3.s 			page 60


     /tmp/ccnxh8e3.s:6300   .debug_str:000000000000016c .LASF36
     /tmp/ccnxh8e3.s:6474   .debug_str:00000000000006da .LASF32
     /tmp/ccnxh8e3.s:6412   .debug_str:00000000000004de .LASF33
     /tmp/ccnxh8e3.s:6484   .debug_str:0000000000000737 .LASF35
     /tmp/ccnxh8e3.s:6558   .debug_str:000000000000096e .LASF37
     /tmp/ccnxh8e3.s:6478   .debug_str:0000000000000714 .LASF38
     /tmp/ccnxh8e3.s:6370   .debug_str:000000000000037f .LASF39
     /tmp/ccnxh8e3.s:6364   .debug_str:000000000000034f .LASF40
     /tmp/ccnxh8e3.s:6586   .debug_str:0000000000000ab2 .LASF41
     /tmp/ccnxh8e3.s:6350   .debug_str:0000000000000302 .LASF42
     /tmp/ccnxh8e3.s:6298   .debug_str:0000000000000163 .LASF43
     /tmp/ccnxh8e3.s:6456   .debug_str:0000000000000663 .LASF44
     /tmp/ccnxh8e3.s:6280   .debug_str:0000000000000029 .LASF45
     /tmp/ccnxh8e3.s:6396   .debug_str:000000000000046a .LASF46
     /tmp/ccnxh8e3.s:6464   .debug_str:0000000000000688 .LASF47
     /tmp/ccnxh8e3.s:6544   .debug_str:0000000000000900 .LASF48
     /tmp/ccnxh8e3.s:6578   .debug_str:0000000000000a6e .LASF49
     /tmp/ccnxh8e3.s:6426   .debug_str:000000000000053e .LASF50
     /tmp/ccnxh8e3.s:6482   .debug_str:000000000000072b .LASF51
     /tmp/ccnxh8e3.s:6342   .debug_str:00000000000002a7 .LASF52
     /tmp/ccnxh8e3.s:6290   .debug_str:0000000000000074 .LASF53
     /tmp/ccnxh8e3.s:6314   .debug_str:00000000000001d3 .LASF54
     /tmp/ccnxh8e3.s:6358   .debug_str:000000000000032f .LASF55
     /tmp/ccnxh8e3.s:6590   .debug_str:0000000000000ac6 .LASF56
     /tmp/ccnxh8e3.s:6522   .debug_str:0000000000000850 .LASF57
     /tmp/ccnxh8e3.s:6512   .debug_str:0000000000000805 .LASF121
     /tmp/ccnxh8e3.s:6452   .debug_str:0000000000000645 .LASF123
     /tmp/ccnxh8e3.s:6514   .debug_str:0000000000000811 .LASF64
     /tmp/ccnxh8e3.s:6334   .debug_str:0000000000000251 .LASF66
     /tmp/ccnxh8e3.s:6354   .debug_str:0000000000000314 .LASF59
     /tmp/ccnxh8e3.s:6432   .debug_str:0000000000000590 .LASF61
     /tmp/ccnxh8e3.s:6556   .debug_str:0000000000000964 .LASF62
     /tmp/ccnxh8e3.s:6286   .debug_str:0000000000000047 .LASF63
     /tmp/ccnxh8e3.s:6390   .debug_str:000000000000043d .LASF65
     /tmp/ccnxh8e3.s:6498   .debug_str:0000000000000780 .LASF67
     /tmp/ccnxh8e3.s:6588   .debug_str:0000000000000abd .LASF68
     /tmp/ccnxh8e3.s:6500   .debug_str:000000000000079a .LASF69
     /tmp/ccnxh8e3.s:6494   .debug_str:0000000000000768 .LASF70
     /tmp/ccnxh8e3.s:6572   .debug_str:0000000000000a17 .LASF71
     /tmp/ccnxh8e3.s:6584   .debug_str:0000000000000aa5 .LASF72
     /tmp/ccnxh8e3.s:6550   .debug_str:0000000000000935 .LASF73
     /tmp/ccnxh8e3.s:6304   .debug_str:0000000000000196 .LASF74
     /tmp/ccnxh8e3.s:6470   .debug_str:00000000000006af .LASF75
     /tmp/ccnxh8e3.s:6444   .debug_str:00000000000005ff .LASF76
     /tmp/ccnxh8e3.s:6440   .debug_str:00000000000005df .LASF77
     /tmp/ccnxh8e3.s:6428   .debug_str:0000000000000563 .LASF78
     /tmp/ccnxh8e3.s:6502   .debug_str:00000000000007b8 .LASF79
     /tmp/ccnxh8e3.s:6324   .debug_str:0000000000000211 .LASF80
     /tmp/ccnxh8e3.s:6528   .debug_str:0000000000000886 .LASF81
     /tmp/ccnxh8e3.s:6510   .debug_str:00000000000007fa .LASF82
     /tmp/ccnxh8e3.s:6420   .debug_str:000000000000051a .LASF83
     /tmp/ccnxh8e3.s:6422   .debug_str:0000000000000532 .LASF84
     /tmp/ccnxh8e3.s:6582   .debug_str:0000000000000a8e .LASF85
     /tmp/ccnxh8e3.s:6274   .debug_str:0000000000000000 .LASF113
     /tmp/ccnxh8e3.s:6438   .debug_str:00000000000005c4 .LASF115
     /tmp/ccnxh8e3.s:6424   .debug_str:0000000000000539 .LASF86
     /tmp/ccnxh8e3.s:6540   .debug_str:00000000000008f6 .LASF87
GAS LISTING /tmp/ccnxh8e3.s 			page 61


     /tmp/ccnxh8e3.s:6436   .debug_str:00000000000005b5 .LASF89
     /tmp/ccnxh8e3.s:6554   .debug_str:0000000000000959 .LASF90
     /tmp/ccnxh8e3.s:6524   .debug_str:000000000000085c .LASF91
     /tmp/ccnxh8e3.s:6308   .debug_str:00000000000001a8 .LASF92
     /tmp/ccnxh8e3.s:6400   .debug_str:000000000000047b .LASF93
     /tmp/ccnxh8e3.s:6476   .debug_str:00000000000006e4 .LASF94
     /tmp/ccnxh8e3.s:6416   .debug_str:0000000000000509 .LASF95
     /tmp/ccnxh8e3.s:6574   .debug_str:0000000000000a35 .LASF96
     /tmp/ccnxh8e3.s:6560   .debug_str:0000000000000991 .LASF97
     /tmp/ccnxh8e3.s:6552   .debug_str:000000000000094f .LASF98
     /tmp/ccnxh8e3.s:6450   .debug_str:0000000000000638 .LASF99
     /tmp/ccnxh8e3.s:6366   .debug_str:0000000000000359 .LASF100
     /tmp/ccnxh8e3.s:6442   .debug_str:00000000000005f9 .LASF101
     /tmp/ccnxh8e3.s:6546   .debug_str:000000000000090b .LASF102
     /tmp/ccnxh8e3.s:6276   .debug_str:000000000000000e .LASF103
     /tmp/ccnxh8e3.s:6388   .debug_str:0000000000000419 .LASF104
     /tmp/ccnxh8e3.s:6392   .debug_str:000000000000044a .LASF105
     /tmp/ccnxh8e3.s:6570   .debug_str:00000000000009f3 .LASF106
     /tmp/ccnxh8e3.s:6382   .debug_str:00000000000003f1 .LASF107
     /tmp/ccnxh8e3.s:6564   .debug_str:00000000000009a1 .LASF108
     /tmp/ccnxh8e3.s:6322   .debug_str:0000000000000205 .LASF109
     /tmp/ccnxh8e3.s:6346   .debug_str:00000000000002d0 .LASF110
     /tmp/ccnxh8e3.s:6568   .debug_str:00000000000009e3 .LASF111
     /tmp/ccnxh8e3.s:6534   .debug_str:00000000000008bd .LASF112
     /tmp/ccnxh8e3.s:6536   .debug_str:00000000000008e5 .LASF114
     /tmp/ccnxh8e3.s:6414   .debug_str:00000000000004e7 .LASF116
     /tmp/ccnxh8e3.s:6288   .debug_str:0000000000000069 .LASF117
     /tmp/ccnxh8e3.s:6406   .debug_str:000000000000049f .LASF118
     /tmp/ccnxh8e3.s:6532   .debug_str:00000000000008b3 .LASF119
     /tmp/ccnxh8e3.s:6448   .debug_str:0000000000000616 .LASF120
     /tmp/ccnxh8e3.s:6378   .debug_str:00000000000003da .LASF122
     /tmp/ccnxh8e3.s:6548   .debug_str:0000000000000915 .LASF124
     /tmp/ccnxh8e3.s:6312   .debug_str:00000000000001b8 .LASF125
     /tmp/ccnxh8e3.s:6492   .debug_str:000000000000075e .LASF126
     /tmp/ccnxh8e3.s:6340   .debug_str:000000000000028c .LASF127
     /tmp/ccnxh8e3.s:6410   .debug_str:00000000000004c6 .LASF128
     /tmp/ccnxh8e3.s:6566   .debug_str:00000000000009cb .LASF129
     /tmp/ccnxh8e3.s:1249   .text:000000000000071c .LFB44
     /tmp/ccnxh8e3.s:1297   .text:000000000000075c .LFE44
     /tmp/ccnxh8e3.s:6352   .debug_str:000000000000030f .LASF130
     /tmp/ccnxh8e3.s:5275   .debug_loc:0000000000000000 .LLST41
     /tmp/ccnxh8e3.s:1447   .text:0000000000000838 .LFB43
     /tmp/ccnxh8e3.s:1582   .text:0000000000000908 .LFE43
     /tmp/ccnxh8e3.s:5311   .debug_loc:000000000000008b .LLST47
     /tmp/ccnxh8e3.s:6220   .debug_ranges:0000000000000000 .Ldebug_ranges0
     /tmp/ccnxh8e3.s:6592   .debug_str:0000000000000ad2 .LASF131
     /tmp/ccnxh8e3.s:5337   .debug_loc:00000000000000fd .LLST48
     /tmp/ccnxh8e3.s:6434   .debug_str:00000000000005ac .LASF132
     /tmp/ccnxh8e3.s:5348   .debug_loc:0000000000000133 .LLST49
     /tmp/ccnxh8e3.s:1517   .text:00000000000008a4 .LVL150
     /tmp/ccnxh8e3.s:1536   .text:00000000000008cc .LVL153
     /tmp/ccnxh8e3.s:1571   .text:00000000000008fc .LVL156
     /tmp/ccnxh8e3.s:1177   .text:000000000000069c .LFB42
     /tmp/ccnxh8e3.s:1243   .text:000000000000071c .LFE42
     /tmp/ccnxh8e3.s:1196   .text:00000000000006c0 .LBB24
     /tmp/ccnxh8e3.s:1229   .text:0000000000000708 .LBE24
     /tmp/ccnxh8e3.s:5359   .debug_loc:0000000000000169 .LLST40
GAS LISTING /tmp/ccnxh8e3.s 			page 62


     /tmp/ccnxh8e3.s:1205   .text:00000000000006d0 .LVL121
     /tmp/ccnxh8e3.s:1210   .text:00000000000006e0 .LVL122
     /tmp/ccnxh8e3.s:1194   .text:00000000000006c0 .LVL119
     /tmp/ccnxh8e3.s:1001   .text:00000000000005a0 .LFB41
     /tmp/ccnxh8e3.s:1049   .text:00000000000005dc .LFE41
     /tmp/ccnxh8e3.s:6372   .debug_str:00000000000003a5 .LASF133
     /tmp/ccnxh8e3.s:6374   .debug_str:00000000000003ad .LASF134
     /tmp/ccnxh8e3.s:1013   .text:00000000000005ac .LBB22
     /tmp/ccnxh8e3.s:1040   .text:00000000000005d0 .LBE22
     /tmp/ccnxh8e3.s:5371   .debug_loc:00000000000001a0 .LLST33
     /tmp/ccnxh8e3.s:969    .text:0000000000000574 .LFB40
     /tmp/ccnxh8e3.s:995    .text:00000000000005a0 .LFE40
     /tmp/ccnxh8e3.s:984    .text:0000000000000590 .LVL102
     /tmp/ccnxh8e3.s:743    .text:0000000000000448 .LFB39
     /tmp/ccnxh8e3.s:800    .text:0000000000000490 .LFE39
     /tmp/ccnxh8e3.s:6402   .debug_str:0000000000000487 .LASF135
     /tmp/ccnxh8e3.s:5387   .debug_loc:00000000000001ea .LLST23
     /tmp/ccnxh8e3.s:5398   .debug_loc:0000000000000220 .LLST24
     /tmp/ccnxh8e3.s:5409   .debug_loc:0000000000000256 .LLST25
     /tmp/ccnxh8e3.s:6282   .debug_str:0000000000000035 .LASF136
     /tmp/ccnxh8e3.s:5421   .debug_loc:000000000000028d .LLST26
     /tmp/ccnxh8e3.s:1408   .text:0000000000000804 .LFB38
     /tmp/ccnxh8e3.s:1441   .text:0000000000000838 .LFE38
     /tmp/ccnxh8e3.s:6384   .debug_str:0000000000000402 .LASF137
     /tmp/ccnxh8e3.s:5433   .debug_loc:00000000000002c4 .LLST45
     /tmp/ccnxh8e3.s:5451   .debug_loc:0000000000000310 .LLST46
     /tmp/ccnxh8e3.s:1430   .text:0000000000000828 .LVL145
     /tmp/ccnxh8e3.s:1671   .text:0000000000000968 .LFB37
     /tmp/ccnxh8e3.s:1766   .text:0000000000000a34 .LFE37
     /tmp/ccnxh8e3.s:5459   .debug_loc:0000000000000334 .LLST55
     /tmp/ccnxh8e3.s:6508   .debug_str:00000000000007ec .LASF138
     /tmp/ccnxh8e3.s:5473   .debug_loc:000000000000036d .LLST56
     /tmp/ccnxh8e3.s:6302   .debug_str:0000000000000190 .LASF139
     /tmp/ccnxh8e3.s:5502   .debug_loc:00000000000003f1 .LLST57
     /tmp/ccnxh8e3.s:1690   .text:0000000000000988 .LVL169
     /tmp/ccnxh8e3.s:1719   .text:00000000000009cc .LVL173
     /tmp/ccnxh8e3.s:1741   .text:00000000000009ec .LVL175
     /tmp/ccnxh8e3.s:1757   .text:0000000000000a28 .LVL176
     /tmp/ccnxh8e3.s:653    .text:00000000000003d0 .LFB36
     /tmp/ccnxh8e3.s:737    .text:0000000000000448 .LFE36
     /tmp/ccnxh8e3.s:5519   .debug_loc:000000000000043c .LLST19
     /tmp/ccnxh8e3.s:674    .text:00000000000003f0 .LBB14
     /tmp/ccnxh8e3.s:718    .text:000000000000042c .LBE14
     /tmp/ccnxh8e3.s:5537   .debug_loc:0000000000000488 .LLST20
     /tmp/ccnxh8e3.s:687    .text:0000000000000404 .LBB15
     /tmp/ccnxh8e3.s:717    .text:000000000000042c .LBE15
     /tmp/ccnxh8e3.s:5549   .debug_loc:00000000000004bf .LLST21
     /tmp/ccnxh8e3.s:698    .text:0000000000000414 .LBB16
     /tmp/ccnxh8e3.s:712    .text:0000000000000428 .LBE16
     /tmp/ccnxh8e3.s:5564   .debug_loc:0000000000000508 .LLST22
     /tmp/ccnxh8e3.s:709    .text:0000000000000424 .LVL73
     /tmp/ccnxh8e3.s:480    .text:00000000000002e0 .LFB35
     /tmp/ccnxh8e3.s:561    .text:0000000000000364 .LFE35
     /tmp/ccnxh8e3.s:5571   .debug_loc:000000000000052b .LLST11
     /tmp/ccnxh8e3.s:6462   .debug_str:0000000000000683 .LASF140
     /tmp/ccnxh8e3.s:5589   .debug_loc:0000000000000577 .LLST12
     /tmp/ccnxh8e3.s:5607   .debug_loc:00000000000005c3 .LLST13
GAS LISTING /tmp/ccnxh8e3.s 			page 63


     /tmp/ccnxh8e3.s:508    .text:000000000000030c .LBB10
     /tmp/ccnxh8e3.s:536    .text:0000000000000338 .LBE10
     /tmp/ccnxh8e3.s:5631   .debug_loc:0000000000000615 .LLST14
     /tmp/ccnxh8e3.s:543    .text:0000000000000348 .LVL54
     /tmp/ccnxh8e3.s:567    .text:0000000000000364 .LFB34
     /tmp/ccnxh8e3.s:647    .text:00000000000003d0 .LFE34
     /tmp/ccnxh8e3.s:5638   .debug_loc:0000000000000638 .LLST15
     /tmp/ccnxh8e3.s:6472   .debug_str:00000000000006d1 .LASF141
     /tmp/ccnxh8e3.s:5656   .debug_loc:0000000000000684 .LLST16
     /tmp/ccnxh8e3.s:5672   .debug_loc:00000000000006ce .LLST17
     /tmp/ccnxh8e3.s:601    .text:0000000000000390 .LBB12
     /tmp/ccnxh8e3.s:618    .text:00000000000003a8 .LBE12
     /tmp/ccnxh8e3.s:5687   .debug_loc:0000000000000717 .LLST18
     /tmp/ccnxh8e3.s:615    .text:00000000000003a4 .LVL62
     /tmp/ccnxh8e3.s:259    .text:0000000000000144 .LFB33
     /tmp/ccnxh8e3.s:337    .text:00000000000001a4 .LFE33
     /tmp/ccnxh8e3.s:6506   .debug_str:00000000000007e3 .LASF142
     /tmp/ccnxh8e3.s:6526   .debug_str:0000000000000880 .LASF143
     /tmp/ccnxh8e3.s:5694   .debug_loc:000000000000073a .LLST6
     /tmp/ccnxh8e3.s:6538   .debug_str:00000000000008f0 .LASF144
     /tmp/ccnxh8e3.s:5710   .debug_loc:0000000000000784 .LLST7
     /tmp/ccnxh8e3.s:5726   .debug_loc:00000000000007ce .LLST8
     /tmp/ccnxh8e3.s:294    .text:000000000000016c .LBB6
     /tmp/ccnxh8e3.s:321    .text:0000000000000190 .LBE6
     /tmp/ccnxh8e3.s:5738   .debug_loc:0000000000000805 .LLST9
     /tmp/ccnxh8e3.s:351    .text:00000000000001a4 .LFB32
     /tmp/ccnxh8e3.s:474    .text:00000000000002e0 .LFE32
     /tmp/ccnxh8e3.s:5749   .debug_loc:000000000000083b .LLST10
     /tmp/ccnxh8e3.s:376    .text:00000000000001d4 .LVL32
     /tmp/ccnxh8e3.s:381    .text:00000000000001e0 .LVL33
     /tmp/ccnxh8e3.s:386    .text:00000000000001f0 .LVL34
     /tmp/ccnxh8e3.s:393    .text:0000000000000204 .LVL35
     /tmp/ccnxh8e3.s:398    .text:0000000000000214 .LVL36
     /tmp/ccnxh8e3.s:407    .text:000000000000022c .LVL37
     /tmp/ccnxh8e3.s:412    .text:000000000000023c .LVL38
     /tmp/ccnxh8e3.s:419    .text:0000000000000250 .LVL39
     /tmp/ccnxh8e3.s:424    .text:0000000000000260 .LVL40
     /tmp/ccnxh8e3.s:431    .text:0000000000000274 .LVL41
     /tmp/ccnxh8e3.s:436    .text:0000000000000284 .LVL42
     /tmp/ccnxh8e3.s:443    .text:0000000000000298 .LVL43
     /tmp/ccnxh8e3.s:448    .text:00000000000002a8 .LVL44
     /tmp/ccnxh8e3.s:455    .text:00000000000002bc .LVL45
     /tmp/ccnxh8e3.s:460    .text:00000000000002cc .LVL46
     /tmp/ccnxh8e3.s:198    .text:00000000000000e4 .LFB31
     /tmp/ccnxh8e3.s:253    .text:0000000000000144 .LFE31
     /tmp/ccnxh8e3.s:5767   .debug_loc:0000000000000887 .LLST5
     /tmp/ccnxh8e3.s:226    .text:0000000000000118 .LVL18
     /tmp/ccnxh8e3.s:250    .text:0000000000000140 .LVL21
     /tmp/ccnxh8e3.s:97     .text:0000000000000074 .LFB30
     /tmp/ccnxh8e3.s:184    .text:00000000000000e4 .LFE30
     /tmp/ccnxh8e3.s:6418   .debug_str:0000000000000512 .LASF145
     /tmp/ccnxh8e3.s:5789   .debug_loc:00000000000008e6 .LLST2
     /tmp/ccnxh8e3.s:6294   .debug_str:0000000000000152 .LASF146
     /tmp/ccnxh8e3.s:5814   .debug_loc:0000000000000948 .LLST3
     /tmp/ccnxh8e3.s:5838   .debug_loc:00000000000009b8 .LLST4
     /tmp/ccnxh8e3.s:1303   .text:000000000000075c .LFB29
     /tmp/ccnxh8e3.s:1402   .text:0000000000000804 .LFE29
GAS LISTING /tmp/ccnxh8e3.s 			page 64


     /tmp/ccnxh8e3.s:5858   .debug_loc:0000000000000a15 .LLST42
     /tmp/ccnxh8e3.s:5883   .debug_loc:0000000000000a77 .LLST43
     /tmp/ccnxh8e3.s:5908   .debug_loc:0000000000000ad9 .LLST44
     /tmp/ccnxh8e3.s:1370   .text:00000000000007c4 .LVL135
     /tmp/ccnxh8e3.s:1389   .text:00000000000007ec .LVL138
     /tmp/ccnxh8e3.s:1399   .text:0000000000000800 .LVL141
     /tmp/ccnxh8e3.s:44     .text:0000000000000028 .LFB28
     /tmp/ccnxh8e3.s:91     .text:0000000000000074 .LFE28
     /tmp/ccnxh8e3.s:5919   .debug_loc:0000000000000b0f .LLST1
     /tmp/ccnxh8e3.s:806    .text:0000000000000490 .LFB27
     /tmp/ccnxh8e3.s:963    .text:0000000000000574 .LFE27
     /tmp/ccnxh8e3.s:5938   .debug_loc:0000000000000b5c .LLST27
     /tmp/ccnxh8e3.s:5956   .debug_loc:0000000000000ba8 .LLST28
     /tmp/ccnxh8e3.s:5971   .debug_loc:0000000000000bf1 .LLST29
     /tmp/ccnxh8e3.s:5984   .debug_loc:0000000000000c29 .LLST30
     /tmp/ccnxh8e3.s:6004   .debug_loc:0000000000000c86 .LLST31
     /tmp/ccnxh8e3.s:6016   .debug_loc:0000000000000cbd .LLST32
     /tmp/ccnxh8e3.s:834    .text:00000000000004c4 .LVL86
     /tmp/ccnxh8e3.s:838    .text:00000000000004d0 .LVL87
     /tmp/ccnxh8e3.s:1588   .text:0000000000000908 .LFB26
     /tmp/ccnxh8e3.s:1665   .text:0000000000000968 .LFE26
     /tmp/ccnxh8e3.s:6027   .debug_loc:0000000000000cf3 .LLST50
     /tmp/ccnxh8e3.s:6067   .debug_loc:0000000000000d91 .LLST51
     /tmp/ccnxh8e3.s:1608   .text:0000000000000924 .LBB34
     /tmp/ccnxh8e3.s:1616   .text:000000000000092c .LBE34
     /tmp/ccnxh8e3.s:6074   .debug_loc:0000000000000db4 .LLST52
     /tmp/ccnxh8e3.s:1614   .text:000000000000092c .LVL161
     /tmp/ccnxh8e3.s:1638   .text:0000000000000944 .LBB36
     /tmp/ccnxh8e3.s:1650   .text:0000000000000950 .LBE36
     /tmp/ccnxh8e3.s:6081   .debug_loc:0000000000000dd7 .LLST53
     /tmp/ccnxh8e3.s:6088   .debug_loc:0000000000000dfa .LLST54
     /tmp/ccnxh8e3.s:1644   .text:000000000000094c .LVL164
     /tmp/ccnxh8e3.s:1657   .text:000000000000095c .LVL166
     /tmp/ccnxh8e3.s:1661   .text:0000000000000964 .LVL167
     /tmp/ccnxh8e3.s:10     .text:0000000000000000 .LFB25
     /tmp/ccnxh8e3.s:38     .text:0000000000000028 .LFE25
     /tmp/ccnxh8e3.s:6095   .debug_loc:0000000000000e1d .LLST0
     /tmp/ccnxh8e3.s:6326   .debug_str:000000000000021c .LASF147
     /tmp/ccnxh8e3.s:1055   .text:00000000000005dc .LFB24
     /tmp/ccnxh8e3.s:1166   .text:000000000000069c .LFE24
     /tmp/ccnxh8e3.s:6109   .debug_loc:0000000000000e56 .LLST34
     /tmp/ccnxh8e3.s:6408   .debug_str:00000000000004c1 .LASF148
     /tmp/ccnxh8e3.s:6127   .debug_loc:0000000000000ea2 .LLST35
     /tmp/ccnxh8e3.s:6141   .debug_loc:0000000000000edb .LLST36
     /tmp/ccnxh8e3.s:6454   .debug_str:000000000000065e .LASF149
     /tmp/ccnxh8e3.s:6159   .debug_loc:0000000000000f27 .LLST37
     /tmp/ccnxh8e3.s:6488   .debug_str:000000000000074b .LASF150
     /tmp/ccnxh8e3.s:6177   .debug_loc:0000000000000f73 .LLST38
     /tmp/ccnxh8e3.s:1086   .text:0000000000000618 .LBB23
     /tmp/ccnxh8e3.s:1104   .text:0000000000000638 .LBE23
     /tmp/ccnxh8e3.s:6195   .debug_loc:0000000000000fbf .LLST39
     /tmp/ccnxh8e3.s:1084   .text:0000000000000618 .LVL110
     /tmp/ccnxh8e3.s:1141   .text:0000000000000678 .LVL114
     /tmp/ccnxh8e3.s:6328   .debug_str:0000000000000224 .LASF151
     /tmp/ccnxh8e3.s:6580   .debug_str:0000000000000a82 .LASF153
     /tmp/ccnxh8e3.s:6504   .debug_str:00000000000007d4 .LASF152
     /tmp/ccnxh8e3.s:6468   .debug_str:00000000000006a6 .LASF154
GAS LISTING /tmp/ccnxh8e3.s 			page 65


     /tmp/ccnxh8e3.s:1252   .text:000000000000071c .LVL125
     /tmp/ccnxh8e3.s:1273   .text:0000000000000740 .LVL126
     /tmp/ccnxh8e3.s:1283   .text:000000000000074c .LVL127
     /tmp/ccnxh8e3.s:1288   .text:0000000000000750 .LVL128
     /tmp/ccnxh8e3.s:1290   .text:0000000000000754 .LVL129
     /tmp/ccnxh8e3.s:1294   .text:0000000000000758 .LVL130
     /tmp/ccnxh8e3.s:1450   .text:0000000000000838 .LVL146
     /tmp/ccnxh8e3.s:1515   .text:000000000000089c .LVL149
     /tmp/ccnxh8e3.s:1559   .text:00000000000008ec .LVL154
     /tmp/ccnxh8e3.s:1573   .text:0000000000000900 .LVL157
     /tmp/ccnxh8e3.s:1477   .text:000000000000086c .LVL147
     /tmp/ccnxh8e3.s:1519   .text:00000000000008a8 .LVL151
     /tmp/ccnxh8e3.s:1528   .text:00000000000008b8 .LVL152
     /tmp/ccnxh8e3.s:1569   .text:00000000000008f4 .LVL155
     /tmp/ccnxh8e3.s:1200   .text:00000000000006c8 .LVL120
     /tmp/ccnxh8e3.s:1238   .text:0000000000000714 .LVL124
     /tmp/ccnxh8e3.s:1012   .text:00000000000005ac .LVL104
     /tmp/ccnxh8e3.s:1016   .text:00000000000005b0 .LVL105
     /tmp/ccnxh8e3.s:1034   .text:00000000000005cc .LVL106
     /tmp/ccnxh8e3.s:1038   .text:00000000000005d0 .LVL107
     /tmp/ccnxh8e3.s:746    .text:0000000000000448 .LVL77
     /tmp/ccnxh8e3.s:763    .text:0000000000000464 .LVL79
     /tmp/ccnxh8e3.s:755    .text:0000000000000458 .LVL78
     /tmp/ccnxh8e3.s:1411   .text:0000000000000804 .LVL142
     /tmp/ccnxh8e3.s:1428   .text:0000000000000820 .LVL144
     /tmp/ccnxh8e3.s:1424   .text:000000000000081c .LVL143
     /tmp/ccnxh8e3.s:1674   .text:0000000000000968 .LVL168
     /tmp/ccnxh8e3.s:1708   .text:00000000000009b0 .LVL171
     /tmp/ccnxh8e3.s:1735   .text:00000000000009e4 .LVL174
     /tmp/ccnxh8e3.s:1759   .text:0000000000000a2c .LVL177
     /tmp/ccnxh8e3.s:1763   .text:0000000000000a30 .LVL178
     /tmp/ccnxh8e3.s:1699   .text:0000000000000998 .LVL170
     /tmp/ccnxh8e3.s:1713   .text:00000000000009b4 .LVL172
     /tmp/ccnxh8e3.s:656    .text:00000000000003d0 .LVL66
     /tmp/ccnxh8e3.s:678    .text:00000000000003f8 .LVL68
     /tmp/ccnxh8e3.s:729    .text:000000000000043c .LVL75
     /tmp/ccnxh8e3.s:673    .text:00000000000003f0 .LVL67
     /tmp/ccnxh8e3.s:732    .text:0000000000000440 .LVL76
     /tmp/ccnxh8e3.s:682    .text:00000000000003fc .LVL69
     /tmp/ccnxh8e3.s:693    .text:0000000000000410 .LVL70
     /tmp/ccnxh8e3.s:704    .text:0000000000000418 .LVL72
     /tmp/ccnxh8e3.s:715    .text:000000000000042c .LVL74
     /tmp/ccnxh8e3.s:700    .text:0000000000000414 .LVL71
     /tmp/ccnxh8e3.s:483    .text:00000000000002e0 .LVL48
     /tmp/ccnxh8e3.s:512    .text:0000000000000314 .LVL50
     /tmp/ccnxh8e3.s:534    .text:0000000000000338 .LVL53
     /tmp/ccnxh8e3.s:556    .text:000000000000035c .LVL55
     /tmp/ccnxh8e3.s:500    .text:0000000000000300 .LVL49
     /tmp/ccnxh8e3.s:570    .text:0000000000000364 .LVL56
     /tmp/ccnxh8e3.s:596    .text:000000000000038c .LVL59
     /tmp/ccnxh8e3.s:642    .text:00000000000003c8 .LVL65
     /tmp/ccnxh8e3.s:587    .text:0000000000000384 .LVL57
     /tmp/ccnxh8e3.s:605    .text:0000000000000394 .LVL60
     /tmp/ccnxh8e3.s:621    .text:00000000000003ac .LVL63
     /tmp/ccnxh8e3.s:637    .text:00000000000003c0 .LVL64
     /tmp/ccnxh8e3.s:592    .text:0000000000000388 .LVL58
     /tmp/ccnxh8e3.s:610    .text:0000000000000398 .LVL61
GAS LISTING /tmp/ccnxh8e3.s 			page 66


     /tmp/ccnxh8e3.s:270    .text:0000000000000150 .LVL23
     /tmp/ccnxh8e3.s:281    .text:0000000000000160 .LVL24
     /tmp/ccnxh8e3.s:306    .text:0000000000000180 .LVL27
     /tmp/ccnxh8e3.s:319    .text:0000000000000190 .LVL30
     /tmp/ccnxh8e3.s:312    .text:0000000000000188 .LVL28
     /tmp/ccnxh8e3.s:286    .text:0000000000000164 .LVL25
     /tmp/ccnxh8e3.s:299    .text:0000000000000178 .LVL26
     /tmp/ccnxh8e3.s:354    .text:00000000000001a4 .LVL31
     /tmp/ccnxh8e3.s:469    .text:00000000000002d8 .LVL47
     /tmp/ccnxh8e3.s:201    .text:00000000000000e4 .LVL16
     /tmp/ccnxh8e3.s:219    .text:0000000000000108 .LVL17
     /tmp/ccnxh8e3.s:238    .text:0000000000000128 .LVL19
     /tmp/ccnxh8e3.s:242    .text:0000000000000130 .LVL20
     /tmp/ccnxh8e3.s:100    .text:0000000000000074 .LVL5
     /tmp/ccnxh8e3.s:151    .text:00000000000000c0 .LVL11
     /tmp/ccnxh8e3.s:168    .text:00000000000000d0 .LVL13
     /tmp/ccnxh8e3.s:178    .text:00000000000000d8 .LVL15
     /tmp/ccnxh8e3.s:115    .text:0000000000000090 .LVL6
     /tmp/ccnxh8e3.s:126    .text:00000000000000a0 .LVL8
     /tmp/ccnxh8e3.s:134    .text:00000000000000a8 .LVL9
     /tmp/ccnxh8e3.s:140    .text:00000000000000b0 .LVL10
     /tmp/ccnxh8e3.s:175    .text:00000000000000d4 .LVL14
     /tmp/ccnxh8e3.s:122    .text:000000000000009c .LVL7
     /tmp/ccnxh8e3.s:157    .text:00000000000000c4 .LVL12
     /tmp/ccnxh8e3.s:1306   .text:000000000000075c .LVL131
     /tmp/ccnxh8e3.s:1333   .text:000000000000078c .LVL132
     /tmp/ccnxh8e3.s:1351   .text:00000000000007a8 .LVL133
     /tmp/ccnxh8e3.s:1368   .text:00000000000007bc .LVL134
     /tmp/ccnxh8e3.s:1372   .text:00000000000007c8 .LVL136
     /tmp/ccnxh8e3.s:1381   .text:00000000000007d8 .LVL137
     /tmp/ccnxh8e3.s:1391   .text:00000000000007f0 .LVL139
     /tmp/ccnxh8e3.s:1397   .text:00000000000007f8 .LVL140
     /tmp/ccnxh8e3.s:47     .text:0000000000000028 .LVL2
     /tmp/ccnxh8e3.s:78     .text:0000000000000060 .LVL3
     /tmp/ccnxh8e3.s:81     .text:0000000000000068 .LVL4
     /tmp/ccnxh8e3.s:809    .text:0000000000000490 .LVL84
     /tmp/ccnxh8e3.s:832    .text:00000000000004bc .LVL85
     /tmp/ccnxh8e3.s:949    .text:0000000000000560 .LVL98
     /tmp/ccnxh8e3.s:840    .text:00000000000004d4 .LVL88
     /tmp/ccnxh8e3.s:867    .text:00000000000004f8 .LVL90
     /tmp/ccnxh8e3.s:955    .text:0000000000000568 .LVL100
     /tmp/ccnxh8e3.s:857    .text:00000000000004ec .LVL89
     /tmp/ccnxh8e3.s:958    .text:000000000000056c .LVL101
     /tmp/ccnxh8e3.s:879    .text:0000000000000500 .LVL91
     /tmp/ccnxh8e3.s:887    .text:0000000000000508 .LVL93
     /tmp/ccnxh8e3.s:952    .text:0000000000000564 .LVL99
     /tmp/ccnxh8e3.s:946    .text:000000000000055c .LVL97
     /tmp/ccnxh8e3.s:920    .text:0000000000000538 .LVL95
     /tmp/ccnxh8e3.s:933    .text:000000000000054c .LVL96
     /tmp/ccnxh8e3.s:1591   .text:0000000000000908 .LVL158
     /tmp/ccnxh8e3.s:1605   .text:0000000000000920 .LVL159
     /tmp/ccnxh8e3.s:1628   .text:000000000000093c .LVL162
     /tmp/ccnxh8e3.s:1648   .text:0000000000000950 .LVL165
     /tmp/ccnxh8e3.s:1610   .text:0000000000000924 .LVL160
     /tmp/ccnxh8e3.s:1640   .text:0000000000000944 .LVL163
     /tmp/ccnxh8e3.s:14     .text:0000000000000000 .LVL0
     /tmp/ccnxh8e3.s:24     .text:0000000000000010 .LVL1
GAS LISTING /tmp/ccnxh8e3.s 			page 67


     /tmp/ccnxh8e3.s:1058   .text:00000000000005dc .LVL108
     /tmp/ccnxh8e3.s:1082   .text:0000000000000610 .LVL109
     /tmp/ccnxh8e3.s:1152   .text:0000000000000688 .LVL115
     /tmp/ccnxh8e3.s:1155   .text:000000000000068c .LVL116
     /tmp/ccnxh8e3.s:1161   .text:0000000000000694 .LVL118
     /tmp/ccnxh8e3.s:1158   .text:0000000000000690 .LVL117
     /tmp/ccnxh8e3.s:1090   .text:0000000000000620 .LVL111
     /tmp/ccnxh8e3.s:1127   .text:0000000000000658 .LVL113
     /tmp/ccnxh8e3.s:1844   .debug_info:0000000000000000 .Ldebug_info0
     /tmp/ccnxh8e3.s:117    .text:0000000000000090 .LBB2
     /tmp/ccnxh8e3.s:123    .text:000000000000009c .LBE2
     /tmp/ccnxh8e3.s:128    .text:00000000000000a0 .LBB3
     /tmp/ccnxh8e3.s:159    .text:00000000000000c4 .LBE3
     /tmp/ccnxh8e3.s:171    .text:00000000000000d0 .LBB4
     /tmp/ccnxh8e3.s:182    .text:00000000000000e4 .LBE4
     /tmp/ccnxh8e3.s:272    .text:0000000000000150 .LBB5
     /tmp/ccnxh8e3.s:275    .text:0000000000000154 .LBE5
     /tmp/ccnxh8e3.s:283    .text:0000000000000160 .LBB7
     /tmp/ccnxh8e3.s:291    .text:000000000000016c .LBE7
     /tmp/ccnxh8e3.s:293    .text:000000000000016c .LBB8
     /tmp/ccnxh8e3.s:322    .text:0000000000000190 .LBE8
     /tmp/ccnxh8e3.s:589    .text:0000000000000384 .LBB11
     /tmp/ccnxh8e3.s:593    .text:0000000000000388 .LBE11
     /tmp/ccnxh8e3.s:598    .text:000000000000038c .LBB13
     /tmp/ccnxh8e3.s:623    .text:00000000000003ac .LBE13
     /tmp/ccnxh8e3.s:860    .text:00000000000004ec .LBB17
     /tmp/ccnxh8e3.s:863    .text:00000000000004f0 .LBE17
     /tmp/ccnxh8e3.s:869    .text:00000000000004f8 .LBB21
     /tmp/ccnxh8e3.s:936    .text:000000000000054c .LBE21
     /tmp/ccnxh8e3.s:870    .text:00000000000004f8 .LBB18
     /tmp/ccnxh8e3.s:880    .text:0000000000000500 .LBE18
     /tmp/ccnxh8e3.s:884    .text:0000000000000504 .LBB19
     /tmp/ccnxh8e3.s:889    .text:0000000000000508 .LBE19
     /tmp/ccnxh8e3.s:895    .text:0000000000000510 .LBB20
     /tmp/ccnxh8e3.s:935    .text:000000000000054c .LBE20
     /tmp/ccnxh8e3.s:1478   .text:000000000000086c .LBB25
     /tmp/ccnxh8e3.s:1481   .text:0000000000000870 .LBE25
     /tmp/ccnxh8e3.s:1483   .text:0000000000000870 .LBB31
     /tmp/ccnxh8e3.s:1541   .text:00000000000008cc .LBE31
     /tmp/ccnxh8e3.s:1562   .text:00000000000008ec .LBB32
     /tmp/ccnxh8e3.s:1577   .text:0000000000000900 .LBE32
     /tmp/ccnxh8e3.s:1498   .text:0000000000000880 .LBB27
     /tmp/ccnxh8e3.s:1539   .text:00000000000008cc .LBE27
     /tmp/ccnxh8e3.s:1564   .text:00000000000008ec .LBB28
     /tmp/ccnxh8e3.s:1575   .text:0000000000000900 .LBE28

UNDEFINED SYMBOLS
_Z11printStringPKc
_Z8printIntiii
_ZN14BuddyAllocator9buddyFreeEPvm
_ZN14BuddyAllocator10buddyAllocEm
