GAS LISTING /tmp/ccYSR6UZ.s 			page 1


   1              		.file	"Cache.cpp"
   2              		.option pic
   3              		.option norelax
   4              		.text
   5              	.Ltext0:
   6              		.align	2
   7              		.globl	_ZN5Cache11getNumSlotsEmm
   9              	_ZN5Cache11getNumSlotsEmm:
  10              	.LFB25:
  11              		.file 1 "src/Cache.cpp"
   1:src/Cache.cpp **** #include "../h/Cache.h"
   2:src/Cache.cpp **** #include "../h/BuddyAllocator.h"
   3:src/Cache.cpp **** #include "../h/printing.hpp"
   4:src/Cache.cpp **** #include "../h/hw.h"
   5:src/Cache.cpp **** 
   6:src/Cache.cpp **** const char* Cache::bufferNames[MAXSIZEBUFFER - MINSIZEBUFFER + 1] = {"size-32", "size-64", "size-12
   7:src/Cache.cpp ****                                                                   "size-512", "size-1024", "size-20
   8:src/Cache.cpp ****                                                                   "size-4096", "size-8192", "size-1
   9:src/Cache.cpp ****                                                                   "size-32768", "size-65536", "size
  10:src/Cache.cpp **** 
  11:src/Cache.cpp **** Cache* Cache::bufferCache[MAXSIZEBUFFER - MINSIZEBUFFER + 1] = {};
  12:src/Cache.cpp **** void Cache::initCache(const char *name, size_t size, void (*ctor)(void *), void (*dtor)(void *)) {
  13:src/Cache.cpp ****     strcpy(cacheName, name);
  14:src/Cache.cpp ****     for(int i = 0; i < 3; i++) {
  15:src/Cache.cpp ****         slabList[i] = nullptr;
  16:src/Cache.cpp ****     }
  17:src/Cache.cpp ****     objectSize = size;
  18:src/Cache.cpp ****     constructor = ctor;
  19:src/Cache.cpp ****     destructor = dtor;
  20:src/Cache.cpp ****     slotSize = objectSize + sizeof(Slot);
  21:src/Cache.cpp ****     slabSize = slotSize / BLKSIZE;
  22:src/Cache.cpp ****     if(slotSize % BLKSIZE != 0) slabSize++; // u blokovima
  23:src/Cache.cpp **** 
  24:src/Cache.cpp ****     optimalSlots = getNumSlots(slabSize, slotSize);
  25:src/Cache.cpp **** }
  26:src/Cache.cpp **** 
  27:src/Cache.cpp **** int Cache::getNumSlots(size_t slabSize, size_t objSize) {
  12              		.loc 1 27 57
  13              		.cfi_startproc
  14              	.LVL0:
  15 0000 130101FF 		addi	sp,sp,-16
  16              		.cfi_def_cfa_offset 16
  17 0004 23348100 		sd	s0,8(sp)
  18              		.cfi_offset 8, -8
  19 0008 13040101 		addi	s0,sp,16
  20              		.cfi_def_cfa 8, 0
  28:src/Cache.cpp ****     return (slabSize*BLKSIZE - sizeof(Slab)) / objSize;
  21              		.loc 1 28 5
  22              		.loc 1 28 21 is_stmt 0
  23 000c 1315C500 		slli	a0,a0,12
  24              	.LVL1:
  25              		.loc 1 28 30
  26 0010 130585FD 		addi	a0,a0,-40
  27              		.loc 1 28 46
  28 0014 3355B502 		divu	a0,a0,a1
  29:src/Cache.cpp **** }
  29              		.loc 1 29 1
GAS LISTING /tmp/ccYSR6UZ.s 			page 2


  30 0018 1B050500 		sext.w	a0,a0
  31 001c 03348100 		ld	s0,8(sp)
  32              		.cfi_restore 8
  33              		.cfi_def_cfa 2, 16
  34 0020 13010101 		addi	sp,sp,16
  35              		.cfi_def_cfa_offset 0
  36 0024 67800000 		jr	ra
  37              		.cfi_endproc
  38              	.LFE25:
  40              		.align	2
  41              		.globl	_ZN5Cache11slabListPutEPNS_4SlabEi
  43              	_ZN5Cache11slabListPutEPNS_4SlabEi:
  44              	.LFB28:
  30:src/Cache.cpp **** 
  31:src/Cache.cpp **** void *Cache::allocateSlot() {
  32:src/Cache.cpp ****     if(slabList[PARTIAL]) {
  33:src/Cache.cpp ****         Slab* slab = slabList[PARTIAL];
  34:src/Cache.cpp ****         return slab->getFreeSlot();
  35:src/Cache.cpp ****     }
  36:src/Cache.cpp ****     else if(slabList[EMPTY]) {
  37:src/Cache.cpp ****         Slab* slab = slabList[EMPTY];
  38:src/Cache.cpp ****         Slot* slot = slab->getFreeSlot();
  39:src/Cache.cpp **** 
  40:src/Cache.cpp ****         return slot;
  41:src/Cache.cpp ****     }
  42:src/Cache.cpp **** 
  43:src/Cache.cpp ****     Slab* slab = allocateSlab();
  44:src/Cache.cpp ****     return slab->getFreeSlot();
  45:src/Cache.cpp **** }
  46:src/Cache.cpp **** 
  47:src/Cache.cpp **** Cache::Slab *Cache::allocateSlab() {
  48:src/Cache.cpp **** 
  49:src/Cache.cpp ****     Slab* slab = (Slab*)BuddyAllocator::buddyAlloc(powerOfTwo(slabSize)); // 2 ako nije dovoljno
  50:src/Cache.cpp ****     slab->parentCache = this;
  51:src/Cache.cpp ****     slab->next = nullptr;
  52:src/Cache.cpp ****     slab->state = CREATED;
  53:src/Cache.cpp ****     slab->allocatedSlots = 0;
  54:src/Cache.cpp ****     void* startAddr = (void*)((char*)slab + sizeof(Slab));
  55:src/Cache.cpp ****     Slot* prev = nullptr;
  56:src/Cache.cpp ****     for(size_t i = 0; i < this->optimalSlots; i++) {
  57:src/Cache.cpp ****         if(constructor) {
  58:src/Cache.cpp ****             constructor((void*)((char*)startAddr + i*slotSize));
  59:src/Cache.cpp ****         }
  60:src/Cache.cpp ****         Slot* curr = (Slot*)((char*)startAddr + i*slotSize);
  61:src/Cache.cpp ****         curr->parentSlab = slab;
  62:src/Cache.cpp ****         curr->allocated = false;
  63:src/Cache.cpp ****         if(prev) {
  64:src/Cache.cpp ****             prev->next= curr;
  65:src/Cache.cpp ****         }
  66:src/Cache.cpp ****         else {
  67:src/Cache.cpp ****             slab->slotHead = curr;
  68:src/Cache.cpp ****         }
  69:src/Cache.cpp ****         curr->next = nullptr;
  70:src/Cache.cpp ****         prev = curr;
  71:src/Cache.cpp ****     }
  72:src/Cache.cpp **** 
  73:src/Cache.cpp ****     return slab;
GAS LISTING /tmp/ccYSR6UZ.s 			page 3


  74:src/Cache.cpp **** }
  75:src/Cache.cpp **** 
  76:src/Cache.cpp **** 
  77:src/Cache.cpp **** void Cache::slabListPut(Cache::Slab *slab, int listNum) {
  45              		.loc 1 77 57 is_stmt 1
  46              		.cfi_startproc
  47              	.LVL2:
  48 0028 130101FF 		addi	sp,sp,-16
  49              		.cfi_def_cfa_offset 16
  50 002c 23348100 		sd	s0,8(sp)
  51              		.cfi_offset 8, -8
  52 0030 13040101 		addi	s0,sp,16
  53              		.cfi_def_cfa 8, 0
  78:src/Cache.cpp ****     if (!slab || listNum < 0 || listNum > 2) return;
  54              		.loc 1 78 5
  55 0034 638A0502 		beqz	a1,.L3
  56              		.loc 1 78 15 is_stmt 0 discriminator 2
  57 0038 63480602 		bltz	a2,.L3
  58              		.loc 1 78 30 discriminator 4
  59 003c 93072000 		li	a5,2
  60 0040 63C4C702 		bgt	a2,a5,.L3
  79:src/Cache.cpp ****     slab->state = (SlabState)listNum;
  61              		.loc 1 79 5 is_stmt 1
  62              		.loc 1 79 17 is_stmt 0
  63 0044 23A8C500 		sw	a2,16(a1)
  80:src/Cache.cpp ****     if(slabList[listNum]) {
  64              		.loc 1 80 5 is_stmt 1
  65              		.loc 1 80 24 is_stmt 0
  66 0048 93173600 		slli	a5,a2,3
  67 004c B307F500 		add	a5,a0,a5
  68 0050 83B78700 		ld	a5,8(a5)
  69              		.loc 1 80 5
  70 0054 63840700 		beqz	a5,.L5
  81:src/Cache.cpp ****         slab->next = slabList[listNum];
  71              		.loc 1 81 9 is_stmt 1
  72              		.loc 1 81 20 is_stmt 0
  73 0058 23B4F500 		sd	a5,8(a1)
  74              	.L5:
  82:src/Cache.cpp ****     }
  83:src/Cache.cpp ****     slabList[listNum] = slab;
  75              		.loc 1 83 5 is_stmt 1
  76              		.loc 1 83 23 is_stmt 0
  77 005c 13163600 		slli	a2,a2,3
  78              	.LVL3:
  79 0060 3306C500 		add	a2,a0,a2
  80 0064 2334B600 		sd	a1,8(a2)
  81              	.LVL4:
  82              	.L3:
  84:src/Cache.cpp **** }
  83              		.loc 1 84 1
  84 0068 03348100 		ld	s0,8(sp)
  85              		.cfi_restore 8
  86              		.cfi_def_cfa 2, 16
  87 006c 13010101 		addi	sp,sp,16
  88              		.cfi_def_cfa_offset 0
  89 0070 67800000 		jr	ra
  90              		.cfi_endproc
GAS LISTING /tmp/ccYSR6UZ.s 			page 4


  91              	.LFE28:
  93              		.align	2
  94              		.globl	_ZN5Cache14slabListRemoveEPNS_4SlabEi
  96              	_ZN5Cache14slabListRemoveEPNS_4SlabEi:
  97              	.LFB30:
  85:src/Cache.cpp **** 
  86:src/Cache.cpp **** void Cache::freeSlot(Slot* slot) {
  87:src/Cache.cpp ****     if(slot->parentSlab->parentCache != this) {
  88:src/Cache.cpp ****         errortype = FreeSlotError;
  89:src/Cache.cpp ****         return;
  90:src/Cache.cpp ****     }
  91:src/Cache.cpp **** 
  92:src/Cache.cpp ****     Slab* parentSlab = slot->parentSlab;
  93:src/Cache.cpp ****     Cache* parentCache = parentSlab->parentCache;
  94:src/Cache.cpp ****     slot->allocated = false;
  95:src/Cache.cpp ****     parentSlab->allocatedSlots--;
  96:src/Cache.cpp **** 
  97:src/Cache.cpp ****     SlabState newState = parentSlab->calculateNewState();
  98:src/Cache.cpp ****     if(parentSlab->state != newState) {
  99:src/Cache.cpp ****         if(parentSlab->state != CREATED) parentCache->slabListRemove(parentSlab, parentSlab->state)
 100:src/Cache.cpp ****         parentCache->slabListPut(parentSlab, newState);
 101:src/Cache.cpp ****     }
 102:src/Cache.cpp **** }
 103:src/Cache.cpp **** 
 104:src/Cache.cpp **** void Cache::slabListRemove(Cache::Slab *slab, int listNum) {
  98              		.loc 1 104 60 is_stmt 1
  99              		.cfi_startproc
 100              	.LVL5:
 101 0074 130101FF 		addi	sp,sp,-16
 102              		.cfi_def_cfa_offset 16
 103 0078 23348100 		sd	s0,8(sp)
 104              		.cfi_offset 8, -8
 105 007c 13040101 		addi	s0,sp,16
 106              		.cfi_def_cfa 8, 0
 105:src/Cache.cpp ****     if(!slab || listNum < 0 || listNum > 2) return;
 107              		.loc 1 105 5
 108 0080 63800504 		beqz	a1,.L7
 109              		.loc 1 105 14 is_stmt 0 discriminator 2
 110 0084 634E0602 		bltz	a2,.L7
 111              		.loc 1 105 29 discriminator 4
 112 0088 93072000 		li	a5,2
 113 008c 63CAC702 		bgt	a2,a5,.L7
 106:src/Cache.cpp **** 
 107:src/Cache.cpp ****     Slab* prev = nullptr;
 114              		.loc 1 107 5 is_stmt 1
 115              	.LVL6:
 108:src/Cache.cpp ****     for(Slab* curr = slabList[listNum]; curr != nullptr; curr = curr->next) {
 116              		.loc 1 108 5
 117              	.LBB2:
 118              		.loc 1 108 15 is_stmt 0
 119 0090 13163600 		slli	a2,a2,3
 120              	.LVL7:
 121 0094 3306C500 		add	a2,a0,a2
 122 0098 83378600 		ld	a5,8(a2)
 123              	.LVL8:
 124              	.LBE2:
 107:src/Cache.cpp ****     for(Slab* curr = slabList[listNum]; curr != nullptr; curr = curr->next) {
GAS LISTING /tmp/ccYSR6UZ.s 			page 5


 125              		.loc 1 107 11
 126 009c 13070000 		li	a4,0
 127              	.LVL9:
 128              	.L10:
 129              	.LBB3:
 130              		.loc 1 108 46 is_stmt 1 discriminator 1
 131 00a0 63800702 		beqz	a5,.L7
 109:src/Cache.cpp ****         if(curr == slab) {
 132              		.loc 1 109 9
 133 00a4 6388B700 		beq	a5,a1,.L12
 110:src/Cache.cpp ****             prev->next = curr->next;
 111:src/Cache.cpp ****             curr->next = nullptr;
 112:src/Cache.cpp ****             break;
 113:src/Cache.cpp ****         }
 114:src/Cache.cpp ****         prev = curr;
 134              		.loc 1 114 9 discriminator 2
 135              	.LVL10:
 108:src/Cache.cpp ****         if(curr == slab) {
 136              		.loc 1 108 5 discriminator 2
 137              		.loc 1 114 14 is_stmt 0 discriminator 2
 138 00a8 13870700 		mv	a4,a5
 108:src/Cache.cpp ****         if(curr == slab) {
 139              		.loc 1 108 63 discriminator 2
 140 00ac 83B78700 		ld	a5,8(a5)
 141              	.LVL11:
 108:src/Cache.cpp ****         if(curr == slab) {
 142              		.loc 1 108 5 discriminator 2
 143 00b0 6FF01FFF 		j	.L10
 144              	.L12:
 110:src/Cache.cpp ****             prev->next = curr->next;
 145              		.loc 1 110 13 is_stmt 1
 110:src/Cache.cpp ****             prev->next = curr->next;
 146              		.loc 1 110 32 is_stmt 0
 147 00b4 83B68700 		ld	a3,8(a5)
 110:src/Cache.cpp ****             prev->next = curr->next;
 148              		.loc 1 110 24
 149 00b8 2334D700 		sd	a3,8(a4)
 111:src/Cache.cpp ****             break;
 150              		.loc 1 111 13 is_stmt 1
 111:src/Cache.cpp ****             break;
 151              		.loc 1 111 24 is_stmt 0
 152 00bc 23B40700 		sd	zero,8(a5)
 112:src/Cache.cpp ****         }
 153              		.loc 1 112 13 is_stmt 1
 154              	.LVL12:
 155              	.L7:
 156              	.LBE3:
 115:src/Cache.cpp ****     }
 116:src/Cache.cpp **** }
 157              		.loc 1 116 1 is_stmt 0
 158 00c0 03348100 		ld	s0,8(sp)
 159              		.cfi_restore 8
 160              		.cfi_def_cfa 2, 16
 161 00c4 13010101 		addi	sp,sp,16
 162              		.cfi_def_cfa_offset 0
 163 00c8 67800000 		jr	ra
 164              		.cfi_endproc
GAS LISTING /tmp/ccYSR6UZ.s 			page 6


 165              	.LFE30:
 167              		.section	.rodata.str1.8,"aMS",@progbits,1
 168              		.align	3
 169              	.LC0:
 170 0000 47726573 		.string	"Greska u oslobadjanju slota"
 170      6B612075 
 170      206F736C 
 170      6F626164 
 170      6A616E6A 
 171 001c 00000000 		.align	3
 172              	.LC1:
 173 0020 4E696A65 		.string	"Nije bilo greske u radu sa kesom"
 173      2062696C 
 173      6F206772 
 173      65736B65 
 173      20752072 
 174              		.text
 175              		.align	2
 176              		.globl	_ZN5Cache17printErrorMessageEv
 178              	_ZN5Cache17printErrorMessageEv:
 179              	.LFB31:
 117:src/Cache.cpp **** 
 118:src/Cache.cpp **** int Cache::printErrorMessage() {
 180              		.loc 1 118 32 is_stmt 1
 181              		.cfi_startproc
 182              	.LVL13:
 183 00cc 130101FE 		addi	sp,sp,-32
 184              		.cfi_def_cfa_offset 32
 185 00d0 233C1100 		sd	ra,24(sp)
 186 00d4 23388100 		sd	s0,16(sp)
 187 00d8 23349100 		sd	s1,8(sp)
 188              		.cfi_offset 1, -8
 189              		.cfi_offset 8, -16
 190              		.cfi_offset 9, -24
 191 00dc 13040102 		addi	s0,sp,32
 192              		.cfi_def_cfa 8, 0
 193 00e0 93040500 		mv	s1,a0
 119:src/Cache.cpp ****     switch(errortype) {
 194              		.loc 1 119 5
 195              		.loc 1 119 12 is_stmt 0
 196 00e4 03270500 		lw	a4,0(a0)
 197              		.loc 1 119 5
 198 00e8 93071000 		li	a5,1
 199 00ec 6306F702 		beq	a4,a5,.L16
 200              	.LVL14:
 201              	.L14:
 120:src/Cache.cpp ****         case FreeSlotError:
 121:src/Cache.cpp ****             printString("Greska u oslobadjanju slota");
 122:src/Cache.cpp ****         default:
 202              		.loc 1 122 9 is_stmt 1
 123:src/Cache.cpp ****             printString("Nije bilo greske u radu sa kesom");
 203              		.loc 1 123 13
 204              		.loc 1 123 24 is_stmt 0
 205 00f0 17050000 		lla	a0,.LC1
 205      13050500 
 206 00f8 97000000 		call	_Z11printStringPKc@plt
 206      E7800000 
GAS LISTING /tmp/ccYSR6UZ.s 			page 7


 207              	.LVL15:
 124:src/Cache.cpp ****     }
 125:src/Cache.cpp ****     return errortype;
 208              		.loc 1 125 5 is_stmt 1
 126:src/Cache.cpp **** }
 209              		.loc 1 126 1 is_stmt 0
 210 0100 03A50400 		lw	a0,0(s1)
 211 0104 83308101 		ld	ra,24(sp)
 212              		.cfi_remember_state
 213              		.cfi_restore 1
 214 0108 03340101 		ld	s0,16(sp)
 215              		.cfi_restore 8
 216              		.cfi_def_cfa 2, 32
 217 010c 83348100 		ld	s1,8(sp)
 218              		.cfi_restore 9
 219              	.LVL16:
 220 0110 13010102 		addi	sp,sp,32
 221              		.cfi_def_cfa_offset 0
 222 0114 67800000 		jr	ra
 223              	.LVL17:
 224              	.L16:
 225              		.cfi_restore_state
 120:src/Cache.cpp ****             printString("Greska u oslobadjanju slota");
 226              		.loc 1 120 9 is_stmt 1
 121:src/Cache.cpp ****         default:
 227              		.loc 1 121 13
 121:src/Cache.cpp ****         default:
 228              		.loc 1 121 24 is_stmt 0
 229 0118 17050000 		lla	a0,.LC0
 229      13050500 
 230 0120 97000000 		call	_Z11printStringPKc@plt
 230      E7800000 
 231              	.LVL18:
 232 0128 6FF09FFC 		j	.L14
 233              		.cfi_endproc
 234              	.LFE31:
 236              		.align	2
 237              		.globl	_ZN5Cache19getNumSlabsAndSlotsEPiS0_
 239              	_ZN5Cache19getNumSlabsAndSlotsEPiS0_:
 240              	.LFB33:
 127:src/Cache.cpp **** // Ispis poruke: ime kesa, velicina objekta, broj slabova, broj slotova po slabu, broj alociranih s
 128:src/Cache.cpp **** void Cache::printCacheInfo() {
 129:src/Cache.cpp ****     int numSlabs = 0, numSlots = 0;
 130:src/Cache.cpp ****     getNumSlabsAndSlots(&numSlabs, &numSlots);
 131:src/Cache.cpp ****    // printString("ime kesa, velicina objekta, velicina slaba, broj slabova, broj slotova po slabu,
 132:src/Cache.cpp ****     printString(cacheName);
 133:src/Cache.cpp ****     printString(", ");
 134:src/Cache.cpp ****     printInt(objectSize);
 135:src/Cache.cpp ****     printString(", ");
 136:src/Cache.cpp ****     printInt(BLKSIZE*slabSize);
 137:src/Cache.cpp ****     printString(", ");
 138:src/Cache.cpp ****     printInt(numSlabs);
 139:src/Cache.cpp ****     printString(", ");
 140:src/Cache.cpp ****     printInt(optimalSlots);
 141:src/Cache.cpp ****     printString(", ");
 142:src/Cache.cpp ****     printInt(slotSize);
 143:src/Cache.cpp ****     printString(", ");
GAS LISTING /tmp/ccYSR6UZ.s 			page 8


 144:src/Cache.cpp ****     printInt(numSlots);
 145:src/Cache.cpp **** 
 146:src/Cache.cpp **** }
 147:src/Cache.cpp **** 
 148:src/Cache.cpp **** void Cache::getNumSlabsAndSlots(int *numSlabs, int *numSlots) {
 241              		.loc 1 148 63 is_stmt 1
 242              		.cfi_startproc
 243              	.LVL19:
 244 012c 130101FF 		addi	sp,sp,-16
 245              		.cfi_def_cfa_offset 16
 246 0130 23348100 		sd	s0,8(sp)
 247              		.cfi_offset 8, -8
 248 0134 13040101 		addi	s0,sp,16
 249              		.cfi_def_cfa 8, 0
 149:src/Cache.cpp ****     int slabs = 0, slots = 0;
 250              		.loc 1 149 5
 251              	.LVL20:
 150:src/Cache.cpp ****     for(int i = 0; i < 3; i++) {
 252              		.loc 1 150 5
 253              	.LBB4:
 254              		.loc 1 150 13 is_stmt 0
 255 0138 93080000 		li	a7,0
 256              	.LBE4:
 149:src/Cache.cpp ****     int slabs = 0, slots = 0;
 257              		.loc 1 149 20
 258 013c 13070000 		li	a4,0
 149:src/Cache.cpp ****     int slabs = 0, slots = 0;
 259              		.loc 1 149 9
 260 0140 93060000 		li	a3,0
 261 0144 6F008000 		j	.L21
 262              	.LVL21:
 263              	.L19:
 264              	.LBB6:
 265              		.loc 1 150 5 is_stmt 1 discriminator 2
 266 0148 9B881800 		addiw	a7,a7,1
 267              	.LVL22:
 268              	.L21:
 269              		.loc 1 150 22 discriminator 1
 270 014c 93072000 		li	a5,2
 271 0150 63C41703 		bgt	a7,a5,.L18
 272              	.LBE6:
 151:src/Cache.cpp ****         for(Slab* curr = slabList[i]; curr != nullptr; curr = curr->next) {
 273              		.loc 1 151 9
 274              	.LBB7:
 275              	.LBB5:
 276              		.loc 1 151 19 is_stmt 0
 277 0154 93973800 		slli	a5,a7,3
 278 0158 B307F500 		add	a5,a0,a5
 279 015c 83B78700 		ld	a5,8(a5)
 280              	.LVL23:
 281              	.L20:
 282              		.loc 1 151 44 is_stmt 1 discriminator 3
 283 0160 E38407FE 		beqz	a5,.L19
 152:src/Cache.cpp ****              slabs++;
 284              		.loc 1 152 14 discriminator 2
 285              		.loc 1 152 19 is_stmt 0 discriminator 2
 286 0164 9B861600 		addiw	a3,a3,1
GAS LISTING /tmp/ccYSR6UZ.s 			page 9


 287              	.LVL24:
 153:src/Cache.cpp ****              slots += curr->allocatedSlots;
 288              		.loc 1 153 14 is_stmt 1 discriminator 2
 289              		.loc 1 153 29 is_stmt 0 discriminator 2
 290 0168 03B80700 		ld	a6,0(a5)
 291              		.loc 1 153 20 discriminator 2
 292 016c 3B07E800 		addw	a4,a6,a4
 293              	.LVL25:
 151:src/Cache.cpp ****         for(Slab* curr = slabList[i]; curr != nullptr; curr = curr->next) {
 294              		.loc 1 151 9 is_stmt 1 discriminator 2
 151:src/Cache.cpp ****         for(Slab* curr = slabList[i]; curr != nullptr; curr = curr->next) {
 295              		.loc 1 151 61 is_stmt 0 discriminator 2
 296 0170 83B78700 		ld	a5,8(a5)
 297              	.LVL26:
 151:src/Cache.cpp ****         for(Slab* curr = slabList[i]; curr != nullptr; curr = curr->next) {
 298              		.loc 1 151 9 discriminator 2
 299 0174 6FF0DFFE 		j	.L20
 300              	.LVL27:
 301              	.L18:
 302              	.LBE5:
 303              	.LBE7:
 154:src/Cache.cpp ****         }
 155:src/Cache.cpp ****     }
 156:src/Cache.cpp ****     (*numSlabs) = slabs;
 304              		.loc 1 156 5 is_stmt 1
 305              		.loc 1 156 17 is_stmt 0
 306 0178 23A0D500 		sw	a3,0(a1)
 157:src/Cache.cpp ****     (*numSlots) = slots;
 307              		.loc 1 157 5 is_stmt 1
 308              		.loc 1 157 17 is_stmt 0
 309 017c 2320E600 		sw	a4,0(a2)
 158:src/Cache.cpp **** }
 310              		.loc 1 158 1
 311 0180 03348100 		ld	s0,8(sp)
 312              		.cfi_restore 8
 313              		.cfi_def_cfa 2, 16
 314 0184 13010101 		addi	sp,sp,16
 315              		.cfi_def_cfa_offset 0
 316 0188 67800000 		jr	ra
 317              		.cfi_endproc
 318              	.LFE33:
 320              		.section	.rodata.str1.8
 321 0041 00000000 		.align	3
 321      000000
 322              	.LC2:
 323 0048 2C2000   		.string	", "
 324              		.text
 325              		.align	2
 326              		.globl	_ZN5Cache14printCacheInfoEv
 328              	_ZN5Cache14printCacheInfoEv:
 329              	.LFB32:
 128:src/Cache.cpp ****     int numSlabs = 0, numSlots = 0;
 330              		.loc 1 128 30 is_stmt 1
 331              		.cfi_startproc
 332              	.LVL28:
 333 018c 130101FD 		addi	sp,sp,-48
 334              		.cfi_def_cfa_offset 48
GAS LISTING /tmp/ccYSR6UZ.s 			page 10


 335 0190 23341102 		sd	ra,40(sp)
 336 0194 23308102 		sd	s0,32(sp)
 337 0198 233C9100 		sd	s1,24(sp)
 338              		.cfi_offset 1, -8
 339              		.cfi_offset 8, -16
 340              		.cfi_offset 9, -24
 341 019c 13040103 		addi	s0,sp,48
 342              		.cfi_def_cfa 8, 0
 343 01a0 93040500 		mv	s1,a0
 129:src/Cache.cpp ****     getNumSlabsAndSlots(&numSlabs, &numSlots);
 344              		.loc 1 129 5
 129:src/Cache.cpp ****     getNumSlabsAndSlots(&numSlabs, &numSlots);
 345              		.loc 1 129 9 is_stmt 0
 346 01a4 232E04FC 		sw	zero,-36(s0)
 129:src/Cache.cpp ****     getNumSlabsAndSlots(&numSlabs, &numSlots);
 347              		.loc 1 129 23
 348 01a8 232C04FC 		sw	zero,-40(s0)
 130:src/Cache.cpp ****    // printString("ime kesa, velicina objekta, velicina slaba, broj slabova, broj slotova po slabu,
 349              		.loc 1 130 5 is_stmt 1
 130:src/Cache.cpp ****    // printString("ime kesa, velicina objekta, velicina slaba, broj slabova, broj slotova po slabu,
 350              		.loc 1 130 24 is_stmt 0
 351 01ac 130684FD 		addi	a2,s0,-40
 352 01b0 9305C4FD 		addi	a1,s0,-36
 353 01b4 97000000 		call	_ZN5Cache19getNumSlabsAndSlotsEPiS0_
 353      E7800000 
 354              	.LVL29:
 132:src/Cache.cpp ****     printString(", ");
 355              		.loc 1 132 5 is_stmt 1
 132:src/Cache.cpp ****     printString(", ");
 356              		.loc 1 132 16 is_stmt 0
 357 01bc 13850402 		addi	a0,s1,32
 358 01c0 97000000 		call	_Z11printStringPKc@plt
 358      E7800000 
 359              	.LVL30:
 133:src/Cache.cpp ****     printInt(objectSize);
 360              		.loc 1 133 5 is_stmt 1
 133:src/Cache.cpp ****     printInt(objectSize);
 361              		.loc 1 133 16 is_stmt 0
 362 01c8 17050000 		lla	a0,.LC2
 362      13050500 
 363 01d0 97000000 		call	_Z11printStringPKc@plt
 363      E7800000 
 364              	.LVL31:
 134:src/Cache.cpp ****     printString(", ");
 365              		.loc 1 134 5 is_stmt 1
 134:src/Cache.cpp ****     printString(", ");
 366              		.loc 1 134 13 is_stmt 0
 367 01d8 13060000 		li	a2,0
 368 01dc 9305A000 		li	a1,10
 369 01e0 03A50403 		lw	a0,48(s1)
 370 01e4 97000000 		call	_Z8printIntiii@plt
 370      E7800000 
 371              	.LVL32:
 135:src/Cache.cpp ****     printInt(BLKSIZE*slabSize);
 372              		.loc 1 135 5 is_stmt 1
 135:src/Cache.cpp ****     printInt(BLKSIZE*slabSize);
 373              		.loc 1 135 16 is_stmt 0
GAS LISTING /tmp/ccYSR6UZ.s 			page 11


 374 01ec 17050000 		lla	a0,.LC2
 374      13050500 
 375 01f4 97000000 		call	_Z11printStringPKc@plt
 375      E7800000 
 376              	.LVL33:
 136:src/Cache.cpp ****     printString(", ");
 377              		.loc 1 136 5 is_stmt 1
 136:src/Cache.cpp ****     printString(", ");
 378              		.loc 1 136 22 is_stmt 0
 379 01fc 03B58404 		ld	a0,72(s1)
 136:src/Cache.cpp ****     printString(", ");
 380              		.loc 1 136 13
 381 0200 13060000 		li	a2,0
 382 0204 9305A000 		li	a1,10
 383 0208 1B15C500 		slliw	a0,a0,12
 384 020c 97000000 		call	_Z8printIntiii@plt
 384      E7800000 
 385              	.LVL34:
 137:src/Cache.cpp ****     printInt(numSlabs);
 386              		.loc 1 137 5 is_stmt 1
 137:src/Cache.cpp ****     printInt(numSlabs);
 387              		.loc 1 137 16 is_stmt 0
 388 0214 17050000 		lla	a0,.LC2
 388      13050500 
 389 021c 97000000 		call	_Z11printStringPKc@plt
 389      E7800000 
 390              	.LVL35:
 138:src/Cache.cpp ****     printString(", ");
 391              		.loc 1 138 5 is_stmt 1
 138:src/Cache.cpp ****     printString(", ");
 392              		.loc 1 138 13 is_stmt 0
 393 0224 13060000 		li	a2,0
 394 0228 9305A000 		li	a1,10
 395 022c 0325C4FD 		lw	a0,-36(s0)
 396 0230 97000000 		call	_Z8printIntiii@plt
 396      E7800000 
 397              	.LVL36:
 139:src/Cache.cpp ****     printInt(optimalSlots);
 398              		.loc 1 139 5 is_stmt 1
 139:src/Cache.cpp ****     printInt(optimalSlots);
 399              		.loc 1 139 16 is_stmt 0
 400 0238 17050000 		lla	a0,.LC2
 400      13050500 
 401 0240 97000000 		call	_Z11printStringPKc@plt
 401      E7800000 
 402              	.LVL37:
 140:src/Cache.cpp ****     printString(", ");
 403              		.loc 1 140 5 is_stmt 1
 140:src/Cache.cpp ****     printString(", ");
 404              		.loc 1 140 13 is_stmt 0
 405 0248 13060000 		li	a2,0
 406 024c 9305A000 		li	a1,10
 407 0250 03A58403 		lw	a0,56(s1)
 408 0254 97000000 		call	_Z8printIntiii@plt
 408      E7800000 
 409              	.LVL38:
 141:src/Cache.cpp ****     printInt(slotSize);
GAS LISTING /tmp/ccYSR6UZ.s 			page 12


 410              		.loc 1 141 5 is_stmt 1
 141:src/Cache.cpp ****     printInt(slotSize);
 411              		.loc 1 141 16 is_stmt 0
 412 025c 17050000 		lla	a0,.LC2
 412      13050500 
 413 0264 97000000 		call	_Z11printStringPKc@plt
 413      E7800000 
 414              	.LVL39:
 142:src/Cache.cpp ****     printString(", ");
 415              		.loc 1 142 5 is_stmt 1
 142:src/Cache.cpp ****     printString(", ");
 416              		.loc 1 142 13 is_stmt 0
 417 026c 13060000 		li	a2,0
 418 0270 9305A000 		li	a1,10
 419 0274 03A50404 		lw	a0,64(s1)
 420 0278 97000000 		call	_Z8printIntiii@plt
 420      E7800000 
 421              	.LVL40:
 143:src/Cache.cpp ****     printInt(numSlots);
 422              		.loc 1 143 5 is_stmt 1
 143:src/Cache.cpp ****     printInt(numSlots);
 423              		.loc 1 143 16 is_stmt 0
 424 0280 17050000 		lla	a0,.LC2
 424      13050500 
 425 0288 97000000 		call	_Z11printStringPKc@plt
 425      E7800000 
 426              	.LVL41:
 144:src/Cache.cpp **** 
 427              		.loc 1 144 5 is_stmt 1
 144:src/Cache.cpp **** 
 428              		.loc 1 144 13 is_stmt 0
 429 0290 13060000 		li	a2,0
 430 0294 9305A000 		li	a1,10
 431 0298 032584FD 		lw	a0,-40(s0)
 432 029c 97000000 		call	_Z8printIntiii@plt
 432      E7800000 
 433              	.LVL42:
 146:src/Cache.cpp **** 
 434              		.loc 1 146 1
 435 02a4 83308102 		ld	ra,40(sp)
 436              		.cfi_restore 1
 437 02a8 03340102 		ld	s0,32(sp)
 438              		.cfi_restore 8
 439              		.cfi_def_cfa 2, 48
 440 02ac 83348101 		ld	s1,24(sp)
 441              		.cfi_restore 9
 442              	.LVL43:
 443 02b0 13010103 		addi	sp,sp,48
 444              		.cfi_def_cfa_offset 0
 445 02b4 67800000 		jr	ra
 446              		.cfi_endproc
 447              	.LFE32:
 449              		.align	2
 450              		.globl	_ZN5Cache11deallocSlabEPNS_4SlabE
 452              	_ZN5Cache11deallocSlabEPNS_4SlabE:
 453              	.LFB35:
 159:src/Cache.cpp **** 
GAS LISTING /tmp/ccYSR6UZ.s 			page 13


 160:src/Cache.cpp **** int Cache::deallocFreeSlabs() {
 161:src/Cache.cpp ****     int numSlabs = 0;
 162:src/Cache.cpp ****     for(Slab* curr = slabList[EMPTY]; curr != nullptr;) {
 163:src/Cache.cpp ****         numSlabs++;
 164:src/Cache.cpp ****         Slab* old = curr;
 165:src/Cache.cpp ****         curr = curr->next;
 166:src/Cache.cpp ****         deallocSlab(old);
 167:src/Cache.cpp ****     }
 168:src/Cache.cpp ****     slabList[EMPTY] = nullptr;
 169:src/Cache.cpp ****     return numSlabs;
 170:src/Cache.cpp **** }
 171:src/Cache.cpp **** 
 172:src/Cache.cpp **** void Cache::deallocSlab(Slab* slab) {
 454              		.loc 1 172 37 is_stmt 1
 455              		.cfi_startproc
 456              	.LVL44:
 457 02b8 130101FD 		addi	sp,sp,-48
 458              		.cfi_def_cfa_offset 48
 459 02bc 23341102 		sd	ra,40(sp)
 460 02c0 23308102 		sd	s0,32(sp)
 461 02c4 233C9100 		sd	s1,24(sp)
 462 02c8 23382101 		sd	s2,16(sp)
 463 02cc 23343101 		sd	s3,8(sp)
 464              		.cfi_offset 1, -8
 465              		.cfi_offset 8, -16
 466              		.cfi_offset 9, -24
 467              		.cfi_offset 18, -32
 468              		.cfi_offset 19, -40
 469 02d0 13040103 		addi	s0,sp,48
 470              		.cfi_def_cfa 8, 0
 471 02d4 93890500 		mv	s3,a1
 173:src/Cache.cpp ****     void* startAddr = (void*)((char*)slab + sizeof(Slab));
 472              		.loc 1 173 5
 473              	.LVL45:
 174:src/Cache.cpp ****     if(destructor) {
 474              		.loc 1 174 5
 475              	.LBB8:
 476              		.loc 1 174 8 is_stmt 0
 477 02d8 83378505 		ld	a5,88(a0)
 478              		.loc 1 174 5
 479 02dc 638A0702 		beqz	a5,.L26
 480 02e0 13090500 		mv	s2,a0
 481              	.LBB9:
 175:src/Cache.cpp ****         for(size_t i = 0; i < this->optimalSlots; i++) {
 482              		.loc 1 175 20
 483 02e4 93040000 		li	s1,0
 484 02e8 6F000002 		j	.L27
 485              	.LVL46:
 486              	.L29:
 176:src/Cache.cpp ****             destructor((void*)((char*)startAddr + i*slotSize));
 487              		.loc 1 176 13 is_stmt 1 discriminator 2
 488 02ec 83378905 		ld	a5,88(s2)
 489              		.loc 1 176 53 is_stmt 0 discriminator 2
 490 02f0 03350904 		ld	a0,64(s2)
 491              		.loc 1 176 52 discriminator 2
 492 02f4 33059502 		mul	a0,a0,s1
 493              		.loc 1 176 23 discriminator 2
GAS LISTING /tmp/ccYSR6UZ.s 			page 14


 494 02f8 13058502 		addi	a0,a0,40
 495 02fc 3385A900 		add	a0,s3,a0
 496 0300 E7800700 		jalr	a5
 497              	.LVL47:
 175:src/Cache.cpp ****         for(size_t i = 0; i < this->optimalSlots; i++) {
 498              		.loc 1 175 9 is_stmt 1 discriminator 2
 499 0304 93841400 		addi	s1,s1,1
 500              	.LVL48:
 501              	.L27:
 175:src/Cache.cpp ****         for(size_t i = 0; i < this->optimalSlots; i++) {
 502              		.loc 1 175 29 discriminator 3
 175:src/Cache.cpp ****         for(size_t i = 0; i < this->optimalSlots; i++) {
 503              		.loc 1 175 37 is_stmt 0 discriminator 3
 504 0308 83378903 		ld	a5,56(s2)
 175:src/Cache.cpp ****         for(size_t i = 0; i < this->optimalSlots; i++) {
 505              		.loc 1 175 29 discriminator 3
 506 030c E3E0F4FE 		bgtu	a5,s1,.L29
 507              	.LVL49:
 508              	.L26:
 509              	.LBE9:
 510              	.LBE8:
 177:src/Cache.cpp ****         }
 178:src/Cache.cpp ****     }
 179:src/Cache.cpp ****     BuddyAllocator::buddyFree(slab, 1);
 511              		.loc 1 179 5 is_stmt 1
 512              		.loc 1 179 30 is_stmt 0
 513 0310 93051000 		li	a1,1
 514 0314 13850900 		mv	a0,s3
 515 0318 97000000 		call	_ZN14BuddyAllocator9buddyFreeEPvm@plt
 515      E7800000 
 516              	.LVL50:
 180:src/Cache.cpp **** }
 517              		.loc 1 180 1
 518 0320 83308102 		ld	ra,40(sp)
 519              		.cfi_restore 1
 520 0324 03340102 		ld	s0,32(sp)
 521              		.cfi_restore 8
 522              		.cfi_def_cfa 2, 48
 523 0328 83348101 		ld	s1,24(sp)
 524              		.cfi_restore 9
 525 032c 03390101 		ld	s2,16(sp)
 526              		.cfi_restore 18
 527 0330 83398100 		ld	s3,8(sp)
 528              		.cfi_restore 19
 529              	.LVL51:
 530 0334 13010103 		addi	sp,sp,48
 531              		.cfi_def_cfa_offset 0
 532 0338 67800000 		jr	ra
 533              		.cfi_endproc
 534              	.LFE35:
 536              		.align	2
 537              		.globl	_ZN5Cache16deallocFreeSlabsEv
 539              	_ZN5Cache16deallocFreeSlabsEv:
 540              	.LFB34:
 160:src/Cache.cpp ****     int numSlabs = 0;
 541              		.loc 1 160 31 is_stmt 1
 542              		.cfi_startproc
GAS LISTING /tmp/ccYSR6UZ.s 			page 15


 543              	.LVL52:
 544 033c 130101FD 		addi	sp,sp,-48
 545              		.cfi_def_cfa_offset 48
 546 0340 23341102 		sd	ra,40(sp)
 547 0344 23308102 		sd	s0,32(sp)
 548 0348 233C9100 		sd	s1,24(sp)
 549 034c 23382101 		sd	s2,16(sp)
 550 0350 23343101 		sd	s3,8(sp)
 551              		.cfi_offset 1, -8
 552              		.cfi_offset 8, -16
 553              		.cfi_offset 9, -24
 554              		.cfi_offset 18, -32
 555              		.cfi_offset 19, -40
 556 0354 13040103 		addi	s0,sp,48
 557              		.cfi_def_cfa 8, 0
 558 0358 93090500 		mv	s3,a0
 161:src/Cache.cpp ****     for(Slab* curr = slabList[EMPTY]; curr != nullptr;) {
 559              		.loc 1 161 5
 560              	.LVL53:
 162:src/Cache.cpp ****         numSlabs++;
 561              		.loc 1 162 5
 562              	.LBB10:
 162:src/Cache.cpp ****         numSlabs++;
 563              		.loc 1 162 15 is_stmt 0
 564 035c 83358500 		ld	a1,8(a0)
 565              	.LVL54:
 566              	.LBE10:
 161:src/Cache.cpp ****     for(Slab* curr = slabList[EMPTY]; curr != nullptr;) {
 567              		.loc 1 161 9
 568 0360 93040000 		li	s1,0
 569              	.LVL55:
 570              	.L32:
 571              	.LBB12:
 162:src/Cache.cpp ****         numSlabs++;
 572              		.loc 1 162 44 is_stmt 1 discriminator 1
 573 0364 63800502 		beqz	a1,.L31
 574              	.LBB11:
 163:src/Cache.cpp ****         Slab* old = curr;
 575              		.loc 1 163 9
 163:src/Cache.cpp ****         Slab* old = curr;
 576              		.loc 1 163 17 is_stmt 0
 577 0368 9B841400 		addiw	s1,s1,1
 578              	.LVL56:
 164:src/Cache.cpp ****         curr = curr->next;
 579              		.loc 1 164 9 is_stmt 1
 165:src/Cache.cpp ****         deallocSlab(old);
 580              		.loc 1 165 9
 165:src/Cache.cpp ****         deallocSlab(old);
 581              		.loc 1 165 14 is_stmt 0
 582 036c 03B98500 		ld	s2,8(a1)
 583              	.LVL57:
 166:src/Cache.cpp ****     }
 584              		.loc 1 166 9 is_stmt 1
 166:src/Cache.cpp ****     }
 585              		.loc 1 166 20 is_stmt 0
 586 0370 13850900 		mv	a0,s3
 587 0374 97000000 		call	_ZN5Cache11deallocSlabEPNS_4SlabE
GAS LISTING /tmp/ccYSR6UZ.s 			page 16


 587      E7800000 
 588              	.LVL58:
 165:src/Cache.cpp ****         deallocSlab(old);
 589              		.loc 1 165 14
 590 037c 93050900 		mv	a1,s2
 591              	.LBE11:
 162:src/Cache.cpp ****         numSlabs++;
 592              		.loc 1 162 5
 593 0380 6FF05FFE 		j	.L32
 594              	.LVL59:
 595              	.L31:
 596              	.LBE12:
 168:src/Cache.cpp ****     return numSlabs;
 597              		.loc 1 168 5 is_stmt 1
 168:src/Cache.cpp ****     return numSlabs;
 598              		.loc 1 168 21 is_stmt 0
 599 0384 23B40900 		sd	zero,8(s3)
 169:src/Cache.cpp **** }
 600              		.loc 1 169 5 is_stmt 1
 170:src/Cache.cpp **** 
 601              		.loc 1 170 1 is_stmt 0
 602 0388 13850400 		mv	a0,s1
 603 038c 83308102 		ld	ra,40(sp)
 604              		.cfi_restore 1
 605 0390 03340102 		ld	s0,32(sp)
 606              		.cfi_restore 8
 607              		.cfi_def_cfa 2, 48
 608 0394 83348101 		ld	s1,24(sp)
 609              		.cfi_restore 9
 610              	.LVL60:
 611 0398 03390101 		ld	s2,16(sp)
 612              		.cfi_restore 18
 613 039c 83398100 		ld	s3,8(sp)
 614              		.cfi_restore 19
 615              	.LVL61:
 616 03a0 13010103 		addi	sp,sp,48
 617              		.cfi_def_cfa_offset 0
 618 03a4 67800000 		jr	ra
 619              		.cfi_endproc
 620              	.LFE34:
 622              		.align	2
 623              		.globl	_ZN5Cache12deallocCacheEv
 625              	_ZN5Cache12deallocCacheEv:
 626              	.LFB36:
 181:src/Cache.cpp **** 
 182:src/Cache.cpp **** void Cache::deallocCache() {
 627              		.loc 1 182 28 is_stmt 1
 628              		.cfi_startproc
 629              	.LVL62:
 630 03a8 130101FD 		addi	sp,sp,-48
 631              		.cfi_def_cfa_offset 48
 632 03ac 23341102 		sd	ra,40(sp)
 633 03b0 23308102 		sd	s0,32(sp)
 634 03b4 233C9100 		sd	s1,24(sp)
 635 03b8 23382101 		sd	s2,16(sp)
 636 03bc 23343101 		sd	s3,8(sp)
 637              		.cfi_offset 1, -8
GAS LISTING /tmp/ccYSR6UZ.s 			page 17


 638              		.cfi_offset 8, -16
 639              		.cfi_offset 9, -24
 640              		.cfi_offset 18, -32
 641              		.cfi_offset 19, -40
 642 03c0 13040103 		addi	s0,sp,48
 643              		.cfi_def_cfa 8, 0
 644 03c4 13090500 		mv	s2,a0
 183:src/Cache.cpp ****     for(int i = 0; i < 3; i++) {
 645              		.loc 1 183 5
 646              	.LVL63:
 647              	.LBB13:
 648              		.loc 1 183 13 is_stmt 0
 649 03c8 93090000 		li	s3,0
 650 03cc 6F008000 		j	.L38
 651              	.LVL64:
 652              	.L36:
 653              		.loc 1 183 5 is_stmt 1 discriminator 2
 654 03d0 9B891900 		addiw	s3,s3,1
 655              	.LVL65:
 656              	.L38:
 657              		.loc 1 183 22 discriminator 1
 658 03d4 93072000 		li	a5,2
 659 03d8 63C63703 		bgt	s3,a5,.L34
 660              	.LBB14:
 184:src/Cache.cpp ****         Slab* curr = slabList[i];
 661              		.loc 1 184 9
 662              		.loc 1 184 15 is_stmt 0
 663 03dc 93973900 		slli	a5,s3,3
 664 03e0 B307F900 		add	a5,s2,a5
 665 03e4 83B58700 		ld	a1,8(a5)
 666              	.LVL66:
 667              	.L37:
 185:src/Cache.cpp ****         while(curr) {
 668              		.loc 1 185 9 is_stmt 1
 669              		.loc 1 185 15
 670 03e8 E38405FE 		beqz	a1,.L36
 671              	.LBB15:
 186:src/Cache.cpp ****             Slab* old = curr;
 672              		.loc 1 186 13
 673              	.LVL67:
 187:src/Cache.cpp ****             curr = curr->next;
 674              		.loc 1 187 13
 675              		.loc 1 187 18 is_stmt 0
 676 03ec 83B48500 		ld	s1,8(a1)
 677              	.LVL68:
 188:src/Cache.cpp ****             deallocSlab(old);
 678              		.loc 1 188 13 is_stmt 1
 679              		.loc 1 188 24 is_stmt 0
 680 03f0 13050900 		mv	a0,s2
 681 03f4 97000000 		call	_ZN5Cache11deallocSlabEPNS_4SlabE
 681      E7800000 
 682              	.LVL69:
 187:src/Cache.cpp ****             curr = curr->next;
 683              		.loc 1 187 18
 684 03fc 93850400 		mv	a1,s1
 685              	.LBE15:
 185:src/Cache.cpp ****             Slab* old = curr;
GAS LISTING /tmp/ccYSR6UZ.s 			page 18


 686              		.loc 1 185 9
 687 0400 6FF09FFE 		j	.L37
 688              	.LVL70:
 689              	.L34:
 690              	.LBE14:
 691              	.LBE13:
 189:src/Cache.cpp ****         }
 190:src/Cache.cpp ****     }
 191:src/Cache.cpp **** }
 692              		.loc 1 191 1
 693 0404 83308102 		ld	ra,40(sp)
 694              		.cfi_restore 1
 695 0408 03340102 		ld	s0,32(sp)
 696              		.cfi_restore 8
 697              		.cfi_def_cfa 2, 48
 698 040c 83348101 		ld	s1,24(sp)
 699              		.cfi_restore 9
 700 0410 03390101 		ld	s2,16(sp)
 701              		.cfi_restore 18
 702              	.LVL71:
 703 0414 83398100 		ld	s3,8(sp)
 704              		.cfi_restore 19
 705              	.LVL72:
 706 0418 13010103 		addi	sp,sp,48
 707              		.cfi_def_cfa_offset 0
 708 041c 67800000 		jr	ra
 709              		.cfi_endproc
 710              	.LFE36:
 712              		.align	2
 713              		.globl	_ZN5Cache10powerOfTwoEm
 715              	_ZN5Cache10powerOfTwoEm:
 716              	.LFB39:
 192:src/Cache.cpp **** 
 193:src/Cache.cpp **** // Alocira jedan mali mem bafer velicine size(kao objectSize parametar)
 194:src/Cache.cpp **** void *Cache::allocateBuffer(size_t size) {
 195:src/Cache.cpp ****     size_t objectPowSize = powerOfTwo(size);
 196:src/Cache.cpp ****     if(objectPowSize <  MINSIZEBUFFER || objectPowSize > MAXSIZEBUFFER) {
 197:src/Cache.cpp ****         return nullptr;
 198:src/Cache.cpp ****     }
 199:src/Cache.cpp ****     size_t entry = objectPowSize - MINSIZEBUFFER;
 200:src/Cache.cpp ****     if(bufferCache[entry] == nullptr) {
 201:src/Cache.cpp ****         bufferCache[entry] = createCache();
 202:src/Cache.cpp ****         bufferCache[entry]->initCache(bufferNames[entry], 1<<objectPowSize, NULL,NULL);
 203:src/Cache.cpp ****     }
 204:src/Cache.cpp ****     return bufferCache[entry]->allocateSlot();
 205:src/Cache.cpp **** }
 206:src/Cache.cpp **** 
 207:src/Cache.cpp **** void Cache::freeBuffer(Slot* slot) {
 208:src/Cache.cpp ****     Cache* parentCache = slot->parentSlab->parentCache;
 209:src/Cache.cpp ****     parentCache->freeSlot(slot);
 210:src/Cache.cpp **** }
 211:src/Cache.cpp **** 
 212:src/Cache.cpp **** size_t Cache::powerOfTwo(size_t size) {
 717              		.loc 1 212 39 is_stmt 1
 718              		.cfi_startproc
 719              	.LVL73:
 720 0420 130101FF 		addi	sp,sp,-16
GAS LISTING /tmp/ccYSR6UZ.s 			page 19


 721              		.cfi_def_cfa_offset 16
 722 0424 23348100 		sd	s0,8(sp)
 723              		.cfi_offset 8, -8
 724 0428 13040101 		addi	s0,sp,16
 725              		.cfi_def_cfa 8, 0
 726 042c 13060500 		mv	a2,a0
 213:src/Cache.cpp ****     size_t t = size;
 727              		.loc 1 213 5
 728              	.LVL74:
 214:src/Cache.cpp ****     size_t pow = 0, powerValue = 1;
 729              		.loc 1 214 5
 213:src/Cache.cpp ****     size_t t = size;
 730              		.loc 1 213 12 is_stmt 0
 731 0430 93070500 		mv	a5,a0
 732              		.loc 1 214 21
 733 0434 13071000 		li	a4,1
 734              		.loc 1 214 12
 735 0438 13050000 		li	a0,0
 736              	.LVL75:
 737              	.L42:
 215:src/Cache.cpp ****     while(t > 1) {
 738              		.loc 1 215 5 is_stmt 1
 739              		.loc 1 215 13
 740 043c 93061000 		li	a3,1
 741 0440 63FAF600 		bleu	a5,a3,.L41
 216:src/Cache.cpp ****         t /= 2;
 742              		.loc 1 216 9
 743              		.loc 1 216 11 is_stmt 0
 744 0444 93D71700 		srli	a5,a5,1
 745              	.LVL76:
 217:src/Cache.cpp ****         powerValue *= 2;
 746              		.loc 1 217 9 is_stmt 1
 747              		.loc 1 217 20 is_stmt 0
 748 0448 13171700 		slli	a4,a4,1
 749              	.LVL77:
 218:src/Cache.cpp ****         pow++;
 750              		.loc 1 218 9 is_stmt 1
 751              		.loc 1 218 12 is_stmt 0
 752 044c 13051500 		addi	a0,a0,1
 753              	.LVL78:
 215:src/Cache.cpp ****         t /= 2;
 754              		.loc 1 215 5
 755 0450 6FF0DFFE 		j	.L42
 756              	.L41:
 219:src/Cache.cpp ****     }
 220:src/Cache.cpp ****     if(size != powerValue) pow++;
 757              		.loc 1 220 5 is_stmt 1
 758 0454 6304C700 		beq	a4,a2,.L40
 759              		.loc 1 220 28 discriminator 1
 760              		.loc 1 220 31 is_stmt 0 discriminator 1
 761 0458 13051500 		addi	a0,a0,1
 762              	.LVL79:
 221:src/Cache.cpp ****     return pow;
 763              		.loc 1 221 5 is_stmt 1 discriminator 1
 764              	.L40:
 222:src/Cache.cpp **** }
 765              		.loc 1 222 1 is_stmt 0
GAS LISTING /tmp/ccYSR6UZ.s 			page 20


 766 045c 03348100 		ld	s0,8(sp)
 767              		.cfi_restore 8
 768              		.cfi_def_cfa 2, 16
 769 0460 13010101 		addi	sp,sp,16
 770              		.cfi_def_cfa_offset 0
 771 0464 67800000 		jr	ra
 772              		.cfi_endproc
 773              	.LFE39:
 775              		.align	2
 776              		.globl	_ZN5Cache12allocateSlabEv
 778              	_ZN5Cache12allocateSlabEv:
 779              	.LFB27:
  47:src/Cache.cpp **** 
 780              		.loc 1 47 36 is_stmt 1
 781              		.cfi_startproc
 782              	.LVL80:
 783 0468 130101FC 		addi	sp,sp,-64
 784              		.cfi_def_cfa_offset 64
 785 046c 233C1102 		sd	ra,56(sp)
 786 0470 23388102 		sd	s0,48(sp)
 787 0474 23349102 		sd	s1,40(sp)
 788 0478 23302103 		sd	s2,32(sp)
 789 047c 233C3101 		sd	s3,24(sp)
 790 0480 23384101 		sd	s4,16(sp)
 791 0484 23345101 		sd	s5,8(sp)
 792              		.cfi_offset 1, -8
 793              		.cfi_offset 8, -16
 794              		.cfi_offset 9, -24
 795              		.cfi_offset 18, -32
 796              		.cfi_offset 19, -40
 797              		.cfi_offset 20, -48
 798              		.cfi_offset 21, -56
 799 0488 13040104 		addi	s0,sp,64
 800              		.cfi_def_cfa 8, 0
 801 048c 13090500 		mv	s2,a0
  49:src/Cache.cpp ****     slab->parentCache = this;
 802              		.loc 1 49 5
  49:src/Cache.cpp ****     slab->parentCache = this;
 803              		.loc 1 49 51 is_stmt 0
 804 0490 03358504 		ld	a0,72(a0)
 805              	.LVL81:
 806 0494 97000000 		call	_ZN5Cache10powerOfTwoEm
 806      E7800000 
 807              	.LVL82:
 808 049c 97000000 		call	_ZN14BuddyAllocator10buddyAllocEm@plt
 808      E7800000 
 809              	.LVL83:
 810 04a4 130A0500 		mv	s4,a0
 811              	.LVL84:
  50:src/Cache.cpp ****     slab->next = nullptr;
 812              		.loc 1 50 5 is_stmt 1
  50:src/Cache.cpp ****     slab->next = nullptr;
 813              		.loc 1 50 23 is_stmt 0
 814 04a8 233C2501 		sd	s2,24(a0)
  51:src/Cache.cpp ****     slab->state = CREATED;
 815              		.loc 1 51 5 is_stmt 1
  51:src/Cache.cpp ****     slab->state = CREATED;
GAS LISTING /tmp/ccYSR6UZ.s 			page 21


 816              		.loc 1 51 16 is_stmt 0
 817 04ac 23340500 		sd	zero,8(a0)
  52:src/Cache.cpp ****     slab->allocatedSlots = 0;
 818              		.loc 1 52 5 is_stmt 1
  52:src/Cache.cpp ****     slab->allocatedSlots = 0;
 819              		.loc 1 52 17 is_stmt 0
 820 04b0 93073000 		li	a5,3
 821 04b4 2328F500 		sw	a5,16(a0)
  53:src/Cache.cpp ****     void* startAddr = (void*)((char*)slab + sizeof(Slab));
 822              		.loc 1 53 5 is_stmt 1
  53:src/Cache.cpp ****     void* startAddr = (void*)((char*)slab + sizeof(Slab));
 823              		.loc 1 53 26 is_stmt 0
 824 04b8 23300500 		sd	zero,0(a0)
  54:src/Cache.cpp ****     Slot* prev = nullptr;
 825              		.loc 1 54 5 is_stmt 1
  54:src/Cache.cpp ****     Slot* prev = nullptr;
 826              		.loc 1 54 11 is_stmt 0
 827 04bc 930A8502 		addi	s5,a0,40
 828              	.LVL85:
  55:src/Cache.cpp ****     for(size_t i = 0; i < this->optimalSlots; i++) {
 829              		.loc 1 55 5 is_stmt 1
  56:src/Cache.cpp ****         if(constructor) {
 830              		.loc 1 56 5
 831              	.LBB16:
  56:src/Cache.cpp ****         if(constructor) {
 832              		.loc 1 56 16 is_stmt 0
 833 04c0 93040000 		li	s1,0
 834              	.LBE16:
  55:src/Cache.cpp ****     for(size_t i = 0; i < this->optimalSlots; i++) {
 835              		.loc 1 55 11
 836 04c4 93090000 		li	s3,0
 837 04c8 6F004001 		j	.L50
 838              	.LVL86:
 839              	.L48:
 840              	.LBB20:
 841              	.LBB17:
  67:src/Cache.cpp ****         }
 842              		.loc 1 67 13 is_stmt 1
  67:src/Cache.cpp ****         }
 843              		.loc 1 67 28 is_stmt 0
 844 04cc 2330FA02 		sd	a5,32(s4)
 845              	.L49:
  69:src/Cache.cpp ****         prev = curr;
 846              		.loc 1 69 9 is_stmt 1 discriminator 2
  69:src/Cache.cpp ****         prev = curr;
 847              		.loc 1 69 20 is_stmt 0 discriminator 2
 848 04d0 23B40700 		sd	zero,8(a5)
  70:src/Cache.cpp ****     }
 849              		.loc 1 70 9 is_stmt 1 discriminator 2
 850              	.LVL87:
 851              	.LBE17:
  56:src/Cache.cpp ****         if(constructor) {
 852              		.loc 1 56 5 discriminator 2
 853 04d4 93841400 		addi	s1,s1,1
 854              	.LVL88:
 855              	.LBB18:
  70:src/Cache.cpp ****     }
GAS LISTING /tmp/ccYSR6UZ.s 			page 22


 856              		.loc 1 70 14 is_stmt 0 discriminator 2
 857 04d8 93890700 		mv	s3,a5
 858              	.LVL89:
 859              	.L50:
 860              	.LBE18:
  56:src/Cache.cpp ****         if(constructor) {
 861              		.loc 1 56 25 is_stmt 1 discriminator 1
  56:src/Cache.cpp ****         if(constructor) {
 862              		.loc 1 56 33 is_stmt 0 discriminator 1
 863 04dc 83378903 		ld	a5,56(s2)
  56:src/Cache.cpp ****         if(constructor) {
 864              		.loc 1 56 25 discriminator 1
 865 04e0 63FEF402 		bleu	a5,s1,.L45
 866              	.LBB19:
  57:src/Cache.cpp ****             constructor((void*)((char*)startAddr + i*slotSize));
 867              		.loc 1 57 9 is_stmt 1
  57:src/Cache.cpp ****             constructor((void*)((char*)startAddr + i*slotSize));
 868              		.loc 1 57 12 is_stmt 0
 869 04e4 83370905 		ld	a5,80(s2)
  57:src/Cache.cpp ****             constructor((void*)((char*)startAddr + i*slotSize));
 870              		.loc 1 57 9
 871 04e8 638A0700 		beqz	a5,.L47
  58:src/Cache.cpp ****         }
 872              		.loc 1 58 13 is_stmt 1
  58:src/Cache.cpp ****         }
 873              		.loc 1 58 54 is_stmt 0
 874 04ec 03350904 		ld	a0,64(s2)
  58:src/Cache.cpp ****         }
 875              		.loc 1 58 53
 876 04f0 33059502 		mul	a0,a0,s1
  58:src/Cache.cpp ****         }
 877              		.loc 1 58 24
 878 04f4 3385AA00 		add	a0,s5,a0
 879 04f8 E7800700 		jalr	a5
 880              	.LVL90:
 881              	.L47:
  60:src/Cache.cpp ****         curr->parentSlab = slab;
 882              		.loc 1 60 9 is_stmt 1
  60:src/Cache.cpp ****         curr->parentSlab = slab;
 883              		.loc 1 60 51 is_stmt 0
 884 04fc 83370904 		ld	a5,64(s2)
  60:src/Cache.cpp ****         curr->parentSlab = slab;
 885              		.loc 1 60 50
 886 0500 B3879702 		mul	a5,a5,s1
  60:src/Cache.cpp ****         curr->parentSlab = slab;
 887              		.loc 1 60 15
 888 0504 B387FA00 		add	a5,s5,a5
 889              	.LVL91:
  61:src/Cache.cpp ****         curr->allocated = false;
 890              		.loc 1 61 9 is_stmt 1
  61:src/Cache.cpp ****         curr->allocated = false;
 891              		.loc 1 61 26 is_stmt 0
 892 0508 23B84701 		sd	s4,16(a5)
  62:src/Cache.cpp ****         if(prev) {
 893              		.loc 1 62 9 is_stmt 1
  62:src/Cache.cpp ****         if(prev) {
 894              		.loc 1 62 25 is_stmt 0
GAS LISTING /tmp/ccYSR6UZ.s 			page 23


 895 050c 23800700 		sb	zero,0(a5)
  63:src/Cache.cpp ****             prev->next= curr;
 896              		.loc 1 63 9 is_stmt 1
 897 0510 E38E09FA 		beqz	s3,.L48
  64:src/Cache.cpp ****         }
 898              		.loc 1 64 13
  64:src/Cache.cpp ****         }
 899              		.loc 1 64 23 is_stmt 0
 900 0514 23B4F900 		sd	a5,8(s3)
 901 0518 6FF09FFB 		j	.L49
 902              	.LVL92:
 903              	.L45:
 904              	.LBE19:
 905              	.LBE20:
  74:src/Cache.cpp **** 
 906              		.loc 1 74 1
 907 051c 13050A00 		mv	a0,s4
 908 0520 83308103 		ld	ra,56(sp)
 909              		.cfi_restore 1
 910 0524 03340103 		ld	s0,48(sp)
 911              		.cfi_restore 8
 912              		.cfi_def_cfa 2, 64
 913 0528 83348102 		ld	s1,40(sp)
 914              		.cfi_restore 9
 915              	.LVL93:
 916 052c 03390102 		ld	s2,32(sp)
 917              		.cfi_restore 18
 918              	.LVL94:
 919 0530 83398101 		ld	s3,24(sp)
 920              		.cfi_restore 19
 921              	.LVL95:
 922 0534 033A0101 		ld	s4,16(sp)
 923              		.cfi_restore 20
 924              	.LVL96:
 925 0538 833A8100 		ld	s5,8(sp)
 926              		.cfi_restore 21
 927              	.LVL97:
 928 053c 13010104 		addi	sp,sp,64
 929              		.cfi_def_cfa_offset 0
 930 0540 67800000 		jr	ra
 931              		.cfi_endproc
 932              	.LFE27:
 934              		.align	2
 935              		.globl	_ZN5Cache11createCacheEv
 937              	_ZN5Cache11createCacheEv:
 938              	.LFB40:
 223:src/Cache.cpp **** 
 224:src/Cache.cpp **** Cache *Cache::createCache() {
 939              		.loc 1 224 29 is_stmt 1
 940              		.cfi_startproc
 941 0544 130101FF 		addi	sp,sp,-16
 942              		.cfi_def_cfa_offset 16
 943 0548 23341100 		sd	ra,8(sp)
 944 054c 23308100 		sd	s0,0(sp)
 945              		.cfi_offset 1, -8
 946              		.cfi_offset 8, -16
 947 0550 13040101 		addi	s0,sp,16
GAS LISTING /tmp/ccYSR6UZ.s 			page 24


 948              		.cfi_def_cfa 8, 0
 225:src/Cache.cpp ****     return (Cache*)BuddyAllocator::buddyAlloc(1);
 949              		.loc 1 225 5
 950              		.loc 1 225 46 is_stmt 0
 951 0554 13051000 		li	a0,1
 952 0558 97000000 		call	_ZN14BuddyAllocator10buddyAllocEm@plt
 952      E7800000 
 953              	.LVL98:
 226:src/Cache.cpp **** }
 954              		.loc 1 226 1
 955 0560 83308100 		ld	ra,8(sp)
 956              		.cfi_restore 1
 957 0564 03340100 		ld	s0,0(sp)
 958              		.cfi_restore 8
 959              		.cfi_def_cfa 2, 16
 960 0568 13010101 		addi	sp,sp,16
 961              		.cfi_def_cfa_offset 0
 962 056c 67800000 		jr	ra
 963              		.cfi_endproc
 964              	.LFE40:
 966              		.align	2
 967              		.globl	_ZN5Cache6strcpyEPcPKc
 969              	_ZN5Cache6strcpyEPcPKc:
 970              	.LFB41:
 227:src/Cache.cpp **** 
 228:src/Cache.cpp **** void Cache::strcpy(char *string1, const char *string2) {
 971              		.loc 1 228 56 is_stmt 1
 972              		.cfi_startproc
 973              	.LVL99:
 974 0570 130101FF 		addi	sp,sp,-16
 975              		.cfi_def_cfa_offset 16
 976 0574 23348100 		sd	s0,8(sp)
 977              		.cfi_offset 8, -8
 978 0578 13040101 		addi	s0,sp,16
 979              		.cfi_def_cfa 8, 0
 229:src/Cache.cpp ****         for(int i = 0;; i++) {
 980              		.loc 1 229 9
 981              	.LVL100:
 982              	.LBB21:
 983              		.loc 1 229 17 is_stmt 0
 984 057c 93060000 		li	a3,0
 985              	.LVL101:
 986              	.L56:
 230:src/Cache.cpp ****             string1[i] = string2[i];
 987              		.loc 1 230 13 is_stmt 1
 988              		.loc 1 230 35 is_stmt 0
 989 0580 B387D500 		add	a5,a1,a3
 990              		.loc 1 230 22
 991 0584 3307D500 		add	a4,a0,a3
 992              		.loc 1 230 35
 993 0588 03C60700 		lbu	a2,0(a5)
 994              		.loc 1 230 24
 995 058c 2300C700 		sb	a2,0(a4)
 231:src/Cache.cpp ****             if(string2[i] == '\0') break;
 996              		.loc 1 231 13 is_stmt 1
 997              		.loc 1 231 25 is_stmt 0
 998 0590 83C70700 		lbu	a5,0(a5)
GAS LISTING /tmp/ccYSR6UZ.s 			page 25


 999              		.loc 1 231 13
 1000 0594 63860700 		beqz	a5,.L54
 229:src/Cache.cpp ****         for(int i = 0;; i++) {
 1001              		.loc 1 229 9 is_stmt 1
 1002 0598 9B861600 		addiw	a3,a3,1
 1003              	.LVL102:
 229:src/Cache.cpp ****         for(int i = 0;; i++) {
 1004              		.loc 1 229 9
 230:src/Cache.cpp ****             string1[i] = string2[i];
 1005              		.loc 1 230 24 is_stmt 0
 1006 059c 6FF05FFE 		j	.L56
 1007              	.LVL103:
 1008              	.L54:
 1009              	.LBE21:
 232:src/Cache.cpp ****         }
 233:src/Cache.cpp **** }
 1010              		.loc 1 233 1
 1011 05a0 03348100 		ld	s0,8(sp)
 1012              		.cfi_restore 8
 1013              		.cfi_def_cfa 2, 16
 1014 05a4 13010101 		addi	sp,sp,16
 1015              		.cfi_def_cfa_offset 0
 1016 05a8 67800000 		jr	ra
 1017              		.cfi_endproc
 1018              	.LFE41:
 1020              		.align	2
 1021              		.globl	_ZN5Cache9initCacheEPKcmPFvPvES4_
 1023              	_ZN5Cache9initCacheEPKcmPFvPvES4_:
 1024              	.LFB24:
  12:src/Cache.cpp ****     strcpy(cacheName, name);
 1025              		.loc 1 12 98 is_stmt 1
 1026              		.cfi_startproc
 1027              	.LVL104:
 1028 05ac 130101FD 		addi	sp,sp,-48
 1029              		.cfi_def_cfa_offset 48
 1030 05b0 23341102 		sd	ra,40(sp)
 1031 05b4 23308102 		sd	s0,32(sp)
 1032 05b8 233C9100 		sd	s1,24(sp)
 1033 05bc 23382101 		sd	s2,16(sp)
 1034 05c0 23343101 		sd	s3,8(sp)
 1035 05c4 23304101 		sd	s4,0(sp)
 1036              		.cfi_offset 1, -8
 1037              		.cfi_offset 8, -16
 1038              		.cfi_offset 9, -24
 1039              		.cfi_offset 18, -32
 1040              		.cfi_offset 19, -40
 1041              		.cfi_offset 20, -48
 1042 05c8 13040103 		addi	s0,sp,48
 1043              		.cfi_def_cfa 8, 0
 1044 05cc 93040500 		mv	s1,a0
 1045 05d0 13090600 		mv	s2,a2
 1046 05d4 138A0600 		mv	s4,a3
 1047 05d8 93090700 		mv	s3,a4
  13:src/Cache.cpp ****     for(int i = 0; i < 3; i++) {
 1048              		.loc 1 13 5
  13:src/Cache.cpp ****     for(int i = 0; i < 3; i++) {
 1049              		.loc 1 13 11 is_stmt 0
GAS LISTING /tmp/ccYSR6UZ.s 			page 26


 1050 05dc 13050502 		addi	a0,a0,32
 1051              	.LVL105:
 1052 05e0 97000000 		call	_ZN5Cache6strcpyEPcPKc
 1052      E7800000 
 1053              	.LVL106:
  14:src/Cache.cpp ****         slabList[i] = nullptr;
 1054              		.loc 1 14 5 is_stmt 1
 1055              	.LBB22:
  14:src/Cache.cpp ****         slabList[i] = nullptr;
 1056              		.loc 1 14 13 is_stmt 0
 1057 05e8 93070000 		li	a5,0
 1058 05ec 6F004001 		j	.L60
 1059              	.LVL107:
 1060              	.L63:
  15:src/Cache.cpp ****     }
 1061              		.loc 1 15 9 is_stmt 1 discriminator 2
  15:src/Cache.cpp ****     }
 1062              		.loc 1 15 21 is_stmt 0 discriminator 2
 1063 05f0 13953700 		slli	a0,a5,3
 1064 05f4 3385A400 		add	a0,s1,a0
 1065 05f8 23340500 		sd	zero,8(a0)
  14:src/Cache.cpp ****         slabList[i] = nullptr;
 1066              		.loc 1 14 5 is_stmt 1 discriminator 2
 1067 05fc 9B871700 		addiw	a5,a5,1
 1068              	.LVL108:
 1069              	.L60:
  14:src/Cache.cpp ****         slabList[i] = nullptr;
 1070              		.loc 1 14 22 discriminator 3
 1071 0600 13062000 		li	a2,2
 1072 0604 E356F6FE 		ble	a5,a2,.L63
 1073              	.LBE22:
  17:src/Cache.cpp ****     constructor = ctor;
 1074              		.loc 1 17 5
  17:src/Cache.cpp ****     constructor = ctor;
 1075              		.loc 1 17 16 is_stmt 0
 1076 0608 23B82403 		sd	s2,48(s1)
  18:src/Cache.cpp ****     destructor = dtor;
 1077              		.loc 1 18 5 is_stmt 1
  18:src/Cache.cpp ****     destructor = dtor;
 1078              		.loc 1 18 17 is_stmt 0
 1079 060c 23B84405 		sd	s4,80(s1)
  19:src/Cache.cpp ****     slotSize = objectSize + sizeof(Slot);
 1080              		.loc 1 19 5 is_stmt 1
  19:src/Cache.cpp ****     slotSize = objectSize + sizeof(Slot);
 1081              		.loc 1 19 16 is_stmt 0
 1082 0610 23BC3405 		sd	s3,88(s1)
  20:src/Cache.cpp ****     slabSize = slotSize / BLKSIZE;
 1083              		.loc 1 20 5 is_stmt 1
  20:src/Cache.cpp ****     slabSize = slotSize / BLKSIZE;
 1084              		.loc 1 20 27 is_stmt 0
 1085 0614 93058901 		addi	a1,s2,24
  20:src/Cache.cpp ****     slabSize = slotSize / BLKSIZE;
 1086              		.loc 1 20 14
 1087 0618 23B0B404 		sd	a1,64(s1)
  21:src/Cache.cpp ****     if(slotSize % BLKSIZE != 0) slabSize++; // u blokovima
 1088              		.loc 1 21 5 is_stmt 1
  21:src/Cache.cpp ****     if(slotSize % BLKSIZE != 0) slabSize++; // u blokovima
GAS LISTING /tmp/ccYSR6UZ.s 			page 27


 1089              		.loc 1 21 25 is_stmt 0
 1090 061c 13D7C500 		srli	a4,a1,12
  21:src/Cache.cpp ****     if(slotSize % BLKSIZE != 0) slabSize++; // u blokovima
 1091              		.loc 1 21 14
 1092 0620 23B4E404 		sd	a4,72(s1)
  22:src/Cache.cpp **** 
 1093              		.loc 1 22 5 is_stmt 1
  22:src/Cache.cpp **** 
 1094              		.loc 1 22 17 is_stmt 0
 1095 0624 B7170000 		li	a5,4096
 1096              	.LVL109:
 1097 0628 9387F7FF 		addi	a5,a5,-1
 1098 062c B3F7F500 		and	a5,a1,a5
  22:src/Cache.cpp **** 
 1099              		.loc 1 22 5
 1100 0630 63860700 		beqz	a5,.L61
  22:src/Cache.cpp **** 
 1101              		.loc 1 22 33 is_stmt 1 discriminator 1
  22:src/Cache.cpp **** 
 1102              		.loc 1 22 41 is_stmt 0 discriminator 1
 1103 0634 13071700 		addi	a4,a4,1
 1104 0638 23B4E404 		sd	a4,72(s1)
 1105              	.L61:
  24:src/Cache.cpp **** }
 1106              		.loc 1 24 5 is_stmt 1
  24:src/Cache.cpp **** }
 1107              		.loc 1 24 31 is_stmt 0
 1108 063c 03B58404 		ld	a0,72(s1)
 1109 0640 97000000 		call	_ZN5Cache11getNumSlotsEmm
 1109      E7800000 
 1110              	.LVL110:
  24:src/Cache.cpp **** }
 1111              		.loc 1 24 18
 1112 0648 23BCA402 		sd	a0,56(s1)
  25:src/Cache.cpp **** 
 1113              		.loc 1 25 1
 1114 064c 83308102 		ld	ra,40(sp)
 1115              		.cfi_restore 1
 1116 0650 03340102 		ld	s0,32(sp)
 1117              		.cfi_restore 8
 1118              		.cfi_def_cfa 2, 48
 1119 0654 83348101 		ld	s1,24(sp)
 1120              		.cfi_restore 9
 1121              	.LVL111:
 1122 0658 03390101 		ld	s2,16(sp)
 1123              		.cfi_restore 18
 1124              	.LVL112:
 1125 065c 83398100 		ld	s3,8(sp)
 1126              		.cfi_restore 19
 1127              	.LVL113:
 1128 0660 033A0100 		ld	s4,0(sp)
 1129              		.cfi_restore 20
 1130              	.LVL114:
 1131 0664 13010103 		addi	sp,sp,48
 1132              		.cfi_def_cfa_offset 0
 1133 0668 67800000 		jr	ra
 1134              		.cfi_endproc
GAS LISTING /tmp/ccYSR6UZ.s 			page 28


 1135              	.LFE24:
 1137              		.section	.rodata.str1.8
 1138 004b 00000000 		.align	3
 1138      00
 1139              	.LC3:
 1140 0050 696D6520 		.string	"ime kesa, velicina objekta, velicina slaba, broj slabova, broj slotova po slabu, velicina
 1140      6B657361 
 1140      2C207665 
 1140      6C696369 
 1140      6E61206F 
 1141 00ca 00000000 		.align	3
 1141      0000
 1142              	.LC4:
 1143 00d0 0A00     		.string	"\n"
 1144              		.text
 1145              		.align	2
 1146              		.globl	_ZN5Cache13allBufferInfoEv
 1148              	_ZN5Cache13allBufferInfoEv:
 1149              	.LFB42:
 234:src/Cache.cpp **** 
 235:src/Cache.cpp **** void Cache::allBufferInfo() {
 1150              		.loc 1 235 29 is_stmt 1
 1151              		.cfi_startproc
 1152 066c 130101FE 		addi	sp,sp,-32
 1153              		.cfi_def_cfa_offset 32
 1154 0670 233C1100 		sd	ra,24(sp)
 1155 0674 23388100 		sd	s0,16(sp)
 1156 0678 23349100 		sd	s1,8(sp)
 1157              		.cfi_offset 1, -8
 1158              		.cfi_offset 8, -16
 1159              		.cfi_offset 9, -24
 1160 067c 13040102 		addi	s0,sp,32
 1161              		.cfi_def_cfa 8, 0
 236:src/Cache.cpp ****     printString("ime kesa, velicina objekta, velicina slaba, broj slabova, broj slotova po slabu, v
 1162              		.loc 1 236 5
 1163              		.loc 1 236 16 is_stmt 0
 1164 0680 17050000 		lla	a0,.LC3
 1164      13050500 
 1165 0688 97000000 		call	_Z11printStringPKc@plt
 1165      E7800000 
 1166              	.LVL115:
 237:src/Cache.cpp ****     for(int i = 0; i < MAXSIZEBUFFER - MINSIZEBUFFER + 1; i++) {
 1167              		.loc 1 237 5 is_stmt 1
 1168              	.LBB23:
 1169              		.loc 1 237 13 is_stmt 0
 1170 0690 93040000 		li	s1,0
 1171 0694 6F000002 		j	.L67
 1172              	.LVL116:
 1173              	.L69:
 238:src/Cache.cpp ****         if(bufferCache[i]) bufferCache[i]->printCacheInfo();
 1174              		.loc 1 238 28 is_stmt 1 discriminator 1
 1175              		.loc 1 238 58 is_stmt 0 discriminator 1
 1176 0698 97000000 		call	_ZN5Cache14printCacheInfoEv
 1176      E7800000 
 1177              	.LVL117:
 1178              	.L66:
 239:src/Cache.cpp ****         printString("\n");
GAS LISTING /tmp/ccYSR6UZ.s 			page 29


 1179              		.loc 1 239 9 is_stmt 1 discriminator 2
 1180              		.loc 1 239 20 is_stmt 0 discriminator 2
 1181 06a0 17050000 		lla	a0,.LC4
 1181      13050500 
 1182 06a8 97000000 		call	_Z11printStringPKc@plt
 1182      E7800000 
 1183              	.LVL118:
 237:src/Cache.cpp ****     for(int i = 0; i < MAXSIZEBUFFER - MINSIZEBUFFER + 1; i++) {
 1184              		.loc 1 237 5 is_stmt 1 discriminator 2
 1185 06b0 9B841400 		addiw	s1,s1,1
 1186              	.LVL119:
 1187              	.L67:
 237:src/Cache.cpp ****     for(int i = 0; i < MAXSIZEBUFFER - MINSIZEBUFFER + 1; i++) {
 1188              		.loc 1 237 22 discriminator 1
 1189 06b4 9307C000 		li	a5,12
 1190 06b8 63C09702 		bgt	s1,a5,.L64
 238:src/Cache.cpp ****         if(bufferCache[i]) bufferCache[i]->printCacheInfo();
 1191              		.loc 1 238 9
 238:src/Cache.cpp ****         if(bufferCache[i]) bufferCache[i]->printCacheInfo();
 1192              		.loc 1 238 25 is_stmt 0
 1193 06bc 13973400 		slli	a4,s1,3
 1194 06c0 97070000 		lla	a5,.LANCHOR0
 1194      93870700 
 1195 06c8 B387E700 		add	a5,a5,a4
 1196 06cc 03B50700 		ld	a0,0(a5)
 238:src/Cache.cpp ****         if(bufferCache[i]) bufferCache[i]->printCacheInfo();
 1197              		.loc 1 238 9
 1198 06d0 E31405FC 		bnez	a0,.L69
 1199 06d4 6FF0DFFC 		j	.L66
 1200              	.L64:
 1201              	.LBE23:
 240:src/Cache.cpp ****     }
 241:src/Cache.cpp **** }
 1202              		.loc 1 241 1
 1203 06d8 83308101 		ld	ra,24(sp)
 1204              		.cfi_restore 1
 1205 06dc 03340101 		ld	s0,16(sp)
 1206              		.cfi_restore 8
 1207              		.cfi_def_cfa 2, 32
 1208 06e0 83348100 		ld	s1,8(sp)
 1209              		.cfi_restore 9
 1210              	.LVL120:
 1211 06e4 13010102 		addi	sp,sp,32
 1212              		.cfi_def_cfa_offset 0
 1213 06e8 67800000 		jr	ra
 1214              		.cfi_endproc
 1215              	.LFE42:
 1217              		.align	2
 1218              		.globl	_ZN5Cache4Slab17calculateNewStateEv
 1220              	_ZN5Cache4Slab17calculateNewStateEv:
 1221              	.LFB44:
 242:src/Cache.cpp **** 
 243:src/Cache.cpp **** 
 244:src/Cache.cpp **** Cache::Slot *Cache::Slab::getFreeSlot() {
 245:src/Cache.cpp ****     if(!slotHead || state == FULL) return nullptr;
 246:src/Cache.cpp **** 
 247:src/Cache.cpp ****     for(Slot* curr = slotHead; curr != nullptr; curr = curr->next) {
GAS LISTING /tmp/ccYSR6UZ.s 			page 30


 248:src/Cache.cpp ****         if(curr->allocated == false) {
 249:src/Cache.cpp ****             this->allocatedSlots++;
 250:src/Cache.cpp ****             curr->allocated = true;
 251:src/Cache.cpp ****             curr->parentSlab = this;
 252:src/Cache.cpp **** 
 253:src/Cache.cpp ****             SlabState newState = calculateNewState();
 254:src/Cache.cpp ****             if(this->state != newState) {
 255:src/Cache.cpp ****                 if(this->state != CREATED) parentCache->slabListRemove(this, this->state);
 256:src/Cache.cpp ****                 parentCache->slabListPut(this, newState);
 257:src/Cache.cpp ****             }
 258:src/Cache.cpp **** 
 259:src/Cache.cpp ****             return curr;
 260:src/Cache.cpp ****         }
 261:src/Cache.cpp ****     }
 262:src/Cache.cpp **** 
 263:src/Cache.cpp ****     return nullptr;
 264:src/Cache.cpp **** }
 265:src/Cache.cpp **** 
 266:src/Cache.cpp **** Cache::SlabState Cache::Slab::calculateNewState() {
 1222              		.loc 1 266 51 is_stmt 1
 1223              		.cfi_startproc
 1224              	.LVL121:
 1225 06ec 130101FF 		addi	sp,sp,-16
 1226              		.cfi_def_cfa_offset 16
 1227 06f0 23348100 		sd	s0,8(sp)
 1228              		.cfi_offset 8, -8
 1229 06f4 13040101 		addi	s0,sp,16
 1230              		.cfi_def_cfa 8, 0
 267:src/Cache.cpp ****     if(allocatedSlots == 0) {
 1231              		.loc 1 267 5
 1232              		.loc 1 267 8 is_stmt 0
 1233 06f8 83370500 		ld	a5,0(a0)
 1234              		.loc 1 267 5
 1235 06fc 63800702 		beqz	a5,.L72
 268:src/Cache.cpp ****         return EMPTY;
 269:src/Cache.cpp ****     }
 270:src/Cache.cpp ****     else if(allocatedSlots == parentCache->optimalSlots) {
 1236              		.loc 1 270 10 is_stmt 1
 1237              		.loc 1 270 31 is_stmt 0
 1238 0700 03378501 		ld	a4,24(a0)
 1239              		.loc 1 270 44
 1240 0704 03378703 		ld	a4,56(a4)
 1241              		.loc 1 270 10
 1242 0708 638EE700 		beq	a5,a4,.L73
 271:src/Cache.cpp ****         return FULL;
 272:src/Cache.cpp ****     }
 273:src/Cache.cpp ****     return PARTIAL;
 1243              		.loc 1 273 12
 1244 070c 13051000 		li	a0,1
 1245              	.LVL122:
 1246              	.L71:
 274:src/Cache.cpp **** }
 1247              		.loc 1 274 1
 1248 0710 03348100 		ld	s0,8(sp)
 1249              		.cfi_remember_state
 1250              		.cfi_restore 8
 1251              		.cfi_def_cfa 2, 16
GAS LISTING /tmp/ccYSR6UZ.s 			page 31


 1252 0714 13010101 		addi	sp,sp,16
 1253              		.cfi_def_cfa_offset 0
 1254 0718 67800000 		jr	ra
 1255              	.LVL123:
 1256              	.L72:
 1257              		.cfi_restore_state
 268:src/Cache.cpp ****         return EMPTY;
 1258              		.loc 1 268 16
 1259 071c 13050000 		li	a0,0
 1260              	.LVL124:
 1261 0720 6FF01FFF 		j	.L71
 1262              	.LVL125:
 1263              	.L73:
 271:src/Cache.cpp ****         return FULL;
 1264              		.loc 1 271 16
 1265 0724 13052000 		li	a0,2
 1266              	.LVL126:
 1267 0728 6FF09FFE 		j	.L71
 1268              		.cfi_endproc
 1269              	.LFE44:
 1271              		.align	2
 1272              		.globl	_ZN5Cache8freeSlotEPNS_4SlotE
 1274              	_ZN5Cache8freeSlotEPNS_4SlotE:
 1275              	.LFB29:
  86:src/Cache.cpp ****     if(slot->parentSlab->parentCache != this) {
 1276              		.loc 1 86 34 is_stmt 1
 1277              		.cfi_startproc
 1278              	.LVL127:
 1279 072c 130101FD 		addi	sp,sp,-48
 1280              		.cfi_def_cfa_offset 48
 1281 0730 23341102 		sd	ra,40(sp)
 1282 0734 23308102 		sd	s0,32(sp)
 1283 0738 233C9100 		sd	s1,24(sp)
 1284 073c 23382101 		sd	s2,16(sp)
 1285 0740 23343101 		sd	s3,8(sp)
 1286              		.cfi_offset 1, -8
 1287              		.cfi_offset 8, -16
 1288              		.cfi_offset 9, -24
 1289              		.cfi_offset 18, -32
 1290              		.cfi_offset 19, -40
 1291 0744 13040103 		addi	s0,sp,48
 1292              		.cfi_def_cfa 8, 0
  87:src/Cache.cpp ****         errortype = FreeSlotError;
 1293              		.loc 1 87 5
  87:src/Cache.cpp ****         errortype = FreeSlotError;
 1294              		.loc 1 87 14 is_stmt 0
 1295 0748 83B40501 		ld	s1,16(a1)
  87:src/Cache.cpp ****         errortype = FreeSlotError;
 1296              		.loc 1 87 26
 1297 074c 03B98401 		ld	s2,24(s1)
  87:src/Cache.cpp ****         errortype = FreeSlotError;
 1298              		.loc 1 87 5
 1299 0750 6304A902 		beq	s2,a0,.L76
  88:src/Cache.cpp ****         return;
 1300              		.loc 1 88 9 is_stmt 1
  88:src/Cache.cpp ****         return;
 1301              		.loc 1 88 19 is_stmt 0
GAS LISTING /tmp/ccYSR6UZ.s 			page 32


 1302 0754 93071000 		li	a5,1
 1303 0758 2320F500 		sw	a5,0(a0)
  89:src/Cache.cpp ****     }
 1304              		.loc 1 89 9 is_stmt 1
 1305              	.LVL128:
 1306              	.L75:
 102:src/Cache.cpp **** 
 1307              		.loc 1 102 1 is_stmt 0
 1308 075c 83308102 		ld	ra,40(sp)
 1309              		.cfi_remember_state
 1310              		.cfi_restore 1
 1311 0760 03340102 		ld	s0,32(sp)
 1312              		.cfi_restore 8
 1313              		.cfi_def_cfa 2, 48
 1314 0764 83348101 		ld	s1,24(sp)
 1315              		.cfi_restore 9
 1316 0768 03390101 		ld	s2,16(sp)
 1317              		.cfi_restore 18
 1318 076c 83398100 		ld	s3,8(sp)
 1319              		.cfi_restore 19
 1320 0770 13010103 		addi	sp,sp,48
 1321              		.cfi_def_cfa_offset 0
 1322 0774 67800000 		jr	ra
 1323              	.LVL129:
 1324              	.L76:
 1325              		.cfi_restore_state
  92:src/Cache.cpp ****     Cache* parentCache = parentSlab->parentCache;
 1326              		.loc 1 92 5 is_stmt 1
  93:src/Cache.cpp ****     slot->allocated = false;
 1327              		.loc 1 93 5
  94:src/Cache.cpp ****     parentSlab->allocatedSlots--;
 1328              		.loc 1 94 5
  94:src/Cache.cpp ****     parentSlab->allocatedSlots--;
 1329              		.loc 1 94 21 is_stmt 0
 1330 0778 23800500 		sb	zero,0(a1)
  95:src/Cache.cpp **** 
 1331              		.loc 1 95 5 is_stmt 1
  95:src/Cache.cpp **** 
 1332              		.loc 1 95 17 is_stmt 0
 1333 077c 83B70400 		ld	a5,0(s1)
  95:src/Cache.cpp **** 
 1334              		.loc 1 95 31
 1335 0780 9387F7FF 		addi	a5,a5,-1
 1336 0784 23B0F400 		sd	a5,0(s1)
  97:src/Cache.cpp ****     if(parentSlab->state != newState) {
 1337              		.loc 1 97 5 is_stmt 1
  97:src/Cache.cpp ****     if(parentSlab->state != newState) {
 1338              		.loc 1 97 55 is_stmt 0
 1339 0788 13850400 		mv	a0,s1
 1340              	.LVL130:
 1341 078c 97000000 		call	_ZN5Cache4Slab17calculateNewStateEv
 1341      E7800000 
 1342              	.LVL131:
 1343 0794 93090500 		mv	s3,a0
 1344              	.LVL132:
  98:src/Cache.cpp ****         if(parentSlab->state != CREATED) parentCache->slabListRemove(parentSlab, parentSlab->state)
 1345              		.loc 1 98 5 is_stmt 1
GAS LISTING /tmp/ccYSR6UZ.s 			page 33


  98:src/Cache.cpp ****         if(parentSlab->state != CREATED) parentCache->slabListRemove(parentSlab, parentSlab->state)
 1346              		.loc 1 98 20 is_stmt 0
 1347 0798 03A60401 		lw	a2,16(s1)
  98:src/Cache.cpp ****         if(parentSlab->state != CREATED) parentCache->slabListRemove(parentSlab, parentSlab->state)
 1348              		.loc 1 98 5
 1349 079c E300A6FC 		beq	a2,a0,.L75
  99:src/Cache.cpp ****         parentCache->slabListPut(parentSlab, newState);
 1350              		.loc 1 99 9 is_stmt 1
 1351 07a0 93073000 		li	a5,3
 1352 07a4 631EF600 		bne	a2,a5,.L80
 1353              	.LVL133:
 1354              	.L78:
 100:src/Cache.cpp ****     }
 1355              		.loc 1 100 9
 100:src/Cache.cpp ****     }
 1356              		.loc 1 100 33 is_stmt 0
 1357 07a8 1B860900 		sext.w	a2,s3
 1358 07ac 93850400 		mv	a1,s1
 1359 07b0 13050900 		mv	a0,s2
 1360 07b4 97000000 		call	_ZN5Cache11slabListPutEPNS_4SlabEi
 1360      E7800000 
 1361              	.LVL134:
 1362 07bc 6FF01FFA 		j	.L75
 1363              	.LVL135:
 1364              	.L80:
  99:src/Cache.cpp ****         parentCache->slabListPut(parentSlab, newState);
 1365              		.loc 1 99 42 is_stmt 1 discriminator 1
  99:src/Cache.cpp ****         parentCache->slabListPut(parentSlab, newState);
 1366              		.loc 1 99 69 is_stmt 0 discriminator 1
 1367 07c0 93850400 		mv	a1,s1
 1368 07c4 13050900 		mv	a0,s2
 1369              	.LVL136:
 1370 07c8 97000000 		call	_ZN5Cache14slabListRemoveEPNS_4SlabEi
 1370      E7800000 
 1371              	.LVL137:
 1372 07d0 6FF09FFD 		j	.L78
 1373              		.cfi_endproc
 1374              	.LFE29:
 1376              		.align	2
 1377              		.globl	_ZN5Cache10freeBufferEPNS_4SlotE
 1379              	_ZN5Cache10freeBufferEPNS_4SlotE:
 1380              	.LFB38:
 207:src/Cache.cpp ****     Cache* parentCache = slot->parentSlab->parentCache;
 1381              		.loc 1 207 36 is_stmt 1
 1382              		.cfi_startproc
 1383              	.LVL138:
 1384 07d4 130101FF 		addi	sp,sp,-16
 1385              		.cfi_def_cfa_offset 16
 1386 07d8 23341100 		sd	ra,8(sp)
 1387 07dc 23308100 		sd	s0,0(sp)
 1388              		.cfi_offset 1, -8
 1389              		.cfi_offset 8, -16
 1390 07e0 13040101 		addi	s0,sp,16
 1391              		.cfi_def_cfa 8, 0
 1392 07e4 93050500 		mv	a1,a0
 208:src/Cache.cpp ****     parentCache->freeSlot(slot);
 1393              		.loc 1 208 5
GAS LISTING /tmp/ccYSR6UZ.s 			page 34


 208:src/Cache.cpp ****     parentCache->freeSlot(slot);
 1394              		.loc 1 208 32 is_stmt 0
 1395 07e8 83370501 		ld	a5,16(a0)
 1396              	.LVL139:
 209:src/Cache.cpp **** }
 1397              		.loc 1 209 5 is_stmt 1
 209:src/Cache.cpp **** }
 1398              		.loc 1 209 26 is_stmt 0
 1399 07ec 03B58701 		ld	a0,24(a5)
 1400              	.LVL140:
 1401 07f0 97000000 		call	_ZN5Cache8freeSlotEPNS_4SlotE
 1401      E7800000 
 1402              	.LVL141:
 210:src/Cache.cpp **** 
 1403              		.loc 1 210 1
 1404 07f8 83308100 		ld	ra,8(sp)
 1405              		.cfi_restore 1
 1406 07fc 03340100 		ld	s0,0(sp)
 1407              		.cfi_restore 8
 1408              		.cfi_def_cfa 2, 16
 1409 0800 13010101 		addi	sp,sp,16
 1410              		.cfi_def_cfa_offset 0
 1411 0804 67800000 		jr	ra
 1412              		.cfi_endproc
 1413              	.LFE38:
 1415              		.align	2
 1416              		.globl	_ZN5Cache4Slab11getFreeSlotEv
 1418              	_ZN5Cache4Slab11getFreeSlotEv:
 1419              	.LFB43:
 244:src/Cache.cpp ****     if(!slotHead || state == FULL) return nullptr;
 1420              		.loc 1 244 41 is_stmt 1
 1421              		.cfi_startproc
 1422              	.LVL142:
 1423 0808 130101FD 		addi	sp,sp,-48
 1424              		.cfi_def_cfa_offset 48
 1425 080c 23341102 		sd	ra,40(sp)
 1426 0810 23308102 		sd	s0,32(sp)
 1427 0814 233C9100 		sd	s1,24(sp)
 1428 0818 23382101 		sd	s2,16(sp)
 1429 081c 23343101 		sd	s3,8(sp)
 1430              		.cfi_offset 1, -8
 1431              		.cfi_offset 8, -16
 1432              		.cfi_offset 9, -24
 1433              		.cfi_offset 18, -32
 1434              		.cfi_offset 19, -40
 1435 0820 13040103 		addi	s0,sp,48
 1436              		.cfi_def_cfa 8, 0
 245:src/Cache.cpp **** 
 1437              		.loc 1 245 5
 245:src/Cache.cpp **** 
 1438              		.loc 1 245 9 is_stmt 0
 1439 0824 83340502 		ld	s1,32(a0)
 245:src/Cache.cpp **** 
 1440              		.loc 1 245 5
 1441 0828 638A0406 		beqz	s1,.L83
 1442 082c 13090500 		mv	s2,a0
 245:src/Cache.cpp **** 
GAS LISTING /tmp/ccYSR6UZ.s 			page 35


 1443              		.loc 1 245 21 discriminator 2
 1444 0830 03270501 		lw	a4,16(a0)
 245:src/Cache.cpp **** 
 1445              		.loc 1 245 18 discriminator 2
 1446 0834 93072000 		li	a5,2
 1447 0838 630CF708 		beq	a4,a5,.L89
 1448              	.L88:
 1449              	.LVL143:
 1450              	.LBB24:
 247:src/Cache.cpp ****         if(curr->allocated == false) {
 1451              		.loc 1 247 37 is_stmt 1 discriminator 1
 1452 083c 63800406 		beqz	s1,.L83
 1453              	.LBE24:
 248:src/Cache.cpp ****             this->allocatedSlots++;
 1454              		.loc 1 248 9
 1455              	.LBB30:
 1456              	.LBB25:
 248:src/Cache.cpp ****             this->allocatedSlots++;
 1457              		.loc 1 248 18 is_stmt 0
 1458 0840 83C70400 		lbu	a5,0(s1)
 248:src/Cache.cpp ****             this->allocatedSlots++;
 1459              		.loc 1 248 9
 1460 0844 63860700 		beqz	a5,.L91
 1461              	.LBE25:
 247:src/Cache.cpp ****         if(curr->allocated == false) {
 1462              		.loc 1 247 5 is_stmt 1 discriminator 2
 247:src/Cache.cpp ****         if(curr->allocated == false) {
 1463              		.loc 1 247 54 is_stmt 0 discriminator 2
 1464 0848 83B48400 		ld	s1,8(s1)
 1465              	.LVL144:
 247:src/Cache.cpp ****         if(curr->allocated == false) {
 1466              		.loc 1 247 5 discriminator 2
 1467 084c 6FF01FFF 		j	.L88
 1468              	.L91:
 1469              	.LBB28:
 1470              	.LBB26:
 249:src/Cache.cpp ****             curr->allocated = true;
 1471              		.loc 1 249 13 is_stmt 1
 249:src/Cache.cpp ****             curr->allocated = true;
 1472              		.loc 1 249 19 is_stmt 0
 1473 0850 83370900 		ld	a5,0(s2)
 249:src/Cache.cpp ****             curr->allocated = true;
 1474              		.loc 1 249 33
 1475 0854 93871700 		addi	a5,a5,1
 1476 0858 2330F900 		sd	a5,0(s2)
 250:src/Cache.cpp ****             curr->parentSlab = this;
 1477              		.loc 1 250 13 is_stmt 1
 250:src/Cache.cpp ****             curr->parentSlab = this;
 1478              		.loc 1 250 29 is_stmt 0
 1479 085c 93071000 		li	a5,1
 1480 0860 2380F400 		sb	a5,0(s1)
 251:src/Cache.cpp **** 
 1481              		.loc 1 251 13 is_stmt 1
 251:src/Cache.cpp **** 
 1482              		.loc 1 251 30 is_stmt 0
 1483 0864 23B82401 		sd	s2,16(s1)
 253:src/Cache.cpp ****             if(this->state != newState) {
GAS LISTING /tmp/ccYSR6UZ.s 			page 36


 1484              		.loc 1 253 13 is_stmt 1
 253:src/Cache.cpp ****             if(this->state != newState) {
 1485              		.loc 1 253 51 is_stmt 0
 1486 0868 13050900 		mv	a0,s2
 1487              	.LVL145:
 1488 086c 97000000 		call	_ZN5Cache4Slab17calculateNewStateEv
 1488      E7800000 
 1489              	.LVL146:
 1490 0874 93090500 		mv	s3,a0
 1491              	.LVL147:
 254:src/Cache.cpp ****                 if(this->state != CREATED) parentCache->slabListRemove(this, this->state);
 1492              		.loc 1 254 13 is_stmt 1
 254:src/Cache.cpp ****                 if(this->state != CREATED) parentCache->slabListRemove(this, this->state);
 1493              		.loc 1 254 22 is_stmt 0
 1494 0878 03260901 		lw	a2,16(s2)
 254:src/Cache.cpp ****                 if(this->state != CREATED) parentCache->slabListRemove(this, this->state);
 1495              		.loc 1 254 13
 1496 087c 6300A602 		beq	a2,a0,.L83
 255:src/Cache.cpp ****                 parentCache->slabListPut(this, newState);
 1497              		.loc 1 255 17 is_stmt 1
 1498 0880 93073000 		li	a5,3
 1499 0884 631CF602 		bne	a2,a5,.L92
 1500              	.LVL148:
 1501              	.L87:
 256:src/Cache.cpp ****             }
 1502              		.loc 1 256 17
 256:src/Cache.cpp ****             }
 1503              		.loc 1 256 41 is_stmt 0
 1504 0888 1B860900 		sext.w	a2,s3
 1505 088c 93050900 		mv	a1,s2
 1506 0890 03358901 		ld	a0,24(s2)
 1507 0894 97000000 		call	_ZN5Cache11slabListPutEPNS_4SlabEi
 1507      E7800000 
 1508              	.LVL149:
 259:src/Cache.cpp ****         }
 1509              		.loc 1 259 13 is_stmt 1
 1510              	.L83:
 1511              	.LBE26:
 1512              	.LBE28:
 1513              	.LBE30:
 264:src/Cache.cpp **** 
 1514              		.loc 1 264 1 is_stmt 0
 1515 089c 13850400 		mv	a0,s1
 1516 08a0 83308102 		ld	ra,40(sp)
 1517              		.cfi_remember_state
 1518              		.cfi_restore 1
 1519 08a4 03340102 		ld	s0,32(sp)
 1520              		.cfi_restore 8
 1521              		.cfi_def_cfa 2, 48
 1522 08a8 83348101 		ld	s1,24(sp)
 1523              		.cfi_restore 9
 1524 08ac 03390101 		ld	s2,16(sp)
 1525              		.cfi_restore 18
 1526 08b0 83398100 		ld	s3,8(sp)
 1527              		.cfi_restore 19
 1528 08b4 13010103 		addi	sp,sp,48
 1529              		.cfi_def_cfa_offset 0
GAS LISTING /tmp/ccYSR6UZ.s 			page 37


 1530 08b8 67800000 		jr	ra
 1531              	.LVL150:
 1532              	.L92:
 1533              		.cfi_restore_state
 1534              	.LBB31:
 1535              	.LBB29:
 1536              	.LBB27:
 255:src/Cache.cpp ****                 parentCache->slabListPut(this, newState);
 1537              		.loc 1 255 44 is_stmt 1 discriminator 1
 255:src/Cache.cpp ****                 parentCache->slabListPut(this, newState);
 1538              		.loc 1 255 71 is_stmt 0 discriminator 1
 1539 08bc 93050900 		mv	a1,s2
 1540 08c0 03358901 		ld	a0,24(s2)
 1541              	.LVL151:
 1542 08c4 97000000 		call	_ZN5Cache14slabListRemoveEPNS_4SlabEi
 1542      E7800000 
 1543              	.LVL152:
 1544 08cc 6FF0DFFB 		j	.L87
 1545              	.LVL153:
 1546              	.L89:
 1547              	.LBE27:
 1548              	.LBE29:
 1549              	.LBE31:
 245:src/Cache.cpp **** 
 1550              		.loc 1 245 43
 1551 08d0 93040000 		li	s1,0
 1552 08d4 6FF09FFC 		j	.L83
 1553              		.cfi_endproc
 1554              	.LFE43:
 1556              		.align	2
 1557              		.globl	_ZN5Cache12allocateSlotEv
 1559              	_ZN5Cache12allocateSlotEv:
 1560              	.LFB26:
  31:src/Cache.cpp ****     if(slabList[PARTIAL]) {
 1561              		.loc 1 31 29 is_stmt 1
 1562              		.cfi_startproc
 1563              	.LVL154:
 1564 08d8 130101FF 		addi	sp,sp,-16
 1565              		.cfi_def_cfa_offset 16
 1566 08dc 23341100 		sd	ra,8(sp)
 1567 08e0 23308100 		sd	s0,0(sp)
 1568              		.cfi_offset 1, -8
 1569              		.cfi_offset 8, -16
 1570 08e4 13040101 		addi	s0,sp,16
 1571              		.cfi_def_cfa 8, 0
 1572 08e8 93070500 		mv	a5,a0
  32:src/Cache.cpp ****         Slab* slab = slabList[PARTIAL];
 1573              		.loc 1 32 5
 1574              	.LBB32:
  32:src/Cache.cpp ****         Slab* slab = slabList[PARTIAL];
 1575              		.loc 1 32 24 is_stmt 0
 1576 08ec 03350501 		ld	a0,16(a0)
 1577              	.LVL155:
  32:src/Cache.cpp ****         Slab* slab = slabList[PARTIAL];
 1578              		.loc 1 32 5
 1579 08f0 630E0500 		beqz	a0,.L94
 1580              	.LBB33:
GAS LISTING /tmp/ccYSR6UZ.s 			page 38


  33:src/Cache.cpp ****         return slab->getFreeSlot();
 1581              		.loc 1 33 9 is_stmt 1
 1582              	.LVL156:
  34:src/Cache.cpp ****     }
 1583              		.loc 1 34 9
  34:src/Cache.cpp ****     }
 1584              		.loc 1 34 33 is_stmt 0
 1585 08f4 97000000 		call	_ZN5Cache4Slab11getFreeSlotEv
 1585      E7800000 
 1586              	.LVL157:
 1587              	.L93:
 1588              	.LBE33:
 1589              	.LBE32:
  45:src/Cache.cpp **** 
 1590              		.loc 1 45 1
 1591 08fc 83308100 		ld	ra,8(sp)
 1592              		.cfi_remember_state
 1593              		.cfi_restore 1
 1594 0900 03340100 		ld	s0,0(sp)
 1595              		.cfi_restore 8
 1596              		.cfi_def_cfa 2, 16
 1597 0904 13010101 		addi	sp,sp,16
 1598              		.cfi_def_cfa_offset 0
 1599 0908 67800000 		jr	ra
 1600              	.LVL158:
 1601              	.L94:
 1602              		.cfi_restore_state
  36:src/Cache.cpp ****         Slab* slab = slabList[EMPTY];
 1603              		.loc 1 36 10 is_stmt 1
 1604              	.LBB36:
 1605              	.LBB34:
  36:src/Cache.cpp ****         Slab* slab = slabList[EMPTY];
 1606              		.loc 1 36 27 is_stmt 0
 1607 090c 03B58700 		ld	a0,8(a5)
  36:src/Cache.cpp ****         Slab* slab = slabList[EMPTY];
 1608              		.loc 1 36 10
 1609 0910 63080500 		beqz	a0,.L96
 1610              	.LBB35:
  37:src/Cache.cpp ****         Slot* slot = slab->getFreeSlot();
 1611              		.loc 1 37 9 is_stmt 1
 1612              	.LVL159:
  38:src/Cache.cpp **** 
 1613              		.loc 1 38 9
  38:src/Cache.cpp **** 
 1614              		.loc 1 38 39 is_stmt 0
 1615 0914 97000000 		call	_ZN5Cache4Slab11getFreeSlotEv
 1615      E7800000 
 1616              	.LVL160:
  40:src/Cache.cpp ****     }
 1617              		.loc 1 40 9 is_stmt 1
  40:src/Cache.cpp ****     }
 1618              		.loc 1 40 16 is_stmt 0
 1619 091c 6FF01FFE 		j	.L93
 1620              	.LVL161:
 1621              	.L96:
 1622              	.LBE35:
 1623              	.LBE34:
GAS LISTING /tmp/ccYSR6UZ.s 			page 39


 1624              	.LBE36:
  43:src/Cache.cpp ****     return slab->getFreeSlot();
 1625              		.loc 1 43 5 is_stmt 1
  43:src/Cache.cpp ****     return slab->getFreeSlot();
 1626              		.loc 1 43 30 is_stmt 0
 1627 0920 13850700 		mv	a0,a5
 1628 0924 97000000 		call	_ZN5Cache12allocateSlabEv
 1628      E7800000 
 1629              	.LVL162:
  44:src/Cache.cpp **** }
 1630              		.loc 1 44 5 is_stmt 1
  44:src/Cache.cpp **** }
 1631              		.loc 1 44 29 is_stmt 0
 1632 092c 97000000 		call	_ZN5Cache4Slab11getFreeSlotEv
 1632      E7800000 
 1633              	.LVL163:
  44:src/Cache.cpp **** }
 1634              		.loc 1 44 30
 1635 0934 6FF09FFC 		j	.L93
 1636              		.cfi_endproc
 1637              	.LFE26:
 1639              		.align	2
 1640              		.globl	_ZN5Cache14allocateBufferEm
 1642              	_ZN5Cache14allocateBufferEm:
 1643              	.LFB37:
 194:src/Cache.cpp ****     size_t objectPowSize = powerOfTwo(size);
 1644              		.loc 1 194 42 is_stmt 1
 1645              		.cfi_startproc
 1646              	.LVL164:
 1647 0938 130101FE 		addi	sp,sp,-32
 1648              		.cfi_def_cfa_offset 32
 1649 093c 233C1100 		sd	ra,24(sp)
 1650 0940 23388100 		sd	s0,16(sp)
 1651 0944 23349100 		sd	s1,8(sp)
 1652 0948 23302101 		sd	s2,0(sp)
 1653              		.cfi_offset 1, -8
 1654              		.cfi_offset 8, -16
 1655              		.cfi_offset 9, -24
 1656              		.cfi_offset 18, -32
 1657 094c 13040102 		addi	s0,sp,32
 1658              		.cfi_def_cfa 8, 0
 195:src/Cache.cpp ****     if(objectPowSize <  MINSIZEBUFFER || objectPowSize > MAXSIZEBUFFER) {
 1659              		.loc 1 195 5
 195:src/Cache.cpp ****     if(objectPowSize <  MINSIZEBUFFER || objectPowSize > MAXSIZEBUFFER) {
 1660              		.loc 1 195 38 is_stmt 0
 1661 0950 97000000 		call	_ZN5Cache10powerOfTwoEm
 1661      E7800000 
 1662              	.LVL165:
 196:src/Cache.cpp ****         return nullptr;
 1663              		.loc 1 196 5 is_stmt 1
 196:src/Cache.cpp ****         return nullptr;
 1664              		.loc 1 196 39 is_stmt 0
 1665 0958 9304B5FF 		addi	s1,a0,-5
 196:src/Cache.cpp ****         return nullptr;
 1666              		.loc 1 196 5
 1667 095c 9307C000 		li	a5,12
 1668 0960 63EE9708 		bgtu	s1,a5,.L101
GAS LISTING /tmp/ccYSR6UZ.s 			page 40


 1669 0964 13090500 		mv	s2,a0
 199:src/Cache.cpp ****     if(bufferCache[entry] == nullptr) {
 1670              		.loc 1 199 5 is_stmt 1
 1671              	.LVL166:
 200:src/Cache.cpp ****         bufferCache[entry] = createCache();
 1672              		.loc 1 200 5
 200:src/Cache.cpp ****         bufferCache[entry] = createCache();
 1673              		.loc 1 200 25 is_stmt 0
 1674 0968 13973400 		slli	a4,s1,3
 1675 096c 97070000 		lla	a5,.LANCHOR0
 1675      93870700 
 1676 0974 B387E700 		add	a5,a5,a4
 1677 0978 83B70700 		ld	a5,0(a5)
 200:src/Cache.cpp ****         bufferCache[entry] = createCache();
 1678              		.loc 1 200 5
 1679 097c 638C0702 		beqz	a5,.L103
 1680              	.LVL167:
 1681              	.L100:
 204:src/Cache.cpp **** }
 1682              		.loc 1 204 5 is_stmt 1
 204:src/Cache.cpp **** }
 1683              		.loc 1 204 29 is_stmt 0
 1684 0980 93943400 		slli	s1,s1,3
 1685              	.LVL168:
 1686 0984 97070000 		lla	a5,.LANCHOR0
 1686      93870700 
 1687 098c B3849700 		add	s1,a5,s1
 204:src/Cache.cpp **** }
 1688              		.loc 1 204 44
 1689 0990 03B50400 		ld	a0,0(s1)
 1690 0994 97000000 		call	_ZN5Cache12allocateSlotEv
 1690      E7800000 
 1691              	.LVL169:
 1692              	.L98:
 205:src/Cache.cpp **** 
 1693              		.loc 1 205 1
 1694 099c 83308101 		ld	ra,24(sp)
 1695              		.cfi_remember_state
 1696              		.cfi_restore 1
 1697 09a0 03340101 		ld	s0,16(sp)
 1698              		.cfi_restore 8
 1699              		.cfi_def_cfa 2, 32
 1700 09a4 83348100 		ld	s1,8(sp)
 1701              		.cfi_restore 9
 1702 09a8 03390100 		ld	s2,0(sp)
 1703              		.cfi_restore 18
 1704 09ac 13010102 		addi	sp,sp,32
 1705              		.cfi_def_cfa_offset 0
 1706 09b0 67800000 		jr	ra
 1707              	.LVL170:
 1708              	.L103:
 1709              		.cfi_restore_state
 201:src/Cache.cpp ****         bufferCache[entry]->initCache(bufferNames[entry], 1<<objectPowSize, NULL,NULL);
 1710              		.loc 1 201 9 is_stmt 1
 201:src/Cache.cpp ****         bufferCache[entry]->initCache(bufferNames[entry], 1<<objectPowSize, NULL,NULL);
 1711              		.loc 1 201 41 is_stmt 0
 1712 09b4 97000000 		call	_ZN5Cache11createCacheEv
GAS LISTING /tmp/ccYSR6UZ.s 			page 41


 1712      E7800000 
 1713              	.LVL171:
 201:src/Cache.cpp ****         bufferCache[entry]->initCache(bufferNames[entry], 1<<objectPowSize, NULL,NULL);
 1714              		.loc 1 201 28
 1715 09bc 93963400 		slli	a3,s1,3
 1716 09c0 17070000 		lla	a4,.LANCHOR0
 1716      13070700 
 1717 09c8 3307D700 		add	a4,a4,a3
 1718 09cc 2330A700 		sd	a0,0(a4)
 202:src/Cache.cpp ****     }
 1719              		.loc 1 202 9 is_stmt 1
 202:src/Cache.cpp ****     }
 1720              		.loc 1 202 38 is_stmt 0
 1721 09d0 97070000 		lla	a5,.LANCHOR1
 1721      93870700 
 1722 09d8 B387D700 		add	a5,a5,a3
 1723 09dc 13070000 		li	a4,0
 1724 09e0 93060000 		li	a3,0
 1725 09e4 13061000 		li	a2,1
 1726 09e8 3B162601 		sllw	a2,a2,s2
 1727 09ec 83B50700 		ld	a1,0(a5)
 1728 09f0 97000000 		call	_ZN5Cache9initCacheEPKcmPFvPvES4_
 1728      E7800000 
 1729              	.LVL172:
 1730 09f8 6FF09FF8 		j	.L100
 1731              	.LVL173:
 1732              	.L101:
 197:src/Cache.cpp ****     }
 1733              		.loc 1 197 16
 1734 09fc 13050000 		li	a0,0
 1735              	.LVL174:
 1736 0a00 6FF0DFF9 		j	.L98
 1737              		.cfi_endproc
 1738              	.LFE37:
 1740              		.globl	_ZN5Cache11bufferCacheE
 1741              		.globl	_ZN5Cache11bufferNamesE
 1742              		.section	.rodata.str1.8
 1743 00d2 00000000 		.align	3
 1743      0000
 1744              	.LC5:
 1745 00d8 73697A65 		.string	"size-32"
 1745      2D333200 
 1746              		.align	3
 1747              	.LC6:
 1748 00e0 73697A65 		.string	"size-64"
 1748      2D363400 
 1749              		.align	3
 1750              	.LC7:
 1751 00e8 73697A65 		.string	"size-128"
 1751      2D313238 
 1751      00
 1752 00f1 00000000 		.align	3
 1752      000000
 1753              	.LC8:
 1754 00f8 73697A65 		.string	"size-256"
 1754      2D323536 
 1754      00
GAS LISTING /tmp/ccYSR6UZ.s 			page 42


 1755 0101 00000000 		.align	3
 1755      000000
 1756              	.LC9:
 1757 0108 73697A65 		.string	"size-512"
 1757      2D353132 
 1757      00
 1758 0111 00000000 		.align	3
 1758      000000
 1759              	.LC10:
 1760 0118 73697A65 		.string	"size-1024"
 1760      2D313032 
 1760      3400
 1761 0122 00000000 		.align	3
 1761      0000
 1762              	.LC11:
 1763 0128 73697A65 		.string	"size-2048"
 1763      2D323034 
 1763      3800
 1764 0132 00000000 		.align	3
 1764      0000
 1765              	.LC12:
 1766 0138 73697A65 		.string	"size-4096"
 1766      2D343039 
 1766      3600
 1767 0142 00000000 		.align	3
 1767      0000
 1768              	.LC13:
 1769 0148 73697A65 		.string	"size-8192"
 1769      2D383139 
 1769      3200
 1770 0152 00000000 		.align	3
 1770      0000
 1771              	.LC14:
 1772 0158 73697A65 		.string	"size-16384"
 1772      2D313633 
 1772      383400
 1773 0163 00000000 		.align	3
 1773      00
 1774              	.LC15:
 1775 0168 73697A65 		.string	"size-32768"
 1775      2D333237 
 1775      363800
 1776 0173 00000000 		.align	3
 1776      00
 1777              	.LC16:
 1778 0178 73697A65 		.string	"size-65536"
 1778      2D363535 
 1778      333600
 1779 0183 00000000 		.align	3
 1779      00
 1780              	.LC17:
 1781 0188 73697A65 		.string	"size-131072"
 1781      2D313331 
 1781      30373200 
 1782              		.bss
 1783              		.align	3
 1784              		.set	.LANCHOR0,. + 0
GAS LISTING /tmp/ccYSR6UZ.s 			page 43


 1787              	_ZN5Cache11bufferCacheE:
 1788 0000 00000000 		.zero	104
 1788      00000000 
 1788      00000000 
 1788      00000000 
 1788      00000000 
 1789              		.section	.data.rel.local,"aw"
 1790              		.align	3
 1791              		.set	.LANCHOR1,. + 0
 1794              	_ZN5Cache11bufferNamesE:
 1795 0000 00000000 		.dword	.LC5
 1795      00000000 
 1796 0008 00000000 		.dword	.LC6
 1796      00000000 
 1797 0010 00000000 		.dword	.LC7
 1797      00000000 
 1798 0018 00000000 		.dword	.LC8
 1798      00000000 
 1799 0020 00000000 		.dword	.LC9
 1799      00000000 
 1800 0028 00000000 		.dword	.LC10
 1800      00000000 
 1801 0030 00000000 		.dword	.LC11
 1801      00000000 
 1802 0038 00000000 		.dword	.LC12
 1802      00000000 
 1803 0040 00000000 		.dword	.LC13
 1803      00000000 
 1804 0048 00000000 		.dword	.LC14
 1804      00000000 
 1805 0050 00000000 		.dword	.LC15
 1805      00000000 
 1806 0058 00000000 		.dword	.LC16
 1806      00000000 
 1807 0060 00000000 		.dword	.LC17
 1807      00000000 
 1808              		.text
 1809              	.Letext0:
 1810              		.file 2 "src/../h/hw.h"
 1811              		.file 3 "src/../h/Cache.h"
 1812              		.file 4 "src/../h/BuddyAllocator.h"
 1813              		.file 5 "src/../h/syscall_c.h"
 1814              		.file 6 "src/../h/printing.hpp"
GAS LISTING /tmp/ccYSR6UZ.s 			page 44


DEFINED SYMBOLS
                            *ABS*:0000000000000000 Cache.cpp
     /tmp/ccYSR6UZ.s:9      .text:0000000000000000 _ZN5Cache11getNumSlotsEmm
     /tmp/ccYSR6UZ.s:13     .text:0000000000000000 .L0 
     /tmp/ccYSR6UZ.s:15     .text:0000000000000000 .L0 
     /tmp/ccYSR6UZ.s:16     .text:0000000000000004 .L0 
     /tmp/ccYSR6UZ.s:18     .text:0000000000000008 .L0 
     /tmp/ccYSR6UZ.s:20     .text:000000000000000c .L0 
     /tmp/ccYSR6UZ.s:22     .text:000000000000000c .L0 
     /tmp/ccYSR6UZ.s:23     .text:000000000000000c .L0 
     /tmp/ccYSR6UZ.s:26     .text:0000000000000010 .L0 
     /tmp/ccYSR6UZ.s:28     .text:0000000000000014 .L0 
     /tmp/ccYSR6UZ.s:30     .text:0000000000000018 .L0 
     /tmp/ccYSR6UZ.s:32     .text:0000000000000020 .L0 
     /tmp/ccYSR6UZ.s:33     .text:0000000000000020 .L0 
     /tmp/ccYSR6UZ.s:35     .text:0000000000000024 .L0 
     /tmp/ccYSR6UZ.s:37     .text:0000000000000028 .L0 
     /tmp/ccYSR6UZ.s:43     .text:0000000000000028 _ZN5Cache11slabListPutEPNS_4SlabEi
     /tmp/ccYSR6UZ.s:46     .text:0000000000000028 .L0 
     /tmp/ccYSR6UZ.s:48     .text:0000000000000028 .L0 
     /tmp/ccYSR6UZ.s:49     .text:000000000000002c .L0 
     /tmp/ccYSR6UZ.s:51     .text:0000000000000030 .L0 
     /tmp/ccYSR6UZ.s:53     .text:0000000000000034 .L0 
     /tmp/ccYSR6UZ.s:55     .text:0000000000000034 .L0 
     /tmp/ccYSR6UZ.s:57     .text:0000000000000038 .L0 
     /tmp/ccYSR6UZ.s:59     .text:000000000000003c .L0 
     /tmp/ccYSR6UZ.s:62     .text:0000000000000044 .L0 
     /tmp/ccYSR6UZ.s:63     .text:0000000000000044 .L0 
     /tmp/ccYSR6UZ.s:65     .text:0000000000000048 .L0 
     /tmp/ccYSR6UZ.s:66     .text:0000000000000048 .L0 
     /tmp/ccYSR6UZ.s:70     .text:0000000000000054 .L0 
     /tmp/ccYSR6UZ.s:72     .text:0000000000000058 .L0 
     /tmp/ccYSR6UZ.s:73     .text:0000000000000058 .L0 
     /tmp/ccYSR6UZ.s:76     .text:000000000000005c .L0 
     /tmp/ccYSR6UZ.s:77     .text:000000000000005c .L0 
     /tmp/ccYSR6UZ.s:84     .text:0000000000000068 .L0 
     /tmp/ccYSR6UZ.s:85     .text:000000000000006c .L0 
     /tmp/ccYSR6UZ.s:86     .text:000000000000006c .L0 
     /tmp/ccYSR6UZ.s:88     .text:0000000000000070 .L0 
     /tmp/ccYSR6UZ.s:90     .text:0000000000000074 .L0 
     /tmp/ccYSR6UZ.s:96     .text:0000000000000074 _ZN5Cache14slabListRemoveEPNS_4SlabEi
     /tmp/ccYSR6UZ.s:99     .text:0000000000000074 .L0 
     /tmp/ccYSR6UZ.s:101    .text:0000000000000074 .L0 
     /tmp/ccYSR6UZ.s:102    .text:0000000000000078 .L0 
     /tmp/ccYSR6UZ.s:104    .text:000000000000007c .L0 
     /tmp/ccYSR6UZ.s:106    .text:0000000000000080 .L0 
     /tmp/ccYSR6UZ.s:108    .text:0000000000000080 .L0 
     /tmp/ccYSR6UZ.s:110    .text:0000000000000084 .L0 
     /tmp/ccYSR6UZ.s:112    .text:0000000000000088 .L0 
     /tmp/ccYSR6UZ.s:116    .text:0000000000000090 .L0 
     /tmp/ccYSR6UZ.s:118    .text:0000000000000090 .L0 
     /tmp/ccYSR6UZ.s:119    .text:0000000000000090 .L0 
     /tmp/ccYSR6UZ.s:126    .text:000000000000009c .L0 
     /tmp/ccYSR6UZ.s:131    .text:00000000000000a0 .L0 
     /tmp/ccYSR6UZ.s:133    .text:00000000000000a4 .L0 
     /tmp/ccYSR6UZ.s:136    .text:00000000000000a8 .L0 
     /tmp/ccYSR6UZ.s:137    .text:00000000000000a8 .L0 
GAS LISTING /tmp/ccYSR6UZ.s 			page 45


     /tmp/ccYSR6UZ.s:138    .text:00000000000000a8 .L0 
     /tmp/ccYSR6UZ.s:140    .text:00000000000000ac .L0 
     /tmp/ccYSR6UZ.s:143    .text:00000000000000b0 .L0 
     /tmp/ccYSR6UZ.s:146    .text:00000000000000b4 .L0 
     /tmp/ccYSR6UZ.s:147    .text:00000000000000b4 .L0 
     /tmp/ccYSR6UZ.s:149    .text:00000000000000b8 .L0 
     /tmp/ccYSR6UZ.s:151    .text:00000000000000bc .L0 
     /tmp/ccYSR6UZ.s:152    .text:00000000000000bc .L0 
     /tmp/ccYSR6UZ.s:157    .text:00000000000000c0 .L0 
     /tmp/ccYSR6UZ.s:158    .text:00000000000000c0 .L0 
     /tmp/ccYSR6UZ.s:159    .text:00000000000000c4 .L0 
     /tmp/ccYSR6UZ.s:160    .text:00000000000000c4 .L0 
     /tmp/ccYSR6UZ.s:162    .text:00000000000000c8 .L0 
     /tmp/ccYSR6UZ.s:164    .text:00000000000000cc .L0 
     /tmp/ccYSR6UZ.s:178    .text:00000000000000cc _ZN5Cache17printErrorMessageEv
     /tmp/ccYSR6UZ.s:181    .text:00000000000000cc .L0 
     /tmp/ccYSR6UZ.s:183    .text:00000000000000cc .L0 
     /tmp/ccYSR6UZ.s:184    .text:00000000000000d0 .L0 
     /tmp/ccYSR6UZ.s:188    .text:00000000000000dc .L0 
     /tmp/ccYSR6UZ.s:189    .text:00000000000000dc .L0 
     /tmp/ccYSR6UZ.s:190    .text:00000000000000dc .L0 
     /tmp/ccYSR6UZ.s:192    .text:00000000000000e0 .L0 
     /tmp/ccYSR6UZ.s:195    .text:00000000000000e4 .L0 
     /tmp/ccYSR6UZ.s:196    .text:00000000000000e4 .L0 
     /tmp/ccYSR6UZ.s:198    .text:00000000000000e8 .L0 
     /tmp/ccYSR6UZ.s:203    .text:00000000000000f0 .L0 
     /tmp/ccYSR6UZ.s:204    .text:00000000000000f0 .L0 
     /tmp/ccYSR6UZ.s:205    .text:00000000000000f0 .L0 
     /tmp/ccYSR6UZ.s:209    .text:0000000000000100 .L0 
     /tmp/ccYSR6UZ.s:210    .text:0000000000000100 .L0 
     /tmp/ccYSR6UZ.s:212    .text:0000000000000108 .L0 
     /tmp/ccYSR6UZ.s:213    .text:0000000000000108 .L0 
     /tmp/ccYSR6UZ.s:215    .text:000000000000010c .L0 
     /tmp/ccYSR6UZ.s:216    .text:000000000000010c .L0 
     /tmp/ccYSR6UZ.s:218    .text:0000000000000110 .L0 
     /tmp/ccYSR6UZ.s:221    .text:0000000000000114 .L0 
     /tmp/ccYSR6UZ.s:225    .text:0000000000000118 .L0 
     /tmp/ccYSR6UZ.s:227    .text:0000000000000118 .L0 
     /tmp/ccYSR6UZ.s:228    .text:0000000000000118 .L0 
     /tmp/ccYSR6UZ.s:229    .text:0000000000000118 .L0 
     /tmp/ccYSR6UZ.s:233    .text:000000000000012c .L0 
     /tmp/ccYSR6UZ.s:239    .text:000000000000012c _ZN5Cache19getNumSlabsAndSlotsEPiS0_
     /tmp/ccYSR6UZ.s:242    .text:000000000000012c .L0 
     /tmp/ccYSR6UZ.s:244    .text:000000000000012c .L0 
     /tmp/ccYSR6UZ.s:245    .text:0000000000000130 .L0 
     /tmp/ccYSR6UZ.s:247    .text:0000000000000134 .L0 
     /tmp/ccYSR6UZ.s:249    .text:0000000000000138 .L0 
     /tmp/ccYSR6UZ.s:252    .text:0000000000000138 .L0 
     /tmp/ccYSR6UZ.s:254    .text:0000000000000138 .L0 
     /tmp/ccYSR6UZ.s:255    .text:0000000000000138 .L0 
     /tmp/ccYSR6UZ.s:258    .text:000000000000013c .L0 
     /tmp/ccYSR6UZ.s:260    .text:0000000000000140 .L0 
     /tmp/ccYSR6UZ.s:266    .text:0000000000000148 .L0 
     /tmp/ccYSR6UZ.s:270    .text:000000000000014c .L0 
     /tmp/ccYSR6UZ.s:276    .text:0000000000000154 .L0 
     /tmp/ccYSR6UZ.s:277    .text:0000000000000154 .L0 
     /tmp/ccYSR6UZ.s:283    .text:0000000000000160 .L0 
GAS LISTING /tmp/ccYSR6UZ.s 			page 46


     /tmp/ccYSR6UZ.s:285    .text:0000000000000164 .L0 
     /tmp/ccYSR6UZ.s:286    .text:0000000000000164 .L0 
     /tmp/ccYSR6UZ.s:289    .text:0000000000000168 .L0 
     /tmp/ccYSR6UZ.s:290    .text:0000000000000168 .L0 
     /tmp/ccYSR6UZ.s:292    .text:000000000000016c .L0 
     /tmp/ccYSR6UZ.s:295    .text:0000000000000170 .L0 
     /tmp/ccYSR6UZ.s:296    .text:0000000000000170 .L0 
     /tmp/ccYSR6UZ.s:299    .text:0000000000000174 .L0 
     /tmp/ccYSR6UZ.s:305    .text:0000000000000178 .L0 
     /tmp/ccYSR6UZ.s:306    .text:0000000000000178 .L0 
     /tmp/ccYSR6UZ.s:308    .text:000000000000017c .L0 
     /tmp/ccYSR6UZ.s:309    .text:000000000000017c .L0 
     /tmp/ccYSR6UZ.s:311    .text:0000000000000180 .L0 
     /tmp/ccYSR6UZ.s:312    .text:0000000000000184 .L0 
     /tmp/ccYSR6UZ.s:313    .text:0000000000000184 .L0 
     /tmp/ccYSR6UZ.s:315    .text:0000000000000188 .L0 
     /tmp/ccYSR6UZ.s:317    .text:000000000000018c .L0 
     /tmp/ccYSR6UZ.s:328    .text:000000000000018c _ZN5Cache14printCacheInfoEv
     /tmp/ccYSR6UZ.s:331    .text:000000000000018c .L0 
     /tmp/ccYSR6UZ.s:333    .text:000000000000018c .L0 
     /tmp/ccYSR6UZ.s:334    .text:0000000000000190 .L0 
     /tmp/ccYSR6UZ.s:338    .text:000000000000019c .L0 
     /tmp/ccYSR6UZ.s:339    .text:000000000000019c .L0 
     /tmp/ccYSR6UZ.s:340    .text:000000000000019c .L0 
     /tmp/ccYSR6UZ.s:342    .text:00000000000001a0 .L0 
     /tmp/ccYSR6UZ.s:345    .text:00000000000001a4 .L0 
     /tmp/ccYSR6UZ.s:346    .text:00000000000001a4 .L0 
     /tmp/ccYSR6UZ.s:348    .text:00000000000001a8 .L0 
     /tmp/ccYSR6UZ.s:350    .text:00000000000001ac .L0 
     /tmp/ccYSR6UZ.s:351    .text:00000000000001ac .L0 
     /tmp/ccYSR6UZ.s:356    .text:00000000000001bc .L0 
     /tmp/ccYSR6UZ.s:357    .text:00000000000001bc .L0 
     /tmp/ccYSR6UZ.s:361    .text:00000000000001c8 .L0 
     /tmp/ccYSR6UZ.s:362    .text:00000000000001c8 .L0 
     /tmp/ccYSR6UZ.s:366    .text:00000000000001d8 .L0 
     /tmp/ccYSR6UZ.s:367    .text:00000000000001d8 .L0 
     /tmp/ccYSR6UZ.s:373    .text:00000000000001ec .L0 
     /tmp/ccYSR6UZ.s:374    .text:00000000000001ec .L0 
     /tmp/ccYSR6UZ.s:378    .text:00000000000001fc .L0 
     /tmp/ccYSR6UZ.s:379    .text:00000000000001fc .L0 
     /tmp/ccYSR6UZ.s:381    .text:0000000000000200 .L0 
     /tmp/ccYSR6UZ.s:387    .text:0000000000000214 .L0 
     /tmp/ccYSR6UZ.s:388    .text:0000000000000214 .L0 
     /tmp/ccYSR6UZ.s:392    .text:0000000000000224 .L0 
     /tmp/ccYSR6UZ.s:393    .text:0000000000000224 .L0 
     /tmp/ccYSR6UZ.s:399    .text:0000000000000238 .L0 
     /tmp/ccYSR6UZ.s:400    .text:0000000000000238 .L0 
     /tmp/ccYSR6UZ.s:404    .text:0000000000000248 .L0 
     /tmp/ccYSR6UZ.s:405    .text:0000000000000248 .L0 
     /tmp/ccYSR6UZ.s:411    .text:000000000000025c .L0 
     /tmp/ccYSR6UZ.s:412    .text:000000000000025c .L0 
     /tmp/ccYSR6UZ.s:416    .text:000000000000026c .L0 
     /tmp/ccYSR6UZ.s:417    .text:000000000000026c .L0 
     /tmp/ccYSR6UZ.s:423    .text:0000000000000280 .L0 
     /tmp/ccYSR6UZ.s:424    .text:0000000000000280 .L0 
     /tmp/ccYSR6UZ.s:428    .text:0000000000000290 .L0 
     /tmp/ccYSR6UZ.s:429    .text:0000000000000290 .L0 
GAS LISTING /tmp/ccYSR6UZ.s 			page 47


     /tmp/ccYSR6UZ.s:435    .text:00000000000002a4 .L0 
     /tmp/ccYSR6UZ.s:436    .text:00000000000002a8 .L0 
     /tmp/ccYSR6UZ.s:438    .text:00000000000002ac .L0 
     /tmp/ccYSR6UZ.s:439    .text:00000000000002ac .L0 
     /tmp/ccYSR6UZ.s:441    .text:00000000000002b0 .L0 
     /tmp/ccYSR6UZ.s:444    .text:00000000000002b4 .L0 
     /tmp/ccYSR6UZ.s:446    .text:00000000000002b8 .L0 
     /tmp/ccYSR6UZ.s:452    .text:00000000000002b8 _ZN5Cache11deallocSlabEPNS_4SlabE
     /tmp/ccYSR6UZ.s:455    .text:00000000000002b8 .L0 
     /tmp/ccYSR6UZ.s:457    .text:00000000000002b8 .L0 
     /tmp/ccYSR6UZ.s:458    .text:00000000000002bc .L0 
     /tmp/ccYSR6UZ.s:464    .text:00000000000002d0 .L0 
     /tmp/ccYSR6UZ.s:465    .text:00000000000002d0 .L0 
     /tmp/ccYSR6UZ.s:466    .text:00000000000002d0 .L0 
     /tmp/ccYSR6UZ.s:467    .text:00000000000002d0 .L0 
     /tmp/ccYSR6UZ.s:468    .text:00000000000002d0 .L0 
     /tmp/ccYSR6UZ.s:470    .text:00000000000002d4 .L0 
     /tmp/ccYSR6UZ.s:474    .text:00000000000002d8 .L0 
     /tmp/ccYSR6UZ.s:476    .text:00000000000002d8 .L0 
     /tmp/ccYSR6UZ.s:477    .text:00000000000002d8 .L0 
     /tmp/ccYSR6UZ.s:479    .text:00000000000002dc .L0 
     /tmp/ccYSR6UZ.s:483    .text:00000000000002e4 .L0 
     /tmp/ccYSR6UZ.s:488    .text:00000000000002ec .L0 
     /tmp/ccYSR6UZ.s:490    .text:00000000000002f0 .L0 
     /tmp/ccYSR6UZ.s:492    .text:00000000000002f4 .L0 
     /tmp/ccYSR6UZ.s:494    .text:00000000000002f8 .L0 
     /tmp/ccYSR6UZ.s:499    .text:0000000000000304 .L0 
     /tmp/ccYSR6UZ.s:503    .text:0000000000000308 .L0 
     /tmp/ccYSR6UZ.s:504    .text:0000000000000308 .L0 
     /tmp/ccYSR6UZ.s:506    .text:000000000000030c .L0 
     /tmp/ccYSR6UZ.s:512    .text:0000000000000310 .L0 
     /tmp/ccYSR6UZ.s:513    .text:0000000000000310 .L0 
     /tmp/ccYSR6UZ.s:518    .text:0000000000000320 .L0 
     /tmp/ccYSR6UZ.s:519    .text:0000000000000324 .L0 
     /tmp/ccYSR6UZ.s:521    .text:0000000000000328 .L0 
     /tmp/ccYSR6UZ.s:522    .text:0000000000000328 .L0 
     /tmp/ccYSR6UZ.s:524    .text:000000000000032c .L0 
     /tmp/ccYSR6UZ.s:526    .text:0000000000000330 .L0 
     /tmp/ccYSR6UZ.s:528    .text:0000000000000334 .L0 
     /tmp/ccYSR6UZ.s:531    .text:0000000000000338 .L0 
     /tmp/ccYSR6UZ.s:533    .text:000000000000033c .L0 
     /tmp/ccYSR6UZ.s:539    .text:000000000000033c _ZN5Cache16deallocFreeSlabsEv
     /tmp/ccYSR6UZ.s:542    .text:000000000000033c .L0 
     /tmp/ccYSR6UZ.s:544    .text:000000000000033c .L0 
     /tmp/ccYSR6UZ.s:545    .text:0000000000000340 .L0 
     /tmp/ccYSR6UZ.s:551    .text:0000000000000354 .L0 
     /tmp/ccYSR6UZ.s:552    .text:0000000000000354 .L0 
     /tmp/ccYSR6UZ.s:553    .text:0000000000000354 .L0 
     /tmp/ccYSR6UZ.s:554    .text:0000000000000354 .L0 
     /tmp/ccYSR6UZ.s:555    .text:0000000000000354 .L0 
     /tmp/ccYSR6UZ.s:557    .text:0000000000000358 .L0 
     /tmp/ccYSR6UZ.s:561    .text:000000000000035c .L0 
     /tmp/ccYSR6UZ.s:563    .text:000000000000035c .L0 
     /tmp/ccYSR6UZ.s:564    .text:000000000000035c .L0 
     /tmp/ccYSR6UZ.s:568    .text:0000000000000360 .L0 
     /tmp/ccYSR6UZ.s:573    .text:0000000000000364 .L0 
     /tmp/ccYSR6UZ.s:576    .text:0000000000000368 .L0 
GAS LISTING /tmp/ccYSR6UZ.s 			page 48


     /tmp/ccYSR6UZ.s:577    .text:0000000000000368 .L0 
     /tmp/ccYSR6UZ.s:580    .text:000000000000036c .L0 
     /tmp/ccYSR6UZ.s:581    .text:000000000000036c .L0 
     /tmp/ccYSR6UZ.s:582    .text:000000000000036c .L0 
     /tmp/ccYSR6UZ.s:585    .text:0000000000000370 .L0 
     /tmp/ccYSR6UZ.s:586    .text:0000000000000370 .L0 
     /tmp/ccYSR6UZ.s:590    .text:000000000000037c .L0 
     /tmp/ccYSR6UZ.s:593    .text:0000000000000380 .L0 
     /tmp/ccYSR6UZ.s:598    .text:0000000000000384 .L0 
     /tmp/ccYSR6UZ.s:599    .text:0000000000000384 .L0 
     /tmp/ccYSR6UZ.s:601    .text:0000000000000388 .L0 
     /tmp/ccYSR6UZ.s:602    .text:0000000000000388 .L0 
     /tmp/ccYSR6UZ.s:604    .text:0000000000000390 .L0 
     /tmp/ccYSR6UZ.s:606    .text:0000000000000394 .L0 
     /tmp/ccYSR6UZ.s:607    .text:0000000000000394 .L0 
     /tmp/ccYSR6UZ.s:609    .text:0000000000000398 .L0 
     /tmp/ccYSR6UZ.s:612    .text:000000000000039c .L0 
     /tmp/ccYSR6UZ.s:614    .text:00000000000003a0 .L0 
     /tmp/ccYSR6UZ.s:617    .text:00000000000003a4 .L0 
     /tmp/ccYSR6UZ.s:619    .text:00000000000003a8 .L0 
     /tmp/ccYSR6UZ.s:625    .text:00000000000003a8 _ZN5Cache12deallocCacheEv
     /tmp/ccYSR6UZ.s:628    .text:00000000000003a8 .L0 
     /tmp/ccYSR6UZ.s:630    .text:00000000000003a8 .L0 
     /tmp/ccYSR6UZ.s:631    .text:00000000000003ac .L0 
     /tmp/ccYSR6UZ.s:637    .text:00000000000003c0 .L0 
     /tmp/ccYSR6UZ.s:638    .text:00000000000003c0 .L0 
     /tmp/ccYSR6UZ.s:639    .text:00000000000003c0 .L0 
     /tmp/ccYSR6UZ.s:640    .text:00000000000003c0 .L0 
     /tmp/ccYSR6UZ.s:641    .text:00000000000003c0 .L0 
     /tmp/ccYSR6UZ.s:643    .text:00000000000003c4 .L0 
     /tmp/ccYSR6UZ.s:648    .text:00000000000003c8 .L0 
     /tmp/ccYSR6UZ.s:649    .text:00000000000003c8 .L0 
     /tmp/ccYSR6UZ.s:654    .text:00000000000003d0 .L0 
     /tmp/ccYSR6UZ.s:658    .text:00000000000003d4 .L0 
     /tmp/ccYSR6UZ.s:662    .text:00000000000003dc .L0 
     /tmp/ccYSR6UZ.s:663    .text:00000000000003dc .L0 
     /tmp/ccYSR6UZ.s:669    .text:00000000000003e8 .L0 
     /tmp/ccYSR6UZ.s:670    .text:00000000000003e8 .L0 
     /tmp/ccYSR6UZ.s:674    .text:00000000000003ec .L0 
     /tmp/ccYSR6UZ.s:675    .text:00000000000003ec .L0 
     /tmp/ccYSR6UZ.s:676    .text:00000000000003ec .L0 
     /tmp/ccYSR6UZ.s:679    .text:00000000000003f0 .L0 
     /tmp/ccYSR6UZ.s:680    .text:00000000000003f0 .L0 
     /tmp/ccYSR6UZ.s:684    .text:00000000000003fc .L0 
     /tmp/ccYSR6UZ.s:687    .text:0000000000000400 .L0 
     /tmp/ccYSR6UZ.s:693    .text:0000000000000404 .L0 
     /tmp/ccYSR6UZ.s:694    .text:0000000000000408 .L0 
     /tmp/ccYSR6UZ.s:696    .text:000000000000040c .L0 
     /tmp/ccYSR6UZ.s:697    .text:000000000000040c .L0 
     /tmp/ccYSR6UZ.s:699    .text:0000000000000410 .L0 
     /tmp/ccYSR6UZ.s:701    .text:0000000000000414 .L0 
     /tmp/ccYSR6UZ.s:704    .text:0000000000000418 .L0 
     /tmp/ccYSR6UZ.s:707    .text:000000000000041c .L0 
     /tmp/ccYSR6UZ.s:709    .text:0000000000000420 .L0 
     /tmp/ccYSR6UZ.s:715    .text:0000000000000420 _ZN5Cache10powerOfTwoEm
     /tmp/ccYSR6UZ.s:718    .text:0000000000000420 .L0 
     /tmp/ccYSR6UZ.s:720    .text:0000000000000420 .L0 
GAS LISTING /tmp/ccYSR6UZ.s 			page 49


     /tmp/ccYSR6UZ.s:721    .text:0000000000000424 .L0 
     /tmp/ccYSR6UZ.s:723    .text:0000000000000428 .L0 
     /tmp/ccYSR6UZ.s:725    .text:000000000000042c .L0 
     /tmp/ccYSR6UZ.s:729    .text:0000000000000430 .L0 
     /tmp/ccYSR6UZ.s:730    .text:0000000000000430 .L0 
     /tmp/ccYSR6UZ.s:731    .text:0000000000000430 .L0 
     /tmp/ccYSR6UZ.s:733    .text:0000000000000434 .L0 
     /tmp/ccYSR6UZ.s:735    .text:0000000000000438 .L0 
     /tmp/ccYSR6UZ.s:739    .text:000000000000043c .L0 
     /tmp/ccYSR6UZ.s:740    .text:000000000000043c .L0 
     /tmp/ccYSR6UZ.s:743    .text:0000000000000444 .L0 
     /tmp/ccYSR6UZ.s:744    .text:0000000000000444 .L0 
     /tmp/ccYSR6UZ.s:747    .text:0000000000000448 .L0 
     /tmp/ccYSR6UZ.s:748    .text:0000000000000448 .L0 
     /tmp/ccYSR6UZ.s:751    .text:000000000000044c .L0 
     /tmp/ccYSR6UZ.s:752    .text:000000000000044c .L0 
     /tmp/ccYSR6UZ.s:755    .text:0000000000000450 .L0 
     /tmp/ccYSR6UZ.s:758    .text:0000000000000454 .L0 
     /tmp/ccYSR6UZ.s:760    .text:0000000000000458 .L0 
     /tmp/ccYSR6UZ.s:761    .text:0000000000000458 .L0 
     /tmp/ccYSR6UZ.s:765    .text:000000000000045c .L0 
     /tmp/ccYSR6UZ.s:766    .text:000000000000045c .L0 
     /tmp/ccYSR6UZ.s:767    .text:0000000000000460 .L0 
     /tmp/ccYSR6UZ.s:768    .text:0000000000000460 .L0 
     /tmp/ccYSR6UZ.s:770    .text:0000000000000464 .L0 
     /tmp/ccYSR6UZ.s:772    .text:0000000000000468 .L0 
     /tmp/ccYSR6UZ.s:778    .text:0000000000000468 _ZN5Cache12allocateSlabEv
     /tmp/ccYSR6UZ.s:781    .text:0000000000000468 .L0 
     /tmp/ccYSR6UZ.s:783    .text:0000000000000468 .L0 
     /tmp/ccYSR6UZ.s:784    .text:000000000000046c .L0 
     /tmp/ccYSR6UZ.s:792    .text:0000000000000488 .L0 
     /tmp/ccYSR6UZ.s:793    .text:0000000000000488 .L0 
     /tmp/ccYSR6UZ.s:794    .text:0000000000000488 .L0 
     /tmp/ccYSR6UZ.s:795    .text:0000000000000488 .L0 
     /tmp/ccYSR6UZ.s:796    .text:0000000000000488 .L0 
     /tmp/ccYSR6UZ.s:797    .text:0000000000000488 .L0 
     /tmp/ccYSR6UZ.s:798    .text:0000000000000488 .L0 
     /tmp/ccYSR6UZ.s:800    .text:000000000000048c .L0 
     /tmp/ccYSR6UZ.s:803    .text:0000000000000490 .L0 
     /tmp/ccYSR6UZ.s:804    .text:0000000000000490 .L0 
     /tmp/ccYSR6UZ.s:813    .text:00000000000004a8 .L0 
     /tmp/ccYSR6UZ.s:814    .text:00000000000004a8 .L0 
     /tmp/ccYSR6UZ.s:816    .text:00000000000004ac .L0 
     /tmp/ccYSR6UZ.s:817    .text:00000000000004ac .L0 
     /tmp/ccYSR6UZ.s:819    .text:00000000000004b0 .L0 
     /tmp/ccYSR6UZ.s:820    .text:00000000000004b0 .L0 
     /tmp/ccYSR6UZ.s:823    .text:00000000000004b8 .L0 
     /tmp/ccYSR6UZ.s:824    .text:00000000000004b8 .L0 
     /tmp/ccYSR6UZ.s:826    .text:00000000000004bc .L0 
     /tmp/ccYSR6UZ.s:827    .text:00000000000004bc .L0 
     /tmp/ccYSR6UZ.s:830    .text:00000000000004c0 .L0 
     /tmp/ccYSR6UZ.s:832    .text:00000000000004c0 .L0 
     /tmp/ccYSR6UZ.s:833    .text:00000000000004c0 .L0 
     /tmp/ccYSR6UZ.s:836    .text:00000000000004c4 .L0 
     /tmp/ccYSR6UZ.s:843    .text:00000000000004cc .L0 
     /tmp/ccYSR6UZ.s:844    .text:00000000000004cc .L0 
     /tmp/ccYSR6UZ.s:847    .text:00000000000004d0 .L0 
GAS LISTING /tmp/ccYSR6UZ.s 			page 50


     /tmp/ccYSR6UZ.s:848    .text:00000000000004d0 .L0 
     /tmp/ccYSR6UZ.s:852    .text:00000000000004d4 .L0 
     /tmp/ccYSR6UZ.s:853    .text:00000000000004d4 .L0 
     /tmp/ccYSR6UZ.s:857    .text:00000000000004d8 .L0 
     /tmp/ccYSR6UZ.s:862    .text:00000000000004dc .L0 
     /tmp/ccYSR6UZ.s:863    .text:00000000000004dc .L0 
     /tmp/ccYSR6UZ.s:865    .text:00000000000004e0 .L0 
     /tmp/ccYSR6UZ.s:868    .text:00000000000004e4 .L0 
     /tmp/ccYSR6UZ.s:869    .text:00000000000004e4 .L0 
     /tmp/ccYSR6UZ.s:871    .text:00000000000004e8 .L0 
     /tmp/ccYSR6UZ.s:873    .text:00000000000004ec .L0 
     /tmp/ccYSR6UZ.s:874    .text:00000000000004ec .L0 
     /tmp/ccYSR6UZ.s:876    .text:00000000000004f0 .L0 
     /tmp/ccYSR6UZ.s:878    .text:00000000000004f4 .L0 
     /tmp/ccYSR6UZ.s:883    .text:00000000000004fc .L0 
     /tmp/ccYSR6UZ.s:884    .text:00000000000004fc .L0 
     /tmp/ccYSR6UZ.s:886    .text:0000000000000500 .L0 
     /tmp/ccYSR6UZ.s:888    .text:0000000000000504 .L0 
     /tmp/ccYSR6UZ.s:891    .text:0000000000000508 .L0 
     /tmp/ccYSR6UZ.s:892    .text:0000000000000508 .L0 
     /tmp/ccYSR6UZ.s:894    .text:000000000000050c .L0 
     /tmp/ccYSR6UZ.s:895    .text:000000000000050c .L0 
     /tmp/ccYSR6UZ.s:897    .text:0000000000000510 .L0 
     /tmp/ccYSR6UZ.s:899    .text:0000000000000514 .L0 
     /tmp/ccYSR6UZ.s:900    .text:0000000000000514 .L0 
     /tmp/ccYSR6UZ.s:907    .text:000000000000051c .L0 
     /tmp/ccYSR6UZ.s:909    .text:0000000000000524 .L0 
     /tmp/ccYSR6UZ.s:911    .text:0000000000000528 .L0 
     /tmp/ccYSR6UZ.s:912    .text:0000000000000528 .L0 
     /tmp/ccYSR6UZ.s:914    .text:000000000000052c .L0 
     /tmp/ccYSR6UZ.s:917    .text:0000000000000530 .L0 
     /tmp/ccYSR6UZ.s:920    .text:0000000000000534 .L0 
     /tmp/ccYSR6UZ.s:923    .text:0000000000000538 .L0 
     /tmp/ccYSR6UZ.s:926    .text:000000000000053c .L0 
     /tmp/ccYSR6UZ.s:929    .text:0000000000000540 .L0 
     /tmp/ccYSR6UZ.s:931    .text:0000000000000544 .L0 
     /tmp/ccYSR6UZ.s:937    .text:0000000000000544 _ZN5Cache11createCacheEv
     /tmp/ccYSR6UZ.s:940    .text:0000000000000544 .L0 
     /tmp/ccYSR6UZ.s:941    .text:0000000000000544 .L0 
     /tmp/ccYSR6UZ.s:942    .text:0000000000000548 .L0 
     /tmp/ccYSR6UZ.s:945    .text:0000000000000550 .L0 
     /tmp/ccYSR6UZ.s:946    .text:0000000000000550 .L0 
     /tmp/ccYSR6UZ.s:948    .text:0000000000000554 .L0 
     /tmp/ccYSR6UZ.s:950    .text:0000000000000554 .L0 
     /tmp/ccYSR6UZ.s:951    .text:0000000000000554 .L0 
     /tmp/ccYSR6UZ.s:955    .text:0000000000000560 .L0 
     /tmp/ccYSR6UZ.s:956    .text:0000000000000564 .L0 
     /tmp/ccYSR6UZ.s:958    .text:0000000000000568 .L0 
     /tmp/ccYSR6UZ.s:959    .text:0000000000000568 .L0 
     /tmp/ccYSR6UZ.s:961    .text:000000000000056c .L0 
     /tmp/ccYSR6UZ.s:963    .text:0000000000000570 .L0 
     /tmp/ccYSR6UZ.s:969    .text:0000000000000570 _ZN5Cache6strcpyEPcPKc
     /tmp/ccYSR6UZ.s:972    .text:0000000000000570 .L0 
     /tmp/ccYSR6UZ.s:974    .text:0000000000000570 .L0 
     /tmp/ccYSR6UZ.s:975    .text:0000000000000574 .L0 
     /tmp/ccYSR6UZ.s:977    .text:0000000000000578 .L0 
     /tmp/ccYSR6UZ.s:979    .text:000000000000057c .L0 
GAS LISTING /tmp/ccYSR6UZ.s 			page 51


     /tmp/ccYSR6UZ.s:983    .text:000000000000057c .L0 
     /tmp/ccYSR6UZ.s:984    .text:000000000000057c .L0 
     /tmp/ccYSR6UZ.s:988    .text:0000000000000580 .L0 
     /tmp/ccYSR6UZ.s:989    .text:0000000000000580 .L0 
     /tmp/ccYSR6UZ.s:991    .text:0000000000000584 .L0 
     /tmp/ccYSR6UZ.s:993    .text:0000000000000588 .L0 
     /tmp/ccYSR6UZ.s:995    .text:000000000000058c .L0 
     /tmp/ccYSR6UZ.s:997    .text:0000000000000590 .L0 
     /tmp/ccYSR6UZ.s:998    .text:0000000000000590 .L0 
     /tmp/ccYSR6UZ.s:1000   .text:0000000000000594 .L0 
     /tmp/ccYSR6UZ.s:1002   .text:0000000000000598 .L0 
     /tmp/ccYSR6UZ.s:1005   .text:000000000000059c .L0 
     /tmp/ccYSR6UZ.s:1006   .text:000000000000059c .L0 
     /tmp/ccYSR6UZ.s:1011   .text:00000000000005a0 .L0 
     /tmp/ccYSR6UZ.s:1012   .text:00000000000005a4 .L0 
     /tmp/ccYSR6UZ.s:1013   .text:00000000000005a4 .L0 
     /tmp/ccYSR6UZ.s:1015   .text:00000000000005a8 .L0 
     /tmp/ccYSR6UZ.s:1017   .text:00000000000005ac .L0 
     /tmp/ccYSR6UZ.s:1023   .text:00000000000005ac _ZN5Cache9initCacheEPKcmPFvPvES4_
     /tmp/ccYSR6UZ.s:1026   .text:00000000000005ac .L0 
     /tmp/ccYSR6UZ.s:1028   .text:00000000000005ac .L0 
     /tmp/ccYSR6UZ.s:1029   .text:00000000000005b0 .L0 
     /tmp/ccYSR6UZ.s:1036   .text:00000000000005c8 .L0 
     /tmp/ccYSR6UZ.s:1037   .text:00000000000005c8 .L0 
     /tmp/ccYSR6UZ.s:1038   .text:00000000000005c8 .L0 
     /tmp/ccYSR6UZ.s:1039   .text:00000000000005c8 .L0 
     /tmp/ccYSR6UZ.s:1040   .text:00000000000005c8 .L0 
     /tmp/ccYSR6UZ.s:1041   .text:00000000000005c8 .L0 
     /tmp/ccYSR6UZ.s:1043   .text:00000000000005cc .L0 
     /tmp/ccYSR6UZ.s:1049   .text:00000000000005dc .L0 
     /tmp/ccYSR6UZ.s:1050   .text:00000000000005dc .L0 
     /tmp/ccYSR6UZ.s:1056   .text:00000000000005e8 .L0 
     /tmp/ccYSR6UZ.s:1057   .text:00000000000005e8 .L0 
     /tmp/ccYSR6UZ.s:1062   .text:00000000000005f0 .L0 
     /tmp/ccYSR6UZ.s:1063   .text:00000000000005f0 .L0 
     /tmp/ccYSR6UZ.s:1067   .text:00000000000005fc .L0 
     /tmp/ccYSR6UZ.s:1071   .text:0000000000000600 .L0 
     /tmp/ccYSR6UZ.s:1075   .text:0000000000000608 .L0 
     /tmp/ccYSR6UZ.s:1076   .text:0000000000000608 .L0 
     /tmp/ccYSR6UZ.s:1078   .text:000000000000060c .L0 
     /tmp/ccYSR6UZ.s:1079   .text:000000000000060c .L0 
     /tmp/ccYSR6UZ.s:1081   .text:0000000000000610 .L0 
     /tmp/ccYSR6UZ.s:1082   .text:0000000000000610 .L0 
     /tmp/ccYSR6UZ.s:1084   .text:0000000000000614 .L0 
     /tmp/ccYSR6UZ.s:1085   .text:0000000000000614 .L0 
     /tmp/ccYSR6UZ.s:1087   .text:0000000000000618 .L0 
     /tmp/ccYSR6UZ.s:1089   .text:000000000000061c .L0 
     /tmp/ccYSR6UZ.s:1090   .text:000000000000061c .L0 
     /tmp/ccYSR6UZ.s:1092   .text:0000000000000620 .L0 
     /tmp/ccYSR6UZ.s:1094   .text:0000000000000624 .L0 
     /tmp/ccYSR6UZ.s:1095   .text:0000000000000624 .L0 
     /tmp/ccYSR6UZ.s:1100   .text:0000000000000630 .L0 
     /tmp/ccYSR6UZ.s:1102   .text:0000000000000634 .L0 
     /tmp/ccYSR6UZ.s:1103   .text:0000000000000634 .L0 
     /tmp/ccYSR6UZ.s:1107   .text:000000000000063c .L0 
     /tmp/ccYSR6UZ.s:1108   .text:000000000000063c .L0 
     /tmp/ccYSR6UZ.s:1112   .text:0000000000000648 .L0 
GAS LISTING /tmp/ccYSR6UZ.s 			page 52


     /tmp/ccYSR6UZ.s:1114   .text:000000000000064c .L0 
     /tmp/ccYSR6UZ.s:1115   .text:0000000000000650 .L0 
     /tmp/ccYSR6UZ.s:1117   .text:0000000000000654 .L0 
     /tmp/ccYSR6UZ.s:1118   .text:0000000000000654 .L0 
     /tmp/ccYSR6UZ.s:1120   .text:0000000000000658 .L0 
     /tmp/ccYSR6UZ.s:1123   .text:000000000000065c .L0 
     /tmp/ccYSR6UZ.s:1126   .text:0000000000000660 .L0 
     /tmp/ccYSR6UZ.s:1129   .text:0000000000000664 .L0 
     /tmp/ccYSR6UZ.s:1132   .text:0000000000000668 .L0 
     /tmp/ccYSR6UZ.s:1134   .text:000000000000066c .L0 
     /tmp/ccYSR6UZ.s:1148   .text:000000000000066c _ZN5Cache13allBufferInfoEv
     /tmp/ccYSR6UZ.s:1151   .text:000000000000066c .L0 
     /tmp/ccYSR6UZ.s:1152   .text:000000000000066c .L0 
     /tmp/ccYSR6UZ.s:1153   .text:0000000000000670 .L0 
     /tmp/ccYSR6UZ.s:1157   .text:000000000000067c .L0 
     /tmp/ccYSR6UZ.s:1158   .text:000000000000067c .L0 
     /tmp/ccYSR6UZ.s:1159   .text:000000000000067c .L0 
     /tmp/ccYSR6UZ.s:1161   .text:0000000000000680 .L0 
     /tmp/ccYSR6UZ.s:1163   .text:0000000000000680 .L0 
     /tmp/ccYSR6UZ.s:1164   .text:0000000000000680 .L0 
     /tmp/ccYSR6UZ.s:1169   .text:0000000000000690 .L0 
     /tmp/ccYSR6UZ.s:1170   .text:0000000000000690 .L0 
     /tmp/ccYSR6UZ.s:1175   .text:0000000000000698 .L0 
     /tmp/ccYSR6UZ.s:1176   .text:0000000000000698 .L0 
     /tmp/ccYSR6UZ.s:1180   .text:00000000000006a0 .L0 
     /tmp/ccYSR6UZ.s:1181   .text:00000000000006a0 .L0 
     /tmp/ccYSR6UZ.s:1185   .text:00000000000006b0 .L0 
     /tmp/ccYSR6UZ.s:1189   .text:00000000000006b4 .L0 
     /tmp/ccYSR6UZ.s:1192   .text:00000000000006bc .L0 
     /tmp/ccYSR6UZ.s:1193   .text:00000000000006bc .L0 
     /tmp/ccYSR6UZ.s:1198   .text:00000000000006d0 .L0 
     /tmp/ccYSR6UZ.s:1203   .text:00000000000006d8 .L0 
     /tmp/ccYSR6UZ.s:1204   .text:00000000000006dc .L0 
     /tmp/ccYSR6UZ.s:1206   .text:00000000000006e0 .L0 
     /tmp/ccYSR6UZ.s:1207   .text:00000000000006e0 .L0 
     /tmp/ccYSR6UZ.s:1209   .text:00000000000006e4 .L0 
     /tmp/ccYSR6UZ.s:1212   .text:00000000000006e8 .L0 
     /tmp/ccYSR6UZ.s:1214   .text:00000000000006ec .L0 
     /tmp/ccYSR6UZ.s:1220   .text:00000000000006ec _ZN5Cache4Slab17calculateNewStateEv
     /tmp/ccYSR6UZ.s:1223   .text:00000000000006ec .L0 
     /tmp/ccYSR6UZ.s:1225   .text:00000000000006ec .L0 
     /tmp/ccYSR6UZ.s:1226   .text:00000000000006f0 .L0 
     /tmp/ccYSR6UZ.s:1228   .text:00000000000006f4 .L0 
     /tmp/ccYSR6UZ.s:1230   .text:00000000000006f8 .L0 
     /tmp/ccYSR6UZ.s:1232   .text:00000000000006f8 .L0 
     /tmp/ccYSR6UZ.s:1233   .text:00000000000006f8 .L0 
     /tmp/ccYSR6UZ.s:1235   .text:00000000000006fc .L0 
     /tmp/ccYSR6UZ.s:1237   .text:0000000000000700 .L0 
     /tmp/ccYSR6UZ.s:1238   .text:0000000000000700 .L0 
     /tmp/ccYSR6UZ.s:1240   .text:0000000000000704 .L0 
     /tmp/ccYSR6UZ.s:1242   .text:0000000000000708 .L0 
     /tmp/ccYSR6UZ.s:1244   .text:000000000000070c .L0 
     /tmp/ccYSR6UZ.s:1248   .text:0000000000000710 .L0 
     /tmp/ccYSR6UZ.s:1249   .text:0000000000000714 .L0 
     /tmp/ccYSR6UZ.s:1250   .text:0000000000000714 .L0 
     /tmp/ccYSR6UZ.s:1251   .text:0000000000000714 .L0 
     /tmp/ccYSR6UZ.s:1253   .text:0000000000000718 .L0 
GAS LISTING /tmp/ccYSR6UZ.s 			page 53


     /tmp/ccYSR6UZ.s:1257   .text:000000000000071c .L0 
     /tmp/ccYSR6UZ.s:1259   .text:000000000000071c .L0 
     /tmp/ccYSR6UZ.s:1265   .text:0000000000000724 .L0 
     /tmp/ccYSR6UZ.s:1268   .text:000000000000072c .L0 
     /tmp/ccYSR6UZ.s:1274   .text:000000000000072c _ZN5Cache8freeSlotEPNS_4SlotE
     /tmp/ccYSR6UZ.s:1277   .text:000000000000072c .L0 
     /tmp/ccYSR6UZ.s:1279   .text:000000000000072c .L0 
     /tmp/ccYSR6UZ.s:1280   .text:0000000000000730 .L0 
     /tmp/ccYSR6UZ.s:1286   .text:0000000000000744 .L0 
     /tmp/ccYSR6UZ.s:1287   .text:0000000000000744 .L0 
     /tmp/ccYSR6UZ.s:1288   .text:0000000000000744 .L0 
     /tmp/ccYSR6UZ.s:1289   .text:0000000000000744 .L0 
     /tmp/ccYSR6UZ.s:1290   .text:0000000000000744 .L0 
     /tmp/ccYSR6UZ.s:1292   .text:0000000000000748 .L0 
     /tmp/ccYSR6UZ.s:1294   .text:0000000000000748 .L0 
     /tmp/ccYSR6UZ.s:1295   .text:0000000000000748 .L0 
     /tmp/ccYSR6UZ.s:1297   .text:000000000000074c .L0 
     /tmp/ccYSR6UZ.s:1299   .text:0000000000000750 .L0 
     /tmp/ccYSR6UZ.s:1301   .text:0000000000000754 .L0 
     /tmp/ccYSR6UZ.s:1302   .text:0000000000000754 .L0 
     /tmp/ccYSR6UZ.s:1307   .text:000000000000075c .L0 
     /tmp/ccYSR6UZ.s:1308   .text:000000000000075c .L0 
     /tmp/ccYSR6UZ.s:1309   .text:0000000000000760 .L0 
     /tmp/ccYSR6UZ.s:1310   .text:0000000000000760 .L0 
     /tmp/ccYSR6UZ.s:1312   .text:0000000000000764 .L0 
     /tmp/ccYSR6UZ.s:1313   .text:0000000000000764 .L0 
     /tmp/ccYSR6UZ.s:1315   .text:0000000000000768 .L0 
     /tmp/ccYSR6UZ.s:1317   .text:000000000000076c .L0 
     /tmp/ccYSR6UZ.s:1319   .text:0000000000000770 .L0 
     /tmp/ccYSR6UZ.s:1321   .text:0000000000000774 .L0 
     /tmp/ccYSR6UZ.s:1325   .text:0000000000000778 .L0 
     /tmp/ccYSR6UZ.s:1327   .text:0000000000000778 .L0 
     /tmp/ccYSR6UZ.s:1328   .text:0000000000000778 .L0 
     /tmp/ccYSR6UZ.s:1329   .text:0000000000000778 .L0 
     /tmp/ccYSR6UZ.s:1330   .text:0000000000000778 .L0 
     /tmp/ccYSR6UZ.s:1332   .text:000000000000077c .L0 
     /tmp/ccYSR6UZ.s:1333   .text:000000000000077c .L0 
     /tmp/ccYSR6UZ.s:1335   .text:0000000000000780 .L0 
     /tmp/ccYSR6UZ.s:1338   .text:0000000000000788 .L0 
     /tmp/ccYSR6UZ.s:1339   .text:0000000000000788 .L0 
     /tmp/ccYSR6UZ.s:1346   .text:0000000000000798 .L0 
     /tmp/ccYSR6UZ.s:1347   .text:0000000000000798 .L0 
     /tmp/ccYSR6UZ.s:1349   .text:000000000000079c .L0 
     /tmp/ccYSR6UZ.s:1351   .text:00000000000007a0 .L0 
     /tmp/ccYSR6UZ.s:1356   .text:00000000000007a8 .L0 
     /tmp/ccYSR6UZ.s:1357   .text:00000000000007a8 .L0 
     /tmp/ccYSR6UZ.s:1366   .text:00000000000007c0 .L0 
     /tmp/ccYSR6UZ.s:1367   .text:00000000000007c0 .L0 
     /tmp/ccYSR6UZ.s:1373   .text:00000000000007d4 .L0 
     /tmp/ccYSR6UZ.s:1379   .text:00000000000007d4 _ZN5Cache10freeBufferEPNS_4SlotE
     /tmp/ccYSR6UZ.s:1382   .text:00000000000007d4 .L0 
     /tmp/ccYSR6UZ.s:1384   .text:00000000000007d4 .L0 
     /tmp/ccYSR6UZ.s:1385   .text:00000000000007d8 .L0 
     /tmp/ccYSR6UZ.s:1388   .text:00000000000007e0 .L0 
     /tmp/ccYSR6UZ.s:1389   .text:00000000000007e0 .L0 
     /tmp/ccYSR6UZ.s:1391   .text:00000000000007e4 .L0 
     /tmp/ccYSR6UZ.s:1394   .text:00000000000007e8 .L0 
GAS LISTING /tmp/ccYSR6UZ.s 			page 54


     /tmp/ccYSR6UZ.s:1395   .text:00000000000007e8 .L0 
     /tmp/ccYSR6UZ.s:1398   .text:00000000000007ec .L0 
     /tmp/ccYSR6UZ.s:1399   .text:00000000000007ec .L0 
     /tmp/ccYSR6UZ.s:1404   .text:00000000000007f8 .L0 
     /tmp/ccYSR6UZ.s:1405   .text:00000000000007fc .L0 
     /tmp/ccYSR6UZ.s:1407   .text:0000000000000800 .L0 
     /tmp/ccYSR6UZ.s:1408   .text:0000000000000800 .L0 
     /tmp/ccYSR6UZ.s:1410   .text:0000000000000804 .L0 
     /tmp/ccYSR6UZ.s:1412   .text:0000000000000808 .L0 
     /tmp/ccYSR6UZ.s:1418   .text:0000000000000808 _ZN5Cache4Slab11getFreeSlotEv
     /tmp/ccYSR6UZ.s:1421   .text:0000000000000808 .L0 
     /tmp/ccYSR6UZ.s:1423   .text:0000000000000808 .L0 
     /tmp/ccYSR6UZ.s:1424   .text:000000000000080c .L0 
     /tmp/ccYSR6UZ.s:1430   .text:0000000000000820 .L0 
     /tmp/ccYSR6UZ.s:1431   .text:0000000000000820 .L0 
     /tmp/ccYSR6UZ.s:1432   .text:0000000000000820 .L0 
     /tmp/ccYSR6UZ.s:1433   .text:0000000000000820 .L0 
     /tmp/ccYSR6UZ.s:1434   .text:0000000000000820 .L0 
     /tmp/ccYSR6UZ.s:1436   .text:0000000000000824 .L0 
     /tmp/ccYSR6UZ.s:1438   .text:0000000000000824 .L0 
     /tmp/ccYSR6UZ.s:1439   .text:0000000000000824 .L0 
     /tmp/ccYSR6UZ.s:1441   .text:0000000000000828 .L0 
     /tmp/ccYSR6UZ.s:1444   .text:0000000000000830 .L0 
     /tmp/ccYSR6UZ.s:1446   .text:0000000000000834 .L0 
     /tmp/ccYSR6UZ.s:1452   .text:000000000000083c .L0 
     /tmp/ccYSR6UZ.s:1457   .text:0000000000000840 .L0 
     /tmp/ccYSR6UZ.s:1458   .text:0000000000000840 .L0 
     /tmp/ccYSR6UZ.s:1460   .text:0000000000000844 .L0 
     /tmp/ccYSR6UZ.s:1463   .text:0000000000000848 .L0 
     /tmp/ccYSR6UZ.s:1464   .text:0000000000000848 .L0 
     /tmp/ccYSR6UZ.s:1467   .text:000000000000084c .L0 
     /tmp/ccYSR6UZ.s:1472   .text:0000000000000850 .L0 
     /tmp/ccYSR6UZ.s:1473   .text:0000000000000850 .L0 
     /tmp/ccYSR6UZ.s:1475   .text:0000000000000854 .L0 
     /tmp/ccYSR6UZ.s:1478   .text:000000000000085c .L0 
     /tmp/ccYSR6UZ.s:1479   .text:000000000000085c .L0 
     /tmp/ccYSR6UZ.s:1482   .text:0000000000000864 .L0 
     /tmp/ccYSR6UZ.s:1483   .text:0000000000000864 .L0 
     /tmp/ccYSR6UZ.s:1485   .text:0000000000000868 .L0 
     /tmp/ccYSR6UZ.s:1486   .text:0000000000000868 .L0 
     /tmp/ccYSR6UZ.s:1493   .text:0000000000000878 .L0 
     /tmp/ccYSR6UZ.s:1494   .text:0000000000000878 .L0 
     /tmp/ccYSR6UZ.s:1496   .text:000000000000087c .L0 
     /tmp/ccYSR6UZ.s:1498   .text:0000000000000880 .L0 
     /tmp/ccYSR6UZ.s:1503   .text:0000000000000888 .L0 
     /tmp/ccYSR6UZ.s:1504   .text:0000000000000888 .L0 
     /tmp/ccYSR6UZ.s:1514   .text:000000000000089c .L0 
     /tmp/ccYSR6UZ.s:1515   .text:000000000000089c .L0 
     /tmp/ccYSR6UZ.s:1517   .text:00000000000008a4 .L0 
     /tmp/ccYSR6UZ.s:1518   .text:00000000000008a4 .L0 
     /tmp/ccYSR6UZ.s:1520   .text:00000000000008a8 .L0 
     /tmp/ccYSR6UZ.s:1521   .text:00000000000008a8 .L0 
     /tmp/ccYSR6UZ.s:1523   .text:00000000000008ac .L0 
     /tmp/ccYSR6UZ.s:1525   .text:00000000000008b0 .L0 
     /tmp/ccYSR6UZ.s:1527   .text:00000000000008b4 .L0 
     /tmp/ccYSR6UZ.s:1529   .text:00000000000008b8 .L0 
     /tmp/ccYSR6UZ.s:1533   .text:00000000000008bc .L0 
GAS LISTING /tmp/ccYSR6UZ.s 			page 55


     /tmp/ccYSR6UZ.s:1538   .text:00000000000008bc .L0 
     /tmp/ccYSR6UZ.s:1539   .text:00000000000008bc .L0 
     /tmp/ccYSR6UZ.s:1551   .text:00000000000008d0 .L0 
     /tmp/ccYSR6UZ.s:1553   .text:00000000000008d8 .L0 
     /tmp/ccYSR6UZ.s:1559   .text:00000000000008d8 _ZN5Cache12allocateSlotEv
     /tmp/ccYSR6UZ.s:1562   .text:00000000000008d8 .L0 
     /tmp/ccYSR6UZ.s:1564   .text:00000000000008d8 .L0 
     /tmp/ccYSR6UZ.s:1565   .text:00000000000008dc .L0 
     /tmp/ccYSR6UZ.s:1568   .text:00000000000008e4 .L0 
     /tmp/ccYSR6UZ.s:1569   .text:00000000000008e4 .L0 
     /tmp/ccYSR6UZ.s:1571   .text:00000000000008e8 .L0 
     /tmp/ccYSR6UZ.s:1575   .text:00000000000008ec .L0 
     /tmp/ccYSR6UZ.s:1576   .text:00000000000008ec .L0 
     /tmp/ccYSR6UZ.s:1579   .text:00000000000008f0 .L0 
     /tmp/ccYSR6UZ.s:1583   .text:00000000000008f4 .L0 
     /tmp/ccYSR6UZ.s:1584   .text:00000000000008f4 .L0 
     /tmp/ccYSR6UZ.s:1585   .text:00000000000008f4 .L0 
     /tmp/ccYSR6UZ.s:1591   .text:00000000000008fc .L0 
     /tmp/ccYSR6UZ.s:1592   .text:0000000000000900 .L0 
     /tmp/ccYSR6UZ.s:1593   .text:0000000000000900 .L0 
     /tmp/ccYSR6UZ.s:1595   .text:0000000000000904 .L0 
     /tmp/ccYSR6UZ.s:1596   .text:0000000000000904 .L0 
     /tmp/ccYSR6UZ.s:1598   .text:0000000000000908 .L0 
     /tmp/ccYSR6UZ.s:1602   .text:000000000000090c .L0 
     /tmp/ccYSR6UZ.s:1606   .text:000000000000090c .L0 
     /tmp/ccYSR6UZ.s:1607   .text:000000000000090c .L0 
     /tmp/ccYSR6UZ.s:1609   .text:0000000000000910 .L0 
     /tmp/ccYSR6UZ.s:1613   .text:0000000000000914 .L0 
     /tmp/ccYSR6UZ.s:1614   .text:0000000000000914 .L0 
     /tmp/ccYSR6UZ.s:1615   .text:0000000000000914 .L0 
     /tmp/ccYSR6UZ.s:1618   .text:000000000000091c .L0 
     /tmp/ccYSR6UZ.s:1619   .text:000000000000091c .L0 
     /tmp/ccYSR6UZ.s:1626   .text:0000000000000920 .L0 
     /tmp/ccYSR6UZ.s:1627   .text:0000000000000920 .L0 
     /tmp/ccYSR6UZ.s:1631   .text:000000000000092c .L0 
     /tmp/ccYSR6UZ.s:1632   .text:000000000000092c .L0 
     /tmp/ccYSR6UZ.s:1635   .text:0000000000000934 .L0 
     /tmp/ccYSR6UZ.s:1636   .text:0000000000000938 .L0 
     /tmp/ccYSR6UZ.s:1642   .text:0000000000000938 _ZN5Cache14allocateBufferEm
     /tmp/ccYSR6UZ.s:1645   .text:0000000000000938 .L0 
     /tmp/ccYSR6UZ.s:1647   .text:0000000000000938 .L0 
     /tmp/ccYSR6UZ.s:1648   .text:000000000000093c .L0 
     /tmp/ccYSR6UZ.s:1653   .text:000000000000094c .L0 
     /tmp/ccYSR6UZ.s:1654   .text:000000000000094c .L0 
     /tmp/ccYSR6UZ.s:1655   .text:000000000000094c .L0 
     /tmp/ccYSR6UZ.s:1656   .text:000000000000094c .L0 
     /tmp/ccYSR6UZ.s:1658   .text:0000000000000950 .L0 
     /tmp/ccYSR6UZ.s:1660   .text:0000000000000950 .L0 
     /tmp/ccYSR6UZ.s:1661   .text:0000000000000950 .L0 
     /tmp/ccYSR6UZ.s:1664   .text:0000000000000958 .L0 
     /tmp/ccYSR6UZ.s:1665   .text:0000000000000958 .L0 
     /tmp/ccYSR6UZ.s:1667   .text:000000000000095c .L0 
     /tmp/ccYSR6UZ.s:1672   .text:0000000000000968 .L0 
     /tmp/ccYSR6UZ.s:1673   .text:0000000000000968 .L0 
     /tmp/ccYSR6UZ.s:1674   .text:0000000000000968 .L0 
     /tmp/ccYSR6UZ.s:1679   .text:000000000000097c .L0 
     /tmp/ccYSR6UZ.s:1683   .text:0000000000000980 .L0 
GAS LISTING /tmp/ccYSR6UZ.s 			page 56


     /tmp/ccYSR6UZ.s:1684   .text:0000000000000980 .L0 
     /tmp/ccYSR6UZ.s:1689   .text:0000000000000990 .L0 
     /tmp/ccYSR6UZ.s:1694   .text:000000000000099c .L0 
     /tmp/ccYSR6UZ.s:1695   .text:00000000000009a0 .L0 
     /tmp/ccYSR6UZ.s:1696   .text:00000000000009a0 .L0 
     /tmp/ccYSR6UZ.s:1698   .text:00000000000009a4 .L0 
     /tmp/ccYSR6UZ.s:1699   .text:00000000000009a4 .L0 
     /tmp/ccYSR6UZ.s:1701   .text:00000000000009a8 .L0 
     /tmp/ccYSR6UZ.s:1703   .text:00000000000009ac .L0 
     /tmp/ccYSR6UZ.s:1705   .text:00000000000009b0 .L0 
     /tmp/ccYSR6UZ.s:1709   .text:00000000000009b4 .L0 
     /tmp/ccYSR6UZ.s:1711   .text:00000000000009b4 .L0 
     /tmp/ccYSR6UZ.s:1712   .text:00000000000009b4 .L0 
     /tmp/ccYSR6UZ.s:1715   .text:00000000000009bc .L0 
     /tmp/ccYSR6UZ.s:1720   .text:00000000000009d0 .L0 
     /tmp/ccYSR6UZ.s:1721   .text:00000000000009d0 .L0 
     /tmp/ccYSR6UZ.s:1734   .text:00000000000009fc .L0 
     /tmp/ccYSR6UZ.s:1737   .text:0000000000000a04 .L0 
     /tmp/ccYSR6UZ.s:1787   .bss:0000000000000000 _ZN5Cache11bufferCacheE
     /tmp/ccYSR6UZ.s:1794   .data.rel.local:0000000000000000 _ZN5Cache11bufferNamesE
     /tmp/ccYSR6UZ.s:1784   .bss:0000000000000000 .LANCHOR0
     /tmp/ccYSR6UZ.s:1791   .data.rel.local:0000000000000000 .LANCHOR1
     /tmp/ccYSR6UZ.s:1815   .text:0000000000000a04 .L0 
     /tmp/ccYSR6UZ.s:172    .rodata.str1.8:0000000000000020 .LC1
     /tmp/ccYSR6UZ.s:205    .text:00000000000000f0 .L0 
     /tmp/ccYSR6UZ.s:169    .rodata.str1.8:0000000000000000 .LC0
     /tmp/ccYSR6UZ.s:229    .text:0000000000000118 .L0 
     /tmp/ccYSR6UZ.s:322    .rodata.str1.8:0000000000000048 .LC2
     /tmp/ccYSR6UZ.s:362    .text:00000000000001c8 .L0 
     /tmp/ccYSR6UZ.s:374    .text:00000000000001ec .L0 
     /tmp/ccYSR6UZ.s:388    .text:0000000000000214 .L0 
     /tmp/ccYSR6UZ.s:400    .text:0000000000000238 .L0 
     /tmp/ccYSR6UZ.s:412    .text:000000000000025c .L0 
     /tmp/ccYSR6UZ.s:424    .text:0000000000000280 .L0 
     /tmp/ccYSR6UZ.s:1139   .rodata.str1.8:0000000000000050 .LC3
     /tmp/ccYSR6UZ.s:1164   .text:0000000000000680 .L0 
     /tmp/ccYSR6UZ.s:1142   .rodata.str1.8:00000000000000d0 .LC4
     /tmp/ccYSR6UZ.s:1181   .text:00000000000006a0 .L0 
     /tmp/ccYSR6UZ.s:1194   .text:00000000000006c0 .L0 
     /tmp/ccYSR6UZ.s:1675   .text:000000000000096c .L0 
     /tmp/ccYSR6UZ.s:1686   .text:0000000000000984 .L0 
     /tmp/ccYSR6UZ.s:1716   .text:00000000000009c0 .L0 
     /tmp/ccYSR6UZ.s:1721   .text:00000000000009d0 .L0 
     /tmp/ccYSR6UZ.s:82     .text:0000000000000068 .L3
     /tmp/ccYSR6UZ.s:74     .text:000000000000005c .L5
     /tmp/ccYSR6UZ.s:155    .text:00000000000000c0 .L7
     /tmp/ccYSR6UZ.s:144    .text:00000000000000b4 .L12
     /tmp/ccYSR6UZ.s:128    .text:00000000000000a0 .L10
     /tmp/ccYSR6UZ.s:224    .text:0000000000000118 .L16
     /tmp/ccYSR6UZ.s:201    .text:00000000000000f0 .L14
     /tmp/ccYSR6UZ.s:268    .text:000000000000014c .L21
     /tmp/ccYSR6UZ.s:301    .text:0000000000000178 .L18
     /tmp/ccYSR6UZ.s:263    .text:0000000000000148 .L19
     /tmp/ccYSR6UZ.s:281    .text:0000000000000160 .L20
     /tmp/ccYSR6UZ.s:508    .text:0000000000000310 .L26
     /tmp/ccYSR6UZ.s:501    .text:0000000000000308 .L27
     /tmp/ccYSR6UZ.s:486    .text:00000000000002ec .L29
GAS LISTING /tmp/ccYSR6UZ.s 			page 57


     /tmp/ccYSR6UZ.s:595    .text:0000000000000384 .L31
     /tmp/ccYSR6UZ.s:570    .text:0000000000000364 .L32
     /tmp/ccYSR6UZ.s:656    .text:00000000000003d4 .L38
     /tmp/ccYSR6UZ.s:689    .text:0000000000000404 .L34
     /tmp/ccYSR6UZ.s:652    .text:00000000000003d0 .L36
     /tmp/ccYSR6UZ.s:667    .text:00000000000003e8 .L37
     /tmp/ccYSR6UZ.s:756    .text:0000000000000454 .L41
     /tmp/ccYSR6UZ.s:737    .text:000000000000043c .L42
     /tmp/ccYSR6UZ.s:764    .text:000000000000045c .L40
     /tmp/ccYSR6UZ.s:859    .text:00000000000004dc .L50
     /tmp/ccYSR6UZ.s:903    .text:000000000000051c .L45
     /tmp/ccYSR6UZ.s:881    .text:00000000000004fc .L47
     /tmp/ccYSR6UZ.s:839    .text:00000000000004cc .L48
     /tmp/ccYSR6UZ.s:845    .text:00000000000004d0 .L49
     /tmp/ccYSR6UZ.s:1008   .text:00000000000005a0 .L54
     /tmp/ccYSR6UZ.s:986    .text:0000000000000580 .L56
     /tmp/ccYSR6UZ.s:1069   .text:0000000000000600 .L60
     /tmp/ccYSR6UZ.s:1060   .text:00000000000005f0 .L63
     /tmp/ccYSR6UZ.s:1105   .text:000000000000063c .L61
     /tmp/ccYSR6UZ.s:1187   .text:00000000000006b4 .L67
     /tmp/ccYSR6UZ.s:1200   .text:00000000000006d8 .L64
     /tmp/ccYSR6UZ.s:1173   .text:0000000000000698 .L69
     /tmp/ccYSR6UZ.s:1178   .text:00000000000006a0 .L66
     /tmp/ccYSR6UZ.s:1256   .text:000000000000071c .L72
     /tmp/ccYSR6UZ.s:1263   .text:0000000000000724 .L73
     /tmp/ccYSR6UZ.s:1246   .text:0000000000000710 .L71
     /tmp/ccYSR6UZ.s:1324   .text:0000000000000778 .L76
     /tmp/ccYSR6UZ.s:1306   .text:000000000000075c .L75
     /tmp/ccYSR6UZ.s:1364   .text:00000000000007c0 .L80
     /tmp/ccYSR6UZ.s:1354   .text:00000000000007a8 .L78
     /tmp/ccYSR6UZ.s:1510   .text:000000000000089c .L83
     /tmp/ccYSR6UZ.s:1546   .text:00000000000008d0 .L89
     /tmp/ccYSR6UZ.s:1468   .text:0000000000000850 .L91
     /tmp/ccYSR6UZ.s:1448   .text:000000000000083c .L88
     /tmp/ccYSR6UZ.s:1532   .text:00000000000008bc .L92
     /tmp/ccYSR6UZ.s:1501   .text:0000000000000888 .L87
     /tmp/ccYSR6UZ.s:1601   .text:000000000000090c .L94
     /tmp/ccYSR6UZ.s:1621   .text:0000000000000920 .L96
     /tmp/ccYSR6UZ.s:1587   .text:00000000000008fc .L93
     /tmp/ccYSR6UZ.s:1732   .text:00000000000009fc .L101
     /tmp/ccYSR6UZ.s:1708   .text:00000000000009b4 .L103
     /tmp/ccYSR6UZ.s:1681   .text:0000000000000980 .L100
     /tmp/ccYSR6UZ.s:1692   .text:000000000000099c .L98
     /tmp/ccYSR6UZ.s:1744   .rodata.str1.8:00000000000000d8 .LC5
     /tmp/ccYSR6UZ.s:1747   .rodata.str1.8:00000000000000e0 .LC6
     /tmp/ccYSR6UZ.s:1750   .rodata.str1.8:00000000000000e8 .LC7
     /tmp/ccYSR6UZ.s:1753   .rodata.str1.8:00000000000000f8 .LC8
     /tmp/ccYSR6UZ.s:1756   .rodata.str1.8:0000000000000108 .LC9
     /tmp/ccYSR6UZ.s:1759   .rodata.str1.8:0000000000000118 .LC10
     /tmp/ccYSR6UZ.s:1762   .rodata.str1.8:0000000000000128 .LC11
     /tmp/ccYSR6UZ.s:1765   .rodata.str1.8:0000000000000138 .LC12
     /tmp/ccYSR6UZ.s:1768   .rodata.str1.8:0000000000000148 .LC13
     /tmp/ccYSR6UZ.s:1771   .rodata.str1.8:0000000000000158 .LC14
     /tmp/ccYSR6UZ.s:1774   .rodata.str1.8:0000000000000168 .LC15
     /tmp/ccYSR6UZ.s:1777   .rodata.str1.8:0000000000000178 .LC16
     /tmp/ccYSR6UZ.s:1780   .rodata.str1.8:0000000000000188 .LC17
     /tmp/ccYSR6UZ.s:4074   .debug_abbrev:0000000000000000 .Ldebug_abbrev0
GAS LISTING /tmp/ccYSR6UZ.s 			page 58


     /tmp/ccYSR6UZ.s:6469   .debug_str:0000000000000845 .LASF155
     /tmp/ccYSR6UZ.s:6201   .debug_str:000000000000001b .LASF156
     /tmp/ccYSR6UZ.s:6297   .debug_str:00000000000002e5 .LASF157
     /tmp/ccYSR6UZ.s:5      .text:0000000000000000 .Ltext0
     /tmp/ccYSR6UZ.s:1809   .text:0000000000000a04 .Letext0
     /tmp/ccYSR6UZ.s:6195   .debug_line:0000000000000000 .Ldebug_line0
     /tmp/ccYSR6UZ.s:6301   .debug_str:0000000000000314 .LASF0
     /tmp/ccYSR6UZ.s:6325   .debug_str:00000000000003bc .LASF1
     /tmp/ccYSR6UZ.s:6411   .debug_str:0000000000000680 .LASF2
     /tmp/ccYSR6UZ.s:6417   .debug_str:00000000000006a9 .LASF4
     /tmp/ccYSR6UZ.s:6307   .debug_str:0000000000000337 .LASF3
     /tmp/ccYSR6UZ.s:6207   .debug_str:0000000000000040 .LASF5
     /tmp/ccYSR6UZ.s:6387   .debug_str:00000000000005c3 .LASF6
     /tmp/ccYSR6UZ.s:6315   .debug_str:0000000000000387 .LASF7
     /tmp/ccYSR6UZ.s:6281   .debug_str:0000000000000267 .LASF8
     /tmp/ccYSR6UZ.s:6289   .debug_str:00000000000002a1 .LASF9
     /tmp/ccYSR6UZ.s:6239   .debug_str:0000000000000121 .LASF10
     /tmp/ccYSR6UZ.s:6269   .debug_str:0000000000000223 .LASF11
     /tmp/ccYSR6UZ.s:6251   .debug_str:0000000000000167 .LASF12
     /tmp/ccYSR6UZ.s:6237   .debug_str:0000000000000111 .LASF13
     /tmp/ccYSR6UZ.s:6451   .debug_str:00000000000007d7 .LASF14
     /tmp/ccYSR6UZ.s:6259   .debug_str:00000000000001a6 .LASF15
     /tmp/ccYSR6UZ.s:6441   .debug_str:000000000000076a .LASF16
     /tmp/ccYSR6UZ.s:6485   .debug_str:000000000000098f .LASF88
     /tmp/ccYSR6UZ.s:6253   .debug_str:0000000000000177 .LASF158
     /tmp/ccYSR6UZ.s:6407   .debug_str:0000000000000673 .LASF17
     /tmp/ccYSR6UZ.s:6437   .debug_str:0000000000000753 .LASF18
     /tmp/ccYSR6UZ.s:6499   .debug_str:0000000000000a58 .LASF159
     /tmp/ccYSR6UZ.s:6227   .debug_str:00000000000000d2 .LASF19
     /tmp/ccYSR6UZ.s:6283   .debug_str:0000000000000277 .LASF20
     /tmp/ccYSR6UZ.s:6381   .debug_str:00000000000005ae .LASF21
     /tmp/ccYSR6UZ.s:6401   .debug_str:0000000000000653 .LASF22
     /tmp/ccYSR6UZ.s:6319   .debug_str:00000000000003a6 .LASF26
     /tmp/ccYSR6UZ.s:6367   .debug_str:000000000000053c .LASF23
     /tmp/ccYSR6UZ.s:6241   .debug_str:0000000000000130 .LASF24
     /tmp/ccYSR6UZ.s:6231   .debug_str:00000000000000dd .LASF25
     /tmp/ccYSR6UZ.s:6463   .debug_str:000000000000082b .LASF27
     /tmp/ccYSR6UZ.s:6265   .debug_str:00000000000001f1 .LASF28
     /tmp/ccYSR6UZ.s:6257   .debug_str:00000000000001a0 .LASF29
     /tmp/ccYSR6UZ.s:6277   .debug_str:0000000000000253 .LASF30
     /tmp/ccYSR6UZ.s:6217   .debug_str:0000000000000087 .LASF58
     /tmp/ccYSR6UZ.s:6351   .debug_str:00000000000004a2 .LASF60
     /tmp/ccYSR6UZ.s:6439   .debug_str:0000000000000761 .LASF31
     /tmp/ccYSR6UZ.s:6379   .debug_str:000000000000059c .LASF34
     /tmp/ccYSR6UZ.s:6221   .debug_str:000000000000009c .LASF36
     /tmp/ccYSR6UZ.s:6395   .debug_str:000000000000060a .LASF32
     /tmp/ccYSR6UZ.s:6333   .debug_str:000000000000040e .LASF33
     /tmp/ccYSR6UZ.s:6405   .debug_str:0000000000000667 .LASF35
     /tmp/ccYSR6UZ.s:6481   .debug_str:0000000000000962 .LASF37
     /tmp/ccYSR6UZ.s:6399   .debug_str:0000000000000644 .LASF38
     /tmp/ccYSR6UZ.s:6291   .debug_str:00000000000002af .LASF39
     /tmp/ccYSR6UZ.s:6285   .debug_str:000000000000027f .LASF40
     /tmp/ccYSR6UZ.s:6509   .debug_str:0000000000000aa6 .LASF41
     /tmp/ccYSR6UZ.s:6271   .debug_str:0000000000000232 .LASF42
     /tmp/ccYSR6UZ.s:6219   .debug_str:0000000000000093 .LASF43
     /tmp/ccYSR6UZ.s:6377   .debug_str:0000000000000593 .LASF44
     /tmp/ccYSR6UZ.s:6203   .debug_str:0000000000000029 .LASF45
GAS LISTING /tmp/ccYSR6UZ.s 			page 59


     /tmp/ccYSR6UZ.s:6317   .debug_str:000000000000039a .LASF46
     /tmp/ccYSR6UZ.s:6385   .debug_str:00000000000005b8 .LASF47
     /tmp/ccYSR6UZ.s:6465   .debug_str:0000000000000830 .LASF48
     /tmp/ccYSR6UZ.s:6501   .debug_str:0000000000000a62 .LASF49
     /tmp/ccYSR6UZ.s:6347   .debug_str:000000000000046e .LASF50
     /tmp/ccYSR6UZ.s:6403   .debug_str:000000000000065b .LASF51
     /tmp/ccYSR6UZ.s:6263   .debug_str:00000000000001d7 .LASF52
     /tmp/ccYSR6UZ.s:6213   .debug_str:0000000000000074 .LASF53
     /tmp/ccYSR6UZ.s:6235   .debug_str:0000000000000103 .LASF54
     /tmp/ccYSR6UZ.s:6279   .debug_str:000000000000025f .LASF55
     /tmp/ccYSR6UZ.s:6513   .debug_str:0000000000000aba .LASF56
     /tmp/ccYSR6UZ.s:6443   .debug_str:0000000000000780 .LASF57
     /tmp/ccYSR6UZ.s:6433   .debug_str:0000000000000735 .LASF121
     /tmp/ccYSR6UZ.s:6373   .debug_str:0000000000000575 .LASF123
     /tmp/ccYSR6UZ.s:6435   .debug_str:0000000000000741 .LASF64
     /tmp/ccYSR6UZ.s:6255   .debug_str:0000000000000181 .LASF66
     /tmp/ccYSR6UZ.s:6275   .debug_str:0000000000000244 .LASF59
     /tmp/ccYSR6UZ.s:6353   .debug_str:00000000000004c0 .LASF61
     /tmp/ccYSR6UZ.s:6479   .debug_str:0000000000000958 .LASF62
     /tmp/ccYSR6UZ.s:6209   .debug_str:0000000000000047 .LASF63
     /tmp/ccYSR6UZ.s:6311   .debug_str:000000000000036d .LASF65
     /tmp/ccYSR6UZ.s:6419   .debug_str:00000000000006b0 .LASF67
     /tmp/ccYSR6UZ.s:6511   .debug_str:0000000000000ab1 .LASF68
     /tmp/ccYSR6UZ.s:6421   .debug_str:00000000000006ca .LASF69
     /tmp/ccYSR6UZ.s:6415   .debug_str:0000000000000698 .LASF70
     /tmp/ccYSR6UZ.s:6495   .debug_str:0000000000000a0b .LASF71
     /tmp/ccYSR6UZ.s:6507   .debug_str:0000000000000a99 .LASF72
     /tmp/ccYSR6UZ.s:6473   .debug_str:0000000000000929 .LASF73
     /tmp/ccYSR6UZ.s:6225   .debug_str:00000000000000c6 .LASF74
     /tmp/ccYSR6UZ.s:6391   .debug_str:00000000000005df .LASF75
     /tmp/ccYSR6UZ.s:6365   .debug_str:000000000000052f .LASF76
     /tmp/ccYSR6UZ.s:6361   .debug_str:000000000000050f .LASF77
     /tmp/ccYSR6UZ.s:6349   .debug_str:0000000000000493 .LASF78
     /tmp/ccYSR6UZ.s:6423   .debug_str:00000000000006e8 .LASF79
     /tmp/ccYSR6UZ.s:6245   .debug_str:0000000000000141 .LASF80
     /tmp/ccYSR6UZ.s:6449   .debug_str:00000000000007b6 .LASF81
     /tmp/ccYSR6UZ.s:6431   .debug_str:000000000000072a .LASF82
     /tmp/ccYSR6UZ.s:6341   .debug_str:000000000000044a .LASF83
     /tmp/ccYSR6UZ.s:6343   .debug_str:0000000000000462 .LASF84
     /tmp/ccYSR6UZ.s:6505   .debug_str:0000000000000a82 .LASF85
     /tmp/ccYSR6UZ.s:6197   .debug_str:0000000000000000 .LASF113
     /tmp/ccYSR6UZ.s:6359   .debug_str:00000000000004f4 .LASF115
     /tmp/ccYSR6UZ.s:6345   .debug_str:0000000000000469 .LASF86
     /tmp/ccYSR6UZ.s:6461   .debug_str:0000000000000826 .LASF87
     /tmp/ccYSR6UZ.s:6357   .debug_str:00000000000004e5 .LASF89
     /tmp/ccYSR6UZ.s:6477   .debug_str:000000000000094d .LASF90
     /tmp/ccYSR6UZ.s:6445   .debug_str:000000000000078c .LASF91
     /tmp/ccYSR6UZ.s:6229   .debug_str:00000000000000d8 .LASF92
     /tmp/ccYSR6UZ.s:6321   .debug_str:00000000000003ab .LASF93
     /tmp/ccYSR6UZ.s:6397   .debug_str:0000000000000614 .LASF94
     /tmp/ccYSR6UZ.s:6337   .debug_str:0000000000000439 .LASF95
     /tmp/ccYSR6UZ.s:6497   .debug_str:0000000000000a29 .LASF96
     /tmp/ccYSR6UZ.s:6483   .debug_str:0000000000000985 .LASF97
     /tmp/ccYSR6UZ.s:6475   .debug_str:0000000000000943 .LASF98
     /tmp/ccYSR6UZ.s:6371   .debug_str:0000000000000568 .LASF99
     /tmp/ccYSR6UZ.s:6287   .debug_str:0000000000000289 .LASF100
     /tmp/ccYSR6UZ.s:6363   .debug_str:0000000000000529 .LASF101
GAS LISTING /tmp/ccYSR6UZ.s 			page 60


     /tmp/ccYSR6UZ.s:6467   .debug_str:000000000000083b .LASF102
     /tmp/ccYSR6UZ.s:6199   .debug_str:000000000000000e .LASF103
     /tmp/ccYSR6UZ.s:6309   .debug_str:0000000000000349 .LASF104
     /tmp/ccYSR6UZ.s:6313   .debug_str:000000000000037a .LASF105
     /tmp/ccYSR6UZ.s:6493   .debug_str:00000000000009e7 .LASF106
     /tmp/ccYSR6UZ.s:6303   .debug_str:0000000000000321 .LASF107
     /tmp/ccYSR6UZ.s:6487   .debug_str:0000000000000995 .LASF108
     /tmp/ccYSR6UZ.s:6243   .debug_str:0000000000000135 .LASF109
     /tmp/ccYSR6UZ.s:6267   .debug_str:0000000000000200 .LASF110
     /tmp/ccYSR6UZ.s:6491   .debug_str:00000000000009d7 .LASF111
     /tmp/ccYSR6UZ.s:6455   .debug_str:00000000000007ed .LASF112
     /tmp/ccYSR6UZ.s:6457   .debug_str:0000000000000815 .LASF114
     /tmp/ccYSR6UZ.s:6335   .debug_str:0000000000000417 .LASF116
     /tmp/ccYSR6UZ.s:6211   .debug_str:0000000000000069 .LASF117
     /tmp/ccYSR6UZ.s:6327   .debug_str:00000000000003cf .LASF118
     /tmp/ccYSR6UZ.s:6453   .debug_str:00000000000007e3 .LASF119
     /tmp/ccYSR6UZ.s:6369   .debug_str:0000000000000546 .LASF120
     /tmp/ccYSR6UZ.s:6299   .debug_str:000000000000030a .LASF122
     /tmp/ccYSR6UZ.s:6471   .debug_str:0000000000000909 .LASF124
     /tmp/ccYSR6UZ.s:6233   .debug_str:00000000000000e8 .LASF125
     /tmp/ccYSR6UZ.s:6413   .debug_str:000000000000068e .LASF126
     /tmp/ccYSR6UZ.s:6261   .debug_str:00000000000001bc .LASF127
     /tmp/ccYSR6UZ.s:6331   .debug_str:00000000000003f6 .LASF128
     /tmp/ccYSR6UZ.s:6489   .debug_str:00000000000009bf .LASF129
     /tmp/ccYSR6UZ.s:1221   .text:00000000000006ec .LFB44
     /tmp/ccYSR6UZ.s:1269   .text:000000000000072c .LFE44
     /tmp/ccYSR6UZ.s:6273   .debug_str:000000000000023f .LASF130
     /tmp/ccYSR6UZ.s:5219   .debug_loc:0000000000000000 .LLST41
     /tmp/ccYSR6UZ.s:1419   .text:0000000000000808 .LFB43
     /tmp/ccYSR6UZ.s:1554   .text:00000000000008d8 .LFE43
     /tmp/ccYSR6UZ.s:5255   .debug_loc:000000000000008b .LLST47
     /tmp/ccYSR6UZ.s:6145   .debug_ranges:0000000000000000 .Ldebug_ranges0
     /tmp/ccYSR6UZ.s:6515   .debug_str:0000000000000ac6 .LASF131
     /tmp/ccYSR6UZ.s:5281   .debug_loc:00000000000000fd .LLST48
     /tmp/ccYSR6UZ.s:6355   .debug_str:00000000000004dc .LASF132
     /tmp/ccYSR6UZ.s:5292   .debug_loc:0000000000000133 .LLST49
     /tmp/ccYSR6UZ.s:1489   .text:0000000000000874 .LVL146
     /tmp/ccYSR6UZ.s:1508   .text:000000000000089c .LVL149
     /tmp/ccYSR6UZ.s:1543   .text:00000000000008cc .LVL152
     /tmp/ccYSR6UZ.s:1149   .text:000000000000066c .LFB42
     /tmp/ccYSR6UZ.s:1215   .text:00000000000006ec .LFE42
     /tmp/ccYSR6UZ.s:1168   .text:0000000000000690 .LBB23
     /tmp/ccYSR6UZ.s:1201   .text:00000000000006d8 .LBE23
     /tmp/ccYSR6UZ.s:5303   .debug_loc:0000000000000169 .LLST40
     /tmp/ccYSR6UZ.s:1177   .text:00000000000006a0 .LVL117
     /tmp/ccYSR6UZ.s:1183   .text:00000000000006b0 .LVL118
     /tmp/ccYSR6UZ.s:1166   .text:0000000000000690 .LVL115
     /tmp/ccYSR6UZ.s:970    .text:0000000000000570 .LFB41
     /tmp/ccYSR6UZ.s:1018   .text:00000000000005ac .LFE41
     /tmp/ccYSR6UZ.s:6293   .debug_str:00000000000002d5 .LASF133
     /tmp/ccYSR6UZ.s:6295   .debug_str:00000000000002dd .LASF134
     /tmp/ccYSR6UZ.s:982    .text:000000000000057c .LBB21
     /tmp/ccYSR6UZ.s:1009   .text:00000000000005a0 .LBE21
     /tmp/ccYSR6UZ.s:5315   .debug_loc:00000000000001a0 .LLST33
     /tmp/ccYSR6UZ.s:938    .text:0000000000000544 .LFB40
     /tmp/ccYSR6UZ.s:964    .text:0000000000000570 .LFE40
     /tmp/ccYSR6UZ.s:953    .text:0000000000000560 .LVL98
GAS LISTING /tmp/ccYSR6UZ.s 			page 61


     /tmp/ccYSR6UZ.s:716    .text:0000000000000420 .LFB39
     /tmp/ccYSR6UZ.s:773    .text:0000000000000468 .LFE39
     /tmp/ccYSR6UZ.s:6323   .debug_str:00000000000003b7 .LASF135
     /tmp/ccYSR6UZ.s:5331   .debug_loc:00000000000001ea .LLST23
     /tmp/ccYSR6UZ.s:5342   .debug_loc:0000000000000220 .LLST24
     /tmp/ccYSR6UZ.s:5353   .debug_loc:0000000000000256 .LLST25
     /tmp/ccYSR6UZ.s:6205   .debug_str:0000000000000035 .LASF136
     /tmp/ccYSR6UZ.s:5365   .debug_loc:000000000000028d .LLST26
     /tmp/ccYSR6UZ.s:1380   .text:00000000000007d4 .LFB38
     /tmp/ccYSR6UZ.s:1413   .text:0000000000000808 .LFE38
     /tmp/ccYSR6UZ.s:6305   .debug_str:0000000000000332 .LASF137
     /tmp/ccYSR6UZ.s:5377   .debug_loc:00000000000002c4 .LLST45
     /tmp/ccYSR6UZ.s:5395   .debug_loc:0000000000000310 .LLST46
     /tmp/ccYSR6UZ.s:1402   .text:00000000000007f8 .LVL141
     /tmp/ccYSR6UZ.s:1643   .text:0000000000000938 .LFB37
     /tmp/ccYSR6UZ.s:1738   .text:0000000000000a04 .LFE37
     /tmp/ccYSR6UZ.s:5403   .debug_loc:0000000000000334 .LLST55
     /tmp/ccYSR6UZ.s:6429   .debug_str:000000000000071c .LASF138
     /tmp/ccYSR6UZ.s:5417   .debug_loc:000000000000036d .LLST56
     /tmp/ccYSR6UZ.s:6223   .debug_str:00000000000000c0 .LASF139
     /tmp/ccYSR6UZ.s:5446   .debug_loc:00000000000003f1 .LLST57
     /tmp/ccYSR6UZ.s:1662   .text:0000000000000958 .LVL165
     /tmp/ccYSR6UZ.s:1691   .text:000000000000099c .LVL169
     /tmp/ccYSR6UZ.s:1713   .text:00000000000009bc .LVL171
     /tmp/ccYSR6UZ.s:1729   .text:00000000000009f8 .LVL172
     /tmp/ccYSR6UZ.s:626    .text:00000000000003a8 .LFB36
     /tmp/ccYSR6UZ.s:710    .text:0000000000000420 .LFE36
     /tmp/ccYSR6UZ.s:5463   .debug_loc:000000000000043c .LLST19
     /tmp/ccYSR6UZ.s:647    .text:00000000000003c8 .LBB13
     /tmp/ccYSR6UZ.s:691    .text:0000000000000404 .LBE13
     /tmp/ccYSR6UZ.s:5481   .debug_loc:0000000000000488 .LLST20
     /tmp/ccYSR6UZ.s:660    .text:00000000000003dc .LBB14
     /tmp/ccYSR6UZ.s:690    .text:0000000000000404 .LBE14
     /tmp/ccYSR6UZ.s:5493   .debug_loc:00000000000004bf .LLST21
     /tmp/ccYSR6UZ.s:671    .text:00000000000003ec .LBB15
     /tmp/ccYSR6UZ.s:685    .text:0000000000000400 .LBE15
     /tmp/ccYSR6UZ.s:5508   .debug_loc:0000000000000508 .LLST22
     /tmp/ccYSR6UZ.s:682    .text:00000000000003fc .LVL69
     /tmp/ccYSR6UZ.s:453    .text:00000000000002b8 .LFB35
     /tmp/ccYSR6UZ.s:534    .text:000000000000033c .LFE35
     /tmp/ccYSR6UZ.s:5515   .debug_loc:000000000000052b .LLST11
     /tmp/ccYSR6UZ.s:6383   .debug_str:00000000000005b3 .LASF140
     /tmp/ccYSR6UZ.s:5533   .debug_loc:0000000000000577 .LLST12
     /tmp/ccYSR6UZ.s:5551   .debug_loc:00000000000005c3 .LLST13
     /tmp/ccYSR6UZ.s:481    .text:00000000000002e4 .LBB9
     /tmp/ccYSR6UZ.s:509    .text:0000000000000310 .LBE9
     /tmp/ccYSR6UZ.s:5575   .debug_loc:0000000000000615 .LLST14
     /tmp/ccYSR6UZ.s:516    .text:0000000000000320 .LVL50
     /tmp/ccYSR6UZ.s:540    .text:000000000000033c .LFB34
     /tmp/ccYSR6UZ.s:620    .text:00000000000003a8 .LFE34
     /tmp/ccYSR6UZ.s:5582   .debug_loc:0000000000000638 .LLST15
     /tmp/ccYSR6UZ.s:6393   .debug_str:0000000000000601 .LASF141
     /tmp/ccYSR6UZ.s:5600   .debug_loc:0000000000000684 .LLST16
     /tmp/ccYSR6UZ.s:5616   .debug_loc:00000000000006ce .LLST17
     /tmp/ccYSR6UZ.s:574    .text:0000000000000368 .LBB11
     /tmp/ccYSR6UZ.s:591    .text:0000000000000380 .LBE11
     /tmp/ccYSR6UZ.s:5631   .debug_loc:0000000000000717 .LLST18
GAS LISTING /tmp/ccYSR6UZ.s 			page 62


     /tmp/ccYSR6UZ.s:588    .text:000000000000037c .LVL58
     /tmp/ccYSR6UZ.s:240    .text:000000000000012c .LFB33
     /tmp/ccYSR6UZ.s:318    .text:000000000000018c .LFE33
     /tmp/ccYSR6UZ.s:6427   .debug_str:0000000000000713 .LASF142
     /tmp/ccYSR6UZ.s:6447   .debug_str:00000000000007b0 .LASF143
     /tmp/ccYSR6UZ.s:5638   .debug_loc:000000000000073a .LLST6
     /tmp/ccYSR6UZ.s:6459   .debug_str:0000000000000820 .LASF144
     /tmp/ccYSR6UZ.s:5654   .debug_loc:0000000000000784 .LLST7
     /tmp/ccYSR6UZ.s:5670   .debug_loc:00000000000007ce .LLST8
     /tmp/ccYSR6UZ.s:275    .text:0000000000000154 .LBB5
     /tmp/ccYSR6UZ.s:302    .text:0000000000000178 .LBE5
     /tmp/ccYSR6UZ.s:5682   .debug_loc:0000000000000805 .LLST9
     /tmp/ccYSR6UZ.s:329    .text:000000000000018c .LFB32
     /tmp/ccYSR6UZ.s:447    .text:00000000000002b8 .LFE32
     /tmp/ccYSR6UZ.s:5693   .debug_loc:000000000000083b .LLST10
     /tmp/ccYSR6UZ.s:354    .text:00000000000001bc .LVL29
     /tmp/ccYSR6UZ.s:359    .text:00000000000001c8 .LVL30
     /tmp/ccYSR6UZ.s:364    .text:00000000000001d8 .LVL31
     /tmp/ccYSR6UZ.s:371    .text:00000000000001ec .LVL32
     /tmp/ccYSR6UZ.s:376    .text:00000000000001fc .LVL33
     /tmp/ccYSR6UZ.s:385    .text:0000000000000214 .LVL34
     /tmp/ccYSR6UZ.s:390    .text:0000000000000224 .LVL35
     /tmp/ccYSR6UZ.s:397    .text:0000000000000238 .LVL36
     /tmp/ccYSR6UZ.s:402    .text:0000000000000248 .LVL37
     /tmp/ccYSR6UZ.s:409    .text:000000000000025c .LVL38
     /tmp/ccYSR6UZ.s:414    .text:000000000000026c .LVL39
     /tmp/ccYSR6UZ.s:421    .text:0000000000000280 .LVL40
     /tmp/ccYSR6UZ.s:426    .text:0000000000000290 .LVL41
     /tmp/ccYSR6UZ.s:433    .text:00000000000002a4 .LVL42
     /tmp/ccYSR6UZ.s:179    .text:00000000000000cc .LFB31
     /tmp/ccYSR6UZ.s:234    .text:000000000000012c .LFE31
     /tmp/ccYSR6UZ.s:5711   .debug_loc:0000000000000887 .LLST5
     /tmp/ccYSR6UZ.s:207    .text:0000000000000100 .LVL15
     /tmp/ccYSR6UZ.s:231    .text:0000000000000128 .LVL18
     /tmp/ccYSR6UZ.s:97     .text:0000000000000074 .LFB30
     /tmp/ccYSR6UZ.s:165    .text:00000000000000cc .LFE30
     /tmp/ccYSR6UZ.s:6339   .debug_str:0000000000000442 .LASF145
     /tmp/ccYSR6UZ.s:5733   .debug_loc:00000000000008e6 .LLST2
     /tmp/ccYSR6UZ.s:6215   .debug_str:0000000000000082 .LASF146
     /tmp/ccYSR6UZ.s:5747   .debug_loc:000000000000091f .LLST3
     /tmp/ccYSR6UZ.s:5767   .debug_loc:000000000000097c .LLST4
     /tmp/ccYSR6UZ.s:1275   .text:000000000000072c .LFB29
     /tmp/ccYSR6UZ.s:1374   .text:00000000000007d4 .LFE29
     /tmp/ccYSR6UZ.s:5783   .debug_loc:00000000000009c6 .LLST42
     /tmp/ccYSR6UZ.s:5808   .debug_loc:0000000000000a28 .LLST43
     /tmp/ccYSR6UZ.s:5833   .debug_loc:0000000000000a8a .LLST44
     /tmp/ccYSR6UZ.s:1342   .text:0000000000000794 .LVL131
     /tmp/ccYSR6UZ.s:1361   .text:00000000000007bc .LVL134
     /tmp/ccYSR6UZ.s:1371   .text:00000000000007d0 .LVL137
     /tmp/ccYSR6UZ.s:44     .text:0000000000000028 .LFB28
     /tmp/ccYSR6UZ.s:91     .text:0000000000000074 .LFE28
     /tmp/ccYSR6UZ.s:5844   .debug_loc:0000000000000ac0 .LLST1
     /tmp/ccYSR6UZ.s:779    .text:0000000000000468 .LFB27
     /tmp/ccYSR6UZ.s:932    .text:0000000000000544 .LFE27
     /tmp/ccYSR6UZ.s:5863   .debug_loc:0000000000000b0d .LLST27
     /tmp/ccYSR6UZ.s:5881   .debug_loc:0000000000000b59 .LLST28
     /tmp/ccYSR6UZ.s:5896   .debug_loc:0000000000000ba2 .LLST29
GAS LISTING /tmp/ccYSR6UZ.s 			page 63


     /tmp/ccYSR6UZ.s:5909   .debug_loc:0000000000000bda .LLST30
     /tmp/ccYSR6UZ.s:5929   .debug_loc:0000000000000c37 .LLST31
     /tmp/ccYSR6UZ.s:5941   .debug_loc:0000000000000c6e .LLST32
     /tmp/ccYSR6UZ.s:807    .text:000000000000049c .LVL82
     /tmp/ccYSR6UZ.s:809    .text:00000000000004a4 .LVL83
     /tmp/ccYSR6UZ.s:1560   .text:00000000000008d8 .LFB26
     /tmp/ccYSR6UZ.s:1637   .text:0000000000000938 .LFE26
     /tmp/ccYSR6UZ.s:5952   .debug_loc:0000000000000ca4 .LLST50
     /tmp/ccYSR6UZ.s:5992   .debug_loc:0000000000000d42 .LLST51
     /tmp/ccYSR6UZ.s:1580   .text:00000000000008f4 .LBB33
     /tmp/ccYSR6UZ.s:1588   .text:00000000000008fc .LBE33
     /tmp/ccYSR6UZ.s:5999   .debug_loc:0000000000000d65 .LLST52
     /tmp/ccYSR6UZ.s:1586   .text:00000000000008fc .LVL157
     /tmp/ccYSR6UZ.s:1610   .text:0000000000000914 .LBB35
     /tmp/ccYSR6UZ.s:1622   .text:0000000000000920 .LBE35
     /tmp/ccYSR6UZ.s:6006   .debug_loc:0000000000000d88 .LLST53
     /tmp/ccYSR6UZ.s:6013   .debug_loc:0000000000000dab .LLST54
     /tmp/ccYSR6UZ.s:1616   .text:000000000000091c .LVL160
     /tmp/ccYSR6UZ.s:1629   .text:000000000000092c .LVL162
     /tmp/ccYSR6UZ.s:1633   .text:0000000000000934 .LVL163
     /tmp/ccYSR6UZ.s:10     .text:0000000000000000 .LFB25
     /tmp/ccYSR6UZ.s:38     .text:0000000000000028 .LFE25
     /tmp/ccYSR6UZ.s:6020   .debug_loc:0000000000000dce .LLST0
     /tmp/ccYSR6UZ.s:6247   .debug_str:000000000000014c .LASF147
     /tmp/ccYSR6UZ.s:1024   .text:00000000000005ac .LFB24
     /tmp/ccYSR6UZ.s:1135   .text:000000000000066c .LFE24
     /tmp/ccYSR6UZ.s:6034   .debug_loc:0000000000000e07 .LLST34
     /tmp/ccYSR6UZ.s:6329   .debug_str:00000000000003f1 .LASF148
     /tmp/ccYSR6UZ.s:6052   .debug_loc:0000000000000e53 .LLST35
     /tmp/ccYSR6UZ.s:6066   .debug_loc:0000000000000e8c .LLST36
     /tmp/ccYSR6UZ.s:6375   .debug_str:000000000000058e .LASF149
     /tmp/ccYSR6UZ.s:6084   .debug_loc:0000000000000ed8 .LLST37
     /tmp/ccYSR6UZ.s:6409   .debug_str:000000000000067b .LASF150
     /tmp/ccYSR6UZ.s:6102   .debug_loc:0000000000000f24 .LLST38
     /tmp/ccYSR6UZ.s:1055   .text:00000000000005e8 .LBB22
     /tmp/ccYSR6UZ.s:1073   .text:0000000000000608 .LBE22
     /tmp/ccYSR6UZ.s:6120   .debug_loc:0000000000000f70 .LLST39
     /tmp/ccYSR6UZ.s:1053   .text:00000000000005e8 .LVL106
     /tmp/ccYSR6UZ.s:1110   .text:0000000000000648 .LVL110
     /tmp/ccYSR6UZ.s:6249   .debug_str:0000000000000154 .LASF151
     /tmp/ccYSR6UZ.s:6503   .debug_str:0000000000000a76 .LASF153
     /tmp/ccYSR6UZ.s:6425   .debug_str:0000000000000704 .LASF152
     /tmp/ccYSR6UZ.s:6389   .debug_str:00000000000005d6 .LASF154
     /tmp/ccYSR6UZ.s:1224   .text:00000000000006ec .LVL121
     /tmp/ccYSR6UZ.s:1245   .text:0000000000000710 .LVL122
     /tmp/ccYSR6UZ.s:1255   .text:000000000000071c .LVL123
     /tmp/ccYSR6UZ.s:1260   .text:0000000000000720 .LVL124
     /tmp/ccYSR6UZ.s:1262   .text:0000000000000724 .LVL125
     /tmp/ccYSR6UZ.s:1266   .text:0000000000000728 .LVL126
     /tmp/ccYSR6UZ.s:1422   .text:0000000000000808 .LVL142
     /tmp/ccYSR6UZ.s:1487   .text:000000000000086c .LVL145
     /tmp/ccYSR6UZ.s:1531   .text:00000000000008bc .LVL150
     /tmp/ccYSR6UZ.s:1545   .text:00000000000008d0 .LVL153
     /tmp/ccYSR6UZ.s:1449   .text:000000000000083c .LVL143
     /tmp/ccYSR6UZ.s:1491   .text:0000000000000878 .LVL147
     /tmp/ccYSR6UZ.s:1500   .text:0000000000000888 .LVL148
     /tmp/ccYSR6UZ.s:1541   .text:00000000000008c4 .LVL151
GAS LISTING /tmp/ccYSR6UZ.s 			page 64


     /tmp/ccYSR6UZ.s:1172   .text:0000000000000698 .LVL116
     /tmp/ccYSR6UZ.s:1210   .text:00000000000006e4 .LVL120
     /tmp/ccYSR6UZ.s:981    .text:000000000000057c .LVL100
     /tmp/ccYSR6UZ.s:985    .text:0000000000000580 .LVL101
     /tmp/ccYSR6UZ.s:1003   .text:000000000000059c .LVL102
     /tmp/ccYSR6UZ.s:1007   .text:00000000000005a0 .LVL103
     /tmp/ccYSR6UZ.s:719    .text:0000000000000420 .LVL73
     /tmp/ccYSR6UZ.s:736    .text:000000000000043c .LVL75
     /tmp/ccYSR6UZ.s:728    .text:0000000000000430 .LVL74
     /tmp/ccYSR6UZ.s:1383   .text:00000000000007d4 .LVL138
     /tmp/ccYSR6UZ.s:1400   .text:00000000000007f0 .LVL140
     /tmp/ccYSR6UZ.s:1396   .text:00000000000007ec .LVL139
     /tmp/ccYSR6UZ.s:1646   .text:0000000000000938 .LVL164
     /tmp/ccYSR6UZ.s:1680   .text:0000000000000980 .LVL167
     /tmp/ccYSR6UZ.s:1707   .text:00000000000009b4 .LVL170
     /tmp/ccYSR6UZ.s:1731   .text:00000000000009fc .LVL173
     /tmp/ccYSR6UZ.s:1735   .text:0000000000000a00 .LVL174
     /tmp/ccYSR6UZ.s:1671   .text:0000000000000968 .LVL166
     /tmp/ccYSR6UZ.s:1685   .text:0000000000000984 .LVL168
     /tmp/ccYSR6UZ.s:629    .text:00000000000003a8 .LVL62
     /tmp/ccYSR6UZ.s:651    .text:00000000000003d0 .LVL64
     /tmp/ccYSR6UZ.s:702    .text:0000000000000414 .LVL71
     /tmp/ccYSR6UZ.s:646    .text:00000000000003c8 .LVL63
     /tmp/ccYSR6UZ.s:705    .text:0000000000000418 .LVL72
     /tmp/ccYSR6UZ.s:655    .text:00000000000003d4 .LVL65
     /tmp/ccYSR6UZ.s:666    .text:00000000000003e8 .LVL66
     /tmp/ccYSR6UZ.s:677    .text:00000000000003f0 .LVL68
     /tmp/ccYSR6UZ.s:688    .text:0000000000000404 .LVL70
     /tmp/ccYSR6UZ.s:673    .text:00000000000003ec .LVL67
     /tmp/ccYSR6UZ.s:456    .text:00000000000002b8 .LVL44
     /tmp/ccYSR6UZ.s:485    .text:00000000000002ec .LVL46
     /tmp/ccYSR6UZ.s:507    .text:0000000000000310 .LVL49
     /tmp/ccYSR6UZ.s:529    .text:0000000000000334 .LVL51
     /tmp/ccYSR6UZ.s:473    .text:00000000000002d8 .LVL45
     /tmp/ccYSR6UZ.s:543    .text:000000000000033c .LVL52
     /tmp/ccYSR6UZ.s:569    .text:0000000000000364 .LVL55
     /tmp/ccYSR6UZ.s:615    .text:00000000000003a0 .LVL61
     /tmp/ccYSR6UZ.s:560    .text:000000000000035c .LVL53
     /tmp/ccYSR6UZ.s:578    .text:000000000000036c .LVL56
     /tmp/ccYSR6UZ.s:594    .text:0000000000000384 .LVL59
     /tmp/ccYSR6UZ.s:610    .text:0000000000000398 .LVL60
     /tmp/ccYSR6UZ.s:565    .text:0000000000000360 .LVL54
     /tmp/ccYSR6UZ.s:583    .text:0000000000000370 .LVL57
     /tmp/ccYSR6UZ.s:251    .text:0000000000000138 .LVL20
     /tmp/ccYSR6UZ.s:262    .text:0000000000000148 .LVL21
     /tmp/ccYSR6UZ.s:287    .text:0000000000000168 .LVL24
     /tmp/ccYSR6UZ.s:300    .text:0000000000000178 .LVL27
     /tmp/ccYSR6UZ.s:293    .text:0000000000000170 .LVL25
     /tmp/ccYSR6UZ.s:267    .text:000000000000014c .LVL22
     /tmp/ccYSR6UZ.s:280    .text:0000000000000160 .LVL23
     /tmp/ccYSR6UZ.s:332    .text:000000000000018c .LVL28
     /tmp/ccYSR6UZ.s:442    .text:00000000000002b0 .LVL43
     /tmp/ccYSR6UZ.s:182    .text:00000000000000cc .LVL13
     /tmp/ccYSR6UZ.s:200    .text:00000000000000f0 .LVL14
     /tmp/ccYSR6UZ.s:219    .text:0000000000000110 .LVL16
     /tmp/ccYSR6UZ.s:223    .text:0000000000000118 .LVL17
     /tmp/ccYSR6UZ.s:100    .text:0000000000000074 .LVL5
GAS LISTING /tmp/ccYSR6UZ.s 			page 65


     /tmp/ccYSR6UZ.s:120    .text:0000000000000094 .LVL7
     /tmp/ccYSR6UZ.s:115    .text:0000000000000090 .LVL6
     /tmp/ccYSR6UZ.s:127    .text:00000000000000a0 .LVL9
     /tmp/ccYSR6UZ.s:135    .text:00000000000000a8 .LVL10
     /tmp/ccYSR6UZ.s:141    .text:00000000000000b0 .LVL11
     /tmp/ccYSR6UZ.s:154    .text:00000000000000c0 .LVL12
     /tmp/ccYSR6UZ.s:123    .text:000000000000009c .LVL8
     /tmp/ccYSR6UZ.s:1278   .text:000000000000072c .LVL127
     /tmp/ccYSR6UZ.s:1305   .text:000000000000075c .LVL128
     /tmp/ccYSR6UZ.s:1323   .text:0000000000000778 .LVL129
     /tmp/ccYSR6UZ.s:1340   .text:000000000000078c .LVL130
     /tmp/ccYSR6UZ.s:1344   .text:0000000000000798 .LVL132
     /tmp/ccYSR6UZ.s:1353   .text:00000000000007a8 .LVL133
     /tmp/ccYSR6UZ.s:1363   .text:00000000000007c0 .LVL135
     /tmp/ccYSR6UZ.s:1369   .text:00000000000007c8 .LVL136
     /tmp/ccYSR6UZ.s:47     .text:0000000000000028 .LVL2
     /tmp/ccYSR6UZ.s:78     .text:0000000000000060 .LVL3
     /tmp/ccYSR6UZ.s:81     .text:0000000000000068 .LVL4
     /tmp/ccYSR6UZ.s:782    .text:0000000000000468 .LVL80
     /tmp/ccYSR6UZ.s:805    .text:0000000000000494 .LVL81
     /tmp/ccYSR6UZ.s:918    .text:0000000000000530 .LVL94
     /tmp/ccYSR6UZ.s:811    .text:00000000000004a8 .LVL84
     /tmp/ccYSR6UZ.s:838    .text:00000000000004cc .LVL86
     /tmp/ccYSR6UZ.s:924    .text:0000000000000538 .LVL96
     /tmp/ccYSR6UZ.s:828    .text:00000000000004c0 .LVL85
     /tmp/ccYSR6UZ.s:927    .text:000000000000053c .LVL97
     /tmp/ccYSR6UZ.s:850    .text:00000000000004d4 .LVL87
     /tmp/ccYSR6UZ.s:858    .text:00000000000004dc .LVL89
     /tmp/ccYSR6UZ.s:921    .text:0000000000000534 .LVL95
     /tmp/ccYSR6UZ.s:915    .text:000000000000052c .LVL93
     /tmp/ccYSR6UZ.s:889    .text:0000000000000508 .LVL91
     /tmp/ccYSR6UZ.s:902    .text:000000000000051c .LVL92
     /tmp/ccYSR6UZ.s:1563   .text:00000000000008d8 .LVL154
     /tmp/ccYSR6UZ.s:1577   .text:00000000000008f0 .LVL155
     /tmp/ccYSR6UZ.s:1600   .text:000000000000090c .LVL158
     /tmp/ccYSR6UZ.s:1620   .text:0000000000000920 .LVL161
     /tmp/ccYSR6UZ.s:1582   .text:00000000000008f4 .LVL156
     /tmp/ccYSR6UZ.s:1612   .text:0000000000000914 .LVL159
     /tmp/ccYSR6UZ.s:14     .text:0000000000000000 .LVL0
     /tmp/ccYSR6UZ.s:24     .text:0000000000000010 .LVL1
     /tmp/ccYSR6UZ.s:1027   .text:00000000000005ac .LVL104
     /tmp/ccYSR6UZ.s:1051   .text:00000000000005e0 .LVL105
     /tmp/ccYSR6UZ.s:1121   .text:0000000000000658 .LVL111
     /tmp/ccYSR6UZ.s:1124   .text:000000000000065c .LVL112
     /tmp/ccYSR6UZ.s:1130   .text:0000000000000664 .LVL114
     /tmp/ccYSR6UZ.s:1127   .text:0000000000000660 .LVL113
     /tmp/ccYSR6UZ.s:1059   .text:00000000000005f0 .LVL107
     /tmp/ccYSR6UZ.s:1096   .text:0000000000000628 .LVL109
     /tmp/ccYSR6UZ.s:1816   .debug_info:0000000000000000 .Ldebug_info0
     /tmp/ccYSR6UZ.s:117    .text:0000000000000090 .LBB2
     /tmp/ccYSR6UZ.s:124    .text:000000000000009c .LBE2
     /tmp/ccYSR6UZ.s:129    .text:00000000000000a0 .LBB3
     /tmp/ccYSR6UZ.s:156    .text:00000000000000c0 .LBE3
     /tmp/ccYSR6UZ.s:253    .text:0000000000000138 .LBB4
     /tmp/ccYSR6UZ.s:256    .text:000000000000013c .LBE4
     /tmp/ccYSR6UZ.s:264    .text:0000000000000148 .LBB6
     /tmp/ccYSR6UZ.s:272    .text:0000000000000154 .LBE6
GAS LISTING /tmp/ccYSR6UZ.s 			page 66


     /tmp/ccYSR6UZ.s:274    .text:0000000000000154 .LBB7
     /tmp/ccYSR6UZ.s:303    .text:0000000000000178 .LBE7
     /tmp/ccYSR6UZ.s:562    .text:000000000000035c .LBB10
     /tmp/ccYSR6UZ.s:566    .text:0000000000000360 .LBE10
     /tmp/ccYSR6UZ.s:571    .text:0000000000000364 .LBB12
     /tmp/ccYSR6UZ.s:596    .text:0000000000000384 .LBE12
     /tmp/ccYSR6UZ.s:831    .text:00000000000004c0 .LBB16
     /tmp/ccYSR6UZ.s:834    .text:00000000000004c4 .LBE16
     /tmp/ccYSR6UZ.s:840    .text:00000000000004cc .LBB20
     /tmp/ccYSR6UZ.s:905    .text:000000000000051c .LBE20
     /tmp/ccYSR6UZ.s:841    .text:00000000000004cc .LBB17
     /tmp/ccYSR6UZ.s:851    .text:00000000000004d4 .LBE17
     /tmp/ccYSR6UZ.s:855    .text:00000000000004d8 .LBB18
     /tmp/ccYSR6UZ.s:860    .text:00000000000004dc .LBE18
     /tmp/ccYSR6UZ.s:866    .text:00000000000004e4 .LBB19
     /tmp/ccYSR6UZ.s:904    .text:000000000000051c .LBE19
     /tmp/ccYSR6UZ.s:1450   .text:000000000000083c .LBB24
     /tmp/ccYSR6UZ.s:1453   .text:0000000000000840 .LBE24
     /tmp/ccYSR6UZ.s:1455   .text:0000000000000840 .LBB30
     /tmp/ccYSR6UZ.s:1513   .text:000000000000089c .LBE30
     /tmp/ccYSR6UZ.s:1534   .text:00000000000008bc .LBB31
     /tmp/ccYSR6UZ.s:1549   .text:00000000000008d0 .LBE31
     /tmp/ccYSR6UZ.s:1470   .text:0000000000000850 .LBB26
     /tmp/ccYSR6UZ.s:1511   .text:000000000000089c .LBE26
     /tmp/ccYSR6UZ.s:1536   .text:00000000000008bc .LBB27
     /tmp/ccYSR6UZ.s:1547   .text:00000000000008d0 .LBE27

UNDEFINED SYMBOLS
_Z11printStringPKc
_Z8printIntiii
_ZN14BuddyAllocator9buddyFreeEPvm
_ZN14BuddyAllocator10buddyAllocEm
