GAS LISTING /tmp/ccRTrEoV.s 			page 1


   1              		.file	"CCB.cpp"
   2              		.option pic
   3              		.option norelax
   4              		.text
   5              	.Ltext0:
   6              		.align	2
   7              		.globl	_ZN8IOBuffer8pushBackEc
   9              	_ZN8IOBuffer8pushBackEc:
  10              	.LFB27:
  11              		.file 1 "src/CCB.cpp"
   1:src/CCB.cpp   **** #include "../h/CCB.h"
   2:src/CCB.cpp   **** #include "../h/PCB.h"
   3:src/CCB.cpp   **** #include "../h/SCB.h"
   4:src/CCB.cpp   **** #include "../h/MemoryAllocator.h"
   5:src/CCB.cpp   **** #include "../h/syscall_c.h"
   6:src/CCB.cpp   **** PCB* CCB::inputProcces = nullptr;
   7:src/CCB.cpp   **** PCB* CCB::outputProcess = nullptr;
   8:src/CCB.cpp   **** SCB* CCB::semInput = nullptr;
   9:src/CCB.cpp   **** SCB* CCB::semOutput = nullptr;
  10:src/CCB.cpp   **** SCB* CCB::inputBufferEmpty = nullptr;
  11:src/CCB.cpp   **** IOBuffer CCB::inputBuffer;
  12:src/CCB.cpp   **** IOBuffer CCB::outputBuffer;
  13:src/CCB.cpp   **** 
  14:src/CCB.cpp   **** void CCB::inputBody(void *) {
  15:src/CCB.cpp   ****     while(true) {
  16:src/CCB.cpp   ****         while(*(char*)CONSOLE_STATUS & CONSOLE_RX_STATUS_BIT) {
  17:src/CCB.cpp   ****             inputBuffer.pushBack(*(char*)CONSOLE_RX_DATA);
  18:src/CCB.cpp   ****             sem_signal(CCB::inputBufferEmpty);
  19:src/CCB.cpp   ****         }
  20:src/CCB.cpp   **** 
  21:src/CCB.cpp   ****         plic_complete(CONSOLE_IRQ);
  22:src/CCB.cpp   ****         sem_wait(semInput);
  23:src/CCB.cpp   ****     }
  24:src/CCB.cpp   **** }
  25:src/CCB.cpp   **** 
  26:src/CCB.cpp   **** void CCB::outputBody(void *) {
  27:src/CCB.cpp   ****     while(true) {
  28:src/CCB.cpp   ****         while(*(char*)CONSOLE_STATUS & CONSOLE_TX_STATUS_BIT) {
  29:src/CCB.cpp   ****             if(outputBuffer.peekFront() == 0) break;
  30:src/CCB.cpp   **** 
  31:src/CCB.cpp   ****             *((char*)CONSOLE_TX_DATA) = outputBuffer.popFront();
  32:src/CCB.cpp   ****         }
  33:src/CCB.cpp   ****         plic_complete(CONSOLE_IRQ);
  34:src/CCB.cpp   ****         sem_wait(semOutput);
  35:src/CCB.cpp   ****     }
  36:src/CCB.cpp   **** }
  37:src/CCB.cpp   **** 
  38:src/CCB.cpp   **** 
  39:src/CCB.cpp   **** void IOBuffer::pushBack(char c) {
  12              		.loc 1 39 33
  13              		.cfi_startproc
  14              	.LVL0:
  15 0000 130101FE 		addi	sp,sp,-32
  16              		.cfi_def_cfa_offset 32
  17 0004 233C1100 		sd	ra,24(sp)
  18 0008 23388100 		sd	s0,16(sp)
  19 000c 23349100 		sd	s1,8(sp)
GAS LISTING /tmp/ccRTrEoV.s 			page 2


  20 0010 23302101 		sd	s2,0(sp)
  21              		.cfi_offset 1, -8
  22              		.cfi_offset 8, -16
  23              		.cfi_offset 9, -24
  24              		.cfi_offset 18, -32
  25 0014 13040102 		addi	s0,sp,32
  26              		.cfi_def_cfa 8, 0
  27 0018 93040500 		mv	s1,a0
  28 001c 13890500 		mv	s2,a1
  40:src/CCB.cpp   ****     Elem *newElem = (Elem*)MemoryAllocator::mem_alloc(sizeof(Elem));
  29              		.loc 1 40 5
  30              		.loc 1 40 54 is_stmt 0
  31 0020 13050001 		li	a0,16
  32              	.LVL1:
  33 0024 97000000 		call	_ZN15MemoryAllocator9mem_allocEm@plt
  33      E7800000 
  34              	.LVL2:
  41:src/CCB.cpp   ****     newElem->next = nullptr;
  35              		.loc 1 41 5 is_stmt 1
  36              		.loc 1 41 19 is_stmt 0
  37 002c 23300500 		sd	zero,0(a0)
  42:src/CCB.cpp   ****     newElem->data = c;
  38              		.loc 1 42 5 is_stmt 1
  39              		.loc 1 42 19 is_stmt 0
  40 0030 23042501 		sb	s2,8(a0)
  43:src/CCB.cpp   ****     if(!head) {
  41              		.loc 1 43 5 is_stmt 1
  42              		.loc 1 43 9 is_stmt 0
  43 0034 83B70400 		ld	a5,0(s1)
  44              		.loc 1 43 5
  45 0038 63880702 		beqz	a5,.L5
  44:src/CCB.cpp   ****         head = tail = newElem;
  45:src/CCB.cpp   ****     }
  46:src/CCB.cpp   ****     else {
  47:src/CCB.cpp   ****         tail->next = newElem;
  46              		.loc 1 47 9 is_stmt 1
  47 003c 83B78400 		ld	a5,8(s1)
  48              		.loc 1 47 20 is_stmt 0
  49 0040 23B0A700 		sd	a0,0(a5)
  48:src/CCB.cpp   ****         tail = tail->next;
  50              		.loc 1 48 9 is_stmt 1
  51              		.loc 1 48 16 is_stmt 0
  52 0044 83B78400 		ld	a5,8(s1)
  53              		.loc 1 48 22
  54 0048 83B70700 		ld	a5,0(a5)
  55              		.loc 1 48 14
  56 004c 23B4F400 		sd	a5,8(s1)
  57              	.L1:
  49:src/CCB.cpp   ****     }
  50:src/CCB.cpp   **** }
  58              		.loc 1 50 1
  59 0050 83308101 		ld	ra,24(sp)
  60              		.cfi_remember_state
  61              		.cfi_restore 1
  62 0054 03340101 		ld	s0,16(sp)
  63              		.cfi_restore 8
  64              		.cfi_def_cfa 2, 32
GAS LISTING /tmp/ccRTrEoV.s 			page 3


  65 0058 83348100 		ld	s1,8(sp)
  66              		.cfi_restore 9
  67              	.LVL3:
  68 005c 03390100 		ld	s2,0(sp)
  69              		.cfi_restore 18
  70 0060 13010102 		addi	sp,sp,32
  71              		.cfi_def_cfa_offset 0
  72 0064 67800000 		jr	ra
  73              	.LVL4:
  74              	.L5:
  75              		.cfi_restore_state
  44:src/CCB.cpp   ****     }
  76              		.loc 1 44 9 is_stmt 1
  44:src/CCB.cpp   ****     }
  77              		.loc 1 44 21 is_stmt 0
  78 0068 23B4A400 		sd	a0,8(s1)
  44:src/CCB.cpp   ****     }
  79              		.loc 1 44 14
  80 006c 23B0A400 		sd	a0,0(s1)
  81 0070 6FF01FFE 		j	.L1
  82              		.cfi_endproc
  83              	.LFE27:
  85              		.align	2
  86              		.globl	_ZN3CCB9inputBodyEPv
  88              	_ZN3CCB9inputBodyEPv:
  89              	.LFB25:
  14:src/CCB.cpp   ****     while(true) {
  90              		.loc 1 14 29 is_stmt 1
  91              		.cfi_startproc
  92 0074 130101FE 		addi	sp,sp,-32
  93              		.cfi_def_cfa_offset 32
  94 0078 233C1100 		sd	ra,24(sp)
  95 007c 23388100 		sd	s0,16(sp)
  96 0080 23349100 		sd	s1,8(sp)
  97              		.cfi_offset 1, -8
  98              		.cfi_offset 8, -16
  99              		.cfi_offset 9, -24
 100 0084 13040102 		addi	s0,sp,32
 101              		.cfi_def_cfa 8, 0
 102 0088 6F004003 		j	.L7
 103              	.L11:
  17:src/CCB.cpp   ****             sem_signal(CCB::inputBufferEmpty);
 104              		.loc 1 17 13
  17:src/CCB.cpp   ****             sem_signal(CCB::inputBufferEmpty);
 105              		.loc 1 17 33 is_stmt 0
 106 008c 97070000 		la	a5,CONSOLE_RX_DATA
 106      83B70700 
 107 0094 83B70700 		ld	a5,0(a5)
 108 0098 97040000 		lla	s1,.LANCHOR0
 108      93840400 
 109 00a0 83C50700 		lbu	a1,0(a5)
 110 00a4 13850400 		mv	a0,s1
 111 00a8 97000000 		call	_ZN8IOBuffer8pushBackEc
 111      E7800000 
 112              	.LVL5:
  18:src/CCB.cpp   ****         }
 113              		.loc 1 18 13 is_stmt 1
GAS LISTING /tmp/ccRTrEoV.s 			page 4


  18:src/CCB.cpp   ****         }
 114              		.loc 1 18 23 is_stmt 0
 115 00b0 03B50401 		ld	a0,16(s1)
 116 00b4 97000000 		call	_Z10sem_signalP3SCB@plt
 116      E7800000 
 117              	.LVL6:
 118              	.L7:
  15:src/CCB.cpp   ****         while(*(char*)CONSOLE_STATUS & CONSOLE_RX_STATUS_BIT) {
 119              		.loc 1 15 5 is_stmt 1
  16:src/CCB.cpp   ****             inputBuffer.pushBack(*(char*)CONSOLE_RX_DATA);
 120              		.loc 1 16 9
  16:src/CCB.cpp   ****             inputBuffer.pushBack(*(char*)CONSOLE_RX_DATA);
 121              		.loc 1 16 40
  16:src/CCB.cpp   ****             inputBuffer.pushBack(*(char*)CONSOLE_RX_DATA);
 122              		.loc 1 16 15 is_stmt 0
 123 00bc 97070000 		la	a5,CONSOLE_STATUS
 123      83B70700 
 124 00c4 83B70700 		ld	a5,0(a5)
 125 00c8 83C70700 		lbu	a5,0(a5)
  16:src/CCB.cpp   ****             inputBuffer.pushBack(*(char*)CONSOLE_RX_DATA);
 126              		.loc 1 16 40
 127 00cc 93F71700 		andi	a5,a5,1
 128 00d0 E39E07FA 		bnez	a5,.L11
  21:src/CCB.cpp   ****         sem_wait(semInput);
 129              		.loc 1 21 9 is_stmt 1
  21:src/CCB.cpp   ****         sem_wait(semInput);
 130              		.loc 1 21 22 is_stmt 0
 131 00d4 1305A000 		li	a0,10
 132 00d8 97000000 		call	plic_complete@plt
 132      E7800000 
 133              	.LVL7:
  22:src/CCB.cpp   ****     }
 134              		.loc 1 22 9 is_stmt 1
  22:src/CCB.cpp   ****     }
 135              		.loc 1 22 17 is_stmt 0
 136 00e0 17050000 		ld	a0,.LANCHOR0+24
 136      03350500 
 137 00e8 97000000 		call	_Z8sem_waitP3SCB@plt
 137      E7800000 
 138              	.LVL8:
  15:src/CCB.cpp   ****         while(*(char*)CONSOLE_STATUS & CONSOLE_RX_STATUS_BIT) {
 139              		.loc 1 15 5 is_stmt 1
  16:src/CCB.cpp   ****             inputBuffer.pushBack(*(char*)CONSOLE_RX_DATA);
 140              		.loc 1 16 9 is_stmt 0
 141 00f0 6FF0DFFC 		j	.L7
 142              		.cfi_endproc
 143              	.LFE25:
 145              		.align	2
 146              		.globl	_ZN8IOBuffer8popFrontEv
 148              	_ZN8IOBuffer8popFrontEv:
 149              	.LFB28:
  51:src/CCB.cpp   **** 
  52:src/CCB.cpp   **** char IOBuffer::popFront() {
 150              		.loc 1 52 27 is_stmt 1
 151              		.cfi_startproc
 152              	.LVL9:
 153 00f4 130101FE 		addi	sp,sp,-32
GAS LISTING /tmp/ccRTrEoV.s 			page 5


 154              		.cfi_def_cfa_offset 32
 155 00f8 233C1100 		sd	ra,24(sp)
 156 00fc 23388100 		sd	s0,16(sp)
 157 0100 23349100 		sd	s1,8(sp)
 158              		.cfi_offset 1, -8
 159              		.cfi_offset 8, -16
 160              		.cfi_offset 9, -24
 161 0104 13040102 		addi	s0,sp,32
 162              		.cfi_def_cfa 8, 0
 163 0108 93070500 		mv	a5,a0
  53:src/CCB.cpp   ****     if(!head) return 0;
 164              		.loc 1 53 5
 165              		.loc 1 53 9 is_stmt 0
 166 010c 03350500 		ld	a0,0(a0)
 167              	.LVL10:
 168              		.loc 1 53 5
 169 0110 63000504 		beqz	a0,.L15
  54:src/CCB.cpp   **** 
  55:src/CCB.cpp   ****     Elem* curr = head;
 170              		.loc 1 55 5 is_stmt 1
 171              	.LVL11:
  56:src/CCB.cpp   ****     head = head->next;
 172              		.loc 1 56 5
 173              		.loc 1 56 18 is_stmt 0
 174 0114 03370500 		ld	a4,0(a0)
 175              		.loc 1 56 10
 176 0118 23B0E700 		sd	a4,0(a5)
  57:src/CCB.cpp   ****     if(tail == curr) tail = nullptr;
 177              		.loc 1 57 5 is_stmt 1
 178              		.loc 1 57 8 is_stmt 0
 179 011c 03B78700 		ld	a4,8(a5)
 180              		.loc 1 57 5
 181 0120 6304E502 		beq	a0,a4,.L17
 182              	.L14:
  58:src/CCB.cpp   **** 
  59:src/CCB.cpp   ****     char c = curr->data;
 183              		.loc 1 59 5 is_stmt 1
 184              		.loc 1 59 10 is_stmt 0
 185 0124 83448500 		lbu	s1,8(a0)
 186              	.LVL12:
  60:src/CCB.cpp   ****     MemoryAllocator::mem_free(curr);
 187              		.loc 1 60 5 is_stmt 1
 188              		.loc 1 60 30 is_stmt 0
 189 0128 97000000 		call	_ZN15MemoryAllocator8mem_freeEPv@plt
 189      E7800000 
 190              	.LVL13:
  61:src/CCB.cpp   ****     return c;
 191              		.loc 1 61 5 is_stmt 1
 192              	.L13:
  62:src/CCB.cpp   **** }
 193              		.loc 1 62 1 is_stmt 0
 194 0130 13850400 		mv	a0,s1
 195 0134 83308101 		ld	ra,24(sp)
 196              		.cfi_remember_state
 197              		.cfi_restore 1
 198 0138 03340101 		ld	s0,16(sp)
 199              		.cfi_restore 8
GAS LISTING /tmp/ccRTrEoV.s 			page 6


 200              		.cfi_def_cfa 2, 32
 201 013c 83348100 		ld	s1,8(sp)
 202              		.cfi_restore 9
 203 0140 13010102 		addi	sp,sp,32
 204              		.cfi_def_cfa_offset 0
 205 0144 67800000 		jr	ra
 206              	.LVL14:
 207              	.L17:
 208              		.cfi_restore_state
  57:src/CCB.cpp   **** 
 209              		.loc 1 57 22 is_stmt 1 discriminator 1
  57:src/CCB.cpp   **** 
 210              		.loc 1 57 27 is_stmt 0 discriminator 1
 211 0148 23B40700 		sd	zero,8(a5)
 212 014c 6FF09FFD 		j	.L14
 213              	.LVL15:
 214              	.L15:
  53:src/CCB.cpp   **** 
 215              		.loc 1 53 22
 216 0150 93040000 		li	s1,0
 217 0154 6FF0DFFD 		j	.L13
 218              		.cfi_endproc
 219              	.LFE28:
 221              		.align	2
 222              		.globl	_ZN8IOBuffer8peekBackEv
 224              	_ZN8IOBuffer8peekBackEv:
 225              	.LFB29:
  63:src/CCB.cpp   **** 
  64:src/CCB.cpp   **** char IOBuffer::peekBack() {
 226              		.loc 1 64 27 is_stmt 1
 227              		.cfi_startproc
 228              	.LVL16:
 229 0158 130101FF 		addi	sp,sp,-16
 230              		.cfi_def_cfa_offset 16
 231 015c 23348100 		sd	s0,8(sp)
 232              		.cfi_offset 8, -8
 233 0160 13040101 		addi	s0,sp,16
 234              		.cfi_def_cfa 8, 0
  65:src/CCB.cpp   ****     return tail ? tail->data : 0;
 235              		.loc 1 65 5
 236              		.loc 1 65 12 is_stmt 0
 237 0164 83378500 		ld	a5,8(a0)
 238              		.loc 1 65 32
 239 0168 638A0700 		beqz	a5,.L20
 240              		.loc 1 65 32 discriminator 1
 241 016c 03C58700 		lbu	a0,8(a5)
 242              	.LVL17:
 243              	.L19:
  66:src/CCB.cpp   **** }
 244              		.loc 1 66 1 discriminator 4
 245 0170 03348100 		ld	s0,8(sp)
 246              		.cfi_remember_state
 247              		.cfi_restore 8
 248              		.cfi_def_cfa 2, 16
 249 0174 13010101 		addi	sp,sp,16
 250              		.cfi_def_cfa_offset 0
 251 0178 67800000 		jr	ra
GAS LISTING /tmp/ccRTrEoV.s 			page 7


 252              	.LVL18:
 253              	.L20:
 254              		.cfi_restore_state
  65:src/CCB.cpp   ****     return tail ? tail->data : 0;
 255              		.loc 1 65 32
 256 017c 13050000 		li	a0,0
 257              	.LVL19:
 258 0180 6FF01FFF 		j	.L19
 259              		.cfi_endproc
 260              	.LFE29:
 262              		.align	2
 263              		.globl	_ZN8IOBuffer9peekFrontEv
 265              	_ZN8IOBuffer9peekFrontEv:
 266              	.LFB30:
  67:src/CCB.cpp   **** 
  68:src/CCB.cpp   **** char IOBuffer::peekFront() {
 267              		.loc 1 68 28 is_stmt 1
 268              		.cfi_startproc
 269              	.LVL20:
 270 0184 130101FF 		addi	sp,sp,-16
 271              		.cfi_def_cfa_offset 16
 272 0188 23348100 		sd	s0,8(sp)
 273              		.cfi_offset 8, -8
 274 018c 13040101 		addi	s0,sp,16
 275              		.cfi_def_cfa 8, 0
  69:src/CCB.cpp   ****     return head ? head->data : 0;
 276              		.loc 1 69 5
 277              		.loc 1 69 12 is_stmt 0
 278 0190 83370500 		ld	a5,0(a0)
 279              		.loc 1 69 32
 280 0194 638A0700 		beqz	a5,.L24
 281              		.loc 1 69 32 discriminator 1
 282 0198 03C58700 		lbu	a0,8(a5)
 283              	.LVL21:
 284              	.L23:
  70:src/CCB.cpp   **** }
 285              		.loc 1 70 1 discriminator 4
 286 019c 03348100 		ld	s0,8(sp)
 287              		.cfi_remember_state
 288              		.cfi_restore 8
 289              		.cfi_def_cfa 2, 16
 290 01a0 13010101 		addi	sp,sp,16
 291              		.cfi_def_cfa_offset 0
 292 01a4 67800000 		jr	ra
 293              	.LVL22:
 294              	.L24:
 295              		.cfi_restore_state
  69:src/CCB.cpp   ****     return head ? head->data : 0;
 296              		.loc 1 69 32
 297 01a8 13050000 		li	a0,0
 298              	.LVL23:
 299 01ac 6FF01FFF 		j	.L23
 300              		.cfi_endproc
 301              	.LFE30:
 303              		.align	2
 304              		.globl	_ZN3CCB10outputBodyEPv
 306              	_ZN3CCB10outputBodyEPv:
GAS LISTING /tmp/ccRTrEoV.s 			page 8


 307              	.LFB26:
  26:src/CCB.cpp   ****     while(true) {
 308              		.loc 1 26 30 is_stmt 1
 309              		.cfi_startproc
 310 01b0 130101FE 		addi	sp,sp,-32
 311              		.cfi_def_cfa_offset 32
 312 01b4 233C1100 		sd	ra,24(sp)
 313 01b8 23388100 		sd	s0,16(sp)
 314 01bc 23349100 		sd	s1,8(sp)
 315              		.cfi_offset 1, -8
 316              		.cfi_offset 8, -16
 317              		.cfi_offset 9, -24
 318 01c0 13040102 		addi	s0,sp,32
 319              		.cfi_def_cfa 8, 0
 320 01c4 6F000002 		j	.L27
 321              	.L28:
  33:src/CCB.cpp   ****         sem_wait(semOutput);
 322              		.loc 1 33 9
  33:src/CCB.cpp   ****         sem_wait(semOutput);
 323              		.loc 1 33 22 is_stmt 0
 324 01c8 1305A000 		li	a0,10
 325 01cc 97000000 		call	plic_complete@plt
 325      E7800000 
 326              	.LVL24:
  34:src/CCB.cpp   ****     }
 327              		.loc 1 34 9 is_stmt 1
  34:src/CCB.cpp   ****     }
 328              		.loc 1 34 17 is_stmt 0
 329 01d4 17050000 		ld	a0,.LANCHOR0+48
 329      03350500 
 330 01dc 97000000 		call	_Z8sem_waitP3SCB@plt
 330      E7800000 
 331              	.LVL25:
  27:src/CCB.cpp   ****         while(*(char*)CONSOLE_STATUS & CONSOLE_TX_STATUS_BIT) {
 332              		.loc 1 27 5 is_stmt 1
 333              	.L27:
  27:src/CCB.cpp   ****         while(*(char*)CONSOLE_STATUS & CONSOLE_TX_STATUS_BIT) {
 334              		.loc 1 27 5
  28:src/CCB.cpp   ****             if(outputBuffer.peekFront() == 0) break;
 335              		.loc 1 28 9
  28:src/CCB.cpp   ****             if(outputBuffer.peekFront() == 0) break;
 336              		.loc 1 28 40
  28:src/CCB.cpp   ****             if(outputBuffer.peekFront() == 0) break;
 337              		.loc 1 28 15 is_stmt 0
 338 01e4 97070000 		la	a5,CONSOLE_STATUS
 338      83B70700 
 339 01ec 83B70700 		ld	a5,0(a5)
 340 01f0 83C70700 		lbu	a5,0(a5)
  28:src/CCB.cpp   ****             if(outputBuffer.peekFront() == 0) break;
 341              		.loc 1 28 40
 342 01f4 93F70702 		andi	a5,a5,32
 343 01f8 E38807FC 		beqz	a5,.L28
  29:src/CCB.cpp   **** 
 344              		.loc 1 29 13 is_stmt 1
  29:src/CCB.cpp   **** 
 345              		.loc 1 29 38 is_stmt 0
 346 01fc 17050000 		lla	a0,.LANCHOR0+32
GAS LISTING /tmp/ccRTrEoV.s 			page 9


 346      13050500 
 347 0204 97000000 		call	_ZN8IOBuffer9peekFrontEv
 347      E7800000 
 348              	.LVL26:
  29:src/CCB.cpp   **** 
 349              		.loc 1 29 13
 350 020c E30E05FA 		beqz	a0,.L28
  31:src/CCB.cpp   ****         }
 351              		.loc 1 31 13 is_stmt 1
 352 0210 97070000 		la	a5,CONSOLE_TX_DATA
 352      83B70700 
 353 0218 83B40700 		ld	s1,0(a5)
  31:src/CCB.cpp   ****         }
 354              		.loc 1 31 62 is_stmt 0
 355 021c 17050000 		lla	a0,.LANCHOR0+32
 355      13050500 
 356 0224 97000000 		call	_ZN8IOBuffer8popFrontEv
 356      E7800000 
 357              	.LVL27:
  31:src/CCB.cpp   ****         }
 358              		.loc 1 31 39
 359 022c 2380A400 		sb	a0,0(s1)
  28:src/CCB.cpp   ****             if(outputBuffer.peekFront() == 0) break;
 360              		.loc 1 28 9
 361 0230 6FF05FFB 		j	.L27
 362              		.cfi_endproc
 363              	.LFE26:
 365              		.globl	_ZN3CCB12outputBufferE
 366              		.globl	_ZN3CCB11inputBufferE
 367              		.globl	_ZN3CCB16inputBufferEmptyE
 368              		.globl	_ZN3CCB9semOutputE
 369              		.globl	_ZN3CCB8semInputE
 370              		.globl	_ZN3CCB13outputProcessE
 371              		.globl	_ZN3CCB12inputProccesE
 372              		.bss
 373              		.align	3
 374              		.set	.LANCHOR0,. + 0
 377              	_ZN3CCB11inputBufferE:
 378 0000 00000000 		.zero	16
 378      00000000 
 378      00000000 
 378      00000000 
 381              	_ZN3CCB16inputBufferEmptyE:
 382 0010 00000000 		.zero	8
 382      00000000 
 385              	_ZN3CCB8semInputE:
 386 0018 00000000 		.zero	8
 386      00000000 
 389              	_ZN3CCB12outputBufferE:
 390 0020 00000000 		.zero	16
 390      00000000 
 390      00000000 
 390      00000000 
 393              	_ZN3CCB9semOutputE:
 394 0030 00000000 		.zero	8
 394      00000000 
 397              	_ZN3CCB13outputProcessE:
GAS LISTING /tmp/ccRTrEoV.s 			page 10


 398 0038 00000000 		.zero	8
 398      00000000 
 401              	_ZN3CCB12inputProccesE:
 402 0040 00000000 		.zero	8
 402      00000000 
 403              		.text
 404              	.Letext0:
 405              		.file 2 "src/../h/CCB.h"
 406              		.file 3 "src/../h/SCB.h"
 407              		.file 4 "src/../h/PCB.h"
 408              		.file 5 "src/../h/hw.h"
 409              		.file 6 "src/../h/MemoryAllocator.h"
 410              		.file 7 "src/../h/syscall_c.h"
GAS LISTING /tmp/ccRTrEoV.s 			page 11


DEFINED SYMBOLS
                            *ABS*:0000000000000000 CCB.cpp
     /tmp/ccRTrEoV.s:9      .text:0000000000000000 _ZN8IOBuffer8pushBackEc
     /tmp/ccRTrEoV.s:13     .text:0000000000000000 .L0 
     /tmp/ccRTrEoV.s:15     .text:0000000000000000 .L0 
     /tmp/ccRTrEoV.s:16     .text:0000000000000004 .L0 
     /tmp/ccRTrEoV.s:21     .text:0000000000000014 .L0 
     /tmp/ccRTrEoV.s:22     .text:0000000000000014 .L0 
     /tmp/ccRTrEoV.s:23     .text:0000000000000014 .L0 
     /tmp/ccRTrEoV.s:24     .text:0000000000000014 .L0 
     /tmp/ccRTrEoV.s:26     .text:0000000000000018 .L0 
     /tmp/ccRTrEoV.s:30     .text:0000000000000020 .L0 
     /tmp/ccRTrEoV.s:31     .text:0000000000000020 .L0 
     /tmp/ccRTrEoV.s:36     .text:000000000000002c .L0 
     /tmp/ccRTrEoV.s:37     .text:000000000000002c .L0 
     /tmp/ccRTrEoV.s:39     .text:0000000000000030 .L0 
     /tmp/ccRTrEoV.s:40     .text:0000000000000030 .L0 
     /tmp/ccRTrEoV.s:42     .text:0000000000000034 .L0 
     /tmp/ccRTrEoV.s:43     .text:0000000000000034 .L0 
     /tmp/ccRTrEoV.s:45     .text:0000000000000038 .L0 
     /tmp/ccRTrEoV.s:47     .text:000000000000003c .L0 
     /tmp/ccRTrEoV.s:49     .text:0000000000000040 .L0 
     /tmp/ccRTrEoV.s:51     .text:0000000000000044 .L0 
     /tmp/ccRTrEoV.s:52     .text:0000000000000044 .L0 
     /tmp/ccRTrEoV.s:54     .text:0000000000000048 .L0 
     /tmp/ccRTrEoV.s:56     .text:000000000000004c .L0 
     /tmp/ccRTrEoV.s:59     .text:0000000000000050 .L0 
     /tmp/ccRTrEoV.s:60     .text:0000000000000054 .L0 
     /tmp/ccRTrEoV.s:61     .text:0000000000000054 .L0 
     /tmp/ccRTrEoV.s:63     .text:0000000000000058 .L0 
     /tmp/ccRTrEoV.s:64     .text:0000000000000058 .L0 
     /tmp/ccRTrEoV.s:66     .text:000000000000005c .L0 
     /tmp/ccRTrEoV.s:69     .text:0000000000000060 .L0 
     /tmp/ccRTrEoV.s:71     .text:0000000000000064 .L0 
     /tmp/ccRTrEoV.s:75     .text:0000000000000068 .L0 
     /tmp/ccRTrEoV.s:77     .text:0000000000000068 .L0 
     /tmp/ccRTrEoV.s:78     .text:0000000000000068 .L0 
     /tmp/ccRTrEoV.s:80     .text:000000000000006c .L0 
     /tmp/ccRTrEoV.s:82     .text:0000000000000074 .L0 
     /tmp/ccRTrEoV.s:88     .text:0000000000000074 _ZN3CCB9inputBodyEPv
     /tmp/ccRTrEoV.s:91     .text:0000000000000074 .L0 
     /tmp/ccRTrEoV.s:92     .text:0000000000000074 .L0 
     /tmp/ccRTrEoV.s:93     .text:0000000000000078 .L0 
     /tmp/ccRTrEoV.s:97     .text:0000000000000084 .L0 
     /tmp/ccRTrEoV.s:98     .text:0000000000000084 .L0 
     /tmp/ccRTrEoV.s:99     .text:0000000000000084 .L0 
     /tmp/ccRTrEoV.s:101    .text:0000000000000088 .L0 
     /tmp/ccRTrEoV.s:105    .text:000000000000008c .L0 
     /tmp/ccRTrEoV.s:106    .text:000000000000008c .L0 
     /tmp/ccRTrEoV.s:114    .text:00000000000000b0 .L0 
     /tmp/ccRTrEoV.s:115    .text:00000000000000b0 .L0 
     /tmp/ccRTrEoV.s:120    .text:00000000000000bc .L0 
     /tmp/ccRTrEoV.s:121    .text:00000000000000bc .L0 
     /tmp/ccRTrEoV.s:122    .text:00000000000000bc .L0 
     /tmp/ccRTrEoV.s:123    .text:00000000000000bc .L0 
     /tmp/ccRTrEoV.s:127    .text:00000000000000cc .L0 
     /tmp/ccRTrEoV.s:130    .text:00000000000000d4 .L0 
GAS LISTING /tmp/ccRTrEoV.s 			page 12


     /tmp/ccRTrEoV.s:131    .text:00000000000000d4 .L0 
     /tmp/ccRTrEoV.s:135    .text:00000000000000e0 .L0 
     /tmp/ccRTrEoV.s:136    .text:00000000000000e0 .L0 
     /tmp/ccRTrEoV.s:140    .text:00000000000000f0 .L0 
     /tmp/ccRTrEoV.s:141    .text:00000000000000f0 .L0 
     /tmp/ccRTrEoV.s:142    .text:00000000000000f4 .L0 
     /tmp/ccRTrEoV.s:148    .text:00000000000000f4 _ZN8IOBuffer8popFrontEv
     /tmp/ccRTrEoV.s:151    .text:00000000000000f4 .L0 
     /tmp/ccRTrEoV.s:153    .text:00000000000000f4 .L0 
     /tmp/ccRTrEoV.s:154    .text:00000000000000f8 .L0 
     /tmp/ccRTrEoV.s:158    .text:0000000000000104 .L0 
     /tmp/ccRTrEoV.s:159    .text:0000000000000104 .L0 
     /tmp/ccRTrEoV.s:160    .text:0000000000000104 .L0 
     /tmp/ccRTrEoV.s:162    .text:0000000000000108 .L0 
     /tmp/ccRTrEoV.s:165    .text:000000000000010c .L0 
     /tmp/ccRTrEoV.s:166    .text:000000000000010c .L0 
     /tmp/ccRTrEoV.s:169    .text:0000000000000110 .L0 
     /tmp/ccRTrEoV.s:172    .text:0000000000000114 .L0 
     /tmp/ccRTrEoV.s:173    .text:0000000000000114 .L0 
     /tmp/ccRTrEoV.s:174    .text:0000000000000114 .L0 
     /tmp/ccRTrEoV.s:176    .text:0000000000000118 .L0 
     /tmp/ccRTrEoV.s:178    .text:000000000000011c .L0 
     /tmp/ccRTrEoV.s:179    .text:000000000000011c .L0 
     /tmp/ccRTrEoV.s:181    .text:0000000000000120 .L0 
     /tmp/ccRTrEoV.s:184    .text:0000000000000124 .L0 
     /tmp/ccRTrEoV.s:185    .text:0000000000000124 .L0 
     /tmp/ccRTrEoV.s:188    .text:0000000000000128 .L0 
     /tmp/ccRTrEoV.s:189    .text:0000000000000128 .L0 
     /tmp/ccRTrEoV.s:193    .text:0000000000000130 .L0 
     /tmp/ccRTrEoV.s:194    .text:0000000000000130 .L0 
     /tmp/ccRTrEoV.s:196    .text:0000000000000138 .L0 
     /tmp/ccRTrEoV.s:197    .text:0000000000000138 .L0 
     /tmp/ccRTrEoV.s:199    .text:000000000000013c .L0 
     /tmp/ccRTrEoV.s:200    .text:000000000000013c .L0 
     /tmp/ccRTrEoV.s:202    .text:0000000000000140 .L0 
     /tmp/ccRTrEoV.s:204    .text:0000000000000144 .L0 
     /tmp/ccRTrEoV.s:208    .text:0000000000000148 .L0 
     /tmp/ccRTrEoV.s:210    .text:0000000000000148 .L0 
     /tmp/ccRTrEoV.s:211    .text:0000000000000148 .L0 
     /tmp/ccRTrEoV.s:216    .text:0000000000000150 .L0 
     /tmp/ccRTrEoV.s:218    .text:0000000000000158 .L0 
     /tmp/ccRTrEoV.s:224    .text:0000000000000158 _ZN8IOBuffer8peekBackEv
     /tmp/ccRTrEoV.s:227    .text:0000000000000158 .L0 
     /tmp/ccRTrEoV.s:229    .text:0000000000000158 .L0 
     /tmp/ccRTrEoV.s:230    .text:000000000000015c .L0 
     /tmp/ccRTrEoV.s:232    .text:0000000000000160 .L0 
     /tmp/ccRTrEoV.s:234    .text:0000000000000164 .L0 
     /tmp/ccRTrEoV.s:236    .text:0000000000000164 .L0 
     /tmp/ccRTrEoV.s:237    .text:0000000000000164 .L0 
     /tmp/ccRTrEoV.s:239    .text:0000000000000168 .L0 
     /tmp/ccRTrEoV.s:241    .text:000000000000016c .L0 
     /tmp/ccRTrEoV.s:245    .text:0000000000000170 .L0 
     /tmp/ccRTrEoV.s:246    .text:0000000000000174 .L0 
     /tmp/ccRTrEoV.s:247    .text:0000000000000174 .L0 
     /tmp/ccRTrEoV.s:248    .text:0000000000000174 .L0 
     /tmp/ccRTrEoV.s:250    .text:0000000000000178 .L0 
     /tmp/ccRTrEoV.s:254    .text:000000000000017c .L0 
GAS LISTING /tmp/ccRTrEoV.s 			page 13


     /tmp/ccRTrEoV.s:256    .text:000000000000017c .L0 
     /tmp/ccRTrEoV.s:259    .text:0000000000000184 .L0 
     /tmp/ccRTrEoV.s:265    .text:0000000000000184 _ZN8IOBuffer9peekFrontEv
     /tmp/ccRTrEoV.s:268    .text:0000000000000184 .L0 
     /tmp/ccRTrEoV.s:270    .text:0000000000000184 .L0 
     /tmp/ccRTrEoV.s:271    .text:0000000000000188 .L0 
     /tmp/ccRTrEoV.s:273    .text:000000000000018c .L0 
     /tmp/ccRTrEoV.s:275    .text:0000000000000190 .L0 
     /tmp/ccRTrEoV.s:277    .text:0000000000000190 .L0 
     /tmp/ccRTrEoV.s:278    .text:0000000000000190 .L0 
     /tmp/ccRTrEoV.s:280    .text:0000000000000194 .L0 
     /tmp/ccRTrEoV.s:282    .text:0000000000000198 .L0 
     /tmp/ccRTrEoV.s:286    .text:000000000000019c .L0 
     /tmp/ccRTrEoV.s:287    .text:00000000000001a0 .L0 
     /tmp/ccRTrEoV.s:288    .text:00000000000001a0 .L0 
     /tmp/ccRTrEoV.s:289    .text:00000000000001a0 .L0 
     /tmp/ccRTrEoV.s:291    .text:00000000000001a4 .L0 
     /tmp/ccRTrEoV.s:295    .text:00000000000001a8 .L0 
     /tmp/ccRTrEoV.s:297    .text:00000000000001a8 .L0 
     /tmp/ccRTrEoV.s:300    .text:00000000000001b0 .L0 
     /tmp/ccRTrEoV.s:306    .text:00000000000001b0 _ZN3CCB10outputBodyEPv
     /tmp/ccRTrEoV.s:309    .text:00000000000001b0 .L0 
     /tmp/ccRTrEoV.s:310    .text:00000000000001b0 .L0 
     /tmp/ccRTrEoV.s:311    .text:00000000000001b4 .L0 
     /tmp/ccRTrEoV.s:315    .text:00000000000001c0 .L0 
     /tmp/ccRTrEoV.s:316    .text:00000000000001c0 .L0 
     /tmp/ccRTrEoV.s:317    .text:00000000000001c0 .L0 
     /tmp/ccRTrEoV.s:319    .text:00000000000001c4 .L0 
     /tmp/ccRTrEoV.s:323    .text:00000000000001c8 .L0 
     /tmp/ccRTrEoV.s:324    .text:00000000000001c8 .L0 
     /tmp/ccRTrEoV.s:328    .text:00000000000001d4 .L0 
     /tmp/ccRTrEoV.s:329    .text:00000000000001d4 .L0 
     /tmp/ccRTrEoV.s:334    .text:00000000000001e4 .L0 
     /tmp/ccRTrEoV.s:335    .text:00000000000001e4 .L0 
     /tmp/ccRTrEoV.s:336    .text:00000000000001e4 .L0 
     /tmp/ccRTrEoV.s:337    .text:00000000000001e4 .L0 
     /tmp/ccRTrEoV.s:338    .text:00000000000001e4 .L0 
     /tmp/ccRTrEoV.s:342    .text:00000000000001f4 .L0 
     /tmp/ccRTrEoV.s:345    .text:00000000000001fc .L0 
     /tmp/ccRTrEoV.s:346    .text:00000000000001fc .L0 
     /tmp/ccRTrEoV.s:350    .text:000000000000020c .L0 
     /tmp/ccRTrEoV.s:352    .text:0000000000000210 .L0 
     /tmp/ccRTrEoV.s:355    .text:000000000000021c .L0 
     /tmp/ccRTrEoV.s:359    .text:000000000000022c .L0 
     /tmp/ccRTrEoV.s:361    .text:0000000000000230 .L0 
     /tmp/ccRTrEoV.s:362    .text:0000000000000234 .L0 
     /tmp/ccRTrEoV.s:389    .bss:0000000000000020 _ZN3CCB12outputBufferE
     /tmp/ccRTrEoV.s:377    .bss:0000000000000000 _ZN3CCB11inputBufferE
     /tmp/ccRTrEoV.s:381    .bss:0000000000000010 _ZN3CCB16inputBufferEmptyE
     /tmp/ccRTrEoV.s:393    .bss:0000000000000030 _ZN3CCB9semOutputE
     /tmp/ccRTrEoV.s:385    .bss:0000000000000018 _ZN3CCB8semInputE
     /tmp/ccRTrEoV.s:397    .bss:0000000000000038 _ZN3CCB13outputProcessE
     /tmp/ccRTrEoV.s:401    .bss:0000000000000040 _ZN3CCB12inputProccesE
     /tmp/ccRTrEoV.s:374    .bss:0000000000000000 .LANCHOR0
     /tmp/ccRTrEoV.s:411    .text:0000000000000234 .L0 
     /tmp/ccRTrEoV.s:106    .text:000000000000008c .L0 
     /tmp/ccRTrEoV.s:108    .text:0000000000000098 .L0 
GAS LISTING /tmp/ccRTrEoV.s 			page 14


     /tmp/ccRTrEoV.s:123    .text:00000000000000bc .L0 
     /tmp/ccRTrEoV.s:136    .text:00000000000000e0 .L0 
     /tmp/ccRTrEoV.s:329    .text:00000000000001d4 .L0 
     /tmp/ccRTrEoV.s:338    .text:00000000000001e4 .L0 
     /tmp/ccRTrEoV.s:346    .text:00000000000001fc .L0 
     /tmp/ccRTrEoV.s:352    .text:0000000000000210 .L0 
     /tmp/ccRTrEoV.s:355    .text:000000000000021c .L0 
     /tmp/ccRTrEoV.s:74     .text:0000000000000068 .L5
     /tmp/ccRTrEoV.s:57     .text:0000000000000050 .L1
     /tmp/ccRTrEoV.s:118    .text:00000000000000bc .L7
     /tmp/ccRTrEoV.s:103    .text:000000000000008c .L11
     /tmp/ccRTrEoV.s:214    .text:0000000000000150 .L15
     /tmp/ccRTrEoV.s:207    .text:0000000000000148 .L17
     /tmp/ccRTrEoV.s:182    .text:0000000000000124 .L14
     /tmp/ccRTrEoV.s:192    .text:0000000000000130 .L13
     /tmp/ccRTrEoV.s:253    .text:000000000000017c .L20
     /tmp/ccRTrEoV.s:243    .text:0000000000000170 .L19
     /tmp/ccRTrEoV.s:294    .text:00000000000001a8 .L24
     /tmp/ccRTrEoV.s:284    .text:000000000000019c .L23
     /tmp/ccRTrEoV.s:333    .text:00000000000001e4 .L27
     /tmp/ccRTrEoV.s:321    .text:00000000000001c8 .L28
     /tmp/ccRTrEoV.s:1713   .debug_abbrev:0000000000000000 .Ldebug_abbrev0
     /tmp/ccRTrEoV.s:3017   .debug_str:0000000000000839 .LASF147
     /tmp/ccRTrEoV.s:2869   .debug_str:00000000000003c3 .LASF148
     /tmp/ccRTrEoV.s:3045   .debug_str:00000000000009cc .LASF149
     /tmp/ccRTrEoV.s:5      .text:0000000000000000 .Ltext0
     /tmp/ccRTrEoV.s:404    .text:0000000000000234 .Letext0
     /tmp/ccRTrEoV.s:2755   .debug_line:0000000000000000 .Ldebug_line0
     /tmp/ccRTrEoV.s:2947   .debug_str:0000000000000637 .LASF0
     /tmp/ccRTrEoV.s:3029   .debug_str:0000000000000932 .LASF1
     /tmp/ccRTrEoV.s:2999   .debug_str:00000000000007c3 .LASF2
     /tmp/ccRTrEoV.s:3061   .debug_str:0000000000000a61 .LASF3
     /tmp/ccRTrEoV.s:2845   .debug_str:00000000000002e4 .LASF4
     /tmp/ccRTrEoV.s:2901   .debug_str:00000000000004c7 .LASF5
     /tmp/ccRTrEoV.s:2967   .debug_str:00000000000006e8 .LASF6
     /tmp/ccRTrEoV.s:3007   .debug_str:00000000000007f5 .LASF7
     /tmp/ccRTrEoV.s:2907   .debug_str:00000000000004ed .LASF9
     /tmp/ccRTrEoV.s:3059   .debug_str:0000000000000a56 .LASF8
     /tmp/ccRTrEoV.s:2889   .debug_str:0000000000000462 .LASF10
     /tmp/ccRTrEoV.s:2987   .debug_str:0000000000000769 .LASF27
     /tmp/ccRTrEoV.s:2885   .debug_str:0000000000000451 .LASF11
     /tmp/ccRTrEoV.s:2935   .debug_str:00000000000005d9 .LASF13
     /tmp/ccRTrEoV.s:3065   .debug_str:0000000000000a73 .LASF12
     /tmp/ccRTrEoV.s:2929   .debug_str:00000000000005a6 .LASF14
     /tmp/ccRTrEoV.s:2961   .debug_str:00000000000006b7 .LASF15
     /tmp/ccRTrEoV.s:2781   .debug_str:00000000000000f9 .LASF17
     /tmp/ccRTrEoV.s:2973   .debug_str:000000000000070d .LASF16
     /tmp/ccRTrEoV.s:2919   .debug_str:0000000000000558 .LASF18
     /tmp/ccRTrEoV.s:3043   .debug_str:00000000000009bf .LASF19
     /tmp/ccRTrEoV.s:2837   .debug_str:00000000000002a1 .LASF20
     /tmp/ccRTrEoV.s:3005   .debug_str:00000000000007e5 .LASF21
     /tmp/ccRTrEoV.s:2853   .debug_str:000000000000032f .LASF22
     /tmp/ccRTrEoV.s:3049   .debug_str:00000000000009f7 .LASF23
     /tmp/ccRTrEoV.s:2847   .debug_str:00000000000002f2 .LASF24
     /tmp/ccRTrEoV.s:2815   .debug_str:0000000000000203 .LASF25
     /tmp/ccRTrEoV.s:2771   .debug_str:000000000000009a .LASF26
     /tmp/ccRTrEoV.s:3023   .debug_str:0000000000000912 .LASF28
GAS LISTING /tmp/ccRTrEoV.s 			page 15


     /tmp/ccRTrEoV.s:2877   .debug_str:000000000000041f .LASF29
     /tmp/ccRTrEoV.s:2989   .debug_str:0000000000000775 .LASF30
     /tmp/ccRTrEoV.s:2787   .debug_str:0000000000000128 .LASF31
     /tmp/ccRTrEoV.s:2759   .debug_str:000000000000001b .LASF32
     /tmp/ccRTrEoV.s:2821   .debug_str:0000000000000225 .LASF33
     /tmp/ccRTrEoV.s:2899   .debug_str:00000000000004c2 .LASF34
     /tmp/ccRTrEoV.s:2809   .debug_str:00000000000001d9 .LASF35
     /tmp/ccRTrEoV.s:2997   .debug_str:00000000000007b8 .LASF36
     /tmp/ccRTrEoV.s:2963   .debug_str:00000000000006be .LASF37
     /tmp/ccRTrEoV.s:2979   .debug_str:0000000000000740 .LASF38
     /tmp/ccRTrEoV.s:2841   .debug_str:00000000000002bd .LASF39
     /tmp/ccRTrEoV.s:3041   .debug_str:00000000000009af .LASF40
     /tmp/ccRTrEoV.s:2857   .debug_str:000000000000034a .LASF41
     /tmp/ccRTrEoV.s:2903   .debug_str:00000000000004d3 .LASF42
     /tmp/ccRTrEoV.s:2931   .debug_str:00000000000005b5 .LASF43
     /tmp/ccRTrEoV.s:3013   .debug_str:000000000000081a .LASF44
     /tmp/ccRTrEoV.s:2829   .debug_str:000000000000025c .LASF45
     /tmp/ccRTrEoV.s:3067   .debug_str:0000000000000a78 .LASF46
     /tmp/ccRTrEoV.s:2777   .debug_str:00000000000000cb .LASF47
     /tmp/ccRTrEoV.s:2769   .debug_str:000000000000008f .LASF48
     /tmp/ccRTrEoV.s:2975   .debug_str:000000000000071c .LASF49
     /tmp/ccRTrEoV.s:2977   .debug_str:0000000000000732 .LASF50
     /tmp/ccRTrEoV.s:2851   .debug_str:0000000000000316 .LASF51
     /tmp/ccRTrEoV.s:2807   .debug_str:00000000000001ca .LASF52
     /tmp/ccRTrEoV.s:3053   .debug_str:0000000000000a0c .LASF53
     /tmp/ccRTrEoV.s:2795   .debug_str:0000000000000170 .LASF150
     /tmp/ccRTrEoV.s:2993   .debug_str:000000000000079b .LASF151
     /tmp/ccRTrEoV.s:3033   .debug_str:000000000000094c .LASF152
     /tmp/ccRTrEoV.s:2843   .debug_str:00000000000002dc .LASF54
     /tmp/ccRTrEoV.s:2985   .debug_str:0000000000000764 .LASF55
     /tmp/ccRTrEoV.s:2921   .debug_str:0000000000000572 .LASF56
     /tmp/ccRTrEoV.s:2957   .debug_str:00000000000006a6 .LASF57
     /tmp/ccRTrEoV.s:3009   .debug_str:00000000000007ff .LASF58
     /tmp/ccRTrEoV.s:2791   .debug_str:0000000000000140 .LASF153
     /tmp/ccRTrEoV.s:2825   .debug_str:0000000000000238 .LASF154
     /tmp/ccRTrEoV.s:2775   .debug_str:00000000000000b8 .LASF59
     /tmp/ccRTrEoV.s:2911   .debug_str:0000000000000516 .LASF60
     /tmp/ccRTrEoV.s:2937   .debug_str:00000000000005f1 .LASF61
     /tmp/ccRTrEoV.s:3025   .debug_str:000000000000091e .LASF62
     /tmp/ccRTrEoV.s:2803   .debug_str:00000000000001a2 .LASF63
     /tmp/ccRTrEoV.s:2797   .debug_str:000000000000017c .LASF64
     /tmp/ccRTrEoV.s:2871   .debug_str:00000000000003cf .LASF65
     /tmp/ccRTrEoV.s:2927   .debug_str:000000000000059e .LASF66
     /tmp/ccRTrEoV.s:2811   .debug_str:00000000000001e2 .LASF67
     /tmp/ccRTrEoV.s:2945   .debug_str:000000000000062a .LASF68
     /tmp/ccRTrEoV.s:2827   .debug_str:000000000000024e .LASF69
     /tmp/ccRTrEoV.s:2943   .debug_str:0000000000000620 .LASF70
     /tmp/ccRTrEoV.s:2865   .debug_str:0000000000000391 .LASF127
     /tmp/ccRTrEoV.s:2933   .debug_str:00000000000005d0 .LASF76
     /tmp/ccRTrEoV.s:2863   .debug_str:000000000000037e .LASF78
     /tmp/ccRTrEoV.s:2783   .debug_str:000000000000010a .LASF71
     /tmp/ccRTrEoV.s:2805   .debug_str:00000000000001ac .LASF73
     /tmp/ccRTrEoV.s:2785   .debug_str:0000000000000119 .LASF72
     /tmp/ccRTrEoV.s:2893   .debug_str:000000000000047e .LASF74
     /tmp/ccRTrEoV.s:2915   .debug_str:0000000000000546 .LASF75
     /tmp/ccRTrEoV.s:2925   .debug_str:000000000000058e .LASF77
     /tmp/ccRTrEoV.s:2949   .debug_str:0000000000000640 .LASF79
GAS LISTING /tmp/ccRTrEoV.s 			page 16


     /tmp/ccRTrEoV.s:2833   .debug_str:000000000000028f .LASF80
     /tmp/ccRTrEoV.s:2891   .debug_str:0000000000000479 .LASF111
     /tmp/ccRTrEoV.s:3063   .debug_str:0000000000000a6e .LASF81
     /tmp/ccRTrEoV.s:2983   .debug_str:000000000000075f .LASF82
     /tmp/ccRTrEoV.s:2849   .debug_str:000000000000030d .LASF83
     /tmp/ccRTrEoV.s:2799   .debug_str:0000000000000181 .LASF84
     /tmp/ccRTrEoV.s:2859   .debug_str:0000000000000366 .LASF85
     /tmp/ccRTrEoV.s:3057   .debug_str:0000000000000a3e .LASF86
     /tmp/ccRTrEoV.s:2905   .debug_str:00000000000004e3 .LASF87
     /tmp/ccRTrEoV.s:2875   .debug_str:0000000000000406 .LASF88
     /tmp/ccRTrEoV.s:3021   .debug_str:0000000000000909 .LASF89
     /tmp/ccRTrEoV.s:2883   .debug_str:0000000000000439 .LASF90
     /tmp/ccRTrEoV.s:2959   .debug_str:00000000000006b2 .LASF91
     /tmp/ccRTrEoV.s:3047   .debug_str:00000000000009ea .LASF92
     /tmp/ccRTrEoV.s:2969   .debug_str:00000000000006f5 .LASF93
     /tmp/ccRTrEoV.s:2897   .debug_str:00000000000004b4 .LASF94
     /tmp/ccRTrEoV.s:2819   .debug_str:000000000000021e .LASF96
     /tmp/ccRTrEoV.s:2939   .debug_str:00000000000005f7 .LASF95
     /tmp/ccRTrEoV.s:2879   .debug_str:0000000000000425 .LASF97
     /tmp/ccRTrEoV.s:2953   .debug_str:0000000000000684 .LASF98
     /tmp/ccRTrEoV.s:2779   .debug_str:00000000000000e6 .LASF99
     /tmp/ccRTrEoV.s:3031   .debug_str:000000000000093c .LASF100
     /tmp/ccRTrEoV.s:2855   .debug_str:000000000000033c .LASF101
     /tmp/ccRTrEoV.s:3037   .debug_str:0000000000000972 .LASF102
     /tmp/ccRTrEoV.s:2955   .debug_str:0000000000000697 .LASF103
     /tmp/ccRTrEoV.s:2789   .debug_str:0000000000000130 .LASF104
     /tmp/ccRTrEoV.s:2765   .debug_str:0000000000000076 .LASF105
     /tmp/ccRTrEoV.s:3019   .debug_str:00000000000008fd .LASF106
     /tmp/ccRTrEoV.s:2991   .debug_str:0000000000000785 .LASF107
     /tmp/ccRTrEoV.s:2813   .debug_str:00000000000001ed .LASF108
     /tmp/ccRTrEoV.s:2773   .debug_str:00000000000000b3 .LASF109
     /tmp/ccRTrEoV.s:2923   .debug_str:000000000000057e .LASF110
     /tmp/ccRTrEoV.s:2981   .debug_str:0000000000000753 .LASF112
     /tmp/ccRTrEoV.s:2767   .debug_str:0000000000000086 .LASF113
     /tmp/ccRTrEoV.s:2887   .debug_str:000000000000045d .LASF114
     /tmp/ccRTrEoV.s:3003   .debug_str:00000000000007de .LASF115
     /tmp/ccRTrEoV.s:2873   .debug_str:00000000000003d8 .LASF116
     /tmp/ccRTrEoV.s:3039   .debug_str:0000000000000981 .LASF155
     /tmp/ccRTrEoV.s:3001   .debug_str:00000000000007d4 .LASF117
     /tmp/ccRTrEoV.s:2763   .debug_str:0000000000000055 .LASF118
     /tmp/ccRTrEoV.s:2835   .debug_str:0000000000000298 .LASF119
     /tmp/ccRTrEoV.s:2867   .debug_str:00000000000003a2 .LASF120
     /tmp/ccRTrEoV.s:2817   .debug_str:0000000000000211 .LASF121
     /tmp/ccRTrEoV.s:2913   .debug_str:0000000000000521 .LASF122
     /tmp/ccRTrEoV.s:2881   .debug_str:000000000000042c .LASF123
     /tmp/ccRTrEoV.s:2793   .debug_str:000000000000014b .LASF124
     /tmp/ccRTrEoV.s:2831   .debug_str:0000000000000276 .LASF125
     /tmp/ccRTrEoV.s:2823   .debug_str:000000000000022a .LASF126
     /tmp/ccRTrEoV.s:2839   .debug_str:00000000000002ad .LASF128
     /tmp/ccRTrEoV.s:2951   .debug_str:000000000000065b .LASF129
     /tmp/ccRTrEoV.s:2861   .debug_str:000000000000036f .LASF130
     /tmp/ccRTrEoV.s:2761   .debug_str:000000000000002d .LASF131
     /tmp/ccRTrEoV.s:2995   .debug_str:00000000000007a1 .LASF132
     /tmp/ccRTrEoV.s:2895   .debug_str:000000000000049c .LASF133
     /tmp/ccRTrEoV.s:3055   .debug_str:0000000000000a2c .LASF134
     /tmp/ccRTrEoV.s:2965   .debug_str:00000000000006d5 .LASF135
     /tmp/ccRTrEoV.s:2757   .debug_str:0000000000000000 .LASF136
GAS LISTING /tmp/ccRTrEoV.s 			page 17


     /tmp/ccRTrEoV.s:3035   .debug_str:000000000000095c .LASF137
     /tmp/ccRTrEoV.s:2941   .debug_str:0000000000000609 .LASF138
     /tmp/ccRTrEoV.s:266    .text:0000000000000184 .LFB30
     /tmp/ccRTrEoV.s:301    .text:00000000000001b0 .LFE30
     /tmp/ccRTrEoV.s:3051   .debug_str:0000000000000a07 .LASF139
     /tmp/ccRTrEoV.s:2616   .debug_loc:0000000000000000 .LLST6
     /tmp/ccRTrEoV.s:225    .text:0000000000000158 .LFB29
     /tmp/ccRTrEoV.s:260    .text:0000000000000184 .LFE29
     /tmp/ccRTrEoV.s:2641   .debug_loc:0000000000000062 .LLST5
     /tmp/ccRTrEoV.s:149    .text:00000000000000f4 .LFB28
     /tmp/ccRTrEoV.s:219    .text:0000000000000158 .LFE28
     /tmp/ccRTrEoV.s:2666   .debug_loc:00000000000000c4 .LLST2
     /tmp/ccRTrEoV.s:2971   .debug_str:0000000000000708 .LASF140
     /tmp/ccRTrEoV.s:2688   .debug_loc:0000000000000123 .LLST3
     /tmp/ccRTrEoV.s:2699   .debug_loc:0000000000000159 .LLST4
     /tmp/ccRTrEoV.s:190    .text:0000000000000130 .LVL13
     /tmp/ccRTrEoV.s:10     .text:0000000000000000 .LFB27
     /tmp/ccRTrEoV.s:83     .text:0000000000000074 .LFE27
     /tmp/ccRTrEoV.s:2706   .debug_loc:000000000000017c .LLST0
     /tmp/ccRTrEoV.s:2728   .debug_loc:00000000000001db .LLST1
     /tmp/ccRTrEoV.s:2917   .debug_str:0000000000000550 .LASF141
     /tmp/ccRTrEoV.s:34     .text:000000000000002c .LVL2
     /tmp/ccRTrEoV.s:307    .text:00000000000001b0 .LFB26
     /tmp/ccRTrEoV.s:363    .text:0000000000000234 .LFE26
     /tmp/ccRTrEoV.s:326    .text:00000000000001d4 .LVL24
     /tmp/ccRTrEoV.s:331    .text:00000000000001e4 .LVL25
     /tmp/ccRTrEoV.s:348    .text:000000000000020c .LVL26
     /tmp/ccRTrEoV.s:357    .text:000000000000022c .LVL27
     /tmp/ccRTrEoV.s:89     .text:0000000000000074 .LFB25
     /tmp/ccRTrEoV.s:143    .text:00000000000000f4 .LFE25
     /tmp/ccRTrEoV.s:112    .text:00000000000000b0 .LVL5
     /tmp/ccRTrEoV.s:117    .text:00000000000000bc .LVL6
     /tmp/ccRTrEoV.s:133    .text:00000000000000e0 .LVL7
     /tmp/ccRTrEoV.s:138    .text:00000000000000f0 .LVL8
     /tmp/ccRTrEoV.s:3011   .debug_str:000000000000080c .LASF142
     /tmp/ccRTrEoV.s:3015   .debug_str:0000000000000828 .LASF143
     /tmp/ccRTrEoV.s:2801   .debug_str:0000000000000199 .LASF144
     /tmp/ccRTrEoV.s:2909   .debug_str:0000000000000502 .LASF145
     /tmp/ccRTrEoV.s:3027   .debug_str:0000000000000927 .LASF146
     /tmp/ccRTrEoV.s:269    .text:0000000000000184 .LVL20
     /tmp/ccRTrEoV.s:283    .text:000000000000019c .LVL21
     /tmp/ccRTrEoV.s:293    .text:00000000000001a8 .LVL22
     /tmp/ccRTrEoV.s:298    .text:00000000000001ac .LVL23
     /tmp/ccRTrEoV.s:228    .text:0000000000000158 .LVL16
     /tmp/ccRTrEoV.s:242    .text:0000000000000170 .LVL17
     /tmp/ccRTrEoV.s:252    .text:000000000000017c .LVL18
     /tmp/ccRTrEoV.s:257    .text:0000000000000180 .LVL19
     /tmp/ccRTrEoV.s:152    .text:00000000000000f4 .LVL9
     /tmp/ccRTrEoV.s:167    .text:0000000000000110 .LVL10
     /tmp/ccRTrEoV.s:206    .text:0000000000000148 .LVL14
     /tmp/ccRTrEoV.s:171    .text:0000000000000114 .LVL11
     /tmp/ccRTrEoV.s:213    .text:0000000000000150 .LVL15
     /tmp/ccRTrEoV.s:186    .text:0000000000000128 .LVL12
     /tmp/ccRTrEoV.s:14     .text:0000000000000000 .LVL0
     /tmp/ccRTrEoV.s:32     .text:0000000000000024 .LVL1
     /tmp/ccRTrEoV.s:67     .text:000000000000005c .LVL3
     /tmp/ccRTrEoV.s:73     .text:0000000000000068 .LVL4
GAS LISTING /tmp/ccRTrEoV.s 			page 18


     /tmp/ccRTrEoV.s:412    .debug_info:0000000000000000 .Ldebug_info0

UNDEFINED SYMBOLS
_ZN15MemoryAllocator9mem_allocEm
CONSOLE_RX_DATA
_Z10sem_signalP3SCB
CONSOLE_STATUS
plic_complete
_Z8sem_waitP3SCB
_ZN15MemoryAllocator8mem_freeEPv
CONSOLE_TX_DATA
