GAS LISTING /tmp/ccfCJryc.s 			page 1


   1              		.file	"CCB.cpp"
   2              		.option pic
   3              		.option norelax
   4              		.text
   5              	.Ltext0:
   6              		.align	2
   7              		.globl	_ZN8IOBuffer8pushBackEc
   9              	_ZN8IOBuffer8pushBackEc:
  10              	.LFB27:
  11              		.file 1 "src/CCB.cpp"
   1:src/CCB.cpp   **** #include "../h/CCB.h"
   2:src/CCB.cpp   **** #include "../h/PCB.h"
   3:src/CCB.cpp   **** #include "../h/SCB.h"
   4:src/CCB.cpp   **** #include "../h/MemoryAllocator.h"
   5:src/CCB.cpp   **** #include "../h/syscall_c.h"
   6:src/CCB.cpp   **** PCB* CCB::inputProcces = nullptr;
   7:src/CCB.cpp   **** PCB* CCB::outputProcess = nullptr;
   8:src/CCB.cpp   **** SCB* CCB::semInput = nullptr;
   9:src/CCB.cpp   **** SCB* CCB::semOutput = nullptr;
  10:src/CCB.cpp   **** SCB* CCB::inputBufferEmpty = nullptr;
  11:src/CCB.cpp   **** IOBuffer CCB::inputBuffer;
  12:src/CCB.cpp   **** IOBuffer CCB::outputBuffer;
  13:src/CCB.cpp   **** 
  14:src/CCB.cpp   **** void CCB::inputBody(void *) {
  15:src/CCB.cpp   ****     while(true) {
  16:src/CCB.cpp   ****         while(*(char*)CONSOLE_STATUS & CONSOLE_RX_STATUS_BIT) {
  17:src/CCB.cpp   ****             inputBuffer.pushBack(*(char*)CONSOLE_RX_DATA);
  18:src/CCB.cpp   ****             sem_signal(CCB::inputBufferEmpty);
  19:src/CCB.cpp   ****         }
  20:src/CCB.cpp   **** 
  21:src/CCB.cpp   ****         plic_complete(CONSOLE_IRQ);
  22:src/CCB.cpp   ****         sem_wait(CCB::semInput);
  23:src/CCB.cpp   ****     }
  24:src/CCB.cpp   **** }
  25:src/CCB.cpp   **** 
  26:src/CCB.cpp   **** void CCB::outputBody(void *) {
  27:src/CCB.cpp   ****     while(true) {
  28:src/CCB.cpp   ****         while(*(char*)CONSOLE_STATUS & CONSOLE_TX_STATUS_BIT) {
  29:src/CCB.cpp   ****             if(outputBuffer.peekFront() == 0) break;
  30:src/CCB.cpp   **** 
  31:src/CCB.cpp   ****             *((char*)CONSOLE_TX_DATA) = outputBuffer.popFront();
  32:src/CCB.cpp   ****         }
  33:src/CCB.cpp   ****         plic_complete(CONSOLE_IRQ);
  34:src/CCB.cpp   ****         sem_wait(semOutput);
  35:src/CCB.cpp   ****     }
  36:src/CCB.cpp   **** }
  37:src/CCB.cpp   **** 
  38:src/CCB.cpp   **** 
  39:src/CCB.cpp   **** void IOBuffer::pushBack(char c) {
  12              		.loc 1 39 33
  13              		.cfi_startproc
  14              	.LVL0:
  15 0000 130101FE 		addi	sp,sp,-32
  16              		.cfi_def_cfa_offset 32
  17 0004 233C1100 		sd	ra,24(sp)
  18 0008 23388100 		sd	s0,16(sp)
  19 000c 23349100 		sd	s1,8(sp)
GAS LISTING /tmp/ccfCJryc.s 			page 2


  20 0010 23302101 		sd	s2,0(sp)
  21              		.cfi_offset 1, -8
  22              		.cfi_offset 8, -16
  23              		.cfi_offset 9, -24
  24              		.cfi_offset 18, -32
  25 0014 13040102 		addi	s0,sp,32
  26              		.cfi_def_cfa 8, 0
  27 0018 93040500 		mv	s1,a0
  28 001c 13890500 		mv	s2,a1
  40:src/CCB.cpp   ****     Elem *newElem = (Elem*)MemoryAllocator::mem_alloc(sizeof(Elem));
  29              		.loc 1 40 5
  30              		.loc 1 40 54 is_stmt 0
  31 0020 13050001 		li	a0,16
  32              	.LVL1:
  33 0024 97000000 		call	_ZN15MemoryAllocator9mem_allocEm@plt
  33      E7800000 
  34              	.LVL2:
  41:src/CCB.cpp   ****     newElem->next = nullptr;
  35              		.loc 1 41 5 is_stmt 1
  36              		.loc 1 41 19 is_stmt 0
  37 002c 23300500 		sd	zero,0(a0)
  42:src/CCB.cpp   ****     newElem->data = c;
  38              		.loc 1 42 5 is_stmt 1
  39              		.loc 1 42 19 is_stmt 0
  40 0030 23042501 		sb	s2,8(a0)
  43:src/CCB.cpp   ****     if(!head) {
  41              		.loc 1 43 5 is_stmt 1
  42              		.loc 1 43 9 is_stmt 0
  43 0034 83B70400 		ld	a5,0(s1)
  44              		.loc 1 43 5
  45 0038 63880702 		beqz	a5,.L5
  44:src/CCB.cpp   ****         head = tail = newElem;
  45:src/CCB.cpp   ****     }
  46:src/CCB.cpp   ****     else {
  47:src/CCB.cpp   ****         tail->next = newElem;
  46              		.loc 1 47 9 is_stmt 1
  47 003c 83B78400 		ld	a5,8(s1)
  48              		.loc 1 47 20 is_stmt 0
  49 0040 23B0A700 		sd	a0,0(a5)
  48:src/CCB.cpp   ****         tail = tail->next;
  50              		.loc 1 48 9 is_stmt 1
  51              		.loc 1 48 16 is_stmt 0
  52 0044 83B78400 		ld	a5,8(s1)
  53              		.loc 1 48 22
  54 0048 83B70700 		ld	a5,0(a5)
  55              		.loc 1 48 14
  56 004c 23B4F400 		sd	a5,8(s1)
  57              	.L1:
  49:src/CCB.cpp   ****     }
  50:src/CCB.cpp   **** }
  58              		.loc 1 50 1
  59 0050 83308101 		ld	ra,24(sp)
  60              		.cfi_remember_state
  61              		.cfi_restore 1
  62 0054 03340101 		ld	s0,16(sp)
  63              		.cfi_restore 8
  64              		.cfi_def_cfa 2, 32
GAS LISTING /tmp/ccfCJryc.s 			page 3


  65 0058 83348100 		ld	s1,8(sp)
  66              		.cfi_restore 9
  67              	.LVL3:
  68 005c 03390100 		ld	s2,0(sp)
  69              		.cfi_restore 18
  70 0060 13010102 		addi	sp,sp,32
  71              		.cfi_def_cfa_offset 0
  72 0064 67800000 		jr	ra
  73              	.LVL4:
  74              	.L5:
  75              		.cfi_restore_state
  44:src/CCB.cpp   ****     }
  76              		.loc 1 44 9 is_stmt 1
  44:src/CCB.cpp   ****     }
  77              		.loc 1 44 21 is_stmt 0
  78 0068 23B4A400 		sd	a0,8(s1)
  44:src/CCB.cpp   ****     }
  79              		.loc 1 44 14
  80 006c 23B0A400 		sd	a0,0(s1)
  81 0070 6FF01FFE 		j	.L1
  82              		.cfi_endproc
  83              	.LFE27:
  85              		.align	2
  86              		.globl	_ZN3CCB9inputBodyEPv
  88              	_ZN3CCB9inputBodyEPv:
  89              	.LFB25:
  14:src/CCB.cpp   ****     while(true) {
  90              		.loc 1 14 29 is_stmt 1
  91              		.cfi_startproc
  92 0074 130101FE 		addi	sp,sp,-32
  93              		.cfi_def_cfa_offset 32
  94 0078 233C1100 		sd	ra,24(sp)
  95 007c 23388100 		sd	s0,16(sp)
  96 0080 23349100 		sd	s1,8(sp)
  97              		.cfi_offset 1, -8
  98              		.cfi_offset 8, -16
  99              		.cfi_offset 9, -24
 100 0084 13040102 		addi	s0,sp,32
 101              		.cfi_def_cfa 8, 0
 102 0088 6F004003 		j	.L7
 103              	.L11:
  17:src/CCB.cpp   ****             sem_signal(CCB::inputBufferEmpty);
 104              		.loc 1 17 13
  17:src/CCB.cpp   ****             sem_signal(CCB::inputBufferEmpty);
 105              		.loc 1 17 33 is_stmt 0
 106 008c 97070000 		la	a5,CONSOLE_RX_DATA
 106      83B70700 
 107 0094 83B70700 		ld	a5,0(a5)
 108 0098 97040000 		lla	s1,.LANCHOR0
 108      93840400 
 109 00a0 83C50700 		lbu	a1,0(a5)
 110 00a4 13850400 		mv	a0,s1
 111 00a8 97000000 		call	_ZN8IOBuffer8pushBackEc
 111      E7800000 
 112              	.LVL5:
  18:src/CCB.cpp   ****         }
 113              		.loc 1 18 13 is_stmt 1
GAS LISTING /tmp/ccfCJryc.s 			page 4


  18:src/CCB.cpp   ****         }
 114              		.loc 1 18 23 is_stmt 0
 115 00b0 03B50401 		ld	a0,16(s1)
 116 00b4 97000000 		call	_Z10sem_signalP3SCB@plt
 116      E7800000 
 117              	.LVL6:
 118              	.L7:
  15:src/CCB.cpp   ****         while(*(char*)CONSOLE_STATUS & CONSOLE_RX_STATUS_BIT) {
 119              		.loc 1 15 5 is_stmt 1
  16:src/CCB.cpp   ****             inputBuffer.pushBack(*(char*)CONSOLE_RX_DATA);
 120              		.loc 1 16 9
  16:src/CCB.cpp   ****             inputBuffer.pushBack(*(char*)CONSOLE_RX_DATA);
 121              		.loc 1 16 40
  16:src/CCB.cpp   ****             inputBuffer.pushBack(*(char*)CONSOLE_RX_DATA);
 122              		.loc 1 16 15 is_stmt 0
 123 00bc 97070000 		la	a5,CONSOLE_STATUS
 123      83B70700 
 124 00c4 83B70700 		ld	a5,0(a5)
 125 00c8 83C70700 		lbu	a5,0(a5)
  16:src/CCB.cpp   ****             inputBuffer.pushBack(*(char*)CONSOLE_RX_DATA);
 126              		.loc 1 16 40
 127 00cc 93F71700 		andi	a5,a5,1
 128 00d0 E39E07FA 		bnez	a5,.L11
  21:src/CCB.cpp   ****         sem_wait(CCB::semInput);
 129              		.loc 1 21 9 is_stmt 1
  21:src/CCB.cpp   ****         sem_wait(CCB::semInput);
 130              		.loc 1 21 22 is_stmt 0
 131 00d4 1305A000 		li	a0,10
 132 00d8 97000000 		call	plic_complete@plt
 132      E7800000 
 133              	.LVL7:
  22:src/CCB.cpp   ****     }
 134              		.loc 1 22 9 is_stmt 1
  22:src/CCB.cpp   ****     }
 135              		.loc 1 22 17 is_stmt 0
 136 00e0 17050000 		ld	a0,.LANCHOR0+24
 136      03350500 
 137 00e8 97000000 		call	_Z8sem_waitP3SCB@plt
 137      E7800000 
 138              	.LVL8:
  15:src/CCB.cpp   ****         while(*(char*)CONSOLE_STATUS & CONSOLE_RX_STATUS_BIT) {
 139              		.loc 1 15 5 is_stmt 1
  16:src/CCB.cpp   ****             inputBuffer.pushBack(*(char*)CONSOLE_RX_DATA);
 140              		.loc 1 16 9 is_stmt 0
 141 00f0 6FF0DFFC 		j	.L7
 142              		.cfi_endproc
 143              	.LFE25:
 145              		.align	2
 146              		.globl	_ZN8IOBuffer8popFrontEv
 148              	_ZN8IOBuffer8popFrontEv:
 149              	.LFB28:
  51:src/CCB.cpp   **** 
  52:src/CCB.cpp   **** char IOBuffer::popFront() {
 150              		.loc 1 52 27 is_stmt 1
 151              		.cfi_startproc
 152              	.LVL9:
 153 00f4 130101FE 		addi	sp,sp,-32
GAS LISTING /tmp/ccfCJryc.s 			page 5


 154              		.cfi_def_cfa_offset 32
 155 00f8 233C1100 		sd	ra,24(sp)
 156 00fc 23388100 		sd	s0,16(sp)
 157 0100 23349100 		sd	s1,8(sp)
 158              		.cfi_offset 1, -8
 159              		.cfi_offset 8, -16
 160              		.cfi_offset 9, -24
 161 0104 13040102 		addi	s0,sp,32
 162              		.cfi_def_cfa 8, 0
 163 0108 93070500 		mv	a5,a0
  53:src/CCB.cpp   ****     if(!head) return 0;
 164              		.loc 1 53 5
 165              		.loc 1 53 9 is_stmt 0
 166 010c 03350500 		ld	a0,0(a0)
 167              	.LVL10:
 168              		.loc 1 53 5
 169 0110 63000504 		beqz	a0,.L15
  54:src/CCB.cpp   **** 
  55:src/CCB.cpp   ****     Elem* curr = head;
 170              		.loc 1 55 5 is_stmt 1
 171              	.LVL11:
  56:src/CCB.cpp   ****     head = head->next;
 172              		.loc 1 56 5
 173              		.loc 1 56 18 is_stmt 0
 174 0114 03370500 		ld	a4,0(a0)
 175              		.loc 1 56 10
 176 0118 23B0E700 		sd	a4,0(a5)
  57:src/CCB.cpp   ****     if(tail == curr) tail = nullptr;
 177              		.loc 1 57 5 is_stmt 1
 178              		.loc 1 57 8 is_stmt 0
 179 011c 03B78700 		ld	a4,8(a5)
 180              		.loc 1 57 5
 181 0120 6304E502 		beq	a0,a4,.L17
 182              	.L14:
  58:src/CCB.cpp   **** 
  59:src/CCB.cpp   ****     char c = curr->data;
 183              		.loc 1 59 5 is_stmt 1
 184              		.loc 1 59 10 is_stmt 0
 185 0124 83448500 		lbu	s1,8(a0)
 186              	.LVL12:
  60:src/CCB.cpp   ****     MemoryAllocator::mem_free(curr);
 187              		.loc 1 60 5 is_stmt 1
 188              		.loc 1 60 30 is_stmt 0
 189 0128 97000000 		call	_ZN15MemoryAllocator8mem_freeEPv@plt
 189      E7800000 
 190              	.LVL13:
  61:src/CCB.cpp   ****     return c;
 191              		.loc 1 61 5 is_stmt 1
 192              	.L13:
  62:src/CCB.cpp   **** }
 193              		.loc 1 62 1 is_stmt 0
 194 0130 13850400 		mv	a0,s1
 195 0134 83308101 		ld	ra,24(sp)
 196              		.cfi_remember_state
 197              		.cfi_restore 1
 198 0138 03340101 		ld	s0,16(sp)
 199              		.cfi_restore 8
GAS LISTING /tmp/ccfCJryc.s 			page 6


 200              		.cfi_def_cfa 2, 32
 201 013c 83348100 		ld	s1,8(sp)
 202              		.cfi_restore 9
 203 0140 13010102 		addi	sp,sp,32
 204              		.cfi_def_cfa_offset 0
 205 0144 67800000 		jr	ra
 206              	.LVL14:
 207              	.L17:
 208              		.cfi_restore_state
  57:src/CCB.cpp   **** 
 209              		.loc 1 57 22 is_stmt 1 discriminator 1
  57:src/CCB.cpp   **** 
 210              		.loc 1 57 27 is_stmt 0 discriminator 1
 211 0148 23B40700 		sd	zero,8(a5)
 212 014c 6FF09FFD 		j	.L14
 213              	.LVL15:
 214              	.L15:
  53:src/CCB.cpp   **** 
 215              		.loc 1 53 22
 216 0150 93040000 		li	s1,0
 217 0154 6FF0DFFD 		j	.L13
 218              		.cfi_endproc
 219              	.LFE28:
 221              		.align	2
 222              		.globl	_ZN8IOBuffer8peekBackEv
 224              	_ZN8IOBuffer8peekBackEv:
 225              	.LFB29:
  63:src/CCB.cpp   **** 
  64:src/CCB.cpp   **** char IOBuffer::peekBack() {
 226              		.loc 1 64 27 is_stmt 1
 227              		.cfi_startproc
 228              	.LVL16:
 229 0158 130101FF 		addi	sp,sp,-16
 230              		.cfi_def_cfa_offset 16
 231 015c 23348100 		sd	s0,8(sp)
 232              		.cfi_offset 8, -8
 233 0160 13040101 		addi	s0,sp,16
 234              		.cfi_def_cfa 8, 0
  65:src/CCB.cpp   ****     return tail ? tail->data : 0;
 235              		.loc 1 65 5
 236              		.loc 1 65 12 is_stmt 0
 237 0164 83378500 		ld	a5,8(a0)
 238              		.loc 1 65 32
 239 0168 638A0700 		beqz	a5,.L20
 240              		.loc 1 65 32 discriminator 1
 241 016c 03C58700 		lbu	a0,8(a5)
 242              	.LVL17:
 243              	.L19:
  66:src/CCB.cpp   **** }
 244              		.loc 1 66 1 discriminator 4
 245 0170 03348100 		ld	s0,8(sp)
 246              		.cfi_remember_state
 247              		.cfi_restore 8
 248              		.cfi_def_cfa 2, 16
 249 0174 13010101 		addi	sp,sp,16
 250              		.cfi_def_cfa_offset 0
 251 0178 67800000 		jr	ra
GAS LISTING /tmp/ccfCJryc.s 			page 7


 252              	.LVL18:
 253              	.L20:
 254              		.cfi_restore_state
  65:src/CCB.cpp   ****     return tail ? tail->data : 0;
 255              		.loc 1 65 32
 256 017c 13050000 		li	a0,0
 257              	.LVL19:
 258 0180 6FF01FFF 		j	.L19
 259              		.cfi_endproc
 260              	.LFE29:
 262              		.align	2
 263              		.globl	_ZN8IOBuffer9peekFrontEv
 265              	_ZN8IOBuffer9peekFrontEv:
 266              	.LFB30:
  67:src/CCB.cpp   **** 
  68:src/CCB.cpp   **** char IOBuffer::peekFront() {
 267              		.loc 1 68 28 is_stmt 1
 268              		.cfi_startproc
 269              	.LVL20:
 270 0184 130101FF 		addi	sp,sp,-16
 271              		.cfi_def_cfa_offset 16
 272 0188 23348100 		sd	s0,8(sp)
 273              		.cfi_offset 8, -8
 274 018c 13040101 		addi	s0,sp,16
 275              		.cfi_def_cfa 8, 0
  69:src/CCB.cpp   ****     return head ? head->data : 0;
 276              		.loc 1 69 5
 277              		.loc 1 69 12 is_stmt 0
 278 0190 83370500 		ld	a5,0(a0)
 279              		.loc 1 69 32
 280 0194 638A0700 		beqz	a5,.L24
 281              		.loc 1 69 32 discriminator 1
 282 0198 03C58700 		lbu	a0,8(a5)
 283              	.LVL21:
 284              	.L23:
  70:src/CCB.cpp   **** }
 285              		.loc 1 70 1 discriminator 4
 286 019c 03348100 		ld	s0,8(sp)
 287              		.cfi_remember_state
 288              		.cfi_restore 8
 289              		.cfi_def_cfa 2, 16
 290 01a0 13010101 		addi	sp,sp,16
 291              		.cfi_def_cfa_offset 0
 292 01a4 67800000 		jr	ra
 293              	.LVL22:
 294              	.L24:
 295              		.cfi_restore_state
  69:src/CCB.cpp   ****     return head ? head->data : 0;
 296              		.loc 1 69 32
 297 01a8 13050000 		li	a0,0
 298              	.LVL23:
 299 01ac 6FF01FFF 		j	.L23
 300              		.cfi_endproc
 301              	.LFE30:
 303              		.align	2
 304              		.globl	_ZN3CCB10outputBodyEPv
 306              	_ZN3CCB10outputBodyEPv:
GAS LISTING /tmp/ccfCJryc.s 			page 8


 307              	.LFB26:
  26:src/CCB.cpp   ****     while(true) {
 308              		.loc 1 26 30 is_stmt 1
 309              		.cfi_startproc
 310 01b0 130101FE 		addi	sp,sp,-32
 311              		.cfi_def_cfa_offset 32
 312 01b4 233C1100 		sd	ra,24(sp)
 313 01b8 23388100 		sd	s0,16(sp)
 314 01bc 23349100 		sd	s1,8(sp)
 315              		.cfi_offset 1, -8
 316              		.cfi_offset 8, -16
 317              		.cfi_offset 9, -24
 318 01c0 13040102 		addi	s0,sp,32
 319              		.cfi_def_cfa 8, 0
 320 01c4 6F000002 		j	.L27
 321              	.L28:
  33:src/CCB.cpp   ****         sem_wait(semOutput);
 322              		.loc 1 33 9
  33:src/CCB.cpp   ****         sem_wait(semOutput);
 323              		.loc 1 33 22 is_stmt 0
 324 01c8 1305A000 		li	a0,10
 325 01cc 97000000 		call	plic_complete@plt
 325      E7800000 
 326              	.LVL24:
  34:src/CCB.cpp   ****     }
 327              		.loc 1 34 9 is_stmt 1
  34:src/CCB.cpp   ****     }
 328              		.loc 1 34 17 is_stmt 0
 329 01d4 17050000 		ld	a0,.LANCHOR0+48
 329      03350500 
 330 01dc 97000000 		call	_Z8sem_waitP3SCB@plt
 330      E7800000 
 331              	.LVL25:
  27:src/CCB.cpp   ****         while(*(char*)CONSOLE_STATUS & CONSOLE_TX_STATUS_BIT) {
 332              		.loc 1 27 5 is_stmt 1
 333              	.L27:
  27:src/CCB.cpp   ****         while(*(char*)CONSOLE_STATUS & CONSOLE_TX_STATUS_BIT) {
 334              		.loc 1 27 5
  28:src/CCB.cpp   ****             if(outputBuffer.peekFront() == 0) break;
 335              		.loc 1 28 9
  28:src/CCB.cpp   ****             if(outputBuffer.peekFront() == 0) break;
 336              		.loc 1 28 40
  28:src/CCB.cpp   ****             if(outputBuffer.peekFront() == 0) break;
 337              		.loc 1 28 15 is_stmt 0
 338 01e4 97070000 		la	a5,CONSOLE_STATUS
 338      83B70700 
 339 01ec 83B70700 		ld	a5,0(a5)
 340 01f0 83C70700 		lbu	a5,0(a5)
  28:src/CCB.cpp   ****             if(outputBuffer.peekFront() == 0) break;
 341              		.loc 1 28 40
 342 01f4 93F70702 		andi	a5,a5,32
 343 01f8 E38807FC 		beqz	a5,.L28
  29:src/CCB.cpp   **** 
 344              		.loc 1 29 13 is_stmt 1
  29:src/CCB.cpp   **** 
 345              		.loc 1 29 38 is_stmt 0
 346 01fc 17050000 		lla	a0,.LANCHOR0+32
GAS LISTING /tmp/ccfCJryc.s 			page 9


 346      13050500 
 347 0204 97000000 		call	_ZN8IOBuffer9peekFrontEv
 347      E7800000 
 348              	.LVL26:
  29:src/CCB.cpp   **** 
 349              		.loc 1 29 13
 350 020c E30E05FA 		beqz	a0,.L28
  31:src/CCB.cpp   ****         }
 351              		.loc 1 31 13 is_stmt 1
 352 0210 97070000 		la	a5,CONSOLE_TX_DATA
 352      83B70700 
 353 0218 83B40700 		ld	s1,0(a5)
  31:src/CCB.cpp   ****         }
 354              		.loc 1 31 62 is_stmt 0
 355 021c 17050000 		lla	a0,.LANCHOR0+32
 355      13050500 
 356 0224 97000000 		call	_ZN8IOBuffer8popFrontEv
 356      E7800000 
 357              	.LVL27:
  31:src/CCB.cpp   ****         }
 358              		.loc 1 31 39
 359 022c 2380A400 		sb	a0,0(s1)
  28:src/CCB.cpp   ****             if(outputBuffer.peekFront() == 0) break;
 360              		.loc 1 28 9
 361 0230 6FF05FFB 		j	.L27
 362              		.cfi_endproc
 363              	.LFE26:
 365              		.globl	_ZN3CCB12outputBufferE
 366              		.globl	_ZN3CCB11inputBufferE
 367              		.globl	_ZN3CCB16inputBufferEmptyE
 368              		.globl	_ZN3CCB9semOutputE
 369              		.globl	_ZN3CCB8semInputE
 370              		.globl	_ZN3CCB13outputProcessE
 371              		.globl	_ZN3CCB12inputProccesE
 372              		.bss
 373              		.align	3
 374              		.set	.LANCHOR0,. + 0
 377              	_ZN3CCB11inputBufferE:
 378 0000 00000000 		.zero	16
 378      00000000 
 378      00000000 
 378      00000000 
 381              	_ZN3CCB16inputBufferEmptyE:
 382 0010 00000000 		.zero	8
 382      00000000 
 385              	_ZN3CCB8semInputE:
 386 0018 00000000 		.zero	8
 386      00000000 
 389              	_ZN3CCB12outputBufferE:
 390 0020 00000000 		.zero	16
 390      00000000 
 390      00000000 
 390      00000000 
 393              	_ZN3CCB9semOutputE:
 394 0030 00000000 		.zero	8
 394      00000000 
 397              	_ZN3CCB13outputProcessE:
GAS LISTING /tmp/ccfCJryc.s 			page 10


 398 0038 00000000 		.zero	8
 398      00000000 
 401              	_ZN3CCB12inputProccesE:
 402 0040 00000000 		.zero	8
 402      00000000 
 403              		.text
 404              	.Letext0:
 405              		.file 2 "src/../h/CCB.h"
 406              		.file 3 "src/../h/SCB.h"
 407              		.file 4 "src/../h/PCB.h"
 408              		.file 5 "src/../h/hw.h"
 409              		.file 6 "src/../h/MemoryAllocator.h"
 410              		.file 7 "src/../h/syscall_c.h"
GAS LISTING /tmp/ccfCJryc.s 			page 11

