GAS LISTING /tmp/cceJVQt5.s 			page 1


   1              		.file	"CCB.cpp"
   2              		.option pic
   3              		.option norelax
   4              		.text
   5              	.Ltext0:
   6              		.align	2
   7              		.globl	_ZN8IOBuffer8pushBackEc
   9              	_ZN8IOBuffer8pushBackEc:
  10              	.LFB49:
  11              		.file 1 "src/CCB.cpp"
   1:src/CCB.cpp   **** #include "../h/CCB.h"
   2:src/CCB.cpp   **** #include "../h/PCB.h"
   3:src/CCB.cpp   **** #include "../h/SCB.h"
   4:src/CCB.cpp   **** #include "../h/MemoryAllocator.h"
   5:src/CCB.cpp   **** #include "../h/syscall_c.h"
   6:src/CCB.cpp   **** #include "../h/kernel.h"
   7:src/CCB.cpp   **** PCB* CCB::inputProcces = nullptr;
   8:src/CCB.cpp   **** PCB* CCB::outputProcess = nullptr;
   9:src/CCB.cpp   **** SCB* CCB::semInput = nullptr;
  10:src/CCB.cpp   **** SCB* CCB::semOutput = nullptr;
  11:src/CCB.cpp   **** SCB* CCB::inputBufferEmpty = nullptr;
  12:src/CCB.cpp   **** IOBuffer CCB::inputBuffer;
  13:src/CCB.cpp   **** IOBuffer CCB::outputBuffer;
  14:src/CCB.cpp   **** 
  15:src/CCB.cpp   **** void CCB::inputBody(void*) {
  16:src/CCB.cpp   ****     while(true) {
  17:src/CCB.cpp   ****         while(*(char*)CONSOLE_STATUS & CONSOLE_RX_STATUS_BIT) {
  18:src/CCB.cpp   ****             inputBuffer.pushBack(*(char*)CONSOLE_RX_DATA);
  19:src/CCB.cpp   ****             sem_signal(CCB::inputBufferEmpty);
  20:src/CCB.cpp   ****             plic_complete(CONSOLE_IRQ);
  21:src/CCB.cpp   ****             sem_wait(semInput);
  22:src/CCB.cpp   ****         }
  23:src/CCB.cpp   ****         thread_dispatch();
  24:src/CCB.cpp   ****     }
  25:src/CCB.cpp   **** }
  26:src/CCB.cpp   **** 
  27:src/CCB.cpp   **** void CCB::outputBody(void*) {
  28:src/CCB.cpp   ****     while(true) {
  29:src/CCB.cpp   ****         while(*(char*)CONSOLE_STATUS & CONSOLE_TX_STATUS_BIT) {
  30:src/CCB.cpp   ****             if(outputBuffer.peekFront() != 0) {
  31:src/CCB.cpp   ****                 *((char*)CONSOLE_TX_DATA) = outputBuffer.popFront();
  32:src/CCB.cpp   ****                 sem_wait(semOutput);
  33:src/CCB.cpp   ****             }
  34:src/CCB.cpp   ****             else {
  35:src/CCB.cpp   ****                 break;
  36:src/CCB.cpp   ****             }
  37:src/CCB.cpp   ****         }
  38:src/CCB.cpp   ****         thread_dispatch();
  39:src/CCB.cpp   ****     }
  40:src/CCB.cpp   **** }
  41:src/CCB.cpp   **** 
  42:src/CCB.cpp   **** 
  43:src/CCB.cpp   **** void IOBuffer::pushBack(char c) {
  12              		.loc 1 43 33
  13              		.cfi_startproc
  14              	.LVL0:
  15 0000 130101FE 		addi	sp,sp,-32
GAS LISTING /tmp/cceJVQt5.s 			page 2


  16              		.cfi_def_cfa_offset 32
  17 0004 233C1100 		sd	ra,24(sp)
  18 0008 23388100 		sd	s0,16(sp)
  19 000c 23349100 		sd	s1,8(sp)
  20 0010 23302101 		sd	s2,0(sp)
  21              		.cfi_offset 1, -8
  22              		.cfi_offset 8, -16
  23              		.cfi_offset 9, -24
  24              		.cfi_offset 18, -32
  25 0014 13040102 		addi	s0,sp,32
  26              		.cfi_def_cfa 8, 0
  27 0018 93040500 		mv	s1,a0
  28 001c 13890500 		mv	s2,a1
  44:src/CCB.cpp   ****     Elem *newElem = (Elem*)MemoryAllocator::mem_alloc(sizeof(Elem));
  29              		.loc 1 44 5
  30              		.loc 1 44 54 is_stmt 0
  31 0020 13050001 		li	a0,16
  32              	.LVL1:
  33 0024 97000000 		call	_ZN15MemoryAllocator9mem_allocEm@plt
  33      E7800000 
  34              	.LVL2:
  45:src/CCB.cpp   ****     newElem->next = nullptr;
  35              		.loc 1 45 5 is_stmt 1
  36              		.loc 1 45 19 is_stmt 0
  37 002c 23300500 		sd	zero,0(a0)
  46:src/CCB.cpp   ****     newElem->data = c;
  38              		.loc 1 46 5 is_stmt 1
  39              		.loc 1 46 19 is_stmt 0
  40 0030 23042501 		sb	s2,8(a0)
  47:src/CCB.cpp   ****     if(!head) {
  41              		.loc 1 47 5 is_stmt 1
  42              		.loc 1 47 9 is_stmt 0
  43 0034 83B70400 		ld	a5,0(s1)
  44              		.loc 1 47 5
  45 0038 63880702 		beqz	a5,.L5
  48:src/CCB.cpp   ****         head = tail = newElem;
  49:src/CCB.cpp   ****     }
  50:src/CCB.cpp   ****     else {
  51:src/CCB.cpp   ****         tail->next = newElem;
  46              		.loc 1 51 9 is_stmt 1
  47 003c 83B78400 		ld	a5,8(s1)
  48              		.loc 1 51 20 is_stmt 0
  49 0040 23B0A700 		sd	a0,0(a5)
  52:src/CCB.cpp   ****         tail = tail->next;
  50              		.loc 1 52 9 is_stmt 1
  51              		.loc 1 52 16 is_stmt 0
  52 0044 83B78400 		ld	a5,8(s1)
  53              		.loc 1 52 22
  54 0048 83B70700 		ld	a5,0(a5)
  55              		.loc 1 52 14
  56 004c 23B4F400 		sd	a5,8(s1)
  57              	.L1:
  53:src/CCB.cpp   ****     }
  54:src/CCB.cpp   **** }
  58              		.loc 1 54 1
  59 0050 83308101 		ld	ra,24(sp)
  60              		.cfi_remember_state
GAS LISTING /tmp/cceJVQt5.s 			page 3


  61              		.cfi_restore 1
  62 0054 03340101 		ld	s0,16(sp)
  63              		.cfi_restore 8
  64              		.cfi_def_cfa 2, 32
  65 0058 83348100 		ld	s1,8(sp)
  66              		.cfi_restore 9
  67              	.LVL3:
  68 005c 03390100 		ld	s2,0(sp)
  69              		.cfi_restore 18
  70 0060 13010102 		addi	sp,sp,32
  71              		.cfi_def_cfa_offset 0
  72 0064 67800000 		jr	ra
  73              	.LVL4:
  74              	.L5:
  75              		.cfi_restore_state
  48:src/CCB.cpp   ****     }
  76              		.loc 1 48 9 is_stmt 1
  48:src/CCB.cpp   ****     }
  77              		.loc 1 48 21 is_stmt 0
  78 0068 23B4A400 		sd	a0,8(s1)
  48:src/CCB.cpp   ****     }
  79              		.loc 1 48 14
  80 006c 23B0A400 		sd	a0,0(s1)
  81 0070 6FF01FFE 		j	.L1
  82              		.cfi_endproc
  83              	.LFE49:
  85              		.align	2
  86              		.globl	_ZN3CCB9inputBodyEPv
  88              	_ZN3CCB9inputBodyEPv:
  89              	.LFB47:
  15:src/CCB.cpp   ****     while(true) {
  90              		.loc 1 15 28 is_stmt 1
  91              		.cfi_startproc
  92 0074 130101FE 		addi	sp,sp,-32
  93              		.cfi_def_cfa_offset 32
  94 0078 233C1100 		sd	ra,24(sp)
  95 007c 23388100 		sd	s0,16(sp)
  96 0080 23349100 		sd	s1,8(sp)
  97              		.cfi_offset 1, -8
  98              		.cfi_offset 8, -16
  99              		.cfi_offset 9, -24
 100 0084 13040102 		addi	s0,sp,32
 101              		.cfi_def_cfa 8, 0
 102 0088 6F00C004 		j	.L7
 103              	.L11:
  18:src/CCB.cpp   ****             sem_signal(CCB::inputBufferEmpty);
 104              		.loc 1 18 13
  18:src/CCB.cpp   ****             sem_signal(CCB::inputBufferEmpty);
 105              		.loc 1 18 33 is_stmt 0
 106 008c 97070000 		la	a5,CONSOLE_RX_DATA
 106      83B70700 
 107 0094 83B70700 		ld	a5,0(a5)
 108 0098 97040000 		lla	s1,.LANCHOR0
 108      93840400 
 109 00a0 83C50700 		lbu	a1,0(a5)
 110 00a4 13850400 		mv	a0,s1
 111 00a8 97000000 		call	_ZN8IOBuffer8pushBackEc
GAS LISTING /tmp/cceJVQt5.s 			page 4


 111      E7800000 
 112              	.LVL5:
  19:src/CCB.cpp   ****             plic_complete(CONSOLE_IRQ);
 113              		.loc 1 19 13 is_stmt 1
  19:src/CCB.cpp   ****             plic_complete(CONSOLE_IRQ);
 114              		.loc 1 19 23 is_stmt 0
 115 00b0 03B50401 		ld	a0,16(s1)
 116 00b4 97000000 		call	_Z10sem_signalP3SCB@plt
 116      E7800000 
 117              	.LVL6:
  20:src/CCB.cpp   ****             sem_wait(semInput);
 118              		.loc 1 20 13 is_stmt 1
  20:src/CCB.cpp   ****             sem_wait(semInput);
 119              		.loc 1 20 26 is_stmt 0
 120 00bc 1305A000 		li	a0,10
 121 00c0 97000000 		call	plic_complete@plt
 121      E7800000 
 122              	.LVL7:
  21:src/CCB.cpp   ****         }
 123              		.loc 1 21 13 is_stmt 1
  21:src/CCB.cpp   ****         }
 124              		.loc 1 21 21 is_stmt 0
 125 00c8 03B58401 		ld	a0,24(s1)
 126 00cc 97000000 		call	_Z8sem_waitP3SCB@plt
 126      E7800000 
 127              	.LVL8:
 128              	.L7:
  16:src/CCB.cpp   ****         while(*(char*)CONSOLE_STATUS & CONSOLE_RX_STATUS_BIT) {
 129              		.loc 1 16 5 is_stmt 1
  17:src/CCB.cpp   ****             inputBuffer.pushBack(*(char*)CONSOLE_RX_DATA);
 130              		.loc 1 17 9
  17:src/CCB.cpp   ****             inputBuffer.pushBack(*(char*)CONSOLE_RX_DATA);
 131              		.loc 1 17 40
  17:src/CCB.cpp   ****             inputBuffer.pushBack(*(char*)CONSOLE_RX_DATA);
 132              		.loc 1 17 15 is_stmt 0
 133 00d4 97070000 		la	a5,CONSOLE_STATUS
 133      83B70700 
 134 00dc 83B70700 		ld	a5,0(a5)
 135 00e0 83C70700 		lbu	a5,0(a5)
  17:src/CCB.cpp   ****             inputBuffer.pushBack(*(char*)CONSOLE_RX_DATA);
 136              		.loc 1 17 40
 137 00e4 93F71700 		andi	a5,a5,1
 138 00e8 E39207FA 		bnez	a5,.L11
  23:src/CCB.cpp   ****     }
 139              		.loc 1 23 9 is_stmt 1
  23:src/CCB.cpp   ****     }
 140              		.loc 1 23 24 is_stmt 0
 141 00ec 97000000 		call	_Z15thread_dispatchv@plt
 141      E7800000 
 142              	.LVL9:
  16:src/CCB.cpp   ****         while(*(char*)CONSOLE_STATUS & CONSOLE_RX_STATUS_BIT) {
 143              		.loc 1 16 5 is_stmt 1
  17:src/CCB.cpp   ****             inputBuffer.pushBack(*(char*)CONSOLE_RX_DATA);
 144              		.loc 1 17 9 is_stmt 0
 145 00f4 6FF01FFE 		j	.L7
 146              		.cfi_endproc
 147              	.LFE47:
GAS LISTING /tmp/cceJVQt5.s 			page 5


 149              		.align	2
 150              		.globl	_ZN8IOBuffer8popFrontEv
 152              	_ZN8IOBuffer8popFrontEv:
 153              	.LFB50:
  55:src/CCB.cpp   **** 
  56:src/CCB.cpp   **** char IOBuffer::popFront() {
 154              		.loc 1 56 27 is_stmt 1
 155              		.cfi_startproc
 156              	.LVL10:
 157 00f8 130101FE 		addi	sp,sp,-32
 158              		.cfi_def_cfa_offset 32
 159 00fc 233C1100 		sd	ra,24(sp)
 160 0100 23388100 		sd	s0,16(sp)
 161 0104 23349100 		sd	s1,8(sp)
 162              		.cfi_offset 1, -8
 163              		.cfi_offset 8, -16
 164              		.cfi_offset 9, -24
 165 0108 13040102 		addi	s0,sp,32
 166              		.cfi_def_cfa 8, 0
 167 010c 93070500 		mv	a5,a0
  57:src/CCB.cpp   ****     if(!head) return 0;
 168              		.loc 1 57 5
 169              		.loc 1 57 9 is_stmt 0
 170 0110 03350500 		ld	a0,0(a0)
 171              	.LVL11:
 172              		.loc 1 57 5
 173 0114 63000504 		beqz	a0,.L15
  58:src/CCB.cpp   **** 
  59:src/CCB.cpp   ****     Elem* curr = head;
 174              		.loc 1 59 5 is_stmt 1
 175              	.LVL12:
  60:src/CCB.cpp   ****     head = head->next;
 176              		.loc 1 60 5
 177              		.loc 1 60 18 is_stmt 0
 178 0118 03370500 		ld	a4,0(a0)
 179              		.loc 1 60 10
 180 011c 23B0E700 		sd	a4,0(a5)
  61:src/CCB.cpp   ****     if(tail == curr) tail = nullptr;
 181              		.loc 1 61 5 is_stmt 1
 182              		.loc 1 61 8 is_stmt 0
 183 0120 03B78700 		ld	a4,8(a5)
 184              		.loc 1 61 5
 185 0124 6304E502 		beq	a0,a4,.L17
 186              	.L14:
  62:src/CCB.cpp   **** 
  63:src/CCB.cpp   ****     char c = curr->data;
 187              		.loc 1 63 5 is_stmt 1
 188              		.loc 1 63 10 is_stmt 0
 189 0128 83448500 		lbu	s1,8(a0)
 190              	.LVL13:
  64:src/CCB.cpp   ****     MemoryAllocator::mem_free(curr);
 191              		.loc 1 64 5 is_stmt 1
 192              		.loc 1 64 30 is_stmt 0
 193 012c 97000000 		call	_ZN15MemoryAllocator8mem_freeEPv@plt
 193      E7800000 
 194              	.LVL14:
  65:src/CCB.cpp   ****     return c;
GAS LISTING /tmp/cceJVQt5.s 			page 6


 195              		.loc 1 65 5 is_stmt 1
 196              	.L13:
  66:src/CCB.cpp   **** }
 197              		.loc 1 66 1 is_stmt 0
 198 0134 13850400 		mv	a0,s1
 199 0138 83308101 		ld	ra,24(sp)
 200              		.cfi_remember_state
 201              		.cfi_restore 1
 202 013c 03340101 		ld	s0,16(sp)
 203              		.cfi_restore 8
 204              		.cfi_def_cfa 2, 32
 205 0140 83348100 		ld	s1,8(sp)
 206              		.cfi_restore 9
 207 0144 13010102 		addi	sp,sp,32
 208              		.cfi_def_cfa_offset 0
 209 0148 67800000 		jr	ra
 210              	.LVL15:
 211              	.L17:
 212              		.cfi_restore_state
  61:src/CCB.cpp   **** 
 213              		.loc 1 61 22 is_stmt 1 discriminator 1
  61:src/CCB.cpp   **** 
 214              		.loc 1 61 27 is_stmt 0 discriminator 1
 215 014c 23B40700 		sd	zero,8(a5)
 216 0150 6FF09FFD 		j	.L14
 217              	.LVL16:
 218              	.L15:
  57:src/CCB.cpp   **** 
 219              		.loc 1 57 22
 220 0154 93040000 		li	s1,0
 221 0158 6FF0DFFD 		j	.L13
 222              		.cfi_endproc
 223              	.LFE50:
 225              		.align	2
 226              		.globl	_ZN8IOBuffer8peekBackEv
 228              	_ZN8IOBuffer8peekBackEv:
 229              	.LFB51:
  67:src/CCB.cpp   **** 
  68:src/CCB.cpp   **** char IOBuffer::peekBack() {
 230              		.loc 1 68 27 is_stmt 1
 231              		.cfi_startproc
 232              	.LVL17:
 233 015c 130101FF 		addi	sp,sp,-16
 234              		.cfi_def_cfa_offset 16
 235 0160 23348100 		sd	s0,8(sp)
 236              		.cfi_offset 8, -8
 237 0164 13040101 		addi	s0,sp,16
 238              		.cfi_def_cfa 8, 0
  69:src/CCB.cpp   ****     return tail ? tail->data : 0;
 239              		.loc 1 69 5
 240              		.loc 1 69 12 is_stmt 0
 241 0168 83378500 		ld	a5,8(a0)
 242              		.loc 1 69 32
 243 016c 638A0700 		beqz	a5,.L20
 244              		.loc 1 69 32 discriminator 1
 245 0170 03C58700 		lbu	a0,8(a5)
 246              	.LVL18:
GAS LISTING /tmp/cceJVQt5.s 			page 7


 247              	.L19:
  70:src/CCB.cpp   **** }
 248              		.loc 1 70 1 discriminator 4
 249 0174 03348100 		ld	s0,8(sp)
 250              		.cfi_remember_state
 251              		.cfi_restore 8
 252              		.cfi_def_cfa 2, 16
 253 0178 13010101 		addi	sp,sp,16
 254              		.cfi_def_cfa_offset 0
 255 017c 67800000 		jr	ra
 256              	.LVL19:
 257              	.L20:
 258              		.cfi_restore_state
  69:src/CCB.cpp   ****     return tail ? tail->data : 0;
 259              		.loc 1 69 32
 260 0180 13050000 		li	a0,0
 261              	.LVL20:
 262 0184 6FF01FFF 		j	.L19
 263              		.cfi_endproc
 264              	.LFE51:
 266              		.align	2
 267              		.globl	_ZN8IOBuffer9peekFrontEv
 269              	_ZN8IOBuffer9peekFrontEv:
 270              	.LFB52:
  71:src/CCB.cpp   **** 
  72:src/CCB.cpp   **** char IOBuffer::peekFront() {
 271              		.loc 1 72 28 is_stmt 1
 272              		.cfi_startproc
 273              	.LVL21:
 274 0188 130101FF 		addi	sp,sp,-16
 275              		.cfi_def_cfa_offset 16
 276 018c 23348100 		sd	s0,8(sp)
 277              		.cfi_offset 8, -8
 278 0190 13040101 		addi	s0,sp,16
 279              		.cfi_def_cfa 8, 0
  73:src/CCB.cpp   ****     return head ? head->data : 0;
 280              		.loc 1 73 5
 281              		.loc 1 73 12 is_stmt 0
 282 0194 83370500 		ld	a5,0(a0)
 283              		.loc 1 73 32
 284 0198 638A0700 		beqz	a5,.L24
 285              		.loc 1 73 32 discriminator 1
 286 019c 03C58700 		lbu	a0,8(a5)
 287              	.LVL22:
 288              	.L23:
  74:src/CCB.cpp   **** }
 289              		.loc 1 74 1 discriminator 4
 290 01a0 03348100 		ld	s0,8(sp)
 291              		.cfi_remember_state
 292              		.cfi_restore 8
 293              		.cfi_def_cfa 2, 16
 294 01a4 13010101 		addi	sp,sp,16
 295              		.cfi_def_cfa_offset 0
 296 01a8 67800000 		jr	ra
 297              	.LVL23:
 298              	.L24:
 299              		.cfi_restore_state
GAS LISTING /tmp/cceJVQt5.s 			page 8


  73:src/CCB.cpp   ****     return head ? head->data : 0;
 300              		.loc 1 73 32
 301 01ac 13050000 		li	a0,0
 302              	.LVL24:
 303 01b0 6FF01FFF 		j	.L23
 304              		.cfi_endproc
 305              	.LFE52:
 307              		.align	2
 308              		.globl	_ZN3CCB10outputBodyEPv
 310              	_ZN3CCB10outputBodyEPv:
 311              	.LFB48:
  27:src/CCB.cpp   ****     while(true) {
 312              		.loc 1 27 29 is_stmt 1
 313              		.cfi_startproc
 314 01b4 130101FE 		addi	sp,sp,-32
 315              		.cfi_def_cfa_offset 32
 316 01b8 233C1100 		sd	ra,24(sp)
 317 01bc 23388100 		sd	s0,16(sp)
 318 01c0 23349100 		sd	s1,8(sp)
 319              		.cfi_offset 1, -8
 320              		.cfi_offset 8, -16
 321              		.cfi_offset 9, -24
 322 01c4 13040102 		addi	s0,sp,32
 323              		.cfi_def_cfa 8, 0
 324 01c8 6F00C000 		j	.L27
 325              	.L28:
  38:src/CCB.cpp   ****     }
 326              		.loc 1 38 9
  38:src/CCB.cpp   ****     }
 327              		.loc 1 38 24 is_stmt 0
 328 01cc 97000000 		call	_Z15thread_dispatchv@plt
 328      E7800000 
 329              	.LVL25:
  28:src/CCB.cpp   ****         while(*(char*)CONSOLE_STATUS & CONSOLE_TX_STATUS_BIT) {
 330              		.loc 1 28 5 is_stmt 1
 331              	.L27:
  28:src/CCB.cpp   ****         while(*(char*)CONSOLE_STATUS & CONSOLE_TX_STATUS_BIT) {
 332              		.loc 1 28 5
  29:src/CCB.cpp   ****             if(outputBuffer.peekFront() != 0) {
 333              		.loc 1 29 9
  29:src/CCB.cpp   ****             if(outputBuffer.peekFront() != 0) {
 334              		.loc 1 29 40
  29:src/CCB.cpp   ****             if(outputBuffer.peekFront() != 0) {
 335              		.loc 1 29 15 is_stmt 0
 336 01d4 97070000 		la	a5,CONSOLE_STATUS
 336      83B70700 
 337 01dc 83B70700 		ld	a5,0(a5)
 338 01e0 83C70700 		lbu	a5,0(a5)
  29:src/CCB.cpp   ****             if(outputBuffer.peekFront() != 0) {
 339              		.loc 1 29 40
 340 01e4 93F70702 		andi	a5,a5,32
 341 01e8 E38207FE 		beqz	a5,.L28
  30:src/CCB.cpp   ****                 *((char*)CONSOLE_TX_DATA) = outputBuffer.popFront();
 342              		.loc 1 30 13 is_stmt 1
  30:src/CCB.cpp   ****                 *((char*)CONSOLE_TX_DATA) = outputBuffer.popFront();
 343              		.loc 1 30 38 is_stmt 0
 344 01ec 17050000 		lla	a0,.LANCHOR0+32
GAS LISTING /tmp/cceJVQt5.s 			page 9


 344      13050500 
 345 01f4 97000000 		call	_ZN8IOBuffer9peekFrontEv
 345      E7800000 
 346              	.LVL26:
  30:src/CCB.cpp   ****                 *((char*)CONSOLE_TX_DATA) = outputBuffer.popFront();
 347              		.loc 1 30 13
 348 01fc E30805FC 		beqz	a0,.L28
  31:src/CCB.cpp   ****                 sem_wait(semOutput);
 349              		.loc 1 31 17 is_stmt 1
 350 0200 97070000 		la	a5,CONSOLE_TX_DATA
 350      83B70700 
 351 0208 83B40700 		ld	s1,0(a5)
  31:src/CCB.cpp   ****                 sem_wait(semOutput);
 352              		.loc 1 31 66 is_stmt 0
 353 020c 17050000 		lla	a0,.LANCHOR0+32
 353      13050500 
 354 0214 97000000 		call	_ZN8IOBuffer8popFrontEv
 354      E7800000 
 355              	.LVL27:
  31:src/CCB.cpp   ****                 sem_wait(semOutput);
 356              		.loc 1 31 43
 357 021c 2380A400 		sb	a0,0(s1)
  32:src/CCB.cpp   ****             }
 358              		.loc 1 32 17 is_stmt 1
  32:src/CCB.cpp   ****             }
 359              		.loc 1 32 25 is_stmt 0
 360 0220 17050000 		ld	a0,.LANCHOR0+48
 360      03350500 
 361 0228 97000000 		call	_Z8sem_waitP3SCB@plt
 361      E7800000 
 362              	.LVL28:
  29:src/CCB.cpp   ****             if(outputBuffer.peekFront() != 0) {
 363              		.loc 1 29 9
 364 0230 6FF05FFA 		j	.L27
 365              		.cfi_endproc
 366              	.LFE48:
 368              		.globl	_ZN3CCB12outputBufferE
 369              		.globl	_ZN3CCB11inputBufferE
 370              		.globl	_ZN3CCB16inputBufferEmptyE
 371              		.globl	_ZN3CCB9semOutputE
 372              		.globl	_ZN3CCB8semInputE
 373              		.globl	_ZN3CCB13outputProcessE
 374              		.globl	_ZN3CCB12inputProccesE
 375              		.bss
 376              		.align	3
 377              		.set	.LANCHOR0,. + 0
 380              	_ZN3CCB11inputBufferE:
 381 0000 00000000 		.zero	16
 381      00000000 
 381      00000000 
 381      00000000 
 384              	_ZN3CCB16inputBufferEmptyE:
 385 0010 00000000 		.zero	8
 385      00000000 
 388              	_ZN3CCB8semInputE:
 389 0018 00000000 		.zero	8
 389      00000000 
GAS LISTING /tmp/cceJVQt5.s 			page 10


 392              	_ZN3CCB12outputBufferE:
 393 0020 00000000 		.zero	16
 393      00000000 
 393      00000000 
 393      00000000 
 396              	_ZN3CCB9semOutputE:
 397 0030 00000000 		.zero	8
 397      00000000 
 400              	_ZN3CCB13outputProcessE:
 401 0038 00000000 		.zero	8
 401      00000000 
 404              	_ZN3CCB12inputProccesE:
 405 0040 00000000 		.zero	8
 405      00000000 
 406              		.text
 407              	.Letext0:
 408              		.file 2 "src/../h/CCB.h"
 409              		.file 3 "src/../h/SCB.h"
 410              		.file 4 "src/../h/PCB.h"
 411              		.file 5 "src/../h/hw.h"
 412              		.file 6 "src/../h/slab.h"
 413              		.file 7 "src/../h/MemoryAllocator.h"
 414              		.file 8 "src/../h/syscall_c.h"
GAS LISTING /tmp/cceJVQt5.s 			page 11


DEFINED SYMBOLS
                            *ABS*:0000000000000000 CCB.cpp
     /tmp/cceJVQt5.s:9      .text:0000000000000000 _ZN8IOBuffer8pushBackEc
     /tmp/cceJVQt5.s:13     .text:0000000000000000 .L0 
     /tmp/cceJVQt5.s:15     .text:0000000000000000 .L0 
     /tmp/cceJVQt5.s:16     .text:0000000000000004 .L0 
     /tmp/cceJVQt5.s:21     .text:0000000000000014 .L0 
     /tmp/cceJVQt5.s:22     .text:0000000000000014 .L0 
     /tmp/cceJVQt5.s:23     .text:0000000000000014 .L0 
     /tmp/cceJVQt5.s:24     .text:0000000000000014 .L0 
     /tmp/cceJVQt5.s:26     .text:0000000000000018 .L0 
     /tmp/cceJVQt5.s:30     .text:0000000000000020 .L0 
     /tmp/cceJVQt5.s:31     .text:0000000000000020 .L0 
     /tmp/cceJVQt5.s:36     .text:000000000000002c .L0 
     /tmp/cceJVQt5.s:37     .text:000000000000002c .L0 
     /tmp/cceJVQt5.s:39     .text:0000000000000030 .L0 
     /tmp/cceJVQt5.s:40     .text:0000000000000030 .L0 
     /tmp/cceJVQt5.s:42     .text:0000000000000034 .L0 
     /tmp/cceJVQt5.s:43     .text:0000000000000034 .L0 
     /tmp/cceJVQt5.s:45     .text:0000000000000038 .L0 
     /tmp/cceJVQt5.s:47     .text:000000000000003c .L0 
     /tmp/cceJVQt5.s:49     .text:0000000000000040 .L0 
     /tmp/cceJVQt5.s:51     .text:0000000000000044 .L0 
     /tmp/cceJVQt5.s:52     .text:0000000000000044 .L0 
     /tmp/cceJVQt5.s:54     .text:0000000000000048 .L0 
     /tmp/cceJVQt5.s:56     .text:000000000000004c .L0 
     /tmp/cceJVQt5.s:59     .text:0000000000000050 .L0 
     /tmp/cceJVQt5.s:60     .text:0000000000000054 .L0 
     /tmp/cceJVQt5.s:61     .text:0000000000000054 .L0 
     /tmp/cceJVQt5.s:63     .text:0000000000000058 .L0 
     /tmp/cceJVQt5.s:64     .text:0000000000000058 .L0 
     /tmp/cceJVQt5.s:66     .text:000000000000005c .L0 
     /tmp/cceJVQt5.s:69     .text:0000000000000060 .L0 
     /tmp/cceJVQt5.s:71     .text:0000000000000064 .L0 
     /tmp/cceJVQt5.s:75     .text:0000000000000068 .L0 
     /tmp/cceJVQt5.s:77     .text:0000000000000068 .L0 
     /tmp/cceJVQt5.s:78     .text:0000000000000068 .L0 
     /tmp/cceJVQt5.s:80     .text:000000000000006c .L0 
     /tmp/cceJVQt5.s:82     .text:0000000000000074 .L0 
     /tmp/cceJVQt5.s:88     .text:0000000000000074 _ZN3CCB9inputBodyEPv
     /tmp/cceJVQt5.s:91     .text:0000000000000074 .L0 
     /tmp/cceJVQt5.s:92     .text:0000000000000074 .L0 
     /tmp/cceJVQt5.s:93     .text:0000000000000078 .L0 
     /tmp/cceJVQt5.s:97     .text:0000000000000084 .L0 
     /tmp/cceJVQt5.s:98     .text:0000000000000084 .L0 
     /tmp/cceJVQt5.s:99     .text:0000000000000084 .L0 
     /tmp/cceJVQt5.s:101    .text:0000000000000088 .L0 
     /tmp/cceJVQt5.s:105    .text:000000000000008c .L0 
     /tmp/cceJVQt5.s:106    .text:000000000000008c .L0 
     /tmp/cceJVQt5.s:114    .text:00000000000000b0 .L0 
     /tmp/cceJVQt5.s:115    .text:00000000000000b0 .L0 
     /tmp/cceJVQt5.s:119    .text:00000000000000bc .L0 
     /tmp/cceJVQt5.s:120    .text:00000000000000bc .L0 
     /tmp/cceJVQt5.s:124    .text:00000000000000c8 .L0 
     /tmp/cceJVQt5.s:125    .text:00000000000000c8 .L0 
     /tmp/cceJVQt5.s:130    .text:00000000000000d4 .L0 
     /tmp/cceJVQt5.s:131    .text:00000000000000d4 .L0 
GAS LISTING /tmp/cceJVQt5.s 			page 12


     /tmp/cceJVQt5.s:132    .text:00000000000000d4 .L0 
     /tmp/cceJVQt5.s:133    .text:00000000000000d4 .L0 
     /tmp/cceJVQt5.s:137    .text:00000000000000e4 .L0 
     /tmp/cceJVQt5.s:140    .text:00000000000000ec .L0 
     /tmp/cceJVQt5.s:141    .text:00000000000000ec .L0 
     /tmp/cceJVQt5.s:144    .text:00000000000000f4 .L0 
     /tmp/cceJVQt5.s:145    .text:00000000000000f4 .L0 
     /tmp/cceJVQt5.s:146    .text:00000000000000f8 .L0 
     /tmp/cceJVQt5.s:152    .text:00000000000000f8 _ZN8IOBuffer8popFrontEv
     /tmp/cceJVQt5.s:155    .text:00000000000000f8 .L0 
     /tmp/cceJVQt5.s:157    .text:00000000000000f8 .L0 
     /tmp/cceJVQt5.s:158    .text:00000000000000fc .L0 
     /tmp/cceJVQt5.s:162    .text:0000000000000108 .L0 
     /tmp/cceJVQt5.s:163    .text:0000000000000108 .L0 
     /tmp/cceJVQt5.s:164    .text:0000000000000108 .L0 
     /tmp/cceJVQt5.s:166    .text:000000000000010c .L0 
     /tmp/cceJVQt5.s:169    .text:0000000000000110 .L0 
     /tmp/cceJVQt5.s:170    .text:0000000000000110 .L0 
     /tmp/cceJVQt5.s:173    .text:0000000000000114 .L0 
     /tmp/cceJVQt5.s:176    .text:0000000000000118 .L0 
     /tmp/cceJVQt5.s:177    .text:0000000000000118 .L0 
     /tmp/cceJVQt5.s:178    .text:0000000000000118 .L0 
     /tmp/cceJVQt5.s:180    .text:000000000000011c .L0 
     /tmp/cceJVQt5.s:182    .text:0000000000000120 .L0 
     /tmp/cceJVQt5.s:183    .text:0000000000000120 .L0 
     /tmp/cceJVQt5.s:185    .text:0000000000000124 .L0 
     /tmp/cceJVQt5.s:188    .text:0000000000000128 .L0 
     /tmp/cceJVQt5.s:189    .text:0000000000000128 .L0 
     /tmp/cceJVQt5.s:192    .text:000000000000012c .L0 
     /tmp/cceJVQt5.s:193    .text:000000000000012c .L0 
     /tmp/cceJVQt5.s:197    .text:0000000000000134 .L0 
     /tmp/cceJVQt5.s:198    .text:0000000000000134 .L0 
     /tmp/cceJVQt5.s:200    .text:000000000000013c .L0 
     /tmp/cceJVQt5.s:201    .text:000000000000013c .L0 
     /tmp/cceJVQt5.s:203    .text:0000000000000140 .L0 
     /tmp/cceJVQt5.s:204    .text:0000000000000140 .L0 
     /tmp/cceJVQt5.s:206    .text:0000000000000144 .L0 
     /tmp/cceJVQt5.s:208    .text:0000000000000148 .L0 
     /tmp/cceJVQt5.s:212    .text:000000000000014c .L0 
     /tmp/cceJVQt5.s:214    .text:000000000000014c .L0 
     /tmp/cceJVQt5.s:215    .text:000000000000014c .L0 
     /tmp/cceJVQt5.s:220    .text:0000000000000154 .L0 
     /tmp/cceJVQt5.s:222    .text:000000000000015c .L0 
     /tmp/cceJVQt5.s:228    .text:000000000000015c _ZN8IOBuffer8peekBackEv
     /tmp/cceJVQt5.s:231    .text:000000000000015c .L0 
     /tmp/cceJVQt5.s:233    .text:000000000000015c .L0 
     /tmp/cceJVQt5.s:234    .text:0000000000000160 .L0 
     /tmp/cceJVQt5.s:236    .text:0000000000000164 .L0 
     /tmp/cceJVQt5.s:238    .text:0000000000000168 .L0 
     /tmp/cceJVQt5.s:240    .text:0000000000000168 .L0 
     /tmp/cceJVQt5.s:241    .text:0000000000000168 .L0 
     /tmp/cceJVQt5.s:243    .text:000000000000016c .L0 
     /tmp/cceJVQt5.s:245    .text:0000000000000170 .L0 
     /tmp/cceJVQt5.s:249    .text:0000000000000174 .L0 
     /tmp/cceJVQt5.s:250    .text:0000000000000178 .L0 
     /tmp/cceJVQt5.s:251    .text:0000000000000178 .L0 
     /tmp/cceJVQt5.s:252    .text:0000000000000178 .L0 
GAS LISTING /tmp/cceJVQt5.s 			page 13


     /tmp/cceJVQt5.s:254    .text:000000000000017c .L0 
     /tmp/cceJVQt5.s:258    .text:0000000000000180 .L0 
     /tmp/cceJVQt5.s:260    .text:0000000000000180 .L0 
     /tmp/cceJVQt5.s:263    .text:0000000000000188 .L0 
     /tmp/cceJVQt5.s:269    .text:0000000000000188 _ZN8IOBuffer9peekFrontEv
     /tmp/cceJVQt5.s:272    .text:0000000000000188 .L0 
     /tmp/cceJVQt5.s:274    .text:0000000000000188 .L0 
     /tmp/cceJVQt5.s:275    .text:000000000000018c .L0 
     /tmp/cceJVQt5.s:277    .text:0000000000000190 .L0 
     /tmp/cceJVQt5.s:279    .text:0000000000000194 .L0 
     /tmp/cceJVQt5.s:281    .text:0000000000000194 .L0 
     /tmp/cceJVQt5.s:282    .text:0000000000000194 .L0 
     /tmp/cceJVQt5.s:284    .text:0000000000000198 .L0 
     /tmp/cceJVQt5.s:286    .text:000000000000019c .L0 
     /tmp/cceJVQt5.s:290    .text:00000000000001a0 .L0 
     /tmp/cceJVQt5.s:291    .text:00000000000001a4 .L0 
     /tmp/cceJVQt5.s:292    .text:00000000000001a4 .L0 
     /tmp/cceJVQt5.s:293    .text:00000000000001a4 .L0 
     /tmp/cceJVQt5.s:295    .text:00000000000001a8 .L0 
     /tmp/cceJVQt5.s:299    .text:00000000000001ac .L0 
     /tmp/cceJVQt5.s:301    .text:00000000000001ac .L0 
     /tmp/cceJVQt5.s:304    .text:00000000000001b4 .L0 
     /tmp/cceJVQt5.s:310    .text:00000000000001b4 _ZN3CCB10outputBodyEPv
     /tmp/cceJVQt5.s:313    .text:00000000000001b4 .L0 
     /tmp/cceJVQt5.s:314    .text:00000000000001b4 .L0 
     /tmp/cceJVQt5.s:315    .text:00000000000001b8 .L0 
     /tmp/cceJVQt5.s:319    .text:00000000000001c4 .L0 
     /tmp/cceJVQt5.s:320    .text:00000000000001c4 .L0 
     /tmp/cceJVQt5.s:321    .text:00000000000001c4 .L0 
     /tmp/cceJVQt5.s:323    .text:00000000000001c8 .L0 
     /tmp/cceJVQt5.s:327    .text:00000000000001cc .L0 
     /tmp/cceJVQt5.s:328    .text:00000000000001cc .L0 
     /tmp/cceJVQt5.s:332    .text:00000000000001d4 .L0 
     /tmp/cceJVQt5.s:333    .text:00000000000001d4 .L0 
     /tmp/cceJVQt5.s:334    .text:00000000000001d4 .L0 
     /tmp/cceJVQt5.s:335    .text:00000000000001d4 .L0 
     /tmp/cceJVQt5.s:336    .text:00000000000001d4 .L0 
     /tmp/cceJVQt5.s:340    .text:00000000000001e4 .L0 
     /tmp/cceJVQt5.s:343    .text:00000000000001ec .L0 
     /tmp/cceJVQt5.s:344    .text:00000000000001ec .L0 
     /tmp/cceJVQt5.s:348    .text:00000000000001fc .L0 
     /tmp/cceJVQt5.s:350    .text:0000000000000200 .L0 
     /tmp/cceJVQt5.s:353    .text:000000000000020c .L0 
     /tmp/cceJVQt5.s:357    .text:000000000000021c .L0 
     /tmp/cceJVQt5.s:359    .text:0000000000000220 .L0 
     /tmp/cceJVQt5.s:360    .text:0000000000000220 .L0 
     /tmp/cceJVQt5.s:364    .text:0000000000000230 .L0 
     /tmp/cceJVQt5.s:365    .text:0000000000000234 .L0 
     /tmp/cceJVQt5.s:392    .bss:0000000000000020 _ZN3CCB12outputBufferE
     /tmp/cceJVQt5.s:380    .bss:0000000000000000 _ZN3CCB11inputBufferE
     /tmp/cceJVQt5.s:384    .bss:0000000000000010 _ZN3CCB16inputBufferEmptyE
     /tmp/cceJVQt5.s:396    .bss:0000000000000030 _ZN3CCB9semOutputE
     /tmp/cceJVQt5.s:388    .bss:0000000000000018 _ZN3CCB8semInputE
     /tmp/cceJVQt5.s:400    .bss:0000000000000038 _ZN3CCB13outputProcessE
     /tmp/cceJVQt5.s:404    .bss:0000000000000040 _ZN3CCB12inputProccesE
     /tmp/cceJVQt5.s:377    .bss:0000000000000000 .LANCHOR0
     /tmp/cceJVQt5.s:415    .text:0000000000000234 .L0 
GAS LISTING /tmp/cceJVQt5.s 			page 14


     /tmp/cceJVQt5.s:106    .text:000000000000008c .L0 
     /tmp/cceJVQt5.s:108    .text:0000000000000098 .L0 
     /tmp/cceJVQt5.s:133    .text:00000000000000d4 .L0 
     /tmp/cceJVQt5.s:336    .text:00000000000001d4 .L0 
     /tmp/cceJVQt5.s:344    .text:00000000000001ec .L0 
     /tmp/cceJVQt5.s:350    .text:0000000000000200 .L0 
     /tmp/cceJVQt5.s:353    .text:000000000000020c .L0 
     /tmp/cceJVQt5.s:360    .text:0000000000000220 .L0 
     /tmp/cceJVQt5.s:74     .text:0000000000000068 .L5
     /tmp/cceJVQt5.s:57     .text:0000000000000050 .L1
     /tmp/cceJVQt5.s:128    .text:00000000000000d4 .L7
     /tmp/cceJVQt5.s:103    .text:000000000000008c .L11
     /tmp/cceJVQt5.s:218    .text:0000000000000154 .L15
     /tmp/cceJVQt5.s:211    .text:000000000000014c .L17
     /tmp/cceJVQt5.s:186    .text:0000000000000128 .L14
     /tmp/cceJVQt5.s:196    .text:0000000000000134 .L13
     /tmp/cceJVQt5.s:257    .text:0000000000000180 .L20
     /tmp/cceJVQt5.s:247    .text:0000000000000174 .L19
     /tmp/cceJVQt5.s:298    .text:00000000000001ac .L24
     /tmp/cceJVQt5.s:288    .text:00000000000001a0 .L23
     /tmp/cceJVQt5.s:331    .text:00000000000001d4 .L27
     /tmp/cceJVQt5.s:325    .text:00000000000001cc .L28
     /tmp/cceJVQt5.s:1906   .debug_abbrev:0000000000000000 .Ldebug_abbrev0
     /tmp/cceJVQt5.s:3257   .debug_str:000000000000097a .LASF181
     /tmp/cceJVQt5.s:3005   .debug_str:0000000000000165 .LASF182
     /tmp/cceJVQt5.s:3081   .debug_str:00000000000003e9 .LASF183
     /tmp/cceJVQt5.s:5      .text:0000000000000000 .Ltext0
     /tmp/cceJVQt5.s:407    .text:0000000000000234 .Letext0
     /tmp/cceJVQt5.s:2957   .debug_line:0000000000000000 .Ldebug_line0
     /tmp/cceJVQt5.s:2967   .debug_str:000000000000002a .LASF0
     /tmp/cceJVQt5.s:3217   .debug_str:000000000000088c .LASF1
     /tmp/cceJVQt5.s:3173   .debug_str:0000000000000705 .LASF2
     /tmp/cceJVQt5.s:3151   .debug_str:0000000000000671 .LASF3
     /tmp/cceJVQt5.s:3053   .debug_str:0000000000000307 .LASF4
     /tmp/cceJVQt5.s:3283   .debug_str:0000000000000b34 .LASF5
     /tmp/cceJVQt5.s:3233   .debug_str:00000000000008d7 .LASF6
     /tmp/cceJVQt5.s:3127   .debug_str:000000000000057c .LASF7
     /tmp/cceJVQt5.s:3157   .debug_str:000000000000068b .LASF9
     /tmp/cceJVQt5.s:3213   .debug_str:0000000000000876 .LASF8
     /tmp/cceJVQt5.s:2975   .debug_str:0000000000000069 .LASF10
     /tmp/cceJVQt5.s:2987   .debug_str:00000000000000f0 .LASF36
     /tmp/cceJVQt5.s:2995   .debug_str:0000000000000125 .LASF11
     /tmp/cceJVQt5.s:3065   .debug_str:0000000000000365 .LASF13
     /tmp/cceJVQt5.s:3025   .debug_str:000000000000020b .LASF12
     /tmp/cceJVQt5.s:3301   .debug_str:0000000000000bd5 .LASF14
     /tmp/cceJVQt5.s:3237   .debug_str:00000000000008f1 .LASF15
     /tmp/cceJVQt5.s:3107   .debug_str:00000000000004df .LASF17
     /tmp/cceJVQt5.s:2969   .debug_str:0000000000000033 .LASF16
     /tmp/cceJVQt5.s:3293   .debug_str:0000000000000b8a .LASF18
     /tmp/cceJVQt5.s:3327   .debug_str:0000000000000ca5 .LASF19
     /tmp/cceJVQt5.s:3249   .debug_str:000000000000092c .LASF20
     /tmp/cceJVQt5.s:2961   .debug_str:0000000000000007 .LASF21
     /tmp/cceJVQt5.s:3235   .debug_str:00000000000008e4 .LASF22
     /tmp/cceJVQt5.s:3227   .debug_str:00000000000008ba .LASF23
     /tmp/cceJVQt5.s:3315   .debug_str:0000000000000c48 .LASF24
     /tmp/cceJVQt5.s:3095   .debug_str:0000000000000455 .LASF25
     /tmp/cceJVQt5.s:3277   .debug_str:0000000000000af9 .LASF26
GAS LISTING /tmp/cceJVQt5.s 			page 15


     /tmp/cceJVQt5.s:3199   .debug_str:00000000000007db .LASF27
     /tmp/cceJVQt5.s:3029   .debug_str:0000000000000223 .LASF28
     /tmp/cceJVQt5.s:3043   .debug_str:00000000000002c1 .LASF29
     /tmp/cceJVQt5.s:3039   .debug_str:000000000000029c .LASF30
     /tmp/cceJVQt5.s:3137   .debug_str:00000000000005c4 .LASF31
     /tmp/cceJVQt5.s:3063   .debug_str:000000000000034e .LASF32
     /tmp/cceJVQt5.s:3225   .debug_str:00000000000008b1 .LASF33
     /tmp/cceJVQt5.s:3191   .debug_str:00000000000007a3 .LASF69
     /tmp/cceJVQt5.s:3009   .debug_str:000000000000017a .LASF71
     /tmp/cceJVQt5.s:3067   .debug_str:000000000000037d .LASF34
     /tmp/cceJVQt5.s:3017   .debug_str:00000000000001cc .LASF35
     /tmp/cceJVQt5.s:3179   .debug_str:0000000000000732 .LASF37
     /tmp/cceJVQt5.s:3085   .debug_str:0000000000000417 .LASF38
     /tmp/cceJVQt5.s:3171   .debug_str:00000000000006f5 .LASF39
     /tmp/cceJVQt5.s:2963   .debug_str:0000000000000017 .LASF40
     /tmp/cceJVQt5.s:3331   .debug_str:0000000000000cc1 .LASF41
     /tmp/cceJVQt5.s:3231   .debug_str:00000000000008d2 .LASF42
     /tmp/cceJVQt5.s:3153   .debug_str:000000000000067e .LASF43
     /tmp/cceJVQt5.s:3083   .debug_str:000000000000040e .LASF44
     /tmp/cceJVQt5.s:3243   .debug_str:0000000000000911 .LASF45
     /tmp/cceJVQt5.s:3303   .debug_str:0000000000000be4 .LASF46
     /tmp/cceJVQt5.s:3027   .debug_str:0000000000000210 .LASF47
     /tmp/cceJVQt5.s:3269   .debug_str:0000000000000a8c .LASF48
     /tmp/cceJVQt5.s:3241   .debug_str:0000000000000901 .LASF49
     /tmp/cceJVQt5.s:3101   .debug_str:000000000000048c .LASF50
     /tmp/cceJVQt5.s:3045   .debug_str:00000000000002ce .LASF51
     /tmp/cceJVQt5.s:3335   .debug_str:0000000000000cee .LASF52
     /tmp/cceJVQt5.s:3071   .debug_str:0000000000000393 .LASF53
     /tmp/cceJVQt5.s:3121   .debug_str:0000000000000548 .LASF54
     /tmp/cceJVQt5.s:3141   .debug_str:00000000000005de .LASF55
     /tmp/cceJVQt5.s:3333   .debug_str:0000000000000cd3 .LASF56
     /tmp/cceJVQt5.s:3247   .debug_str:0000000000000921 .LASF57
     /tmp/cceJVQt5.s:3319   .debug_str:0000000000000c71 .LASF58
     /tmp/cceJVQt5.s:3187   .debug_str:0000000000000767 .LASF59
     /tmp/cceJVQt5.s:3261   .debug_str:0000000000000a47 .LASF60
     /tmp/cceJVQt5.s:3021   .debug_str:00000000000001f5 .LASF61
     /tmp/cceJVQt5.s:3197   .debug_str:00000000000007c3 .LASF62
     /tmp/cceJVQt5.s:2989   .debug_str:00000000000000fc .LASF63
     /tmp/cceJVQt5.s:3073   .debug_str:00000000000003a1 .LASF64
     /tmp/cceJVQt5.s:3329   .debug_str:0000000000000cb2 .LASF65
     /tmp/cceJVQt5.s:2973   .debug_str:0000000000000049 .LASF66
     /tmp/cceJVQt5.s:3223   .debug_str:00000000000008a5 .LASF184
     /tmp/cceJVQt5.s:3287   .debug_str:0000000000000b51 .LASF67
     /tmp/cceJVQt5.s:2983   .debug_str:00000000000000b8 .LASF68
     /tmp/cceJVQt5.s:3119   .debug_str:0000000000000542 .LASF70
     /tmp/cceJVQt5.s:3123   .debug_str:0000000000000562 .LASF72
     /tmp/cceJVQt5.s:3255   .debug_str:0000000000000972 .LASF73
     /tmp/cceJVQt5.s:3115   .debug_str:000000000000052a .LASF74
     /tmp/cceJVQt5.s:3323   .debug_str:0000000000000c94 .LASF75
     /tmp/cceJVQt5.s:3041   .debug_str:00000000000002b5 .LASF76
     /tmp/cceJVQt5.s:3093   .debug_str:0000000000000448 .LASF77
     /tmp/cceJVQt5.s:3079   .debug_str:00000000000003de .LASF185
     /tmp/cceJVQt5.s:2985   .debug_str:00000000000000da .LASF186
     /tmp/cceJVQt5.s:3321   .debug_str:0000000000000c87 .LASF78
     /tmp/cceJVQt5.s:2991   .debug_str:0000000000000108 .LASF79
     /tmp/cceJVQt5.s:3185   .debug_str:000000000000075e .LASF80
     /tmp/cceJVQt5.s:3295   .debug_str:0000000000000ba4 .LASF81
GAS LISTING /tmp/cceJVQt5.s 			page 16


     /tmp/cceJVQt5.s:3033   .debug_str:0000000000000264 .LASF82
     /tmp/cceJVQt5.s:3019   .debug_str:00000000000001de .LASF83
     /tmp/cceJVQt5.s:3215   .debug_str:0000000000000881 .LASF84
     /tmp/cceJVQt5.s:3113   .debug_str:000000000000050d .LASF85
     /tmp/cceJVQt5.s:2965   .debug_str:000000000000001f .LASF86
     /tmp/cceJVQt5.s:3221   .debug_str:000000000000089f .LASF87
     /tmp/cceJVQt5.s:3299   .debug_str:0000000000000bcc .LASF88
     /tmp/cceJVQt5.s:3111   .debug_str:0000000000000503 .LASF89
     /tmp/cceJVQt5.s:3325   .debug_str:0000000000000ca0 .LASF90
     /tmp/cceJVQt5.s:3239   .debug_str:00000000000008f8 .LASF91
     /tmp/cceJVQt5.s:3155   .debug_str:0000000000000683 .LASF92
     /tmp/cceJVQt5.s:3129   .debug_str:0000000000000586 .LASF93
     /tmp/cceJVQt5.s:3307   .debug_str:0000000000000c09 .LASF94
     /tmp/cceJVQt5.s:3317   .debug_str:0000000000000c63 .LASF95
     /tmp/cceJVQt5.s:3265   .debug_str:0000000000000a78 .LASF96
     /tmp/cceJVQt5.s:3211   .debug_str:0000000000000865 .LASF155
     /tmp/cceJVQt5.s:3023   .debug_str:0000000000000202 .LASF102
     /tmp/cceJVQt5.s:2977   .debug_str:0000000000000080 .LASF104
     /tmp/cceJVQt5.s:3089   .debug_str:000000000000042a .LASF97
     /tmp/cceJVQt5.s:3291   .debug_str:0000000000000b6c .LASF98
     /tmp/cceJVQt5.s:3091   .debug_str:0000000000000439 .LASF99
     /tmp/cceJVQt5.s:3205   .debug_str:0000000000000808 .LASF100
     /tmp/cceJVQt5.s:3125   .debug_str:0000000000000572 .LASF101
     /tmp/cceJVQt5.s:3181   .debug_str:000000000000073e .LASF103
     /tmp/cceJVQt5.s:3309   .debug_str:0000000000000c16 .LASF105
     /tmp/cceJVQt5.s:3103   .debug_str:00000000000004a8 .LASF106
     /tmp/cceJVQt5.s:3281   .debug_str:0000000000000b2f .LASF139
     /tmp/cceJVQt5.s:3001   .debug_str:0000000000000150 .LASF107
     /tmp/cceJVQt5.s:2993   .debug_str:0000000000000120 .LASF108
     /tmp/cceJVQt5.s:3007   .debug_str:0000000000000171 .LASF109
     /tmp/cceJVQt5.s:3203   .debug_str:00000000000007f0 .LASF110
     /tmp/cceJVQt5.s:3175   .debug_str:0000000000000716 .LASF111
     /tmp/cceJVQt5.s:3263   .debug_str:0000000000000a60 .LASF112
     /tmp/cceJVQt5.s:3289   .debug_str:0000000000000b62 .LASF113
     /tmp/cceJVQt5.s:3015   .debug_str:00000000000001b3 .LASF114
     /tmp/cceJVQt5.s:3037   .debug_str:0000000000000293 .LASF115
     /tmp/cceJVQt5.s:3279   .debug_str:0000000000000b17 .LASF116
     /tmp/cceJVQt5.s:3245   .debug_str:000000000000091c .LASF117
     /tmp/cceJVQt5.s:3087   .debug_str:000000000000041d .LASF118
     /tmp/cceJVQt5.s:3117   .debug_str:000000000000052f .LASF119
     /tmp/cceJVQt5.s:3193   .debug_str:00000000000007b0 .LASF120
     /tmp/cceJVQt5.s:3201   .debug_str:00000000000007e9 .LASF122
     /tmp/cceJVQt5.s:3099   .debug_str:000000000000047a .LASF121
     /tmp/cceJVQt5.s:2971   .debug_str:0000000000000042 .LASF123
     /tmp/cceJVQt5.s:3169   .debug_str:00000000000006ee .LASF124
     /tmp/cceJVQt5.s:3163   .debug_str:00000000000006bd .LASF125
     /tmp/cceJVQt5.s:3109   .debug_str:00000000000004f0 .LASF126
     /tmp/cceJVQt5.s:3061   .debug_str:000000000000033e .LASF127
     /tmp/cceJVQt5.s:3069   .debug_str:0000000000000385 .LASF128
     /tmp/cceJVQt5.s:2999   .debug_str:0000000000000141 .LASF129
     /tmp/cceJVQt5.s:3051   .debug_str:00000000000002f8 .LASF130
     /tmp/cceJVQt5.s:3003   .debug_str:0000000000000155 .LASF131
     /tmp/cceJVQt5.s:2997   .debug_str:0000000000000131 .LASF132
     /tmp/cceJVQt5.s:2981   .debug_str:00000000000000ac .LASF133
     /tmp/cceJVQt5.s:3035   .debug_str:000000000000027d .LASF134
     /tmp/cceJVQt5.s:3145   .debug_str:000000000000060d .LASF135
     /tmp/cceJVQt5.s:3049   .debug_str:00000000000002eb .LASF136
GAS LISTING /tmp/cceJVQt5.s 			page 17


     /tmp/cceJVQt5.s:3047   .debug_str:00000000000002de .LASF187
     /tmp/cceJVQt5.s:3133   .debug_str:00000000000005b6 .LASF137
     /tmp/cceJVQt5.s:3161   .debug_str:00000000000006ad .LASF138
     /tmp/cceJVQt5.s:3059   .debug_str:0000000000000332 .LASF140
     /tmp/cceJVQt5.s:3259   .debug_str:0000000000000a3e .LASF141
     /tmp/cceJVQt5.s:3313   .debug_str:0000000000000c43 .LASF142
     /tmp/cceJVQt5.s:2959   .debug_str:0000000000000000 .LASF143
     /tmp/cceJVQt5.s:3189   .debug_str:0000000000000775 .LASF144
     /tmp/cceJVQt5.s:3105   .debug_str:00000000000004b1 .LASF188
     /tmp/cceJVQt5.s:3267   .debug_str:0000000000000a82 .LASF145
     /tmp/cceJVQt5.s:3271   .debug_str:0000000000000aab .LASF146
     /tmp/cceJVQt5.s:3135   .debug_str:00000000000005bb .LASF147
     /tmp/cceJVQt5.s:3143   .debug_str:00000000000005ec .LASF148
     /tmp/cceJVQt5.s:3013   .debug_str:00000000000001a6 .LASF149
     /tmp/cceJVQt5.s:3149   .debug_str:000000000000064c .LASF150
     /tmp/cceJVQt5.s:3159   .debug_str:00000000000006a0 .LASF151
     /tmp/cceJVQt5.s:3131   .debug_str:0000000000000591 .LASF152
     /tmp/cceJVQt5.s:2979   .debug_str:0000000000000093 .LASF153
     /tmp/cceJVQt5.s:3305   .debug_str:0000000000000bfb .LASF154
     /tmp/cceJVQt5.s:3251   .debug_str:0000000000000938 .LASF156
     /tmp/cceJVQt5.s:3147   .debug_str:0000000000000623 .LASF157
     /tmp/cceJVQt5.s:3139   .debug_str:00000000000005cf .LASF158
     /tmp/cceJVQt5.s:3207   .debug_str:0000000000000826 .LASF159
     /tmp/cceJVQt5.s:3097   .debug_str:0000000000000468 .LASF160
     /tmp/cceJVQt5.s:3253   .debug_str:0000000000000948 .LASF161
     /tmp/cceJVQt5.s:3165   .debug_str:00000000000006d0 .LASF162
     /tmp/cceJVQt5.s:3031   .debug_str:000000000000023c .LASF163
     /tmp/cceJVQt5.s:3209   .debug_str:000000000000084e .LASF164
     /tmp/cceJVQt5.s:3057   .debug_str:000000000000031a .LASF165
     /tmp/cceJVQt5.s:3311   .debug_str:0000000000000c31 .LASF166
     /tmp/cceJVQt5.s:3177   .debug_str:000000000000071f .LASF167
     /tmp/cceJVQt5.s:3077   .debug_str:00000000000003c3 .LASF168
     /tmp/cceJVQt5.s:3275   .debug_str:0000000000000ae3 .LASF169
     /tmp/cceJVQt5.s:3273   .debug_str:0000000000000acc .LASF170
     /tmp/cceJVQt5.s:270    .text:0000000000000188 .LFB52
     /tmp/cceJVQt5.s:305    .text:00000000000001b4 .LFE52
     /tmp/cceJVQt5.s:3055   .debug_str:0000000000000315 .LASF171
     /tmp/cceJVQt5.s:2818   .debug_loc:0000000000000000 .LLST6
     /tmp/cceJVQt5.s:229    .text:000000000000015c .LFB51
     /tmp/cceJVQt5.s:264    .text:0000000000000188 .LFE51
     /tmp/cceJVQt5.s:2843   .debug_loc:0000000000000062 .LLST5
     /tmp/cceJVQt5.s:153    .text:00000000000000f8 .LFB50
     /tmp/cceJVQt5.s:223    .text:000000000000015c .LFE50
     /tmp/cceJVQt5.s:2868   .debug_loc:00000000000000c4 .LLST2
     /tmp/cceJVQt5.s:3195   .debug_str:00000000000007be .LASF172
     /tmp/cceJVQt5.s:2890   .debug_loc:0000000000000123 .LLST3
     /tmp/cceJVQt5.s:2901   .debug_loc:0000000000000159 .LLST4
     /tmp/cceJVQt5.s:194    .text:0000000000000134 .LVL14
     /tmp/cceJVQt5.s:10     .text:0000000000000000 .LFB49
     /tmp/cceJVQt5.s:83     .text:0000000000000074 .LFE49
     /tmp/cceJVQt5.s:2908   .debug_loc:000000000000017c .LLST0
     /tmp/cceJVQt5.s:2930   .debug_loc:00000000000001db .LLST1
     /tmp/cceJVQt5.s:3229   .debug_str:00000000000008ca .LASF173
     /tmp/cceJVQt5.s:34     .text:000000000000002c .LVL2
     /tmp/cceJVQt5.s:311    .text:00000000000001b4 .LFB48
     /tmp/cceJVQt5.s:366    .text:0000000000000234 .LFE48
     /tmp/cceJVQt5.s:329    .text:00000000000001d4 .LVL25
GAS LISTING /tmp/cceJVQt5.s 			page 18


     /tmp/cceJVQt5.s:346    .text:00000000000001fc .LVL26
     /tmp/cceJVQt5.s:355    .text:000000000000021c .LVL27
     /tmp/cceJVQt5.s:362    .text:0000000000000230 .LVL28
     /tmp/cceJVQt5.s:89     .text:0000000000000074 .LFB47
     /tmp/cceJVQt5.s:147    .text:00000000000000f8 .LFE47
     /tmp/cceJVQt5.s:112    .text:00000000000000b0 .LVL5
     /tmp/cceJVQt5.s:117    .text:00000000000000bc .LVL6
     /tmp/cceJVQt5.s:122    .text:00000000000000c8 .LVL7
     /tmp/cceJVQt5.s:127    .text:00000000000000d4 .LVL8
     /tmp/cceJVQt5.s:142    .text:00000000000000f4 .LVL9
     /tmp/cceJVQt5.s:3297   .debug_str:0000000000000bb7 .LASF174
     /tmp/cceJVQt5.s:3183   .debug_str:000000000000074e .LASF176
     /tmp/cceJVQt5.s:3285   .debug_str:0000000000000b40 .LASF175
     /tmp/cceJVQt5.s:3219   .debug_str:0000000000000896 .LASF177
     /tmp/cceJVQt5.s:3011   .debug_str:0000000000000192 .LASF178
     /tmp/cceJVQt5.s:3075   .debug_str:00000000000003b8 .LASF179
     /tmp/cceJVQt5.s:3167   .debug_str:00000000000006e0 .LASF180
     /tmp/cceJVQt5.s:273    .text:0000000000000188 .LVL21
     /tmp/cceJVQt5.s:287    .text:00000000000001a0 .LVL22
     /tmp/cceJVQt5.s:297    .text:00000000000001ac .LVL23
     /tmp/cceJVQt5.s:302    .text:00000000000001b0 .LVL24
     /tmp/cceJVQt5.s:232    .text:000000000000015c .LVL17
     /tmp/cceJVQt5.s:246    .text:0000000000000174 .LVL18
     /tmp/cceJVQt5.s:256    .text:0000000000000180 .LVL19
     /tmp/cceJVQt5.s:261    .text:0000000000000184 .LVL20
     /tmp/cceJVQt5.s:156    .text:00000000000000f8 .LVL10
     /tmp/cceJVQt5.s:171    .text:0000000000000114 .LVL11
     /tmp/cceJVQt5.s:210    .text:000000000000014c .LVL15
     /tmp/cceJVQt5.s:175    .text:0000000000000118 .LVL12
     /tmp/cceJVQt5.s:217    .text:0000000000000154 .LVL16
     /tmp/cceJVQt5.s:190    .text:000000000000012c .LVL13
     /tmp/cceJVQt5.s:14     .text:0000000000000000 .LVL0
     /tmp/cceJVQt5.s:32     .text:0000000000000024 .LVL1
     /tmp/cceJVQt5.s:67     .text:000000000000005c .LVL3
     /tmp/cceJVQt5.s:73     .text:0000000000000068 .LVL4
     /tmp/cceJVQt5.s:416    .debug_info:0000000000000000 .Ldebug_info0

UNDEFINED SYMBOLS
_ZN15MemoryAllocator9mem_allocEm
CONSOLE_RX_DATA
_Z10sem_signalP3SCB
plic_complete
_Z8sem_waitP3SCB
CONSOLE_STATUS
_Z15thread_dispatchv
_ZN15MemoryAllocator8mem_freeEPv
CONSOLE_TX_DATA
