GAS LISTING /tmp/cclVbF0i.s 			page 1


   1              		.file	"CCB.cpp"
   2              		.option pic
   3              		.option norelax
   4              		.text
   5              	.Ltext0:
   6              		.align	2
   7              		.globl	_ZN8IOBuffer8pushBackEc
   9              	_ZN8IOBuffer8pushBackEc:
  10              	.LFB48:
  11              		.file 1 "src/CCB.cpp"
   1:src/CCB.cpp   **** #include "../h/CCB.h"
   2:src/CCB.cpp   **** #include "../h/PCB.h"
   3:src/CCB.cpp   **** #include "../h/SCB.h"
   4:src/CCB.cpp   **** #include "../h/MemoryAllocator.h"
   5:src/CCB.cpp   **** #include "../h/syscall_c.h"
   6:src/CCB.cpp   **** #include "../h/kernel.h"
   7:src/CCB.cpp   **** PCB* CCB::inputProcces = nullptr;
   8:src/CCB.cpp   **** PCB* CCB::outputProcess = nullptr;
   9:src/CCB.cpp   **** SCB* CCB::semInput = nullptr;
  10:src/CCB.cpp   **** SCB* CCB::semOutput = nullptr;
  11:src/CCB.cpp   **** SCB* CCB::inputBufferEmpty = nullptr;
  12:src/CCB.cpp   **** IOBuffer CCB::inputBuffer;
  13:src/CCB.cpp   **** IOBuffer CCB::outputBuffer;
  14:src/CCB.cpp   **** 
  15:src/CCB.cpp   **** void CCB::inputBody(void *) {
  16:src/CCB.cpp   ****     while(true) {
  17:src/CCB.cpp   ****         while(*(char*)CONSOLE_STATUS & CONSOLE_RX_STATUS_BIT) {
  18:src/CCB.cpp   ****             inputBuffer.pushBack(*(char*)CONSOLE_RX_DATA);
  19:src/CCB.cpp   ****             sem_signal(CCB::inputBufferEmpty);
  20:src/CCB.cpp   ****             plic_complete(CONSOLE_IRQ);
  21:src/CCB.cpp   ****             sem_wait(semInput);
  22:src/CCB.cpp   ****         }
  23:src/CCB.cpp   ****         thread_dispatch();
  24:src/CCB.cpp   ****     }
  25:src/CCB.cpp   **** }
  26:src/CCB.cpp   **** 
  27:src/CCB.cpp   **** void CCB::outputBody(void *) {
  28:src/CCB.cpp   ****     while(true) {
  29:src/CCB.cpp   ****         while(*(char*)CONSOLE_STATUS & CONSOLE_TX_STATUS_BIT) {
  30:src/CCB.cpp   ****             if(outputBuffer.peekFront() != 0) {
  31:src/CCB.cpp   ****                 *((char*)CONSOLE_TX_DATA) = outputBuffer.popFront();
  32:src/CCB.cpp   ****                 sem_wait(semOutput);
  33:src/CCB.cpp   ****             }
  34:src/CCB.cpp   ****             else {
  35:src/CCB.cpp   ****                 break;
  36:src/CCB.cpp   ****             }
  37:src/CCB.cpp   ****         }
  38:src/CCB.cpp   ****         thread_dispatch();
  39:src/CCB.cpp   ****     }
  40:src/CCB.cpp   **** }
  41:src/CCB.cpp   **** 
  42:src/CCB.cpp   **** 
  43:src/CCB.cpp   **** void IOBuffer::pushBack(char c) {
  12              		.loc 1 43 33
  13              		.cfi_startproc
  14              	.LVL0:
  15 0000 130101FE 		addi	sp,sp,-32
GAS LISTING /tmp/cclVbF0i.s 			page 2


  16              		.cfi_def_cfa_offset 32
  17 0004 233C1100 		sd	ra,24(sp)
  18 0008 23388100 		sd	s0,16(sp)
  19 000c 23349100 		sd	s1,8(sp)
  20 0010 23302101 		sd	s2,0(sp)
  21              		.cfi_offset 1, -8
  22              		.cfi_offset 8, -16
  23              		.cfi_offset 9, -24
  24              		.cfi_offset 18, -32
  25 0014 13040102 		addi	s0,sp,32
  26              		.cfi_def_cfa 8, 0
  27 0018 93040500 		mv	s1,a0
  28 001c 13890500 		mv	s2,a1
  44:src/CCB.cpp   ****     Elem *newElem = (Elem*)MemoryAllocator::mem_alloc(sizeof(Elem));
  29              		.loc 1 44 5
  30              		.loc 1 44 54 is_stmt 0
  31 0020 13050001 		li	a0,16
  32              	.LVL1:
  33 0024 97000000 		call	_ZN15MemoryAllocator9mem_allocEm@plt
  33      E7800000 
  34              	.LVL2:
  45:src/CCB.cpp   ****     newElem->next = nullptr;
  35              		.loc 1 45 5 is_stmt 1
  36              		.loc 1 45 19 is_stmt 0
  37 002c 23300500 		sd	zero,0(a0)
  46:src/CCB.cpp   ****     newElem->data = c;
  38              		.loc 1 46 5 is_stmt 1
  39              		.loc 1 46 19 is_stmt 0
  40 0030 23042501 		sb	s2,8(a0)
  47:src/CCB.cpp   ****     if(!head) {
  41              		.loc 1 47 5 is_stmt 1
  42              		.loc 1 47 9 is_stmt 0
  43 0034 83B70400 		ld	a5,0(s1)
  44              		.loc 1 47 5
  45 0038 63880702 		beqz	a5,.L5
  48:src/CCB.cpp   ****         head = tail = newElem;
  49:src/CCB.cpp   ****     }
  50:src/CCB.cpp   ****     else {
  51:src/CCB.cpp   ****         tail->next = newElem;
  46              		.loc 1 51 9 is_stmt 1
  47 003c 83B78400 		ld	a5,8(s1)
  48              		.loc 1 51 20 is_stmt 0
  49 0040 23B0A700 		sd	a0,0(a5)
  52:src/CCB.cpp   ****         tail = tail->next;
  50              		.loc 1 52 9 is_stmt 1
  51              		.loc 1 52 16 is_stmt 0
  52 0044 83B78400 		ld	a5,8(s1)
  53              		.loc 1 52 22
  54 0048 83B70700 		ld	a5,0(a5)
  55              		.loc 1 52 14
  56 004c 23B4F400 		sd	a5,8(s1)
  57              	.L1:
  53:src/CCB.cpp   ****     }
  54:src/CCB.cpp   **** }
  58              		.loc 1 54 1
  59 0050 83308101 		ld	ra,24(sp)
  60              		.cfi_remember_state
GAS LISTING /tmp/cclVbF0i.s 			page 3


  61              		.cfi_restore 1
  62 0054 03340101 		ld	s0,16(sp)
  63              		.cfi_restore 8
  64              		.cfi_def_cfa 2, 32
  65 0058 83348100 		ld	s1,8(sp)
  66              		.cfi_restore 9
  67              	.LVL3:
  68 005c 03390100 		ld	s2,0(sp)
  69              		.cfi_restore 18
  70 0060 13010102 		addi	sp,sp,32
  71              		.cfi_def_cfa_offset 0
  72 0064 67800000 		jr	ra
  73              	.LVL4:
  74              	.L5:
  75              		.cfi_restore_state
  48:src/CCB.cpp   ****     }
  76              		.loc 1 48 9 is_stmt 1
  48:src/CCB.cpp   ****     }
  77              		.loc 1 48 21 is_stmt 0
  78 0068 23B4A400 		sd	a0,8(s1)
  48:src/CCB.cpp   ****     }
  79              		.loc 1 48 14
  80 006c 23B0A400 		sd	a0,0(s1)
  81 0070 6FF01FFE 		j	.L1
  82              		.cfi_endproc
  83              	.LFE48:
  85              		.align	2
  86              		.globl	_ZN3CCB9inputBodyEPv
  88              	_ZN3CCB9inputBodyEPv:
  89              	.LFB46:
  15:src/CCB.cpp   ****     while(true) {
  90              		.loc 1 15 29 is_stmt 1
  91              		.cfi_startproc
  92 0074 130101FE 		addi	sp,sp,-32
  93              		.cfi_def_cfa_offset 32
  94 0078 233C1100 		sd	ra,24(sp)
  95 007c 23388100 		sd	s0,16(sp)
  96 0080 23349100 		sd	s1,8(sp)
  97              		.cfi_offset 1, -8
  98              		.cfi_offset 8, -16
  99              		.cfi_offset 9, -24
 100 0084 13040102 		addi	s0,sp,32
 101              		.cfi_def_cfa 8, 0
 102 0088 6F00C004 		j	.L7
 103              	.L11:
  18:src/CCB.cpp   ****             sem_signal(CCB::inputBufferEmpty);
 104              		.loc 1 18 13
  18:src/CCB.cpp   ****             sem_signal(CCB::inputBufferEmpty);
 105              		.loc 1 18 33 is_stmt 0
 106 008c 97070000 		la	a5,CONSOLE_RX_DATA
 106      83B70700 
 107 0094 83B70700 		ld	a5,0(a5)
 108 0098 97040000 		lla	s1,.LANCHOR0
 108      93840400 
 109 00a0 83C50700 		lbu	a1,0(a5)
 110 00a4 13850400 		mv	a0,s1
 111 00a8 97000000 		call	_ZN8IOBuffer8pushBackEc
GAS LISTING /tmp/cclVbF0i.s 			page 4


 111      E7800000 
 112              	.LVL5:
  19:src/CCB.cpp   ****             plic_complete(CONSOLE_IRQ);
 113              		.loc 1 19 13 is_stmt 1
  19:src/CCB.cpp   ****             plic_complete(CONSOLE_IRQ);
 114              		.loc 1 19 23 is_stmt 0
 115 00b0 03B50401 		ld	a0,16(s1)
 116 00b4 97000000 		call	_Z10sem_signalP3SCB@plt
 116      E7800000 
 117              	.LVL6:
  20:src/CCB.cpp   ****             sem_wait(semInput);
 118              		.loc 1 20 13 is_stmt 1
  20:src/CCB.cpp   ****             sem_wait(semInput);
 119              		.loc 1 20 26 is_stmt 0
 120 00bc 1305A000 		li	a0,10
 121 00c0 97000000 		call	plic_complete@plt
 121      E7800000 
 122              	.LVL7:
  21:src/CCB.cpp   ****         }
 123              		.loc 1 21 13 is_stmt 1
  21:src/CCB.cpp   ****         }
 124              		.loc 1 21 21 is_stmt 0
 125 00c8 03B58401 		ld	a0,24(s1)
 126 00cc 97000000 		call	_Z8sem_waitP3SCB@plt
 126      E7800000 
 127              	.LVL8:
 128              	.L7:
  16:src/CCB.cpp   ****         while(*(char*)CONSOLE_STATUS & CONSOLE_RX_STATUS_BIT) {
 129              		.loc 1 16 5 is_stmt 1
  17:src/CCB.cpp   ****             inputBuffer.pushBack(*(char*)CONSOLE_RX_DATA);
 130              		.loc 1 17 9
  17:src/CCB.cpp   ****             inputBuffer.pushBack(*(char*)CONSOLE_RX_DATA);
 131              		.loc 1 17 40
  17:src/CCB.cpp   ****             inputBuffer.pushBack(*(char*)CONSOLE_RX_DATA);
 132              		.loc 1 17 15 is_stmt 0
 133 00d4 97070000 		la	a5,CONSOLE_STATUS
 133      83B70700 
 134 00dc 83B70700 		ld	a5,0(a5)
 135 00e0 83C70700 		lbu	a5,0(a5)
  17:src/CCB.cpp   ****             inputBuffer.pushBack(*(char*)CONSOLE_RX_DATA);
 136              		.loc 1 17 40
 137 00e4 93F71700 		andi	a5,a5,1
 138 00e8 E39207FA 		bnez	a5,.L11
  23:src/CCB.cpp   ****     }
 139              		.loc 1 23 9 is_stmt 1
  23:src/CCB.cpp   ****     }
 140              		.loc 1 23 24 is_stmt 0
 141 00ec 97000000 		call	_Z15thread_dispatchv@plt
 141      E7800000 
 142              	.LVL9:
  16:src/CCB.cpp   ****         while(*(char*)CONSOLE_STATUS & CONSOLE_RX_STATUS_BIT) {
 143              		.loc 1 16 5 is_stmt 1
  17:src/CCB.cpp   ****             inputBuffer.pushBack(*(char*)CONSOLE_RX_DATA);
 144              		.loc 1 17 9 is_stmt 0
 145 00f4 6FF01FFE 		j	.L7
 146              		.cfi_endproc
 147              	.LFE46:
GAS LISTING /tmp/cclVbF0i.s 			page 5


 149              		.align	2
 150              		.globl	_ZN8IOBuffer8popFrontEv
 152              	_ZN8IOBuffer8popFrontEv:
 153              	.LFB49:
  55:src/CCB.cpp   **** 
  56:src/CCB.cpp   **** char IOBuffer::popFront() {
 154              		.loc 1 56 27 is_stmt 1
 155              		.cfi_startproc
 156              	.LVL10:
 157 00f8 130101FE 		addi	sp,sp,-32
 158              		.cfi_def_cfa_offset 32
 159 00fc 233C1100 		sd	ra,24(sp)
 160 0100 23388100 		sd	s0,16(sp)
 161 0104 23349100 		sd	s1,8(sp)
 162              		.cfi_offset 1, -8
 163              		.cfi_offset 8, -16
 164              		.cfi_offset 9, -24
 165 0108 13040102 		addi	s0,sp,32
 166              		.cfi_def_cfa 8, 0
 167 010c 93070500 		mv	a5,a0
  57:src/CCB.cpp   ****     if(!head) return 0;
 168              		.loc 1 57 5
 169              		.loc 1 57 9 is_stmt 0
 170 0110 03350500 		ld	a0,0(a0)
 171              	.LVL11:
 172              		.loc 1 57 5
 173 0114 63000504 		beqz	a0,.L15
  58:src/CCB.cpp   **** 
  59:src/CCB.cpp   ****     Elem* curr = head;
 174              		.loc 1 59 5 is_stmt 1
 175              	.LVL12:
  60:src/CCB.cpp   ****     head = head->next;
 176              		.loc 1 60 5
 177              		.loc 1 60 18 is_stmt 0
 178 0118 03370500 		ld	a4,0(a0)
 179              		.loc 1 60 10
 180 011c 23B0E700 		sd	a4,0(a5)
  61:src/CCB.cpp   ****     if(tail == curr) tail = nullptr;
 181              		.loc 1 61 5 is_stmt 1
 182              		.loc 1 61 8 is_stmt 0
 183 0120 03B78700 		ld	a4,8(a5)
 184              		.loc 1 61 5
 185 0124 6304E502 		beq	a0,a4,.L17
 186              	.L14:
  62:src/CCB.cpp   **** 
  63:src/CCB.cpp   ****     char c = curr->data;
 187              		.loc 1 63 5 is_stmt 1
 188              		.loc 1 63 10 is_stmt 0
 189 0128 83448500 		lbu	s1,8(a0)
 190              	.LVL13:
  64:src/CCB.cpp   ****     MemoryAllocator::mem_free(curr);
 191              		.loc 1 64 5 is_stmt 1
 192              		.loc 1 64 30 is_stmt 0
 193 012c 97000000 		call	_ZN15MemoryAllocator8mem_freeEPv@plt
 193      E7800000 
 194              	.LVL14:
  65:src/CCB.cpp   ****     return c;
GAS LISTING /tmp/cclVbF0i.s 			page 6


 195              		.loc 1 65 5 is_stmt 1
 196              	.L13:
  66:src/CCB.cpp   **** }
 197              		.loc 1 66 1 is_stmt 0
 198 0134 13850400 		mv	a0,s1
 199 0138 83308101 		ld	ra,24(sp)
 200              		.cfi_remember_state
 201              		.cfi_restore 1
 202 013c 03340101 		ld	s0,16(sp)
 203              		.cfi_restore 8
 204              		.cfi_def_cfa 2, 32
 205 0140 83348100 		ld	s1,8(sp)
 206              		.cfi_restore 9
 207 0144 13010102 		addi	sp,sp,32
 208              		.cfi_def_cfa_offset 0
 209 0148 67800000 		jr	ra
 210              	.LVL15:
 211              	.L17:
 212              		.cfi_restore_state
  61:src/CCB.cpp   **** 
 213              		.loc 1 61 22 is_stmt 1 discriminator 1
  61:src/CCB.cpp   **** 
 214              		.loc 1 61 27 is_stmt 0 discriminator 1
 215 014c 23B40700 		sd	zero,8(a5)
 216 0150 6FF09FFD 		j	.L14
 217              	.LVL16:
 218              	.L15:
  57:src/CCB.cpp   **** 
 219              		.loc 1 57 22
 220 0154 93040000 		li	s1,0
 221 0158 6FF0DFFD 		j	.L13
 222              		.cfi_endproc
 223              	.LFE49:
 225              		.align	2
 226              		.globl	_ZN8IOBuffer8peekBackEv
 228              	_ZN8IOBuffer8peekBackEv:
 229              	.LFB50:
  67:src/CCB.cpp   **** 
  68:src/CCB.cpp   **** char IOBuffer::peekBack() {
 230              		.loc 1 68 27 is_stmt 1
 231              		.cfi_startproc
 232              	.LVL17:
 233 015c 130101FF 		addi	sp,sp,-16
 234              		.cfi_def_cfa_offset 16
 235 0160 23348100 		sd	s0,8(sp)
 236              		.cfi_offset 8, -8
 237 0164 13040101 		addi	s0,sp,16
 238              		.cfi_def_cfa 8, 0
  69:src/CCB.cpp   ****     return tail ? tail->data : 0;
 239              		.loc 1 69 5
 240              		.loc 1 69 12 is_stmt 0
 241 0168 83378500 		ld	a5,8(a0)
 242              		.loc 1 69 32
 243 016c 638A0700 		beqz	a5,.L20
 244              		.loc 1 69 32 discriminator 1
 245 0170 03C58700 		lbu	a0,8(a5)
 246              	.LVL18:
GAS LISTING /tmp/cclVbF0i.s 			page 7


 247              	.L19:
  70:src/CCB.cpp   **** }
 248              		.loc 1 70 1 discriminator 4
 249 0174 03348100 		ld	s0,8(sp)
 250              		.cfi_remember_state
 251              		.cfi_restore 8
 252              		.cfi_def_cfa 2, 16
 253 0178 13010101 		addi	sp,sp,16
 254              		.cfi_def_cfa_offset 0
 255 017c 67800000 		jr	ra
 256              	.LVL19:
 257              	.L20:
 258              		.cfi_restore_state
  69:src/CCB.cpp   ****     return tail ? tail->data : 0;
 259              		.loc 1 69 32
 260 0180 13050000 		li	a0,0
 261              	.LVL20:
 262 0184 6FF01FFF 		j	.L19
 263              		.cfi_endproc
 264              	.LFE50:
 266              		.align	2
 267              		.globl	_ZN8IOBuffer9peekFrontEv
 269              	_ZN8IOBuffer9peekFrontEv:
 270              	.LFB51:
  71:src/CCB.cpp   **** 
  72:src/CCB.cpp   **** char IOBuffer::peekFront() {
 271              		.loc 1 72 28 is_stmt 1
 272              		.cfi_startproc
 273              	.LVL21:
 274 0188 130101FF 		addi	sp,sp,-16
 275              		.cfi_def_cfa_offset 16
 276 018c 23348100 		sd	s0,8(sp)
 277              		.cfi_offset 8, -8
 278 0190 13040101 		addi	s0,sp,16
 279              		.cfi_def_cfa 8, 0
  73:src/CCB.cpp   ****     return head ? head->data : 0;
 280              		.loc 1 73 5
 281              		.loc 1 73 12 is_stmt 0
 282 0194 83370500 		ld	a5,0(a0)
 283              		.loc 1 73 32
 284 0198 638A0700 		beqz	a5,.L24
 285              		.loc 1 73 32 discriminator 1
 286 019c 03C58700 		lbu	a0,8(a5)
 287              	.LVL22:
 288              	.L23:
  74:src/CCB.cpp   **** }
 289              		.loc 1 74 1 discriminator 4
 290 01a0 03348100 		ld	s0,8(sp)
 291              		.cfi_remember_state
 292              		.cfi_restore 8
 293              		.cfi_def_cfa 2, 16
 294 01a4 13010101 		addi	sp,sp,16
 295              		.cfi_def_cfa_offset 0
 296 01a8 67800000 		jr	ra
 297              	.LVL23:
 298              	.L24:
 299              		.cfi_restore_state
GAS LISTING /tmp/cclVbF0i.s 			page 8


  73:src/CCB.cpp   ****     return head ? head->data : 0;
 300              		.loc 1 73 32
 301 01ac 13050000 		li	a0,0
 302              	.LVL24:
 303 01b0 6FF01FFF 		j	.L23
 304              		.cfi_endproc
 305              	.LFE51:
 307              		.align	2
 308              		.globl	_ZN3CCB10outputBodyEPv
 310              	_ZN3CCB10outputBodyEPv:
 311              	.LFB47:
  27:src/CCB.cpp   ****     while(true) {
 312              		.loc 1 27 30 is_stmt 1
 313              		.cfi_startproc
 314 01b4 130101FE 		addi	sp,sp,-32
 315              		.cfi_def_cfa_offset 32
 316 01b8 233C1100 		sd	ra,24(sp)
 317 01bc 23388100 		sd	s0,16(sp)
 318 01c0 23349100 		sd	s1,8(sp)
 319              		.cfi_offset 1, -8
 320              		.cfi_offset 8, -16
 321              		.cfi_offset 9, -24
 322 01c4 13040102 		addi	s0,sp,32
 323              		.cfi_def_cfa 8, 0
 324 01c8 6F00C000 		j	.L27
 325              	.L28:
  38:src/CCB.cpp   ****     }
 326              		.loc 1 38 9
  38:src/CCB.cpp   ****     }
 327              		.loc 1 38 24 is_stmt 0
 328 01cc 97000000 		call	_Z15thread_dispatchv@plt
 328      E7800000 
 329              	.LVL25:
  28:src/CCB.cpp   ****         while(*(char*)CONSOLE_STATUS & CONSOLE_TX_STATUS_BIT) {
 330              		.loc 1 28 5 is_stmt 1
 331              	.L27:
  28:src/CCB.cpp   ****         while(*(char*)CONSOLE_STATUS & CONSOLE_TX_STATUS_BIT) {
 332              		.loc 1 28 5
  29:src/CCB.cpp   ****             if(outputBuffer.peekFront() != 0) {
 333              		.loc 1 29 9
  29:src/CCB.cpp   ****             if(outputBuffer.peekFront() != 0) {
 334              		.loc 1 29 40
  29:src/CCB.cpp   ****             if(outputBuffer.peekFront() != 0) {
 335              		.loc 1 29 15 is_stmt 0
 336 01d4 97070000 		la	a5,CONSOLE_STATUS
 336      83B70700 
 337 01dc 83B70700 		ld	a5,0(a5)
 338 01e0 83C70700 		lbu	a5,0(a5)
  29:src/CCB.cpp   ****             if(outputBuffer.peekFront() != 0) {
 339              		.loc 1 29 40
 340 01e4 93F70702 		andi	a5,a5,32
 341 01e8 E38207FE 		beqz	a5,.L28
  30:src/CCB.cpp   ****                 *((char*)CONSOLE_TX_DATA) = outputBuffer.popFront();
 342              		.loc 1 30 13 is_stmt 1
  30:src/CCB.cpp   ****                 *((char*)CONSOLE_TX_DATA) = outputBuffer.popFront();
 343              		.loc 1 30 38 is_stmt 0
 344 01ec 17050000 		lla	a0,.LANCHOR0+32
GAS LISTING /tmp/cclVbF0i.s 			page 9


 344      13050500 
 345 01f4 97000000 		call	_ZN8IOBuffer9peekFrontEv
 345      E7800000 
 346              	.LVL26:
  30:src/CCB.cpp   ****                 *((char*)CONSOLE_TX_DATA) = outputBuffer.popFront();
 347              		.loc 1 30 13
 348 01fc E30805FC 		beqz	a0,.L28
  31:src/CCB.cpp   ****                 sem_wait(semOutput);
 349              		.loc 1 31 17 is_stmt 1
 350 0200 97070000 		la	a5,CONSOLE_TX_DATA
 350      83B70700 
 351 0208 83B40700 		ld	s1,0(a5)
  31:src/CCB.cpp   ****                 sem_wait(semOutput);
 352              		.loc 1 31 66 is_stmt 0
 353 020c 17050000 		lla	a0,.LANCHOR0+32
 353      13050500 
 354 0214 97000000 		call	_ZN8IOBuffer8popFrontEv
 354      E7800000 
 355              	.LVL27:
  31:src/CCB.cpp   ****                 sem_wait(semOutput);
 356              		.loc 1 31 43
 357 021c 2380A400 		sb	a0,0(s1)
  32:src/CCB.cpp   ****             }
 358              		.loc 1 32 17 is_stmt 1
  32:src/CCB.cpp   ****             }
 359              		.loc 1 32 25 is_stmt 0
 360 0220 17050000 		ld	a0,.LANCHOR0+48
 360      03350500 
 361 0228 97000000 		call	_Z8sem_waitP3SCB@plt
 361      E7800000 
 362              	.LVL28:
  29:src/CCB.cpp   ****             if(outputBuffer.peekFront() != 0) {
 363              		.loc 1 29 9
 364 0230 6FF05FFA 		j	.L27
 365              		.cfi_endproc
 366              	.LFE47:
 368              		.globl	_ZN3CCB12outputBufferE
 369              		.globl	_ZN3CCB11inputBufferE
 370              		.globl	_ZN3CCB16inputBufferEmptyE
 371              		.globl	_ZN3CCB9semOutputE
 372              		.globl	_ZN3CCB8semInputE
 373              		.globl	_ZN3CCB13outputProcessE
 374              		.globl	_ZN3CCB12inputProccesE
 375              		.bss
 376              		.align	3
 377              		.set	.LANCHOR0,. + 0
 380              	_ZN3CCB11inputBufferE:
 381 0000 00000000 		.zero	16
 381      00000000 
 381      00000000 
 381      00000000 
 384              	_ZN3CCB16inputBufferEmptyE:
 385 0010 00000000 		.zero	8
 385      00000000 
 388              	_ZN3CCB8semInputE:
 389 0018 00000000 		.zero	8
 389      00000000 
GAS LISTING /tmp/cclVbF0i.s 			page 10


 392              	_ZN3CCB12outputBufferE:
 393 0020 00000000 		.zero	16
 393      00000000 
 393      00000000 
 393      00000000 
 396              	_ZN3CCB9semOutputE:
 397 0030 00000000 		.zero	8
 397      00000000 
 400              	_ZN3CCB13outputProcessE:
 401 0038 00000000 		.zero	8
 401      00000000 
 404              	_ZN3CCB12inputProccesE:
 405 0040 00000000 		.zero	8
 405      00000000 
 406              		.text
 407              	.Letext0:
 408              		.file 2 "src/../h/CCB.h"
 409              		.file 3 "src/../h/SCB.h"
 410              		.file 4 "src/../h/PCB.h"
 411              		.file 5 "src/../h/hw.h"
 412              		.file 6 "src/../h/MemoryAllocator.h"
 413              		.file 7 "src/../h/syscall_c.h"
GAS LISTING /tmp/cclVbF0i.s 			page 11


DEFINED SYMBOLS
                            *ABS*:0000000000000000 CCB.cpp
     /tmp/cclVbF0i.s:9      .text:0000000000000000 _ZN8IOBuffer8pushBackEc
     /tmp/cclVbF0i.s:13     .text:0000000000000000 .L0 
     /tmp/cclVbF0i.s:15     .text:0000000000000000 .L0 
     /tmp/cclVbF0i.s:16     .text:0000000000000004 .L0 
     /tmp/cclVbF0i.s:21     .text:0000000000000014 .L0 
     /tmp/cclVbF0i.s:22     .text:0000000000000014 .L0 
     /tmp/cclVbF0i.s:23     .text:0000000000000014 .L0 
     /tmp/cclVbF0i.s:24     .text:0000000000000014 .L0 
     /tmp/cclVbF0i.s:26     .text:0000000000000018 .L0 
     /tmp/cclVbF0i.s:30     .text:0000000000000020 .L0 
     /tmp/cclVbF0i.s:31     .text:0000000000000020 .L0 
     /tmp/cclVbF0i.s:36     .text:000000000000002c .L0 
     /tmp/cclVbF0i.s:37     .text:000000000000002c .L0 
     /tmp/cclVbF0i.s:39     .text:0000000000000030 .L0 
     /tmp/cclVbF0i.s:40     .text:0000000000000030 .L0 
     /tmp/cclVbF0i.s:42     .text:0000000000000034 .L0 
     /tmp/cclVbF0i.s:43     .text:0000000000000034 .L0 
     /tmp/cclVbF0i.s:45     .text:0000000000000038 .L0 
     /tmp/cclVbF0i.s:47     .text:000000000000003c .L0 
     /tmp/cclVbF0i.s:49     .text:0000000000000040 .L0 
     /tmp/cclVbF0i.s:51     .text:0000000000000044 .L0 
     /tmp/cclVbF0i.s:52     .text:0000000000000044 .L0 
     /tmp/cclVbF0i.s:54     .text:0000000000000048 .L0 
     /tmp/cclVbF0i.s:56     .text:000000000000004c .L0 
     /tmp/cclVbF0i.s:59     .text:0000000000000050 .L0 
     /tmp/cclVbF0i.s:60     .text:0000000000000054 .L0 
     /tmp/cclVbF0i.s:61     .text:0000000000000054 .L0 
     /tmp/cclVbF0i.s:63     .text:0000000000000058 .L0 
     /tmp/cclVbF0i.s:64     .text:0000000000000058 .L0 
     /tmp/cclVbF0i.s:66     .text:000000000000005c .L0 
     /tmp/cclVbF0i.s:69     .text:0000000000000060 .L0 
     /tmp/cclVbF0i.s:71     .text:0000000000000064 .L0 
     /tmp/cclVbF0i.s:75     .text:0000000000000068 .L0 
     /tmp/cclVbF0i.s:77     .text:0000000000000068 .L0 
     /tmp/cclVbF0i.s:78     .text:0000000000000068 .L0 
     /tmp/cclVbF0i.s:80     .text:000000000000006c .L0 
     /tmp/cclVbF0i.s:82     .text:0000000000000074 .L0 
     /tmp/cclVbF0i.s:88     .text:0000000000000074 _ZN3CCB9inputBodyEPv
     /tmp/cclVbF0i.s:91     .text:0000000000000074 .L0 
     /tmp/cclVbF0i.s:92     .text:0000000000000074 .L0 
     /tmp/cclVbF0i.s:93     .text:0000000000000078 .L0 
     /tmp/cclVbF0i.s:97     .text:0000000000000084 .L0 
     /tmp/cclVbF0i.s:98     .text:0000000000000084 .L0 
     /tmp/cclVbF0i.s:99     .text:0000000000000084 .L0 
     /tmp/cclVbF0i.s:101    .text:0000000000000088 .L0 
     /tmp/cclVbF0i.s:105    .text:000000000000008c .L0 
     /tmp/cclVbF0i.s:106    .text:000000000000008c .L0 
     /tmp/cclVbF0i.s:114    .text:00000000000000b0 .L0 
     /tmp/cclVbF0i.s:115    .text:00000000000000b0 .L0 
     /tmp/cclVbF0i.s:119    .text:00000000000000bc .L0 
     /tmp/cclVbF0i.s:120    .text:00000000000000bc .L0 
     /tmp/cclVbF0i.s:124    .text:00000000000000c8 .L0 
     /tmp/cclVbF0i.s:125    .text:00000000000000c8 .L0 
     /tmp/cclVbF0i.s:130    .text:00000000000000d4 .L0 
     /tmp/cclVbF0i.s:131    .text:00000000000000d4 .L0 
GAS LISTING /tmp/cclVbF0i.s 			page 12


     /tmp/cclVbF0i.s:132    .text:00000000000000d4 .L0 
     /tmp/cclVbF0i.s:133    .text:00000000000000d4 .L0 
     /tmp/cclVbF0i.s:137    .text:00000000000000e4 .L0 
     /tmp/cclVbF0i.s:140    .text:00000000000000ec .L0 
     /tmp/cclVbF0i.s:141    .text:00000000000000ec .L0 
     /tmp/cclVbF0i.s:144    .text:00000000000000f4 .L0 
     /tmp/cclVbF0i.s:145    .text:00000000000000f4 .L0 
     /tmp/cclVbF0i.s:146    .text:00000000000000f8 .L0 
     /tmp/cclVbF0i.s:152    .text:00000000000000f8 _ZN8IOBuffer8popFrontEv
     /tmp/cclVbF0i.s:155    .text:00000000000000f8 .L0 
     /tmp/cclVbF0i.s:157    .text:00000000000000f8 .L0 
     /tmp/cclVbF0i.s:158    .text:00000000000000fc .L0 
     /tmp/cclVbF0i.s:162    .text:0000000000000108 .L0 
     /tmp/cclVbF0i.s:163    .text:0000000000000108 .L0 
     /tmp/cclVbF0i.s:164    .text:0000000000000108 .L0 
     /tmp/cclVbF0i.s:166    .text:000000000000010c .L0 
     /tmp/cclVbF0i.s:169    .text:0000000000000110 .L0 
     /tmp/cclVbF0i.s:170    .text:0000000000000110 .L0 
     /tmp/cclVbF0i.s:173    .text:0000000000000114 .L0 
     /tmp/cclVbF0i.s:176    .text:0000000000000118 .L0 
     /tmp/cclVbF0i.s:177    .text:0000000000000118 .L0 
     /tmp/cclVbF0i.s:178    .text:0000000000000118 .L0 
     /tmp/cclVbF0i.s:180    .text:000000000000011c .L0 
     /tmp/cclVbF0i.s:182    .text:0000000000000120 .L0 
     /tmp/cclVbF0i.s:183    .text:0000000000000120 .L0 
     /tmp/cclVbF0i.s:185    .text:0000000000000124 .L0 
     /tmp/cclVbF0i.s:188    .text:0000000000000128 .L0 
     /tmp/cclVbF0i.s:189    .text:0000000000000128 .L0 
     /tmp/cclVbF0i.s:192    .text:000000000000012c .L0 
     /tmp/cclVbF0i.s:193    .text:000000000000012c .L0 
     /tmp/cclVbF0i.s:197    .text:0000000000000134 .L0 
     /tmp/cclVbF0i.s:198    .text:0000000000000134 .L0 
     /tmp/cclVbF0i.s:200    .text:000000000000013c .L0 
     /tmp/cclVbF0i.s:201    .text:000000000000013c .L0 
     /tmp/cclVbF0i.s:203    .text:0000000000000140 .L0 
     /tmp/cclVbF0i.s:204    .text:0000000000000140 .L0 
     /tmp/cclVbF0i.s:206    .text:0000000000000144 .L0 
     /tmp/cclVbF0i.s:208    .text:0000000000000148 .L0 
     /tmp/cclVbF0i.s:212    .text:000000000000014c .L0 
     /tmp/cclVbF0i.s:214    .text:000000000000014c .L0 
     /tmp/cclVbF0i.s:215    .text:000000000000014c .L0 
     /tmp/cclVbF0i.s:220    .text:0000000000000154 .L0 
     /tmp/cclVbF0i.s:222    .text:000000000000015c .L0 
     /tmp/cclVbF0i.s:228    .text:000000000000015c _ZN8IOBuffer8peekBackEv
     /tmp/cclVbF0i.s:231    .text:000000000000015c .L0 
     /tmp/cclVbF0i.s:233    .text:000000000000015c .L0 
     /tmp/cclVbF0i.s:234    .text:0000000000000160 .L0 
     /tmp/cclVbF0i.s:236    .text:0000000000000164 .L0 
     /tmp/cclVbF0i.s:238    .text:0000000000000168 .L0 
     /tmp/cclVbF0i.s:240    .text:0000000000000168 .L0 
     /tmp/cclVbF0i.s:241    .text:0000000000000168 .L0 
     /tmp/cclVbF0i.s:243    .text:000000000000016c .L0 
     /tmp/cclVbF0i.s:245    .text:0000000000000170 .L0 
     /tmp/cclVbF0i.s:249    .text:0000000000000174 .L0 
     /tmp/cclVbF0i.s:250    .text:0000000000000178 .L0 
     /tmp/cclVbF0i.s:251    .text:0000000000000178 .L0 
     /tmp/cclVbF0i.s:252    .text:0000000000000178 .L0 
GAS LISTING /tmp/cclVbF0i.s 			page 13


     /tmp/cclVbF0i.s:254    .text:000000000000017c .L0 
     /tmp/cclVbF0i.s:258    .text:0000000000000180 .L0 
     /tmp/cclVbF0i.s:260    .text:0000000000000180 .L0 
     /tmp/cclVbF0i.s:263    .text:0000000000000188 .L0 
     /tmp/cclVbF0i.s:269    .text:0000000000000188 _ZN8IOBuffer9peekFrontEv
     /tmp/cclVbF0i.s:272    .text:0000000000000188 .L0 
     /tmp/cclVbF0i.s:274    .text:0000000000000188 .L0 
     /tmp/cclVbF0i.s:275    .text:000000000000018c .L0 
     /tmp/cclVbF0i.s:277    .text:0000000000000190 .L0 
     /tmp/cclVbF0i.s:279    .text:0000000000000194 .L0 
     /tmp/cclVbF0i.s:281    .text:0000000000000194 .L0 
     /tmp/cclVbF0i.s:282    .text:0000000000000194 .L0 
     /tmp/cclVbF0i.s:284    .text:0000000000000198 .L0 
     /tmp/cclVbF0i.s:286    .text:000000000000019c .L0 
     /tmp/cclVbF0i.s:290    .text:00000000000001a0 .L0 
     /tmp/cclVbF0i.s:291    .text:00000000000001a4 .L0 
     /tmp/cclVbF0i.s:292    .text:00000000000001a4 .L0 
     /tmp/cclVbF0i.s:293    .text:00000000000001a4 .L0 
     /tmp/cclVbF0i.s:295    .text:00000000000001a8 .L0 
     /tmp/cclVbF0i.s:299    .text:00000000000001ac .L0 
     /tmp/cclVbF0i.s:301    .text:00000000000001ac .L0 
     /tmp/cclVbF0i.s:304    .text:00000000000001b4 .L0 
     /tmp/cclVbF0i.s:310    .text:00000000000001b4 _ZN3CCB10outputBodyEPv
     /tmp/cclVbF0i.s:313    .text:00000000000001b4 .L0 
     /tmp/cclVbF0i.s:314    .text:00000000000001b4 .L0 
     /tmp/cclVbF0i.s:315    .text:00000000000001b8 .L0 
     /tmp/cclVbF0i.s:319    .text:00000000000001c4 .L0 
     /tmp/cclVbF0i.s:320    .text:00000000000001c4 .L0 
     /tmp/cclVbF0i.s:321    .text:00000000000001c4 .L0 
     /tmp/cclVbF0i.s:323    .text:00000000000001c8 .L0 
     /tmp/cclVbF0i.s:327    .text:00000000000001cc .L0 
     /tmp/cclVbF0i.s:328    .text:00000000000001cc .L0 
     /tmp/cclVbF0i.s:332    .text:00000000000001d4 .L0 
     /tmp/cclVbF0i.s:333    .text:00000000000001d4 .L0 
     /tmp/cclVbF0i.s:334    .text:00000000000001d4 .L0 
     /tmp/cclVbF0i.s:335    .text:00000000000001d4 .L0 
     /tmp/cclVbF0i.s:336    .text:00000000000001d4 .L0 
     /tmp/cclVbF0i.s:340    .text:00000000000001e4 .L0 
     /tmp/cclVbF0i.s:343    .text:00000000000001ec .L0 
     /tmp/cclVbF0i.s:344    .text:00000000000001ec .L0 
     /tmp/cclVbF0i.s:348    .text:00000000000001fc .L0 
     /tmp/cclVbF0i.s:350    .text:0000000000000200 .L0 
     /tmp/cclVbF0i.s:353    .text:000000000000020c .L0 
     /tmp/cclVbF0i.s:357    .text:000000000000021c .L0 
     /tmp/cclVbF0i.s:359    .text:0000000000000220 .L0 
     /tmp/cclVbF0i.s:360    .text:0000000000000220 .L0 
     /tmp/cclVbF0i.s:364    .text:0000000000000230 .L0 
     /tmp/cclVbF0i.s:365    .text:0000000000000234 .L0 
     /tmp/cclVbF0i.s:392    .bss:0000000000000020 _ZN3CCB12outputBufferE
     /tmp/cclVbF0i.s:380    .bss:0000000000000000 _ZN3CCB11inputBufferE
     /tmp/cclVbF0i.s:384    .bss:0000000000000010 _ZN3CCB16inputBufferEmptyE
     /tmp/cclVbF0i.s:396    .bss:0000000000000030 _ZN3CCB9semOutputE
     /tmp/cclVbF0i.s:388    .bss:0000000000000018 _ZN3CCB8semInputE
     /tmp/cclVbF0i.s:400    .bss:0000000000000038 _ZN3CCB13outputProcessE
     /tmp/cclVbF0i.s:404    .bss:0000000000000040 _ZN3CCB12inputProccesE
     /tmp/cclVbF0i.s:377    .bss:0000000000000000 .LANCHOR0
     /tmp/cclVbF0i.s:414    .text:0000000000000234 .L0 
GAS LISTING /tmp/cclVbF0i.s 			page 14


     /tmp/cclVbF0i.s:106    .text:000000000000008c .L0 
     /tmp/cclVbF0i.s:108    .text:0000000000000098 .L0 
     /tmp/cclVbF0i.s:133    .text:00000000000000d4 .L0 
     /tmp/cclVbF0i.s:336    .text:00000000000001d4 .L0 
     /tmp/cclVbF0i.s:344    .text:00000000000001ec .L0 
     /tmp/cclVbF0i.s:350    .text:0000000000000200 .L0 
     /tmp/cclVbF0i.s:353    .text:000000000000020c .L0 
     /tmp/cclVbF0i.s:360    .text:0000000000000220 .L0 
     /tmp/cclVbF0i.s:74     .text:0000000000000068 .L5
     /tmp/cclVbF0i.s:57     .text:0000000000000050 .L1
     /tmp/cclVbF0i.s:128    .text:00000000000000d4 .L7
     /tmp/cclVbF0i.s:103    .text:000000000000008c .L11
     /tmp/cclVbF0i.s:218    .text:0000000000000154 .L15
     /tmp/cclVbF0i.s:211    .text:000000000000014c .L17
     /tmp/cclVbF0i.s:186    .text:0000000000000128 .L14
     /tmp/cclVbF0i.s:196    .text:0000000000000134 .L13
     /tmp/cclVbF0i.s:257    .text:0000000000000180 .L20
     /tmp/cclVbF0i.s:247    .text:0000000000000174 .L19
     /tmp/cclVbF0i.s:298    .text:00000000000001ac .L24
     /tmp/cclVbF0i.s:288    .text:00000000000001a0 .L23
     /tmp/cclVbF0i.s:331    .text:00000000000001d4 .L27
     /tmp/cclVbF0i.s:325    .text:00000000000001cc .L28
     /tmp/cclVbF0i.s:1768   .debug_abbrev:0000000000000000 .Ldebug_abbrev0
     /tmp/cclVbF0i.s:3070   .debug_str:0000000000000807 .LASF160
     /tmp/cclVbF0i.s:2852   .debug_str:0000000000000126 .LASF161
     /tmp/cclVbF0i.s:3140   .debug_str:0000000000000b1a .LASF162
     /tmp/cclVbF0i.s:5      .text:0000000000000000 .Ltext0
     /tmp/cclVbF0i.s:407    .text:0000000000000234 .Letext0
     /tmp/cclVbF0i.s:2810   .debug_line:0000000000000000 .Ldebug_line0
     /tmp/cclVbF0i.s:2820   .debug_str:000000000000002a .LASF0
     /tmp/cclVbF0i.s:3032   .debug_str:0000000000000722 .LASF1
     /tmp/cclVbF0i.s:2994   .debug_str:00000000000005bc .LASF2
     /tmp/cclVbF0i.s:2972   .debug_str:0000000000000528 .LASF3
     /tmp/cclVbF0i.s:2886   .debug_str:0000000000000241 .LASF4
     /tmp/cclVbF0i.s:3090   .debug_str:0000000000000982 .LASF5
     /tmp/cclVbF0i.s:3048   .debug_str:000000000000076d .LASF6
     /tmp/cclVbF0i.s:2950   .debug_str:000000000000042f .LASF7
     /tmp/cclVbF0i.s:2978   .debug_str:0000000000000542 .LASF9
     /tmp/cclVbF0i.s:3030   .debug_str:0000000000000717 .LASF8
     /tmp/cclVbF0i.s:2828   .debug_str:0000000000000069 .LASF10
     /tmp/cclVbF0i.s:2838   .debug_str:00000000000000ce .LASF27
     /tmp/cclVbF0i.s:2842   .debug_str:00000000000000e6 .LASF11
     /tmp/cclVbF0i.s:2894   .debug_str:0000000000000270 .LASF13
     /tmp/cclVbF0i.s:2868   .debug_str:000000000000019e .LASF12
     /tmp/cclVbF0i.s:3108   .debug_str:0000000000000a11 .LASF14
     /tmp/cclVbF0i.s:3052   .debug_str:0000000000000787 .LASF15
     /tmp/cclVbF0i.s:2930   .debug_str:00000000000003aa .LASF17
     /tmp/cclVbF0i.s:2822   .debug_str:0000000000000033 .LASF16
     /tmp/cclVbF0i.s:3100   .debug_str:00000000000009d0 .LASF18
     /tmp/cclVbF0i.s:3134   .debug_str:0000000000000aec .LASF19
     /tmp/cclVbF0i.s:3062   .debug_str:00000000000007b9 .LASF20
     /tmp/cclVbF0i.s:2814   .debug_str:0000000000000007 .LASF21
     /tmp/cclVbF0i.s:3050   .debug_str:000000000000077a .LASF22
     /tmp/cclVbF0i.s:3042   .debug_str:0000000000000750 .LASF23
     /tmp/cclVbF0i.s:3122   .debug_str:0000000000000a84 .LASF24
     /tmp/cclVbF0i.s:3016   .debug_str:000000000000067c .LASF25
     /tmp/cclVbF0i.s:2872   .debug_str:00000000000001b6 .LASF26
GAS LISTING /tmp/cclVbF0i.s 			page 15


     /tmp/cclVbF0i.s:3000   .debug_str:00000000000005e9 .LASF28
     /tmp/cclVbF0i.s:2910   .debug_str:00000000000002f5 .LASF29
     /tmp/cclVbF0i.s:2992   .debug_str:00000000000005ac .LASF30
     /tmp/cclVbF0i.s:2816   .debug_str:0000000000000017 .LASF31
     /tmp/cclVbF0i.s:3138   .debug_str:0000000000000b08 .LASF32
     /tmp/cclVbF0i.s:3046   .debug_str:0000000000000768 .LASF33
     /tmp/cclVbF0i.s:2974   .debug_str:0000000000000535 .LASF34
     /tmp/cclVbF0i.s:2908   .debug_str:00000000000002ec .LASF35
     /tmp/cclVbF0i.s:3056   .debug_str:000000000000079e .LASF36
     /tmp/cclVbF0i.s:3110   .debug_str:0000000000000a20 .LASF37
     /tmp/cclVbF0i.s:2870   .debug_str:00000000000001a3 .LASF38
     /tmp/cclVbF0i.s:3080   .debug_str:0000000000000910 .LASF39
     /tmp/cclVbF0i.s:3054   .debug_str:000000000000078e .LASF40
     /tmp/cclVbF0i.s:2924   .debug_str:0000000000000357 .LASF41
     /tmp/cclVbF0i.s:2882   .debug_str:0000000000000222 .LASF42
     /tmp/cclVbF0i.s:3144   .debug_str:0000000000000b4b .LASF43
     /tmp/cclVbF0i.s:2898   .debug_str:0000000000000296 .LASF44
     /tmp/cclVbF0i.s:2944   .debug_str:00000000000003fb .LASF45
     /tmp/cclVbF0i.s:2962   .debug_str:0000000000000495 .LASF46
     /tmp/cclVbF0i.s:3142   .debug_str:0000000000000b30 .LASF47
     /tmp/cclVbF0i.s:3060   .debug_str:00000000000007ae .LASF48
     /tmp/cclVbF0i.s:3126   .debug_str:0000000000000aad .LASF49
     /tmp/cclVbF0i.s:3006   .debug_str:0000000000000615 .LASF50
     /tmp/cclVbF0i.s:3072   .debug_str:00000000000008cb .LASF51
     /tmp/cclVbF0i.s:2864   .debug_str:0000000000000188 .LASF52
     /tmp/cclVbF0i.s:3014   .debug_str:0000000000000664 .LASF53
     /tmp/cclVbF0i.s:2840   .debug_str:00000000000000da .LASF54
     /tmp/cclVbF0i.s:2900   .debug_str:00000000000002a4 .LASF55
     /tmp/cclVbF0i.s:3136   .debug_str:0000000000000af9 .LASF56
     /tmp/cclVbF0i.s:2826   .debug_str:0000000000000049 .LASF57
     /tmp/cclVbF0i.s:3038   .debug_str:000000000000073b .LASF163
     /tmp/cclVbF0i.s:2942   .debug_str:00000000000003f5 .LASF137
     /tmp/cclVbF0i.s:2946   .debug_str:0000000000000415 .LASF139
     /tmp/cclVbF0i.s:3068   .debug_str:00000000000007ff .LASF58
     /tmp/cclVbF0i.s:2938   .debug_str:00000000000003dd .LASF59
     /tmp/cclVbF0i.s:3130   .debug_str:0000000000000adb .LASF60
     /tmp/cclVbF0i.s:2880   .debug_str:0000000000000216 .LASF61
     /tmp/cclVbF0i.s:2918   .debug_str:0000000000000326 .LASF62
     /tmp/cclVbF0i.s:2906   .debug_str:00000000000002e1 .LASF164
     /tmp/cclVbF0i.s:2836   .debug_str:00000000000000b8 .LASF165
     /tmp/cclVbF0i.s:2856   .debug_str:000000000000013b .LASF63
     /tmp/cclVbF0i.s:2818   .debug_str:000000000000001f .LASF64
     /tmp/cclVbF0i.s:3036   .debug_str:0000000000000735 .LASF65
     /tmp/cclVbF0i.s:3106   .debug_str:0000000000000a08 .LASF66
     /tmp/cclVbF0i.s:2934   .debug_str:00000000000003ce .LASF67
     /tmp/cclVbF0i.s:3132   .debug_str:0000000000000ae7 .LASF68
     /tmp/cclVbF0i.s:3040   .debug_str:0000000000000747 .LASF69
     /tmp/cclVbF0i.s:2976   .debug_str:000000000000053a .LASF70
     /tmp/cclVbF0i.s:2952   .debug_str:0000000000000439 .LASF71
     /tmp/cclVbF0i.s:3114   .debug_str:0000000000000a45 .LASF72
     /tmp/cclVbF0i.s:3124   .debug_str:0000000000000a9f .LASF73
     /tmp/cclVbF0i.s:3076   .debug_str:00000000000008fc .LASF74
     /tmp/cclVbF0i.s:3028   .debug_str:0000000000000706 .LASF132
     /tmp/cclVbF0i.s:2866   .debug_str:0000000000000195 .LASF80
     /tmp/cclVbF0i.s:2830   .debug_str:0000000000000080 .LASF82
     /tmp/cclVbF0i.s:2914   .debug_str:0000000000000308 .LASF75
     /tmp/cclVbF0i.s:3098   .debug_str:00000000000009b2 .LASF77
GAS LISTING /tmp/cclVbF0i.s 			page 16


     /tmp/cclVbF0i.s:2916   .debug_str:0000000000000317 .LASF76
     /tmp/cclVbF0i.s:3022   .debug_str:00000000000006a9 .LASF78
     /tmp/cclVbF0i.s:2948   .debug_str:0000000000000425 .LASF79
     /tmp/cclVbF0i.s:3002   .debug_str:00000000000005f5 .LASF81
     /tmp/cclVbF0i.s:3116   .debug_str:0000000000000a52 .LASF83
     /tmp/cclVbF0i.s:2926   .debug_str:0000000000000373 .LASF84
     /tmp/cclVbF0i.s:3088   .debug_str:000000000000097d .LASF116
     /tmp/cclVbF0i.s:2848   .debug_str:0000000000000111 .LASF85
     /tmp/cclVbF0i.s:2936   .debug_str:00000000000003d8 .LASF86
     /tmp/cclVbF0i.s:2854   .debug_str:0000000000000132 .LASF87
     /tmp/cclVbF0i.s:3020   .debug_str:0000000000000691 .LASF88
     /tmp/cclVbF0i.s:2996   .debug_str:00000000000005cd .LASF89
     /tmp/cclVbF0i.s:3074   .debug_str:00000000000008e4 .LASF90
     /tmp/cclVbF0i.s:3096   .debug_str:00000000000009a8 .LASF91
     /tmp/cclVbF0i.s:2862   .debug_str:000000000000016f .LASF92
     /tmp/cclVbF0i.s:2878   .debug_str:000000000000020d .LASF93
     /tmp/cclVbF0i.s:3128   .debug_str:0000000000000ac3 .LASF94
     /tmp/cclVbF0i.s:3058   .debug_str:00000000000007a9 .LASF95
     /tmp/cclVbF0i.s:2912   .debug_str:00000000000002fb .LASF96
     /tmp/cclVbF0i.s:2940   .debug_str:00000000000003e2 .LASF97
     /tmp/cclVbF0i.s:3010   .debug_str:0000000000000651 .LASF98
     /tmp/cclVbF0i.s:3018   .debug_str:000000000000068a .LASF100
     /tmp/cclVbF0i.s:2922   .debug_str:0000000000000345 .LASF99
     /tmp/cclVbF0i.s:2824   .debug_str:0000000000000042 .LASF101
     /tmp/cclVbF0i.s:2990   .debug_str:00000000000005a5 .LASF102
     /tmp/cclVbF0i.s:2984   .debug_str:0000000000000574 .LASF103
     /tmp/cclVbF0i.s:2932   .debug_str:00000000000003bb .LASF104
     /tmp/cclVbF0i.s:2892   .debug_str:0000000000000260 .LASF105
     /tmp/cclVbF0i.s:2896   .debug_str:0000000000000288 .LASF106
     /tmp/cclVbF0i.s:2846   .debug_str:0000000000000102 .LASF107
     /tmp/cclVbF0i.s:2884   .debug_str:0000000000000232 .LASF108
     /tmp/cclVbF0i.s:2850   .debug_str:0000000000000116 .LASF109
     /tmp/cclVbF0i.s:2844   .debug_str:00000000000000f2 .LASF110
     /tmp/cclVbF0i.s:2834   .debug_str:00000000000000ac .LASF111
     /tmp/cclVbF0i.s:2876   .debug_str:00000000000001f7 .LASF112
     /tmp/cclVbF0i.s:2966   .debug_str:00000000000004c4 .LASF113
     /tmp/cclVbF0i.s:2956   .debug_str:0000000000000469 .LASF114
     /tmp/cclVbF0i.s:2982   .debug_str:0000000000000564 .LASF115
     /tmp/cclVbF0i.s:2890   .debug_str:0000000000000254 .LASF117
     /tmp/cclVbF0i.s:3102   .debug_str:00000000000009ea .LASF118
     /tmp/cclVbF0i.s:3120   .debug_str:0000000000000a7f .LASF119
     /tmp/cclVbF0i.s:2812   .debug_str:0000000000000000 .LASF120
     /tmp/cclVbF0i.s:3008   .debug_str:0000000000000623 .LASF121
     /tmp/cclVbF0i.s:2928   .debug_str:000000000000037c .LASF166
     /tmp/cclVbF0i.s:3078   .debug_str:0000000000000906 .LASF122
     /tmp/cclVbF0i.s:3082   .debug_str:000000000000092f .LASF123
     /tmp/cclVbF0i.s:3094   .debug_str:000000000000099f .LASF124
     /tmp/cclVbF0i.s:2964   .debug_str:00000000000004a3 .LASF125
     /tmp/cclVbF0i.s:2860   .debug_str:0000000000000162 .LASF126
     /tmp/cclVbF0i.s:2970   .debug_str:0000000000000503 .LASF127
     /tmp/cclVbF0i.s:2980   .debug_str:0000000000000557 .LASF128
     /tmp/cclVbF0i.s:2954   .debug_str:0000000000000444 .LASF129
     /tmp/cclVbF0i.s:2832   .debug_str:0000000000000093 .LASF130
     /tmp/cclVbF0i.s:3112   .debug_str:0000000000000a37 .LASF131
     /tmp/cclVbF0i.s:3064   .debug_str:00000000000007c5 .LASF133
     /tmp/cclVbF0i.s:2968   .debug_str:00000000000004da .LASF134
     /tmp/cclVbF0i.s:2960   .debug_str:0000000000000486 .LASF135
GAS LISTING /tmp/cclVbF0i.s 			page 17


     /tmp/cclVbF0i.s:3024   .debug_str:00000000000006c7 .LASF136
     /tmp/cclVbF0i.s:2920   .debug_str:0000000000000333 .LASF138
     /tmp/cclVbF0i.s:3066   .debug_str:00000000000007d5 .LASF140
     /tmp/cclVbF0i.s:2986   .debug_str:0000000000000587 .LASF141
     /tmp/cclVbF0i.s:2874   .debug_str:00000000000001cf .LASF142
     /tmp/cclVbF0i.s:3026   .debug_str:00000000000006ef .LASF143
     /tmp/cclVbF0i.s:2958   .debug_str:000000000000046e .LASF144
     /tmp/cclVbF0i.s:3118   .debug_str:0000000000000a6d .LASF145
     /tmp/cclVbF0i.s:2998   .debug_str:00000000000005d6 .LASF146
     /tmp/cclVbF0i.s:2904   .debug_str:00000000000002c6 .LASF147
     /tmp/cclVbF0i.s:3086   .debug_str:0000000000000967 .LASF148
     /tmp/cclVbF0i.s:3084   .debug_str:0000000000000950 .LASF149
     /tmp/cclVbF0i.s:270    .text:0000000000000188 .LFB51
     /tmp/cclVbF0i.s:305    .text:00000000000001b4 .LFE51
     /tmp/cclVbF0i.s:2888   .debug_str:000000000000024f .LASF150
     /tmp/cclVbF0i.s:2671   .debug_loc:0000000000000000 .LLST6
     /tmp/cclVbF0i.s:229    .text:000000000000015c .LFB50
     /tmp/cclVbF0i.s:264    .text:0000000000000188 .LFE50
     /tmp/cclVbF0i.s:2696   .debug_loc:0000000000000062 .LLST5
     /tmp/cclVbF0i.s:153    .text:00000000000000f8 .LFB49
     /tmp/cclVbF0i.s:223    .text:000000000000015c .LFE49
     /tmp/cclVbF0i.s:2721   .debug_loc:00000000000000c4 .LLST2
     /tmp/cclVbF0i.s:3012   .debug_str:000000000000065f .LASF151
     /tmp/cclVbF0i.s:2743   .debug_loc:0000000000000123 .LLST3
     /tmp/cclVbF0i.s:2754   .debug_loc:0000000000000159 .LLST4
     /tmp/cclVbF0i.s:194    .text:0000000000000134 .LVL14
     /tmp/cclVbF0i.s:10     .text:0000000000000000 .LFB48
     /tmp/cclVbF0i.s:83     .text:0000000000000074 .LFE48
     /tmp/cclVbF0i.s:2761   .debug_loc:000000000000017c .LLST0
     /tmp/cclVbF0i.s:2783   .debug_loc:00000000000001db .LLST1
     /tmp/cclVbF0i.s:3044   .debug_str:0000000000000760 .LASF152
     /tmp/cclVbF0i.s:34     .text:000000000000002c .LVL2
     /tmp/cclVbF0i.s:311    .text:00000000000001b4 .LFB47
     /tmp/cclVbF0i.s:366    .text:0000000000000234 .LFE47
     /tmp/cclVbF0i.s:329    .text:00000000000001d4 .LVL25
     /tmp/cclVbF0i.s:346    .text:00000000000001fc .LVL26
     /tmp/cclVbF0i.s:355    .text:000000000000021c .LVL27
     /tmp/cclVbF0i.s:362    .text:0000000000000230 .LVL28
     /tmp/cclVbF0i.s:89     .text:0000000000000074 .LFB46
     /tmp/cclVbF0i.s:147    .text:00000000000000f8 .LFE46
     /tmp/cclVbF0i.s:112    .text:00000000000000b0 .LVL5
     /tmp/cclVbF0i.s:117    .text:00000000000000bc .LVL6
     /tmp/cclVbF0i.s:122    .text:00000000000000c8 .LVL7
     /tmp/cclVbF0i.s:127    .text:00000000000000d4 .LVL8
     /tmp/cclVbF0i.s:142    .text:00000000000000f4 .LVL9
     /tmp/cclVbF0i.s:3104   .debug_str:00000000000009f3 .LASF153
     /tmp/cclVbF0i.s:3004   .debug_str:0000000000000605 .LASF155
     /tmp/cclVbF0i.s:3092   .debug_str:000000000000098e .LASF154
     /tmp/cclVbF0i.s:3034   .debug_str:000000000000072c .LASF156
     /tmp/cclVbF0i.s:2858   .debug_str:000000000000014e .LASF157
     /tmp/cclVbF0i.s:2902   .debug_str:00000000000002bb .LASF158
     /tmp/cclVbF0i.s:2988   .debug_str:0000000000000597 .LASF159
     /tmp/cclVbF0i.s:273    .text:0000000000000188 .LVL21
     /tmp/cclVbF0i.s:287    .text:00000000000001a0 .LVL22
     /tmp/cclVbF0i.s:297    .text:00000000000001ac .LVL23
     /tmp/cclVbF0i.s:302    .text:00000000000001b0 .LVL24
     /tmp/cclVbF0i.s:232    .text:000000000000015c .LVL17
GAS LISTING /tmp/cclVbF0i.s 			page 18


     /tmp/cclVbF0i.s:246    .text:0000000000000174 .LVL18
     /tmp/cclVbF0i.s:256    .text:0000000000000180 .LVL19
     /tmp/cclVbF0i.s:261    .text:0000000000000184 .LVL20
     /tmp/cclVbF0i.s:156    .text:00000000000000f8 .LVL10
     /tmp/cclVbF0i.s:171    .text:0000000000000114 .LVL11
     /tmp/cclVbF0i.s:210    .text:000000000000014c .LVL15
     /tmp/cclVbF0i.s:175    .text:0000000000000118 .LVL12
     /tmp/cclVbF0i.s:217    .text:0000000000000154 .LVL16
     /tmp/cclVbF0i.s:190    .text:000000000000012c .LVL13
     /tmp/cclVbF0i.s:14     .text:0000000000000000 .LVL0
     /tmp/cclVbF0i.s:32     .text:0000000000000024 .LVL1
     /tmp/cclVbF0i.s:67     .text:000000000000005c .LVL3
     /tmp/cclVbF0i.s:73     .text:0000000000000068 .LVL4
     /tmp/cclVbF0i.s:415    .debug_info:0000000000000000 .Ldebug_info0

UNDEFINED SYMBOLS
_ZN15MemoryAllocator9mem_allocEm
CONSOLE_RX_DATA
_Z10sem_signalP3SCB
plic_complete
_Z8sem_waitP3SCB
CONSOLE_STATUS
_Z15thread_dispatchv
_ZN15MemoryAllocator8mem_freeEPv
CONSOLE_TX_DATA
