GAS LISTING /tmp/ccWBBpUU.s 			page 1


   1              		.file	"CCB.cpp"
   2              		.option pic
   3              		.option norelax
   4              		.text
   5              	.Ltext0:
   6              		.align	2
   7              		.globl	_ZN8IOBuffer8pushBackEc
   9              	_ZN8IOBuffer8pushBackEc:
  10              	.LFB27:
  11              		.file 1 "src/CCB.cpp"
   1:src/CCB.cpp   **** #include "../h/CCB.h"
   2:src/CCB.cpp   **** #include "../h/PCB.h"
   3:src/CCB.cpp   **** #include "../h/SCB.h"
   4:src/CCB.cpp   **** #include "../h/MemoryAllocator.h"
   5:src/CCB.cpp   **** #include "../h/syscall_c.h"
   6:src/CCB.cpp   **** PCB* CCB::inputProcces = nullptr;
   7:src/CCB.cpp   **** PCB* CCB::outputProcess = nullptr;
   8:src/CCB.cpp   **** SCB* CCB::semInput = nullptr;
   9:src/CCB.cpp   **** SCB* CCB::semOutput = nullptr;
  10:src/CCB.cpp   **** SCB* CCB::inputBufferEmpty = nullptr;
  11:src/CCB.cpp   **** IOBuffer CCB::inputBuffer;
  12:src/CCB.cpp   **** IOBuffer CCB::outputBuffer;
  13:src/CCB.cpp   **** 
  14:src/CCB.cpp   **** void CCB::inputBody(void *) {
  15:src/CCB.cpp   ****     bool t = false;
  16:src/CCB.cpp   ****     while(true) {
  17:src/CCB.cpp   ****         while(*(char*)CONSOLE_STATUS & CONSOLE_RX_STATUS_BIT) {
  18:src/CCB.cpp   ****             inputBuffer.pushBack(*(char*)CONSOLE_RX_DATA);
  19:src/CCB.cpp   ****             sem_signal(CCB::inputBufferEmpty);
  20:src/CCB.cpp   ****         }
  21:src/CCB.cpp   ****         if(!t){
  22:src/CCB.cpp   ****             plic_complete(CONSOLE_IRQ);
  23:src/CCB.cpp   ****             t = true;
  24:src/CCB.cpp   ****         }
  25:src/CCB.cpp   ****         sem_wait(CCB::semInput);
  26:src/CCB.cpp   ****     }
  27:src/CCB.cpp   **** }
  28:src/CCB.cpp   **** 
  29:src/CCB.cpp   **** void CCB::outputBody(void *) {
  30:src/CCB.cpp   ****     bool t = false;
  31:src/CCB.cpp   ****     while(true) {
  32:src/CCB.cpp   ****         while(*(char*)CONSOLE_STATUS & CONSOLE_TX_STATUS_BIT) {
  33:src/CCB.cpp   ****             if(outputBuffer.peekFront() == 0) break;
  34:src/CCB.cpp   **** 
  35:src/CCB.cpp   ****             *((char*)CONSOLE_TX_DATA) = outputBuffer.popFront();
  36:src/CCB.cpp   ****         }
  37:src/CCB.cpp   ****         if(!t) {
  38:src/CCB.cpp   ****             plic_complete(CONSOLE_IRQ);
  39:src/CCB.cpp   ****             t = true;
  40:src/CCB.cpp   ****         }
  41:src/CCB.cpp   ****         sem_wait(semOutput);
  42:src/CCB.cpp   ****     }
  43:src/CCB.cpp   **** }
  44:src/CCB.cpp   **** 
  45:src/CCB.cpp   **** 
  46:src/CCB.cpp   **** void IOBuffer::pushBack(char c) {
  12              		.loc 1 46 33
GAS LISTING /tmp/ccWBBpUU.s 			page 2


  13              		.cfi_startproc
  14              	.LVL0:
  15 0000 130101FE 		addi	sp,sp,-32
  16              		.cfi_def_cfa_offset 32
  17 0004 233C1100 		sd	ra,24(sp)
  18 0008 23388100 		sd	s0,16(sp)
  19 000c 23349100 		sd	s1,8(sp)
  20 0010 23302101 		sd	s2,0(sp)
  21              		.cfi_offset 1, -8
  22              		.cfi_offset 8, -16
  23              		.cfi_offset 9, -24
  24              		.cfi_offset 18, -32
  25 0014 13040102 		addi	s0,sp,32
  26              		.cfi_def_cfa 8, 0
  27 0018 93040500 		mv	s1,a0
  28 001c 13890500 		mv	s2,a1
  47:src/CCB.cpp   ****     Elem *newElem = (Elem*)MemoryAllocator::mem_alloc(sizeof(Elem));
  29              		.loc 1 47 5
  30              		.loc 1 47 54 is_stmt 0
  31 0020 13050001 		li	a0,16
  32              	.LVL1:
  33 0024 97000000 		call	_ZN15MemoryAllocator9mem_allocEm@plt
  33      E7800000 
  34              	.LVL2:
  48:src/CCB.cpp   ****     newElem->next = nullptr;
  35              		.loc 1 48 5 is_stmt 1
  36              		.loc 1 48 19 is_stmt 0
  37 002c 23300500 		sd	zero,0(a0)
  49:src/CCB.cpp   ****     newElem->data = c;
  38              		.loc 1 49 5 is_stmt 1
  39              		.loc 1 49 19 is_stmt 0
  40 0030 23042501 		sb	s2,8(a0)
  50:src/CCB.cpp   ****     if(!head) {
  41              		.loc 1 50 5 is_stmt 1
  42              		.loc 1 50 9 is_stmt 0
  43 0034 83B70400 		ld	a5,0(s1)
  44              		.loc 1 50 5
  45 0038 63880702 		beqz	a5,.L5
  51:src/CCB.cpp   ****         head = tail = newElem;
  52:src/CCB.cpp   ****     }
  53:src/CCB.cpp   ****     else {
  54:src/CCB.cpp   ****         tail->next = newElem;
  46              		.loc 1 54 9 is_stmt 1
  47 003c 83B78400 		ld	a5,8(s1)
  48              		.loc 1 54 20 is_stmt 0
  49 0040 23B0A700 		sd	a0,0(a5)
  55:src/CCB.cpp   ****         tail = tail->next;
  50              		.loc 1 55 9 is_stmt 1
  51              		.loc 1 55 16 is_stmt 0
  52 0044 83B78400 		ld	a5,8(s1)
  53              		.loc 1 55 22
  54 0048 83B70700 		ld	a5,0(a5)
  55              		.loc 1 55 14
  56 004c 23B4F400 		sd	a5,8(s1)
  57              	.L1:
  56:src/CCB.cpp   ****     }
  57:src/CCB.cpp   **** }
GAS LISTING /tmp/ccWBBpUU.s 			page 3


  58              		.loc 1 57 1
  59 0050 83308101 		ld	ra,24(sp)
  60              		.cfi_remember_state
  61              		.cfi_restore 1
  62 0054 03340101 		ld	s0,16(sp)
  63              		.cfi_restore 8
  64              		.cfi_def_cfa 2, 32
  65 0058 83348100 		ld	s1,8(sp)
  66              		.cfi_restore 9
  67              	.LVL3:
  68 005c 03390100 		ld	s2,0(sp)
  69              		.cfi_restore 18
  70 0060 13010102 		addi	sp,sp,32
  71              		.cfi_def_cfa_offset 0
  72 0064 67800000 		jr	ra
  73              	.LVL4:
  74              	.L5:
  75              		.cfi_restore_state
  51:src/CCB.cpp   ****     }
  76              		.loc 1 51 9 is_stmt 1
  51:src/CCB.cpp   ****     }
  77              		.loc 1 51 21 is_stmt 0
  78 0068 23B4A400 		sd	a0,8(s1)
  51:src/CCB.cpp   ****     }
  79              		.loc 1 51 14
  80 006c 23B0A400 		sd	a0,0(s1)
  81 0070 6FF01FFE 		j	.L1
  82              		.cfi_endproc
  83              	.LFE27:
  85              		.align	2
  86              		.globl	_ZN3CCB9inputBodyEPv
  88              	_ZN3CCB9inputBodyEPv:
  89              	.LFB25:
  14:src/CCB.cpp   ****     bool t = false;
  90              		.loc 1 14 29 is_stmt 1
  91              		.cfi_startproc
  92 0074 130101FE 		addi	sp,sp,-32
  93              		.cfi_def_cfa_offset 32
  94 0078 233C1100 		sd	ra,24(sp)
  95 007c 23388100 		sd	s0,16(sp)
  96 0080 23349100 		sd	s1,8(sp)
  97 0084 23302101 		sd	s2,0(sp)
  98              		.cfi_offset 1, -8
  99              		.cfi_offset 8, -16
 100              		.cfi_offset 9, -24
 101              		.cfi_offset 18, -32
 102 0088 13040102 		addi	s0,sp,32
 103              		.cfi_def_cfa 8, 0
  15:src/CCB.cpp   ****     while(true) {
 104              		.loc 1 15 5
 105              	.LVL5:
  15:src/CCB.cpp   ****     while(true) {
 106              		.loc 1 15 10 is_stmt 0
 107 008c 93040000 		li	s1,0
 108 0090 6F008004 		j	.L7
 109              	.LVL6:
 110              	.L12:
GAS LISTING /tmp/ccWBBpUU.s 			page 4


  18:src/CCB.cpp   ****             sem_signal(CCB::inputBufferEmpty);
 111              		.loc 1 18 13 is_stmt 1
  18:src/CCB.cpp   ****             sem_signal(CCB::inputBufferEmpty);
 112              		.loc 1 18 33 is_stmt 0
 113 0094 97070000 		la	a5,CONSOLE_RX_DATA
 113      83B70700 
 114 009c 83B70700 		ld	a5,0(a5)
 115 00a0 17090000 		lla	s2,.LANCHOR0
 115      13090900 
 116 00a8 83C50700 		lbu	a1,0(a5)
 117 00ac 13050900 		mv	a0,s2
 118 00b0 97000000 		call	_ZN8IOBuffer8pushBackEc
 118      E7800000 
 119              	.LVL7:
  19:src/CCB.cpp   ****         }
 120              		.loc 1 19 13 is_stmt 1
  19:src/CCB.cpp   ****         }
 121              		.loc 1 19 23 is_stmt 0
 122 00b8 03350901 		ld	a0,16(s2)
 123 00bc 97000000 		call	_Z10sem_signalP3SCB@plt
 123      E7800000 
 124              	.LVL8:
  17:src/CCB.cpp   ****             inputBuffer.pushBack(*(char*)CONSOLE_RX_DATA);
 125              		.loc 1 17 9
 126 00c4 6F004001 		j	.L7
 127              	.LVL9:
 128              	.L10:
  25:src/CCB.cpp   ****     }
 129              		.loc 1 25 9 is_stmt 1
  25:src/CCB.cpp   ****     }
 130              		.loc 1 25 17 is_stmt 0
 131 00c8 17050000 		ld	a0,.LANCHOR0+24
 131      03350500 
 132 00d0 97000000 		call	_Z8sem_waitP3SCB@plt
 132      E7800000 
 133              	.LVL10:
  16:src/CCB.cpp   ****         while(*(char*)CONSOLE_STATUS & CONSOLE_RX_STATUS_BIT) {
 134              		.loc 1 16 5 is_stmt 1
 135              	.L7:
  16:src/CCB.cpp   ****         while(*(char*)CONSOLE_STATUS & CONSOLE_RX_STATUS_BIT) {
 136              		.loc 1 16 5
  17:src/CCB.cpp   ****             inputBuffer.pushBack(*(char*)CONSOLE_RX_DATA);
 137              		.loc 1 17 9
  17:src/CCB.cpp   ****             inputBuffer.pushBack(*(char*)CONSOLE_RX_DATA);
 138              		.loc 1 17 40
  17:src/CCB.cpp   ****             inputBuffer.pushBack(*(char*)CONSOLE_RX_DATA);
 139              		.loc 1 17 15 is_stmt 0
 140 00d8 97070000 		la	a5,CONSOLE_STATUS
 140      83B70700 
 141 00e0 83B70700 		ld	a5,0(a5)
 142 00e4 83C70700 		lbu	a5,0(a5)
  17:src/CCB.cpp   ****             inputBuffer.pushBack(*(char*)CONSOLE_RX_DATA);
 143              		.loc 1 17 40
 144 00e8 93F71700 		andi	a5,a5,1
 145 00ec E39407FA 		bnez	a5,.L12
  21:src/CCB.cpp   ****             plic_complete(CONSOLE_IRQ);
 146              		.loc 1 21 9 is_stmt 1
GAS LISTING /tmp/ccWBBpUU.s 			page 5


 147 00f0 E39C04FC 		bnez	s1,.L10
  22:src/CCB.cpp   ****             t = true;
 148              		.loc 1 22 13
  22:src/CCB.cpp   ****             t = true;
 149              		.loc 1 22 26 is_stmt 0
 150 00f4 1305A000 		li	a0,10
 151 00f8 97000000 		call	plic_complete@plt
 151      E7800000 
 152              	.LVL11:
  23:src/CCB.cpp   ****         }
 153              		.loc 1 23 13 is_stmt 1
  23:src/CCB.cpp   ****         }
 154              		.loc 1 23 15 is_stmt 0
 155 0100 93041000 		li	s1,1
 156 0104 6FF05FFC 		j	.L10
 157              		.cfi_endproc
 158              	.LFE25:
 160              		.align	2
 161              		.globl	_ZN8IOBuffer8popFrontEv
 163              	_ZN8IOBuffer8popFrontEv:
 164              	.LFB28:
  58:src/CCB.cpp   **** 
  59:src/CCB.cpp   **** char IOBuffer::popFront() {
 165              		.loc 1 59 27 is_stmt 1
 166              		.cfi_startproc
 167              	.LVL12:
 168 0108 130101FE 		addi	sp,sp,-32
 169              		.cfi_def_cfa_offset 32
 170 010c 233C1100 		sd	ra,24(sp)
 171 0110 23388100 		sd	s0,16(sp)
 172 0114 23349100 		sd	s1,8(sp)
 173              		.cfi_offset 1, -8
 174              		.cfi_offset 8, -16
 175              		.cfi_offset 9, -24
 176 0118 13040102 		addi	s0,sp,32
 177              		.cfi_def_cfa 8, 0
 178 011c 93070500 		mv	a5,a0
  60:src/CCB.cpp   ****     if(!head) return 0;
 179              		.loc 1 60 5
 180              		.loc 1 60 9 is_stmt 0
 181 0120 03350500 		ld	a0,0(a0)
 182              	.LVL13:
 183              		.loc 1 60 5
 184 0124 63000504 		beqz	a0,.L16
  61:src/CCB.cpp   **** 
  62:src/CCB.cpp   ****     Elem* curr = head;
 185              		.loc 1 62 5 is_stmt 1
 186              	.LVL14:
  63:src/CCB.cpp   ****     head = head->next;
 187              		.loc 1 63 5
 188              		.loc 1 63 18 is_stmt 0
 189 0128 03370500 		ld	a4,0(a0)
 190              		.loc 1 63 10
 191 012c 23B0E700 		sd	a4,0(a5)
  64:src/CCB.cpp   ****     if(tail == curr) tail = nullptr;
 192              		.loc 1 64 5 is_stmt 1
 193              		.loc 1 64 8 is_stmt 0
GAS LISTING /tmp/ccWBBpUU.s 			page 6


 194 0130 03B78700 		ld	a4,8(a5)
 195              		.loc 1 64 5
 196 0134 6304E502 		beq	a0,a4,.L18
 197              	.L15:
  65:src/CCB.cpp   **** 
  66:src/CCB.cpp   ****     char c = curr->data;
 198              		.loc 1 66 5 is_stmt 1
 199              		.loc 1 66 10 is_stmt 0
 200 0138 83448500 		lbu	s1,8(a0)
 201              	.LVL15:
  67:src/CCB.cpp   ****     MemoryAllocator::mem_free(curr);
 202              		.loc 1 67 5 is_stmt 1
 203              		.loc 1 67 30 is_stmt 0
 204 013c 97000000 		call	_ZN15MemoryAllocator8mem_freeEPv@plt
 204      E7800000 
 205              	.LVL16:
  68:src/CCB.cpp   ****     return c;
 206              		.loc 1 68 5 is_stmt 1
 207              	.L14:
  69:src/CCB.cpp   **** }
 208              		.loc 1 69 1 is_stmt 0
 209 0144 13850400 		mv	a0,s1
 210 0148 83308101 		ld	ra,24(sp)
 211              		.cfi_remember_state
 212              		.cfi_restore 1
 213 014c 03340101 		ld	s0,16(sp)
 214              		.cfi_restore 8
 215              		.cfi_def_cfa 2, 32
 216 0150 83348100 		ld	s1,8(sp)
 217              		.cfi_restore 9
 218 0154 13010102 		addi	sp,sp,32
 219              		.cfi_def_cfa_offset 0
 220 0158 67800000 		jr	ra
 221              	.LVL17:
 222              	.L18:
 223              		.cfi_restore_state
  64:src/CCB.cpp   **** 
 224              		.loc 1 64 22 is_stmt 1 discriminator 1
  64:src/CCB.cpp   **** 
 225              		.loc 1 64 27 is_stmt 0 discriminator 1
 226 015c 23B40700 		sd	zero,8(a5)
 227 0160 6FF09FFD 		j	.L15
 228              	.LVL18:
 229              	.L16:
  60:src/CCB.cpp   **** 
 230              		.loc 1 60 22
 231 0164 93040000 		li	s1,0
 232 0168 6FF0DFFD 		j	.L14
 233              		.cfi_endproc
 234              	.LFE28:
 236              		.align	2
 237              		.globl	_ZN8IOBuffer8peekBackEv
 239              	_ZN8IOBuffer8peekBackEv:
 240              	.LFB29:
  70:src/CCB.cpp   **** 
  71:src/CCB.cpp   **** char IOBuffer::peekBack() {
 241              		.loc 1 71 27 is_stmt 1
GAS LISTING /tmp/ccWBBpUU.s 			page 7


 242              		.cfi_startproc
 243              	.LVL19:
 244 016c 130101FF 		addi	sp,sp,-16
 245              		.cfi_def_cfa_offset 16
 246 0170 23348100 		sd	s0,8(sp)
 247              		.cfi_offset 8, -8
 248 0174 13040101 		addi	s0,sp,16
 249              		.cfi_def_cfa 8, 0
  72:src/CCB.cpp   ****     return tail ? tail->data : 0;
 250              		.loc 1 72 5
 251              		.loc 1 72 12 is_stmt 0
 252 0178 83378500 		ld	a5,8(a0)
 253              		.loc 1 72 32
 254 017c 638A0700 		beqz	a5,.L21
 255              		.loc 1 72 32 discriminator 1
 256 0180 03C58700 		lbu	a0,8(a5)
 257              	.LVL20:
 258              	.L20:
  73:src/CCB.cpp   **** }
 259              		.loc 1 73 1 discriminator 4
 260 0184 03348100 		ld	s0,8(sp)
 261              		.cfi_remember_state
 262              		.cfi_restore 8
 263              		.cfi_def_cfa 2, 16
 264 0188 13010101 		addi	sp,sp,16
 265              		.cfi_def_cfa_offset 0
 266 018c 67800000 		jr	ra
 267              	.LVL21:
 268              	.L21:
 269              		.cfi_restore_state
  72:src/CCB.cpp   ****     return tail ? tail->data : 0;
 270              		.loc 1 72 32
 271 0190 13050000 		li	a0,0
 272              	.LVL22:
 273 0194 6FF01FFF 		j	.L20
 274              		.cfi_endproc
 275              	.LFE29:
 277              		.align	2
 278              		.globl	_ZN8IOBuffer9peekFrontEv
 280              	_ZN8IOBuffer9peekFrontEv:
 281              	.LFB30:
  74:src/CCB.cpp   **** 
  75:src/CCB.cpp   **** char IOBuffer::peekFront() {
 282              		.loc 1 75 28 is_stmt 1
 283              		.cfi_startproc
 284              	.LVL23:
 285 0198 130101FF 		addi	sp,sp,-16
 286              		.cfi_def_cfa_offset 16
 287 019c 23348100 		sd	s0,8(sp)
 288              		.cfi_offset 8, -8
 289 01a0 13040101 		addi	s0,sp,16
 290              		.cfi_def_cfa 8, 0
  76:src/CCB.cpp   ****     return head ? head->data : 0;
 291              		.loc 1 76 5
 292              		.loc 1 76 12 is_stmt 0
 293 01a4 83370500 		ld	a5,0(a0)
 294              		.loc 1 76 32
GAS LISTING /tmp/ccWBBpUU.s 			page 8


 295 01a8 638A0700 		beqz	a5,.L25
 296              		.loc 1 76 32 discriminator 1
 297 01ac 03C58700 		lbu	a0,8(a5)
 298              	.LVL24:
 299              	.L24:
  77:src/CCB.cpp   **** }
 300              		.loc 1 77 1 discriminator 4
 301 01b0 03348100 		ld	s0,8(sp)
 302              		.cfi_remember_state
 303              		.cfi_restore 8
 304              		.cfi_def_cfa 2, 16
 305 01b4 13010101 		addi	sp,sp,16
 306              		.cfi_def_cfa_offset 0
 307 01b8 67800000 		jr	ra
 308              	.LVL25:
 309              	.L25:
 310              		.cfi_restore_state
  76:src/CCB.cpp   ****     return head ? head->data : 0;
 311              		.loc 1 76 32
 312 01bc 13050000 		li	a0,0
 313              	.LVL26:
 314 01c0 6FF01FFF 		j	.L24
 315              		.cfi_endproc
 316              	.LFE30:
 318              		.align	2
 319              		.globl	_ZN3CCB10outputBodyEPv
 321              	_ZN3CCB10outputBodyEPv:
 322              	.LFB26:
  29:src/CCB.cpp   ****     bool t = false;
 323              		.loc 1 29 30 is_stmt 1
 324              		.cfi_startproc
 325 01c4 130101FE 		addi	sp,sp,-32
 326              		.cfi_def_cfa_offset 32
 327 01c8 233C1100 		sd	ra,24(sp)
 328 01cc 23388100 		sd	s0,16(sp)
 329 01d0 23349100 		sd	s1,8(sp)
 330 01d4 23302101 		sd	s2,0(sp)
 331              		.cfi_offset 1, -8
 332              		.cfi_offset 8, -16
 333              		.cfi_offset 9, -24
 334              		.cfi_offset 18, -32
 335 01d8 13040102 		addi	s0,sp,32
 336              		.cfi_def_cfa 8, 0
  30:src/CCB.cpp   ****     while(true) {
 337              		.loc 1 30 5
 338              	.LVL27:
  30:src/CCB.cpp   ****     while(true) {
 339              		.loc 1 30 10 is_stmt 0
 340 01dc 93040000 		li	s1,0
 341 01e0 6F008002 		j	.L28
 342              	.LVL28:
 343              	.L29:
  37:src/CCB.cpp   ****             plic_complete(CONSOLE_IRQ);
 344              		.loc 1 37 9 is_stmt 1
 345 01e4 639A0400 		bnez	s1,.L31
  38:src/CCB.cpp   ****             t = true;
 346              		.loc 1 38 13
GAS LISTING /tmp/ccWBBpUU.s 			page 9


  38:src/CCB.cpp   ****             t = true;
 347              		.loc 1 38 26 is_stmt 0
 348 01e8 1305A000 		li	a0,10
 349 01ec 97000000 		call	plic_complete@plt
 349      E7800000 
 350              	.LVL29:
  39:src/CCB.cpp   ****         }
 351              		.loc 1 39 13 is_stmt 1
  39:src/CCB.cpp   ****         }
 352              		.loc 1 39 15 is_stmt 0
 353 01f4 93041000 		li	s1,1
 354              	.LVL30:
 355              	.L31:
  41:src/CCB.cpp   ****     }
 356              		.loc 1 41 9 is_stmt 1
  41:src/CCB.cpp   ****     }
 357              		.loc 1 41 17 is_stmt 0
 358 01f8 17050000 		ld	a0,.LANCHOR0+48
 358      03350500 
 359 0200 97000000 		call	_Z8sem_waitP3SCB@plt
 359      E7800000 
 360              	.LVL31:
  31:src/CCB.cpp   ****         while(*(char*)CONSOLE_STATUS & CONSOLE_TX_STATUS_BIT) {
 361              		.loc 1 31 5 is_stmt 1
 362              	.L28:
  31:src/CCB.cpp   ****         while(*(char*)CONSOLE_STATUS & CONSOLE_TX_STATUS_BIT) {
 363              		.loc 1 31 5
  32:src/CCB.cpp   ****             if(outputBuffer.peekFront() == 0) break;
 364              		.loc 1 32 9
  32:src/CCB.cpp   ****             if(outputBuffer.peekFront() == 0) break;
 365              		.loc 1 32 40
  32:src/CCB.cpp   ****             if(outputBuffer.peekFront() == 0) break;
 366              		.loc 1 32 15 is_stmt 0
 367 0208 97070000 		la	a5,CONSOLE_STATUS
 367      83B70700 
 368 0210 83B70700 		ld	a5,0(a5)
 369 0214 83C70700 		lbu	a5,0(a5)
  32:src/CCB.cpp   ****             if(outputBuffer.peekFront() == 0) break;
 370              		.loc 1 32 40
 371 0218 93F70702 		andi	a5,a5,32
 372 021c E38407FC 		beqz	a5,.L29
  33:src/CCB.cpp   **** 
 373              		.loc 1 33 13 is_stmt 1
  33:src/CCB.cpp   **** 
 374              		.loc 1 33 38 is_stmt 0
 375 0220 17050000 		lla	a0,.LANCHOR0+32
 375      13050500 
 376 0228 97000000 		call	_ZN8IOBuffer9peekFrontEv
 376      E7800000 
 377              	.LVL32:
  33:src/CCB.cpp   **** 
 378              		.loc 1 33 13
 379 0230 E30A05FA 		beqz	a0,.L29
  35:src/CCB.cpp   ****         }
 380              		.loc 1 35 13 is_stmt 1
 381 0234 97070000 		la	a5,CONSOLE_TX_DATA
 381      83B70700 
GAS LISTING /tmp/ccWBBpUU.s 			page 10


 382 023c 03B90700 		ld	s2,0(a5)
  35:src/CCB.cpp   ****         }
 383              		.loc 1 35 62 is_stmt 0
 384 0240 17050000 		lla	a0,.LANCHOR0+32
 384      13050500 
 385 0248 97000000 		call	_ZN8IOBuffer8popFrontEv
 385      E7800000 
 386              	.LVL33:
  35:src/CCB.cpp   ****         }
 387              		.loc 1 35 39
 388 0250 2300A900 		sb	a0,0(s2)
  32:src/CCB.cpp   ****             if(outputBuffer.peekFront() == 0) break;
 389              		.loc 1 32 9
 390 0254 6FF05FFB 		j	.L28
 391              		.cfi_endproc
 392              	.LFE26:
 394              		.globl	_ZN3CCB12outputBufferE
 395              		.globl	_ZN3CCB11inputBufferE
 396              		.globl	_ZN3CCB16inputBufferEmptyE
 397              		.globl	_ZN3CCB9semOutputE
 398              		.globl	_ZN3CCB8semInputE
 399              		.globl	_ZN3CCB13outputProcessE
 400              		.globl	_ZN3CCB12inputProccesE
 401              		.bss
 402              		.align	3
 403              		.set	.LANCHOR0,. + 0
 406              	_ZN3CCB11inputBufferE:
 407 0000 00000000 		.zero	16
 407      00000000 
 407      00000000 
 407      00000000 
 410              	_ZN3CCB16inputBufferEmptyE:
 411 0010 00000000 		.zero	8
 411      00000000 
 414              	_ZN3CCB8semInputE:
 415 0018 00000000 		.zero	8
 415      00000000 
 418              	_ZN3CCB12outputBufferE:
 419 0020 00000000 		.zero	16
 419      00000000 
 419      00000000 
 419      00000000 
 422              	_ZN3CCB9semOutputE:
 423 0030 00000000 		.zero	8
 423      00000000 
 426              	_ZN3CCB13outputProcessE:
 427 0038 00000000 		.zero	8
 427      00000000 
 430              	_ZN3CCB12inputProccesE:
 431 0040 00000000 		.zero	8
 431      00000000 
 432              		.text
 433              	.Letext0:
 434              		.file 2 "src/../h/CCB.h"
 435              		.file 3 "src/../h/SCB.h"
 436              		.file 4 "src/../h/PCB.h"
 437              		.file 5 "src/../h/hw.h"
GAS LISTING /tmp/ccWBBpUU.s 			page 11


 438              		.file 6 "src/../h/MemoryAllocator.h"
 439              		.file 7 "src/../h/syscall_c.h"
GAS LISTING /tmp/ccWBBpUU.s 			page 12


DEFINED SYMBOLS
                            *ABS*:0000000000000000 CCB.cpp
     /tmp/ccWBBpUU.s:9      .text:0000000000000000 _ZN8IOBuffer8pushBackEc
     /tmp/ccWBBpUU.s:13     .text:0000000000000000 .L0 
     /tmp/ccWBBpUU.s:15     .text:0000000000000000 .L0 
     /tmp/ccWBBpUU.s:16     .text:0000000000000004 .L0 
     /tmp/ccWBBpUU.s:21     .text:0000000000000014 .L0 
     /tmp/ccWBBpUU.s:22     .text:0000000000000014 .L0 
     /tmp/ccWBBpUU.s:23     .text:0000000000000014 .L0 
     /tmp/ccWBBpUU.s:24     .text:0000000000000014 .L0 
     /tmp/ccWBBpUU.s:26     .text:0000000000000018 .L0 
     /tmp/ccWBBpUU.s:30     .text:0000000000000020 .L0 
     /tmp/ccWBBpUU.s:31     .text:0000000000000020 .L0 
     /tmp/ccWBBpUU.s:36     .text:000000000000002c .L0 
     /tmp/ccWBBpUU.s:37     .text:000000000000002c .L0 
     /tmp/ccWBBpUU.s:39     .text:0000000000000030 .L0 
     /tmp/ccWBBpUU.s:40     .text:0000000000000030 .L0 
     /tmp/ccWBBpUU.s:42     .text:0000000000000034 .L0 
     /tmp/ccWBBpUU.s:43     .text:0000000000000034 .L0 
     /tmp/ccWBBpUU.s:45     .text:0000000000000038 .L0 
     /tmp/ccWBBpUU.s:47     .text:000000000000003c .L0 
     /tmp/ccWBBpUU.s:49     .text:0000000000000040 .L0 
     /tmp/ccWBBpUU.s:51     .text:0000000000000044 .L0 
     /tmp/ccWBBpUU.s:52     .text:0000000000000044 .L0 
     /tmp/ccWBBpUU.s:54     .text:0000000000000048 .L0 
     /tmp/ccWBBpUU.s:56     .text:000000000000004c .L0 
     /tmp/ccWBBpUU.s:59     .text:0000000000000050 .L0 
     /tmp/ccWBBpUU.s:60     .text:0000000000000054 .L0 
     /tmp/ccWBBpUU.s:61     .text:0000000000000054 .L0 
     /tmp/ccWBBpUU.s:63     .text:0000000000000058 .L0 
     /tmp/ccWBBpUU.s:64     .text:0000000000000058 .L0 
     /tmp/ccWBBpUU.s:66     .text:000000000000005c .L0 
     /tmp/ccWBBpUU.s:69     .text:0000000000000060 .L0 
     /tmp/ccWBBpUU.s:71     .text:0000000000000064 .L0 
     /tmp/ccWBBpUU.s:75     .text:0000000000000068 .L0 
     /tmp/ccWBBpUU.s:77     .text:0000000000000068 .L0 
     /tmp/ccWBBpUU.s:78     .text:0000000000000068 .L0 
     /tmp/ccWBBpUU.s:80     .text:000000000000006c .L0 
     /tmp/ccWBBpUU.s:82     .text:0000000000000074 .L0 
     /tmp/ccWBBpUU.s:88     .text:0000000000000074 _ZN3CCB9inputBodyEPv
     /tmp/ccWBBpUU.s:91     .text:0000000000000074 .L0 
     /tmp/ccWBBpUU.s:92     .text:0000000000000074 .L0 
     /tmp/ccWBBpUU.s:93     .text:0000000000000078 .L0 
     /tmp/ccWBBpUU.s:98     .text:0000000000000088 .L0 
     /tmp/ccWBBpUU.s:99     .text:0000000000000088 .L0 
     /tmp/ccWBBpUU.s:100    .text:0000000000000088 .L0 
     /tmp/ccWBBpUU.s:101    .text:0000000000000088 .L0 
     /tmp/ccWBBpUU.s:103    .text:000000000000008c .L0 
     /tmp/ccWBBpUU.s:106    .text:000000000000008c .L0 
     /tmp/ccWBBpUU.s:107    .text:000000000000008c .L0 
     /tmp/ccWBBpUU.s:112    .text:0000000000000094 .L0 
     /tmp/ccWBBpUU.s:113    .text:0000000000000094 .L0 
     /tmp/ccWBBpUU.s:121    .text:00000000000000b8 .L0 
     /tmp/ccWBBpUU.s:122    .text:00000000000000b8 .L0 
     /tmp/ccWBBpUU.s:126    .text:00000000000000c4 .L0 
     /tmp/ccWBBpUU.s:130    .text:00000000000000c8 .L0 
     /tmp/ccWBBpUU.s:131    .text:00000000000000c8 .L0 
GAS LISTING /tmp/ccWBBpUU.s 			page 13


     /tmp/ccWBBpUU.s:136    .text:00000000000000d8 .L0 
     /tmp/ccWBBpUU.s:137    .text:00000000000000d8 .L0 
     /tmp/ccWBBpUU.s:138    .text:00000000000000d8 .L0 
     /tmp/ccWBBpUU.s:139    .text:00000000000000d8 .L0 
     /tmp/ccWBBpUU.s:140    .text:00000000000000d8 .L0 
     /tmp/ccWBBpUU.s:144    .text:00000000000000e8 .L0 
     /tmp/ccWBBpUU.s:147    .text:00000000000000f0 .L0 
     /tmp/ccWBBpUU.s:149    .text:00000000000000f4 .L0 
     /tmp/ccWBBpUU.s:150    .text:00000000000000f4 .L0 
     /tmp/ccWBBpUU.s:154    .text:0000000000000100 .L0 
     /tmp/ccWBBpUU.s:155    .text:0000000000000100 .L0 
     /tmp/ccWBBpUU.s:157    .text:0000000000000108 .L0 
     /tmp/ccWBBpUU.s:163    .text:0000000000000108 _ZN8IOBuffer8popFrontEv
     /tmp/ccWBBpUU.s:166    .text:0000000000000108 .L0 
     /tmp/ccWBBpUU.s:168    .text:0000000000000108 .L0 
     /tmp/ccWBBpUU.s:169    .text:000000000000010c .L0 
     /tmp/ccWBBpUU.s:173    .text:0000000000000118 .L0 
     /tmp/ccWBBpUU.s:174    .text:0000000000000118 .L0 
     /tmp/ccWBBpUU.s:175    .text:0000000000000118 .L0 
     /tmp/ccWBBpUU.s:177    .text:000000000000011c .L0 
     /tmp/ccWBBpUU.s:180    .text:0000000000000120 .L0 
     /tmp/ccWBBpUU.s:181    .text:0000000000000120 .L0 
     /tmp/ccWBBpUU.s:184    .text:0000000000000124 .L0 
     /tmp/ccWBBpUU.s:187    .text:0000000000000128 .L0 
     /tmp/ccWBBpUU.s:188    .text:0000000000000128 .L0 
     /tmp/ccWBBpUU.s:189    .text:0000000000000128 .L0 
     /tmp/ccWBBpUU.s:191    .text:000000000000012c .L0 
     /tmp/ccWBBpUU.s:193    .text:0000000000000130 .L0 
     /tmp/ccWBBpUU.s:194    .text:0000000000000130 .L0 
     /tmp/ccWBBpUU.s:196    .text:0000000000000134 .L0 
     /tmp/ccWBBpUU.s:199    .text:0000000000000138 .L0 
     /tmp/ccWBBpUU.s:200    .text:0000000000000138 .L0 
     /tmp/ccWBBpUU.s:203    .text:000000000000013c .L0 
     /tmp/ccWBBpUU.s:204    .text:000000000000013c .L0 
     /tmp/ccWBBpUU.s:208    .text:0000000000000144 .L0 
     /tmp/ccWBBpUU.s:209    .text:0000000000000144 .L0 
     /tmp/ccWBBpUU.s:211    .text:000000000000014c .L0 
     /tmp/ccWBBpUU.s:212    .text:000000000000014c .L0 
     /tmp/ccWBBpUU.s:214    .text:0000000000000150 .L0 
     /tmp/ccWBBpUU.s:215    .text:0000000000000150 .L0 
     /tmp/ccWBBpUU.s:217    .text:0000000000000154 .L0 
     /tmp/ccWBBpUU.s:219    .text:0000000000000158 .L0 
     /tmp/ccWBBpUU.s:223    .text:000000000000015c .L0 
     /tmp/ccWBBpUU.s:225    .text:000000000000015c .L0 
     /tmp/ccWBBpUU.s:226    .text:000000000000015c .L0 
     /tmp/ccWBBpUU.s:231    .text:0000000000000164 .L0 
     /tmp/ccWBBpUU.s:233    .text:000000000000016c .L0 
     /tmp/ccWBBpUU.s:239    .text:000000000000016c _ZN8IOBuffer8peekBackEv
     /tmp/ccWBBpUU.s:242    .text:000000000000016c .L0 
     /tmp/ccWBBpUU.s:244    .text:000000000000016c .L0 
     /tmp/ccWBBpUU.s:245    .text:0000000000000170 .L0 
     /tmp/ccWBBpUU.s:247    .text:0000000000000174 .L0 
     /tmp/ccWBBpUU.s:249    .text:0000000000000178 .L0 
     /tmp/ccWBBpUU.s:251    .text:0000000000000178 .L0 
     /tmp/ccWBBpUU.s:252    .text:0000000000000178 .L0 
     /tmp/ccWBBpUU.s:254    .text:000000000000017c .L0 
     /tmp/ccWBBpUU.s:256    .text:0000000000000180 .L0 
GAS LISTING /tmp/ccWBBpUU.s 			page 14


     /tmp/ccWBBpUU.s:260    .text:0000000000000184 .L0 
     /tmp/ccWBBpUU.s:261    .text:0000000000000188 .L0 
     /tmp/ccWBBpUU.s:262    .text:0000000000000188 .L0 
     /tmp/ccWBBpUU.s:263    .text:0000000000000188 .L0 
     /tmp/ccWBBpUU.s:265    .text:000000000000018c .L0 
     /tmp/ccWBBpUU.s:269    .text:0000000000000190 .L0 
     /tmp/ccWBBpUU.s:271    .text:0000000000000190 .L0 
     /tmp/ccWBBpUU.s:274    .text:0000000000000198 .L0 
     /tmp/ccWBBpUU.s:280    .text:0000000000000198 _ZN8IOBuffer9peekFrontEv
     /tmp/ccWBBpUU.s:283    .text:0000000000000198 .L0 
     /tmp/ccWBBpUU.s:285    .text:0000000000000198 .L0 
     /tmp/ccWBBpUU.s:286    .text:000000000000019c .L0 
     /tmp/ccWBBpUU.s:288    .text:00000000000001a0 .L0 
     /tmp/ccWBBpUU.s:290    .text:00000000000001a4 .L0 
     /tmp/ccWBBpUU.s:292    .text:00000000000001a4 .L0 
     /tmp/ccWBBpUU.s:293    .text:00000000000001a4 .L0 
     /tmp/ccWBBpUU.s:295    .text:00000000000001a8 .L0 
     /tmp/ccWBBpUU.s:297    .text:00000000000001ac .L0 
     /tmp/ccWBBpUU.s:301    .text:00000000000001b0 .L0 
     /tmp/ccWBBpUU.s:302    .text:00000000000001b4 .L0 
     /tmp/ccWBBpUU.s:303    .text:00000000000001b4 .L0 
     /tmp/ccWBBpUU.s:304    .text:00000000000001b4 .L0 
     /tmp/ccWBBpUU.s:306    .text:00000000000001b8 .L0 
     /tmp/ccWBBpUU.s:310    .text:00000000000001bc .L0 
     /tmp/ccWBBpUU.s:312    .text:00000000000001bc .L0 
     /tmp/ccWBBpUU.s:315    .text:00000000000001c4 .L0 
     /tmp/ccWBBpUU.s:321    .text:00000000000001c4 _ZN3CCB10outputBodyEPv
     /tmp/ccWBBpUU.s:324    .text:00000000000001c4 .L0 
     /tmp/ccWBBpUU.s:325    .text:00000000000001c4 .L0 
     /tmp/ccWBBpUU.s:326    .text:00000000000001c8 .L0 
     /tmp/ccWBBpUU.s:331    .text:00000000000001d8 .L0 
     /tmp/ccWBBpUU.s:332    .text:00000000000001d8 .L0 
     /tmp/ccWBBpUU.s:333    .text:00000000000001d8 .L0 
     /tmp/ccWBBpUU.s:334    .text:00000000000001d8 .L0 
     /tmp/ccWBBpUU.s:336    .text:00000000000001dc .L0 
     /tmp/ccWBBpUU.s:339    .text:00000000000001dc .L0 
     /tmp/ccWBBpUU.s:340    .text:00000000000001dc .L0 
     /tmp/ccWBBpUU.s:345    .text:00000000000001e4 .L0 
     /tmp/ccWBBpUU.s:347    .text:00000000000001e8 .L0 
     /tmp/ccWBBpUU.s:348    .text:00000000000001e8 .L0 
     /tmp/ccWBBpUU.s:352    .text:00000000000001f4 .L0 
     /tmp/ccWBBpUU.s:353    .text:00000000000001f4 .L0 
     /tmp/ccWBBpUU.s:357    .text:00000000000001f8 .L0 
     /tmp/ccWBBpUU.s:358    .text:00000000000001f8 .L0 
     /tmp/ccWBBpUU.s:363    .text:0000000000000208 .L0 
     /tmp/ccWBBpUU.s:364    .text:0000000000000208 .L0 
     /tmp/ccWBBpUU.s:365    .text:0000000000000208 .L0 
     /tmp/ccWBBpUU.s:366    .text:0000000000000208 .L0 
     /tmp/ccWBBpUU.s:367    .text:0000000000000208 .L0 
     /tmp/ccWBBpUU.s:371    .text:0000000000000218 .L0 
     /tmp/ccWBBpUU.s:374    .text:0000000000000220 .L0 
     /tmp/ccWBBpUU.s:375    .text:0000000000000220 .L0 
     /tmp/ccWBBpUU.s:379    .text:0000000000000230 .L0 
     /tmp/ccWBBpUU.s:381    .text:0000000000000234 .L0 
     /tmp/ccWBBpUU.s:384    .text:0000000000000240 .L0 
     /tmp/ccWBBpUU.s:388    .text:0000000000000250 .L0 
     /tmp/ccWBBpUU.s:390    .text:0000000000000254 .L0 
GAS LISTING /tmp/ccWBBpUU.s 			page 15


     /tmp/ccWBBpUU.s:391    .text:0000000000000258 .L0 
     /tmp/ccWBBpUU.s:418    .bss:0000000000000020 _ZN3CCB12outputBufferE
     /tmp/ccWBBpUU.s:406    .bss:0000000000000000 _ZN3CCB11inputBufferE
     /tmp/ccWBBpUU.s:410    .bss:0000000000000010 _ZN3CCB16inputBufferEmptyE
     /tmp/ccWBBpUU.s:422    .bss:0000000000000030 _ZN3CCB9semOutputE
     /tmp/ccWBBpUU.s:414    .bss:0000000000000018 _ZN3CCB8semInputE
     /tmp/ccWBBpUU.s:426    .bss:0000000000000038 _ZN3CCB13outputProcessE
     /tmp/ccWBBpUU.s:430    .bss:0000000000000040 _ZN3CCB12inputProccesE
     /tmp/ccWBBpUU.s:403    .bss:0000000000000000 .LANCHOR0
     /tmp/ccWBBpUU.s:440    .text:0000000000000258 .L0 
     /tmp/ccWBBpUU.s:113    .text:0000000000000094 .L0 
     /tmp/ccWBBpUU.s:115    .text:00000000000000a0 .L0 
     /tmp/ccWBBpUU.s:131    .text:00000000000000c8 .L0 
     /tmp/ccWBBpUU.s:140    .text:00000000000000d8 .L0 
     /tmp/ccWBBpUU.s:358    .text:00000000000001f8 .L0 
     /tmp/ccWBBpUU.s:367    .text:0000000000000208 .L0 
     /tmp/ccWBBpUU.s:375    .text:0000000000000220 .L0 
     /tmp/ccWBBpUU.s:381    .text:0000000000000234 .L0 
     /tmp/ccWBBpUU.s:384    .text:0000000000000240 .L0 
     /tmp/ccWBBpUU.s:74     .text:0000000000000068 .L5
     /tmp/ccWBBpUU.s:57     .text:0000000000000050 .L1
     /tmp/ccWBBpUU.s:135    .text:00000000000000d8 .L7
     /tmp/ccWBBpUU.s:110    .text:0000000000000094 .L12
     /tmp/ccWBBpUU.s:128    .text:00000000000000c8 .L10
     /tmp/ccWBBpUU.s:229    .text:0000000000000164 .L16
     /tmp/ccWBBpUU.s:222    .text:000000000000015c .L18
     /tmp/ccWBBpUU.s:197    .text:0000000000000138 .L15
     /tmp/ccWBBpUU.s:207    .text:0000000000000144 .L14
     /tmp/ccWBBpUU.s:268    .text:0000000000000190 .L21
     /tmp/ccWBBpUU.s:258    .text:0000000000000184 .L20
     /tmp/ccWBBpUU.s:309    .text:00000000000001bc .L25
     /tmp/ccWBBpUU.s:299    .text:00000000000001b0 .L24
     /tmp/ccWBBpUU.s:362    .text:0000000000000208 .L28
     /tmp/ccWBBpUU.s:355    .text:00000000000001f8 .L31
     /tmp/ccWBBpUU.s:343    .text:00000000000001e4 .L29
     /tmp/ccWBBpUU.s:1744   .debug_abbrev:0000000000000000 .Ldebug_abbrev0
     /tmp/ccWBBpUU.s:3082   .debug_str:0000000000000810 .LASF145
     /tmp/ccWBBpUU.s:2938   .debug_str:00000000000003c3 .LASF146
     /tmp/ccWBBpUU.s:3110   .debug_str:00000000000009a3 .LASF147
     /tmp/ccWBBpUU.s:5      .text:0000000000000000 .Ltext0
     /tmp/ccWBBpUU.s:433    .text:0000000000000258 .Letext0
     /tmp/ccWBBpUU.s:2824   .debug_line:0000000000000000 .Ldebug_line0
     /tmp/ccWBBpUU.s:3014   .debug_str:000000000000063f .LASF0
     /tmp/ccWBBpUU.s:3094   .debug_str:0000000000000909 .LASF1
     /tmp/ccWBBpUU.s:3064   .debug_str:000000000000079a .LASF2
     /tmp/ccWBBpUU.s:3126   .debug_str:0000000000000a38 .LASF3
     /tmp/ccWBBpUU.s:2914   .debug_str:00000000000002e4 .LASF4
     /tmp/ccWBBpUU.s:2970   .debug_str:00000000000004e9 .LASF5
     /tmp/ccWBBpUU.s:3032   .debug_str:00000000000006c7 .LASF6
     /tmp/ccWBBpUU.s:3072   .debug_str:00000000000007cc .LASF7
     /tmp/ccWBBpUU.s:2976   .debug_str:000000000000050f .LASF9
     /tmp/ccWBBpUU.s:3124   .debug_str:0000000000000a2d .LASF8
     /tmp/ccWBBpUU.s:2958   .debug_str:0000000000000484 .LASF10
     /tmp/ccWBBpUU.s:3052   .debug_str:0000000000000740 .LASF25
     /tmp/ccWBBpUU.s:2954   .debug_str:0000000000000473 .LASF11
     /tmp/ccWBBpUU.s:3002   .debug_str:00000000000005e1 .LASF13
     /tmp/ccWBBpUU.s:3130   .debug_str:0000000000000a4a .LASF12
GAS LISTING /tmp/ccWBBpUU.s 			page 16


     /tmp/ccWBBpUU.s:2996   .debug_str:00000000000005ae .LASF14
     /tmp/ccWBBpUU.s:3026   .debug_str:0000000000000696 .LASF15
     /tmp/ccWBBpUU.s:2850   .debug_str:00000000000000f9 .LASF16
     /tmp/ccWBBpUU.s:3108   .debug_str:0000000000000996 .LASF19
     /tmp/ccWBBpUU.s:2906   .debug_str:00000000000002a1 .LASF21
     /tmp/ccWBBpUU.s:3070   .debug_str:00000000000007bc .LASF17
     /tmp/ccWBBpUU.s:2922   .debug_str:000000000000032f .LASF18
     /tmp/ccWBBpUU.s:3114   .debug_str:00000000000009ce .LASF20
     /tmp/ccWBBpUU.s:2916   .debug_str:00000000000002f2 .LASF22
     /tmp/ccWBBpUU.s:2884   .debug_str:0000000000000203 .LASF23
     /tmp/ccWBBpUU.s:2840   .debug_str:000000000000009a .LASF24
     /tmp/ccWBBpUU.s:3088   .debug_str:00000000000008e9 .LASF26
     /tmp/ccWBBpUU.s:2946   .debug_str:000000000000041f .LASF27
     /tmp/ccWBBpUU.s:3054   .debug_str:000000000000074c .LASF28
     /tmp/ccWBBpUU.s:2856   .debug_str:0000000000000128 .LASF29
     /tmp/ccWBBpUU.s:2828   .debug_str:000000000000001b .LASF30
     /tmp/ccWBBpUU.s:2890   .debug_str:0000000000000225 .LASF31
     /tmp/ccWBBpUU.s:2968   .debug_str:00000000000004e4 .LASF32
     /tmp/ccWBBpUU.s:2878   .debug_str:00000000000001d9 .LASF33
     /tmp/ccWBBpUU.s:3062   .debug_str:000000000000078f .LASF34
     /tmp/ccWBBpUU.s:3028   .debug_str:000000000000069d .LASF35
     /tmp/ccWBBpUU.s:3044   .debug_str:0000000000000717 .LASF36
     /tmp/ccWBBpUU.s:2910   .debug_str:00000000000002bd .LASF37
     /tmp/ccWBBpUU.s:3106   .debug_str:0000000000000986 .LASF38
     /tmp/ccWBBpUU.s:2926   .debug_str:000000000000034a .LASF39
     /tmp/ccWBBpUU.s:2972   .debug_str:00000000000004f5 .LASF40
     /tmp/ccWBBpUU.s:2998   .debug_str:00000000000005bd .LASF41
     /tmp/ccWBBpUU.s:3078   .debug_str:00000000000007f1 .LASF42
     /tmp/ccWBBpUU.s:2898   .debug_str:000000000000025c .LASF43
     /tmp/ccWBBpUU.s:3132   .debug_str:0000000000000a4f .LASF44
     /tmp/ccWBBpUU.s:2846   .debug_str:00000000000000cb .LASF45
     /tmp/ccWBBpUU.s:2838   .debug_str:000000000000008f .LASF46
     /tmp/ccWBBpUU.s:3040   .debug_str:00000000000006f3 .LASF47
     /tmp/ccWBBpUU.s:3042   .debug_str:0000000000000709 .LASF48
     /tmp/ccWBBpUU.s:2920   .debug_str:0000000000000316 .LASF49
     /tmp/ccWBBpUU.s:2876   .debug_str:00000000000001ca .LASF50
     /tmp/ccWBBpUU.s:3118   .debug_str:00000000000009e3 .LASF51
     /tmp/ccWBBpUU.s:2864   .debug_str:0000000000000170 .LASF148
     /tmp/ccWBBpUU.s:3058   .debug_str:0000000000000772 .LASF149
     /tmp/ccWBBpUU.s:3098   .debug_str:0000000000000923 .LASF150
     /tmp/ccWBBpUU.s:2912   .debug_str:00000000000002dc .LASF52
     /tmp/ccWBBpUU.s:3050   .debug_str:000000000000073b .LASF53
     /tmp/ccWBBpUU.s:2988   .debug_str:000000000000057a .LASF54
     /tmp/ccWBBpUU.s:3022   .debug_str:0000000000000685 .LASF55
     /tmp/ccWBBpUU.s:3074   .debug_str:00000000000007d6 .LASF56
     /tmp/ccWBBpUU.s:2860   .debug_str:0000000000000140 .LASF151
     /tmp/ccWBBpUU.s:2894   .debug_str:0000000000000238 .LASF152
     /tmp/ccWBBpUU.s:2844   .debug_str:00000000000000b8 .LASF57
     /tmp/ccWBBpUU.s:2980   .debug_str:0000000000000538 .LASF58
     /tmp/ccWBBpUU.s:3004   .debug_str:00000000000005f9 .LASF59
     /tmp/ccWBBpUU.s:3090   .debug_str:00000000000008f5 .LASF60
     /tmp/ccWBBpUU.s:2872   .debug_str:00000000000001a2 .LASF61
     /tmp/ccWBBpUU.s:2866   .debug_str:000000000000017c .LASF62
     /tmp/ccWBBpUU.s:2940   .debug_str:00000000000003cf .LASF63
     /tmp/ccWBBpUU.s:2994   .debug_str:00000000000005a6 .LASF64
     /tmp/ccWBBpUU.s:2880   .debug_str:00000000000001e2 .LASF65
     /tmp/ccWBBpUU.s:3012   .debug_str:0000000000000632 .LASF66
GAS LISTING /tmp/ccWBBpUU.s 			page 17


     /tmp/ccWBBpUU.s:2896   .debug_str:000000000000024e .LASF67
     /tmp/ccWBBpUU.s:3010   .debug_str:0000000000000628 .LASF68
     /tmp/ccWBBpUU.s:2934   .debug_str:0000000000000391 .LASF125
     /tmp/ccWBBpUU.s:3000   .debug_str:00000000000005d8 .LASF74
     /tmp/ccWBBpUU.s:2932   .debug_str:000000000000037e .LASF76
     /tmp/ccWBBpUU.s:2852   .debug_str:000000000000010a .LASF69
     /tmp/ccWBBpUU.s:2874   .debug_str:00000000000001ac .LASF71
     /tmp/ccWBBpUU.s:2854   .debug_str:0000000000000119 .LASF70
     /tmp/ccWBBpUU.s:2962   .debug_str:00000000000004a0 .LASF72
     /tmp/ccWBBpUU.s:2984   .debug_str:0000000000000568 .LASF73
     /tmp/ccWBBpUU.s:2992   .debug_str:0000000000000596 .LASF75
     /tmp/ccWBBpUU.s:3016   .debug_str:0000000000000648 .LASF77
     /tmp/ccWBBpUU.s:2902   .debug_str:000000000000028f .LASF78
     /tmp/ccWBBpUU.s:2960   .debug_str:000000000000049b .LASF109
     /tmp/ccWBBpUU.s:3128   .debug_str:0000000000000a45 .LASF79
     /tmp/ccWBBpUU.s:3048   .debug_str:0000000000000736 .LASF80
     /tmp/ccWBBpUU.s:2918   .debug_str:000000000000030d .LASF81
     /tmp/ccWBBpUU.s:2868   .debug_str:0000000000000181 .LASF82
     /tmp/ccWBBpUU.s:2928   .debug_str:0000000000000366 .LASF83
     /tmp/ccWBBpUU.s:3122   .debug_str:0000000000000a15 .LASF84
     /tmp/ccWBBpUU.s:2974   .debug_str:0000000000000505 .LASF85
     /tmp/ccWBBpUU.s:2944   .debug_str:0000000000000406 .LASF86
     /tmp/ccWBBpUU.s:3086   .debug_str:00000000000008e0 .LASF87
     /tmp/ccWBBpUU.s:2952   .debug_str:000000000000045b .LASF88
     /tmp/ccWBBpUU.s:3024   .debug_str:0000000000000691 .LASF89
     /tmp/ccWBBpUU.s:3112   .debug_str:00000000000009c1 .LASF90
     /tmp/ccWBBpUU.s:3034   .debug_str:00000000000006d4 .LASF91
     /tmp/ccWBBpUU.s:2966   .debug_str:00000000000004d6 .LASF92
     /tmp/ccWBBpUU.s:2888   .debug_str:000000000000021e .LASF94
     /tmp/ccWBBpUU.s:3006   .debug_str:00000000000005ff .LASF93
     /tmp/ccWBBpUU.s:3038   .debug_str:00000000000006ec .LASF95
     /tmp/ccWBBpUU.s:3018   .debug_str:0000000000000663 .LASF96
     /tmp/ccWBBpUU.s:2848   .debug_str:00000000000000e6 .LASF97
     /tmp/ccWBBpUU.s:3096   .debug_str:0000000000000913 .LASF98
     /tmp/ccWBBpUU.s:2924   .debug_str:000000000000033c .LASF99
     /tmp/ccWBBpUU.s:3102   .debug_str:0000000000000949 .LASF100
     /tmp/ccWBBpUU.s:3020   .debug_str:0000000000000676 .LASF101
     /tmp/ccWBBpUU.s:2858   .debug_str:0000000000000130 .LASF102
     /tmp/ccWBBpUU.s:2834   .debug_str:0000000000000076 .LASF103
     /tmp/ccWBBpUU.s:3084   .debug_str:00000000000008d4 .LASF104
     /tmp/ccWBBpUU.s:3056   .debug_str:000000000000075c .LASF105
     /tmp/ccWBBpUU.s:2882   .debug_str:00000000000001ed .LASF106
     /tmp/ccWBBpUU.s:2842   .debug_str:00000000000000b3 .LASF107
     /tmp/ccWBBpUU.s:2990   .debug_str:0000000000000586 .LASF108
     /tmp/ccWBBpUU.s:3046   .debug_str:000000000000072a .LASF110
     /tmp/ccWBBpUU.s:2836   .debug_str:0000000000000086 .LASF111
     /tmp/ccWBBpUU.s:2956   .debug_str:000000000000047f .LASF112
     /tmp/ccWBBpUU.s:3068   .debug_str:00000000000007b5 .LASF113
     /tmp/ccWBBpUU.s:2942   .debug_str:00000000000003d8 .LASF114
     /tmp/ccWBBpUU.s:3104   .debug_str:0000000000000958 .LASF153
     /tmp/ccWBBpUU.s:3066   .debug_str:00000000000007ab .LASF115
     /tmp/ccWBBpUU.s:2832   .debug_str:0000000000000055 .LASF116
     /tmp/ccWBBpUU.s:2904   .debug_str:0000000000000298 .LASF117
     /tmp/ccWBBpUU.s:2936   .debug_str:00000000000003a2 .LASF118
     /tmp/ccWBBpUU.s:2886   .debug_str:0000000000000211 .LASF119
     /tmp/ccWBBpUU.s:2982   .debug_str:0000000000000543 .LASF120
     /tmp/ccWBBpUU.s:2950   .debug_str:000000000000044e .LASF121
GAS LISTING /tmp/ccWBBpUU.s 			page 18


     /tmp/ccWBBpUU.s:2862   .debug_str:000000000000014b .LASF122
     /tmp/ccWBBpUU.s:2900   .debug_str:0000000000000276 .LASF123
     /tmp/ccWBBpUU.s:2892   .debug_str:000000000000022a .LASF124
     /tmp/ccWBBpUU.s:2908   .debug_str:00000000000002ad .LASF126
     /tmp/ccWBBpUU.s:2948   .debug_str:0000000000000425 .LASF127
     /tmp/ccWBBpUU.s:2930   .debug_str:000000000000036f .LASF128
     /tmp/ccWBBpUU.s:2830   .debug_str:000000000000002d .LASF129
     /tmp/ccWBBpUU.s:3060   .debug_str:0000000000000778 .LASF130
     /tmp/ccWBBpUU.s:2964   .debug_str:00000000000004be .LASF131
     /tmp/ccWBBpUU.s:3120   .debug_str:0000000000000a03 .LASF132
     /tmp/ccWBBpUU.s:3030   .debug_str:00000000000006b4 .LASF133
     /tmp/ccWBBpUU.s:2826   .debug_str:0000000000000000 .LASF134
     /tmp/ccWBBpUU.s:3100   .debug_str:0000000000000933 .LASF135
     /tmp/ccWBBpUU.s:3008   .debug_str:0000000000000611 .LASF136
     /tmp/ccWBBpUU.s:281    .text:0000000000000198 .LFB30
     /tmp/ccWBBpUU.s:316    .text:00000000000001c4 .LFE30
     /tmp/ccWBBpUU.s:3116   .debug_str:00000000000009de .LASF137
     /tmp/ccWBBpUU.s:2647   .debug_loc:0000000000000000 .LLST7
     /tmp/ccWBBpUU.s:240    .text:000000000000016c .LFB29
     /tmp/ccWBBpUU.s:275    .text:0000000000000198 .LFE29
     /tmp/ccWBBpUU.s:2672   .debug_loc:0000000000000062 .LLST6
     /tmp/ccWBBpUU.s:164    .text:0000000000000108 .LFB28
     /tmp/ccWBBpUU.s:234    .text:000000000000016c .LFE28
     /tmp/ccWBBpUU.s:2697   .debug_loc:00000000000000c4 .LLST3
     /tmp/ccWBBpUU.s:3036   .debug_str:00000000000006e7 .LASF138
     /tmp/ccWBBpUU.s:2719   .debug_loc:0000000000000123 .LLST4
     /tmp/ccWBBpUU.s:2730   .debug_loc:0000000000000159 .LLST5
     /tmp/ccWBBpUU.s:205    .text:0000000000000144 .LVL16
     /tmp/ccWBBpUU.s:10     .text:0000000000000000 .LFB27
     /tmp/ccWBBpUU.s:83     .text:0000000000000074 .LFE27
     /tmp/ccWBBpUU.s:2737   .debug_loc:000000000000017c .LLST0
     /tmp/ccWBBpUU.s:2759   .debug_loc:00000000000001db .LLST1
     /tmp/ccWBBpUU.s:2986   .debug_str:0000000000000572 .LASF139
     /tmp/ccWBBpUU.s:34     .text:000000000000002c .LVL2
     /tmp/ccWBBpUU.s:322    .text:00000000000001c4 .LFB26
     /tmp/ccWBBpUU.s:392    .text:0000000000000258 .LFE26
     /tmp/ccWBBpUU.s:2773   .debug_loc:0000000000000214 .LLST8
     /tmp/ccWBBpUU.s:350    .text:00000000000001f4 .LVL29
     /tmp/ccWBBpUU.s:360    .text:0000000000000208 .LVL31
     /tmp/ccWBBpUU.s:377    .text:0000000000000230 .LVL32
     /tmp/ccWBBpUU.s:386    .text:0000000000000250 .LVL33
     /tmp/ccWBBpUU.s:89     .text:0000000000000074 .LFB25
     /tmp/ccWBBpUU.s:158    .text:0000000000000108 .LFE25
     /tmp/ccWBBpUU.s:2794   .debug_loc:0000000000000272 .LLST2
     /tmp/ccWBBpUU.s:119    .text:00000000000000b8 .LVL7
     /tmp/ccWBBpUU.s:124    .text:00000000000000c4 .LVL8
     /tmp/ccWBBpUU.s:133    .text:00000000000000d8 .LVL10
     /tmp/ccWBBpUU.s:152    .text:0000000000000100 .LVL11
     /tmp/ccWBBpUU.s:3076   .debug_str:00000000000007e3 .LASF140
     /tmp/ccWBBpUU.s:3080   .debug_str:00000000000007ff .LASF141
     /tmp/ccWBBpUU.s:2870   .debug_str:0000000000000199 .LASF142
     /tmp/ccWBBpUU.s:2978   .debug_str:0000000000000524 .LASF143
     /tmp/ccWBBpUU.s:3092   .debug_str:00000000000008fe .LASF144
     /tmp/ccWBBpUU.s:284    .text:0000000000000198 .LVL23
     /tmp/ccWBBpUU.s:298    .text:00000000000001b0 .LVL24
     /tmp/ccWBBpUU.s:308    .text:00000000000001bc .LVL25
     /tmp/ccWBBpUU.s:313    .text:00000000000001c0 .LVL26
GAS LISTING /tmp/ccWBBpUU.s 			page 19


     /tmp/ccWBBpUU.s:243    .text:000000000000016c .LVL19
     /tmp/ccWBBpUU.s:257    .text:0000000000000184 .LVL20
     /tmp/ccWBBpUU.s:267    .text:0000000000000190 .LVL21
     /tmp/ccWBBpUU.s:272    .text:0000000000000194 .LVL22
     /tmp/ccWBBpUU.s:167    .text:0000000000000108 .LVL12
     /tmp/ccWBBpUU.s:182    .text:0000000000000124 .LVL13
     /tmp/ccWBBpUU.s:221    .text:000000000000015c .LVL17
     /tmp/ccWBBpUU.s:186    .text:0000000000000128 .LVL14
     /tmp/ccWBBpUU.s:228    .text:0000000000000164 .LVL18
     /tmp/ccWBBpUU.s:201    .text:000000000000013c .LVL15
     /tmp/ccWBBpUU.s:14     .text:0000000000000000 .LVL0
     /tmp/ccWBBpUU.s:32     .text:0000000000000024 .LVL1
     /tmp/ccWBBpUU.s:67     .text:000000000000005c .LVL3
     /tmp/ccWBBpUU.s:73     .text:0000000000000068 .LVL4
     /tmp/ccWBBpUU.s:338    .text:00000000000001dc .LVL27
     /tmp/ccWBBpUU.s:342    .text:00000000000001e4 .LVL28
     /tmp/ccWBBpUU.s:354    .text:00000000000001f8 .LVL30
     /tmp/ccWBBpUU.s:105    .text:000000000000008c .LVL5
     /tmp/ccWBBpUU.s:109    .text:0000000000000094 .LVL6
     /tmp/ccWBBpUU.s:441    .debug_info:0000000000000000 .Ldebug_info0

UNDEFINED SYMBOLS
_ZN15MemoryAllocator9mem_allocEm
CONSOLE_RX_DATA
_Z10sem_signalP3SCB
_Z8sem_waitP3SCB
CONSOLE_STATUS
plic_complete
_ZN15MemoryAllocator8mem_freeEPv
CONSOLE_TX_DATA
