GAS LISTING /tmp/ccsIi0gf.s 			page 1


   1              		.file	"CCB.cpp"
   2              		.option pic
   3              		.option norelax
   4              		.text
   5              	.Ltext0:
   6              		.align	2
   7              		.globl	_ZN8IOBuffer8pushBackEc
   9              	_ZN8IOBuffer8pushBackEc:
  10              	.LFB49:
  11              		.file 1 "src/CCB.cpp"
   1:src/CCB.cpp   **** #include "../h/CCB.h"
   2:src/CCB.cpp   **** #include "../h/PCB.h"
   3:src/CCB.cpp   **** #include "../h/SCB.h"
   4:src/CCB.cpp   **** #include "../h/MemoryAllocator.h"
   5:src/CCB.cpp   **** #include "../h/syscall_c.h"
   6:src/CCB.cpp   **** #include "../h/kernel.h"
   7:src/CCB.cpp   **** #include "../h/slab.h"
   8:src/CCB.cpp   **** PCB* CCB::inputProcces = nullptr;
   9:src/CCB.cpp   **** PCB* CCB::outputProcess = nullptr;
  10:src/CCB.cpp   **** SCB* CCB::semInput = nullptr;
  11:src/CCB.cpp   **** SCB* CCB::semOutput = nullptr;
  12:src/CCB.cpp   **** SCB* CCB::inputBufferEmpty = nullptr;
  13:src/CCB.cpp   **** IOBuffer CCB::inputBuffer;
  14:src/CCB.cpp   **** IOBuffer CCB::outputBuffer;
  15:src/CCB.cpp   **** 
  16:src/CCB.cpp   **** void CCB::inputBody(void*) {
  17:src/CCB.cpp   ****     while(true) {
  18:src/CCB.cpp   ****         while(*(char*)CONSOLE_STATUS & CONSOLE_RX_STATUS_BIT) {
  19:src/CCB.cpp   ****             inputBuffer.pushBack(*(char*)CONSOLE_RX_DATA);
  20:src/CCB.cpp   ****             sem_signal(CCB::inputBufferEmpty);
  21:src/CCB.cpp   ****             plic_complete(CONSOLE_IRQ);
  22:src/CCB.cpp   ****             sem_wait(semInput);
  23:src/CCB.cpp   ****         }
  24:src/CCB.cpp   ****         thread_dispatch();
  25:src/CCB.cpp   ****     }
  26:src/CCB.cpp   **** }
  27:src/CCB.cpp   **** 
  28:src/CCB.cpp   **** void CCB::outputBody(void*) {
  29:src/CCB.cpp   ****     while(true) {
  30:src/CCB.cpp   ****         while(*(char*)CONSOLE_STATUS & CONSOLE_TX_STATUS_BIT) {
  31:src/CCB.cpp   ****             if(outputBuffer.peekFront() != 0) {
  32:src/CCB.cpp   ****                 *((char*)CONSOLE_TX_DATA) = outputBuffer.popFront();
  33:src/CCB.cpp   ****                 sem_wait(semOutput);
  34:src/CCB.cpp   ****             }
  35:src/CCB.cpp   ****             else {
  36:src/CCB.cpp   ****                 break;
  37:src/CCB.cpp   ****             }
  38:src/CCB.cpp   ****         }
  39:src/CCB.cpp   ****         thread_dispatch();
  40:src/CCB.cpp   ****     }
  41:src/CCB.cpp   **** }
  42:src/CCB.cpp   **** 
  43:src/CCB.cpp   **** 
  44:src/CCB.cpp   **** void IOBuffer::pushBack(char c) {
  12              		.loc 1 44 33
  13              		.cfi_startproc
  14              	.LVL0:
GAS LISTING /tmp/ccsIi0gf.s 			page 2


  15 0000 130101FE 		addi	sp,sp,-32
  16              		.cfi_def_cfa_offset 32
  17 0004 233C1100 		sd	ra,24(sp)
  18 0008 23388100 		sd	s0,16(sp)
  19 000c 23349100 		sd	s1,8(sp)
  20 0010 23302101 		sd	s2,0(sp)
  21              		.cfi_offset 1, -8
  22              		.cfi_offset 8, -16
  23              		.cfi_offset 9, -24
  24              		.cfi_offset 18, -32
  25 0014 13040102 		addi	s0,sp,32
  26              		.cfi_def_cfa 8, 0
  27 0018 93040500 		mv	s1,a0
  28 001c 13890500 		mv	s2,a1
  45:src/CCB.cpp   ****     if(!array) {
  29              		.loc 1 45 5
  30              		.loc 1 45 9 is_stmt 0
  31 0020 83370501 		ld	a5,16(a0)
  32              		.loc 1 45 5
  33 0024 63880704 		beqz	a5,.L6
  34              	.LVL1:
  35              	.L2:
  46:src/CCB.cpp   ****         array = (char*)kmalloc(capacity);
  47:src/CCB.cpp   ****     }
  48:src/CCB.cpp   ****     array[tail] = c;
  36              		.loc 1 48 5 is_stmt 1
  37 0028 83B70401 		ld	a5,16(s1)
  38              		.loc 1 48 11 is_stmt 0
  39 002c 03A78400 		lw	a4,8(s1)
  40              		.loc 1 48 15
  41 0030 B387E700 		add	a5,a5,a4
  42              		.loc 1 48 17
  43 0034 23802701 		sb	s2,0(a5)
  49:src/CCB.cpp   ****     size++;
  44              		.loc 1 49 5 is_stmt 1
  45 0038 83A7C400 		lw	a5,12(s1)
  46              		.loc 1 49 9 is_stmt 0
  47 003c 9B871700 		addiw	a5,a5,1
  48 0040 23A6F400 		sw	a5,12(s1)
  50:src/CCB.cpp   ****     tail = tail == capacity - 1 ? 0 : tail + 1;
  49              		.loc 1 50 5 is_stmt 1
  50              		.loc 1 50 12 is_stmt 0
  51 0044 83A78400 		lw	a5,8(s1)
  52              		.loc 1 50 20
  53 0048 03A70400 		lw	a4,0(s1)
  54              		.loc 1 50 29
  55 004c 1B07F7FF 		addiw	a4,a4,-1
  56              		.loc 1 50 33
  57 0050 638CE702 		beq	a5,a4,.L4
  58              		.loc 1 50 33 discriminator 1
  59 0054 9B871700 		addiw	a5,a5,1
  60              	.L3:
  61              		.loc 1 50 10 discriminator 4
  62 0058 23A4F400 		sw	a5,8(s1)
  51:src/CCB.cpp   **** }
  63              		.loc 1 51 1 discriminator 4
  64 005c 83308101 		ld	ra,24(sp)
GAS LISTING /tmp/ccsIi0gf.s 			page 3


  65              		.cfi_remember_state
  66              		.cfi_restore 1
  67 0060 03340101 		ld	s0,16(sp)
  68              		.cfi_restore 8
  69              		.cfi_def_cfa 2, 32
  70 0064 83348100 		ld	s1,8(sp)
  71              		.cfi_restore 9
  72              	.LVL2:
  73 0068 03390100 		ld	s2,0(sp)
  74              		.cfi_restore 18
  75 006c 13010102 		addi	sp,sp,32
  76              		.cfi_def_cfa_offset 0
  77 0070 67800000 		jr	ra
  78              	.LVL3:
  79              	.L6:
  80              		.cfi_restore_state
  46:src/CCB.cpp   ****     }
  81              		.loc 1 46 9 is_stmt 1
  46:src/CCB.cpp   ****     }
  82              		.loc 1 46 31 is_stmt 0
  83 0074 03250500 		lw	a0,0(a0)
  84 0078 97000000 		call	_Z7kmallocm@plt
  84      E7800000 
  85              	.LVL4:
  46:src/CCB.cpp   ****     }
  86              		.loc 1 46 15
  87 0080 23B8A400 		sd	a0,16(s1)
  88 0084 6FF05FFA 		j	.L2
  89              	.L4:
  50:src/CCB.cpp   ****     tail = tail == capacity - 1 ? 0 : tail + 1;
  90              		.loc 1 50 33
  91 0088 93070000 		li	a5,0
  92 008c 6FF0DFFC 		j	.L3
  93              		.cfi_endproc
  94              	.LFE49:
  96              		.align	2
  97              		.globl	_ZN3CCB9inputBodyEPv
  99              	_ZN3CCB9inputBodyEPv:
 100              	.LFB47:
  16:src/CCB.cpp   ****     while(true) {
 101              		.loc 1 16 28 is_stmt 1
 102              		.cfi_startproc
 103 0090 130101FE 		addi	sp,sp,-32
 104              		.cfi_def_cfa_offset 32
 105 0094 233C1100 		sd	ra,24(sp)
 106 0098 23388100 		sd	s0,16(sp)
 107 009c 23349100 		sd	s1,8(sp)
 108              		.cfi_offset 1, -8
 109              		.cfi_offset 8, -16
 110              		.cfi_offset 9, -24
 111 00a0 13040102 		addi	s0,sp,32
 112              		.cfi_def_cfa 8, 0
 113 00a4 6F000005 		j	.L8
 114              	.L12:
  19:src/CCB.cpp   ****             sem_signal(CCB::inputBufferEmpty);
 115              		.loc 1 19 13
  19:src/CCB.cpp   ****             sem_signal(CCB::inputBufferEmpty);
GAS LISTING /tmp/ccsIi0gf.s 			page 4


 116              		.loc 1 19 33 is_stmt 0
 117 00a8 97070000 		la	a5,CONSOLE_RX_DATA
 117      83B70700 
 118 00b0 83B70700 		ld	a5,0(a5)
 119 00b4 83C50700 		lbu	a1,0(a5)
 120 00b8 17050000 		lla	a0,.LANCHOR0
 120      13050500 
 121 00c0 97000000 		call	_ZN8IOBuffer8pushBackEc
 121      E7800000 
 122              	.LVL5:
  20:src/CCB.cpp   ****             plic_complete(CONSOLE_IRQ);
 123              		.loc 1 20 13 is_stmt 1
  20:src/CCB.cpp   ****             plic_complete(CONSOLE_IRQ);
 124              		.loc 1 20 23 is_stmt 0
 125 00c8 97040000 		lla	s1,.LANCHOR1
 125      93840400 
 126 00d0 03B50400 		ld	a0,0(s1)
 127 00d4 97000000 		call	_Z10sem_signalP3SCB@plt
 127      E7800000 
 128              	.LVL6:
  21:src/CCB.cpp   ****             sem_wait(semInput);
 129              		.loc 1 21 13 is_stmt 1
  21:src/CCB.cpp   ****             sem_wait(semInput);
 130              		.loc 1 21 26 is_stmt 0
 131 00dc 1305A000 		li	a0,10
 132 00e0 97000000 		call	plic_complete@plt
 132      E7800000 
 133              	.LVL7:
  22:src/CCB.cpp   ****         }
 134              		.loc 1 22 13 is_stmt 1
  22:src/CCB.cpp   ****         }
 135              		.loc 1 22 21 is_stmt 0
 136 00e8 03B58400 		ld	a0,8(s1)
 137 00ec 97000000 		call	_Z8sem_waitP3SCB@plt
 137      E7800000 
 138              	.LVL8:
 139              	.L8:
  17:src/CCB.cpp   ****         while(*(char*)CONSOLE_STATUS & CONSOLE_RX_STATUS_BIT) {
 140              		.loc 1 17 5 is_stmt 1
  18:src/CCB.cpp   ****             inputBuffer.pushBack(*(char*)CONSOLE_RX_DATA);
 141              		.loc 1 18 9
  18:src/CCB.cpp   ****             inputBuffer.pushBack(*(char*)CONSOLE_RX_DATA);
 142              		.loc 1 18 40
  18:src/CCB.cpp   ****             inputBuffer.pushBack(*(char*)CONSOLE_RX_DATA);
 143              		.loc 1 18 15 is_stmt 0
 144 00f4 97070000 		la	a5,CONSOLE_STATUS
 144      83B70700 
 145 00fc 83B70700 		ld	a5,0(a5)
 146 0100 83C70700 		lbu	a5,0(a5)
  18:src/CCB.cpp   ****             inputBuffer.pushBack(*(char*)CONSOLE_RX_DATA);
 147              		.loc 1 18 40
 148 0104 93F71700 		andi	a5,a5,1
 149 0108 E39007FA 		bnez	a5,.L12
  24:src/CCB.cpp   ****     }
 150              		.loc 1 24 9 is_stmt 1
  24:src/CCB.cpp   ****     }
 151              		.loc 1 24 24 is_stmt 0
GAS LISTING /tmp/ccsIi0gf.s 			page 5


 152 010c 97000000 		call	_Z15thread_dispatchv@plt
 152      E7800000 
 153              	.LVL9:
  17:src/CCB.cpp   ****         while(*(char*)CONSOLE_STATUS & CONSOLE_RX_STATUS_BIT) {
 154              		.loc 1 17 5 is_stmt 1
  18:src/CCB.cpp   ****             inputBuffer.pushBack(*(char*)CONSOLE_RX_DATA);
 155              		.loc 1 18 9 is_stmt 0
 156 0114 6FF01FFE 		j	.L8
 157              		.cfi_endproc
 158              	.LFE47:
 160              		.align	2
 161              		.globl	_ZN8IOBuffer8popFrontEv
 163              	_ZN8IOBuffer8popFrontEv:
 164              	.LFB50:
  52:src/CCB.cpp   **** 
  53:src/CCB.cpp   **** char IOBuffer::popFront() {
 165              		.loc 1 53 27 is_stmt 1
 166              		.cfi_startproc
 167              	.LVL10:
 168 0118 130101FF 		addi	sp,sp,-16
 169              		.cfi_def_cfa_offset 16
 170 011c 23348100 		sd	s0,8(sp)
 171              		.cfi_offset 8, -8
 172 0120 13040101 		addi	s0,sp,16
 173              		.cfi_def_cfa 8, 0
  54:src/CCB.cpp   ****     if(!size) return 0;
 174              		.loc 1 54 5
 175              		.loc 1 54 9 is_stmt 0
 176 0124 0327C500 		lw	a4,12(a0)
 177              		.loc 1 54 5
 178 0128 63040704 		beqz	a4,.L16
 179 012c 93070500 		mv	a5,a0
  55:src/CCB.cpp   **** 
  56:src/CCB.cpp   ****     char c = array[head];
 180              		.loc 1 56 5 is_stmt 1
 181              		.loc 1 56 14 is_stmt 0
 182 0130 03360501 		ld	a2,16(a0)
 183              		.loc 1 56 20
 184 0134 83264500 		lw	a3,4(a0)
 185              		.loc 1 56 24
 186 0138 3306D600 		add	a2,a2,a3
 187              		.loc 1 56 10
 188 013c 03450600 		lbu	a0,0(a2)
 189              	.LVL11:
  57:src/CCB.cpp   ****     size--;
 190              		.loc 1 57 5 is_stmt 1
 191              		.loc 1 57 9 is_stmt 0
 192 0140 1B07F7FF 		addiw	a4,a4,-1
 193 0144 23A6E700 		sw	a4,12(a5)
  58:src/CCB.cpp   ****     head = head == capacity - 1 ? 0 : head + 1;
 194              		.loc 1 58 5 is_stmt 1
 195              		.loc 1 58 20 is_stmt 0
 196 0148 03A70700 		lw	a4,0(a5)
 197              		.loc 1 58 29
 198 014c 1B07F7FF 		addiw	a4,a4,-1
 199              		.loc 1 58 33
 200 0150 638CE600 		beq	a3,a4,.L17
GAS LISTING /tmp/ccsIi0gf.s 			page 6


 201              		.loc 1 58 33 discriminator 1
 202 0154 9B861600 		addiw	a3,a3,1
 203              	.L15:
 204              		.loc 1 58 10 discriminator 4
 205 0158 23A2D700 		sw	a3,4(a5)
  59:src/CCB.cpp   ****     return c;
 206              		.loc 1 59 5 is_stmt 1 discriminator 4
 207              	.LVL12:
 208              	.L14:
  60:src/CCB.cpp   **** }
 209              		.loc 1 60 1 is_stmt 0
 210 015c 03348100 		ld	s0,8(sp)
 211              		.cfi_remember_state
 212              		.cfi_restore 8
 213              		.cfi_def_cfa 2, 16
 214 0160 13010101 		addi	sp,sp,16
 215              		.cfi_def_cfa_offset 0
 216 0164 67800000 		jr	ra
 217              	.LVL13:
 218              	.L17:
 219              		.cfi_restore_state
  58:src/CCB.cpp   ****     head = head == capacity - 1 ? 0 : head + 1;
 220              		.loc 1 58 33
 221 0168 93060000 		li	a3,0
 222 016c 6FF0DFFE 		j	.L15
 223              	.LVL14:
 224              	.L16:
  54:src/CCB.cpp   **** 
 225              		.loc 1 54 22
 226 0170 13050000 		li	a0,0
 227              	.LVL15:
 228 0174 6FF09FFE 		j	.L14
 229              		.cfi_endproc
 230              	.LFE50:
 232              		.align	2
 233              		.globl	_ZN8IOBuffer8peekBackEv
 235              	_ZN8IOBuffer8peekBackEv:
 236              	.LFB51:
  61:src/CCB.cpp   **** 
  62:src/CCB.cpp   **** char IOBuffer::peekBack() {
 237              		.loc 1 62 27 is_stmt 1
 238              		.cfi_startproc
 239              	.LVL16:
 240 0178 130101FF 		addi	sp,sp,-16
 241              		.cfi_def_cfa_offset 16
 242 017c 23348100 		sd	s0,8(sp)
 243              		.cfi_offset 8, -8
 244 0180 13040101 		addi	s0,sp,16
 245              		.cfi_def_cfa 8, 0
  63:src/CCB.cpp   ****     return size > 0 ? array[tail] : 0;
 246              		.loc 1 63 5
 247              		.loc 1 63 12 is_stmt 0
 248 0184 8327C500 		lw	a5,12(a0)
 249              		.loc 1 63 37
 250 0188 6350F002 		blez	a5,.L21
 251              		.loc 1 63 23 discriminator 1
 252 018c 83370501 		ld	a5,16(a0)
GAS LISTING /tmp/ccsIi0gf.s 			page 7


 253              		.loc 1 63 29 discriminator 1
 254 0190 03278500 		lw	a4,8(a0)
 255              		.loc 1 63 33 discriminator 1
 256 0194 B387E700 		add	a5,a5,a4
 257              		.loc 1 63 37 discriminator 1
 258 0198 03C50700 		lbu	a0,0(a5)
 259              	.LVL17:
 260              	.L20:
  64:src/CCB.cpp   **** }
 261              		.loc 1 64 1 discriminator 4
 262 019c 03348100 		ld	s0,8(sp)
 263              		.cfi_remember_state
 264              		.cfi_restore 8
 265              		.cfi_def_cfa 2, 16
 266 01a0 13010101 		addi	sp,sp,16
 267              		.cfi_def_cfa_offset 0
 268 01a4 67800000 		jr	ra
 269              	.LVL18:
 270              	.L21:
 271              		.cfi_restore_state
  63:src/CCB.cpp   ****     return size > 0 ? array[tail] : 0;
 272              		.loc 1 63 37
 273 01a8 13050000 		li	a0,0
 274              	.LVL19:
 275 01ac 6FF01FFF 		j	.L20
 276              		.cfi_endproc
 277              	.LFE51:
 279              		.align	2
 280              		.globl	_ZN8IOBuffer9peekFrontEv
 282              	_ZN8IOBuffer9peekFrontEv:
 283              	.LFB52:
  65:src/CCB.cpp   **** 
  66:src/CCB.cpp   **** char IOBuffer::peekFront() {
 284              		.loc 1 66 28 is_stmt 1
 285              		.cfi_startproc
 286              	.LVL20:
 287 01b0 130101FF 		addi	sp,sp,-16
 288              		.cfi_def_cfa_offset 16
 289 01b4 23348100 		sd	s0,8(sp)
 290              		.cfi_offset 8, -8
 291 01b8 13040101 		addi	s0,sp,16
 292              		.cfi_def_cfa 8, 0
  67:src/CCB.cpp   ****     return size > 0 ? array[head] : 0;
 293              		.loc 1 67 5
 294              		.loc 1 67 12 is_stmt 0
 295 01bc 8327C500 		lw	a5,12(a0)
 296              		.loc 1 67 37
 297 01c0 6350F002 		blez	a5,.L25
 298              		.loc 1 67 23 discriminator 1
 299 01c4 83370501 		ld	a5,16(a0)
 300              		.loc 1 67 29 discriminator 1
 301 01c8 03274500 		lw	a4,4(a0)
 302              		.loc 1 67 33 discriminator 1
 303 01cc B387E700 		add	a5,a5,a4
 304              		.loc 1 67 37 discriminator 1
 305 01d0 03C50700 		lbu	a0,0(a5)
 306              	.LVL21:
GAS LISTING /tmp/ccsIi0gf.s 			page 8


 307              	.L24:
  68:src/CCB.cpp   **** }
 308              		.loc 1 68 1 discriminator 4
 309 01d4 03348100 		ld	s0,8(sp)
 310              		.cfi_remember_state
 311              		.cfi_restore 8
 312              		.cfi_def_cfa 2, 16
 313 01d8 13010101 		addi	sp,sp,16
 314              		.cfi_def_cfa_offset 0
 315 01dc 67800000 		jr	ra
 316              	.LVL22:
 317              	.L25:
 318              		.cfi_restore_state
  67:src/CCB.cpp   ****     return size > 0 ? array[head] : 0;
 319              		.loc 1 67 37
 320 01e0 13050000 		li	a0,0
 321              	.LVL23:
 322 01e4 6FF01FFF 		j	.L24
 323              		.cfi_endproc
 324              	.LFE52:
 326              		.align	2
 327              		.globl	_ZN3CCB10outputBodyEPv
 329              	_ZN3CCB10outputBodyEPv:
 330              	.LFB48:
  28:src/CCB.cpp   ****     while(true) {
 331              		.loc 1 28 29 is_stmt 1
 332              		.cfi_startproc
 333 01e8 130101FE 		addi	sp,sp,-32
 334              		.cfi_def_cfa_offset 32
 335 01ec 233C1100 		sd	ra,24(sp)
 336 01f0 23388100 		sd	s0,16(sp)
 337 01f4 23349100 		sd	s1,8(sp)
 338              		.cfi_offset 1, -8
 339              		.cfi_offset 8, -16
 340              		.cfi_offset 9, -24
 341 01f8 13040102 		addi	s0,sp,32
 342              		.cfi_def_cfa 8, 0
 343 01fc 6F00C000 		j	.L28
 344              	.L29:
  39:src/CCB.cpp   ****     }
 345              		.loc 1 39 9
  39:src/CCB.cpp   ****     }
 346              		.loc 1 39 24 is_stmt 0
 347 0200 97000000 		call	_Z15thread_dispatchv@plt
 347      E7800000 
 348              	.LVL24:
  29:src/CCB.cpp   ****         while(*(char*)CONSOLE_STATUS & CONSOLE_TX_STATUS_BIT) {
 349              		.loc 1 29 5 is_stmt 1
 350              	.L28:
  29:src/CCB.cpp   ****         while(*(char*)CONSOLE_STATUS & CONSOLE_TX_STATUS_BIT) {
 351              		.loc 1 29 5
  30:src/CCB.cpp   ****             if(outputBuffer.peekFront() != 0) {
 352              		.loc 1 30 9
  30:src/CCB.cpp   ****             if(outputBuffer.peekFront() != 0) {
 353              		.loc 1 30 40
  30:src/CCB.cpp   ****             if(outputBuffer.peekFront() != 0) {
 354              		.loc 1 30 15 is_stmt 0
GAS LISTING /tmp/ccsIi0gf.s 			page 9


 355 0208 97070000 		la	a5,CONSOLE_STATUS
 355      83B70700 
 356 0210 83B70700 		ld	a5,0(a5)
 357 0214 83C70700 		lbu	a5,0(a5)
  30:src/CCB.cpp   ****             if(outputBuffer.peekFront() != 0) {
 358              		.loc 1 30 40
 359 0218 93F70702 		andi	a5,a5,32
 360 021c E38207FE 		beqz	a5,.L29
  31:src/CCB.cpp   ****                 *((char*)CONSOLE_TX_DATA) = outputBuffer.popFront();
 361              		.loc 1 31 13 is_stmt 1
  31:src/CCB.cpp   ****                 *((char*)CONSOLE_TX_DATA) = outputBuffer.popFront();
 362              		.loc 1 31 38 is_stmt 0
 363 0220 17050000 		lla	a0,.LANCHOR0+24
 363      13050500 
 364 0228 97000000 		call	_ZN8IOBuffer9peekFrontEv
 364      E7800000 
 365              	.LVL25:
  31:src/CCB.cpp   ****                 *((char*)CONSOLE_TX_DATA) = outputBuffer.popFront();
 366              		.loc 1 31 13
 367 0230 E30805FC 		beqz	a0,.L29
  32:src/CCB.cpp   ****                 sem_wait(semOutput);
 368              		.loc 1 32 17 is_stmt 1
 369 0234 97070000 		la	a5,CONSOLE_TX_DATA
 369      83B70700 
 370 023c 83B40700 		ld	s1,0(a5)
  32:src/CCB.cpp   ****                 sem_wait(semOutput);
 371              		.loc 1 32 66 is_stmt 0
 372 0240 17050000 		lla	a0,.LANCHOR0+24
 372      13050500 
 373 0248 97000000 		call	_ZN8IOBuffer8popFrontEv
 373      E7800000 
 374              	.LVL26:
  32:src/CCB.cpp   ****                 sem_wait(semOutput);
 375              		.loc 1 32 43
 376 0250 2380A400 		sb	a0,0(s1)
  33:src/CCB.cpp   ****             }
 377              		.loc 1 33 17 is_stmt 1
  33:src/CCB.cpp   ****             }
 378              		.loc 1 33 25 is_stmt 0
 379 0254 17050000 		ld	a0,.LANCHOR1+16
 379      03350500 
 380 025c 97000000 		call	_Z8sem_waitP3SCB@plt
 380      E7800000 
 381              	.LVL27:
  30:src/CCB.cpp   ****             if(outputBuffer.peekFront() != 0) {
 382              		.loc 1 30 9
 383 0264 6FF05FFA 		j	.L28
 384              		.cfi_endproc
 385              	.LFE48:
 387              		.globl	_ZN3CCB12outputBufferE
 388              		.globl	_ZN3CCB11inputBufferE
 389              		.globl	_ZN3CCB16inputBufferEmptyE
 390              		.globl	_ZN3CCB9semOutputE
 391              		.globl	_ZN3CCB8semInputE
 392              		.globl	_ZN3CCB13outputProcessE
 393              		.globl	_ZN3CCB12inputProccesE
 394              		.data
GAS LISTING /tmp/ccsIi0gf.s 			page 10


 395              		.align	3
 396              		.set	.LANCHOR0,. + 0
 399              	_ZN3CCB11inputBufferE:
 400 0000 A00F0000 		.word	4000
 401 0004 00000000 		.word	0
 402 0008 00000000 		.word	0
 403 000c 00000000 		.word	0
 404 0010 00000000 		.dword	0
 404      00000000 
 407              	_ZN3CCB12outputBufferE:
 408 0018 A00F0000 		.word	4000
 409 001c 00000000 		.word	0
 410 0020 00000000 		.word	0
 411 0024 00000000 		.word	0
 412 0028 00000000 		.dword	0
 412      00000000 
 413              		.bss
 414              		.align	3
 415              		.set	.LANCHOR1,. + 0
 418              	_ZN3CCB16inputBufferEmptyE:
 419 0000 00000000 		.zero	8
 419      00000000 
 422              	_ZN3CCB8semInputE:
 423 0008 00000000 		.zero	8
 423      00000000 
 426              	_ZN3CCB9semOutputE:
 427 0010 00000000 		.zero	8
 427      00000000 
 430              	_ZN3CCB13outputProcessE:
 431 0018 00000000 		.zero	8
 431      00000000 
 434              	_ZN3CCB12inputProccesE:
 435 0020 00000000 		.zero	8
 435      00000000 
 436              		.text
 437              	.Letext0:
 438              		.file 2 "src/../h/CCB.h"
 439              		.file 3 "src/../h/SCB.h"
 440              		.file 4 "src/../h/PCB.h"
 441              		.file 5 "src/../h/hw.h"
 442              		.file 6 "src/../h/slab.h"
 443              		.file 7 "src/../h/syscall_c.h"
GAS LISTING /tmp/ccsIi0gf.s 			page 11


DEFINED SYMBOLS
                            *ABS*:0000000000000000 CCB.cpp
     /tmp/ccsIi0gf.s:9      .text:0000000000000000 _ZN8IOBuffer8pushBackEc
     /tmp/ccsIi0gf.s:13     .text:0000000000000000 .L0 
     /tmp/ccsIi0gf.s:15     .text:0000000000000000 .L0 
     /tmp/ccsIi0gf.s:16     .text:0000000000000004 .L0 
     /tmp/ccsIi0gf.s:21     .text:0000000000000014 .L0 
     /tmp/ccsIi0gf.s:22     .text:0000000000000014 .L0 
     /tmp/ccsIi0gf.s:23     .text:0000000000000014 .L0 
     /tmp/ccsIi0gf.s:24     .text:0000000000000014 .L0 
     /tmp/ccsIi0gf.s:26     .text:0000000000000018 .L0 
     /tmp/ccsIi0gf.s:30     .text:0000000000000020 .L0 
     /tmp/ccsIi0gf.s:31     .text:0000000000000020 .L0 
     /tmp/ccsIi0gf.s:33     .text:0000000000000024 .L0 
     /tmp/ccsIi0gf.s:37     .text:0000000000000028 .L0 
     /tmp/ccsIi0gf.s:39     .text:000000000000002c .L0 
     /tmp/ccsIi0gf.s:41     .text:0000000000000030 .L0 
     /tmp/ccsIi0gf.s:43     .text:0000000000000034 .L0 
     /tmp/ccsIi0gf.s:45     .text:0000000000000038 .L0 
     /tmp/ccsIi0gf.s:47     .text:000000000000003c .L0 
     /tmp/ccsIi0gf.s:50     .text:0000000000000044 .L0 
     /tmp/ccsIi0gf.s:51     .text:0000000000000044 .L0 
     /tmp/ccsIi0gf.s:53     .text:0000000000000048 .L0 
     /tmp/ccsIi0gf.s:55     .text:000000000000004c .L0 
     /tmp/ccsIi0gf.s:57     .text:0000000000000050 .L0 
     /tmp/ccsIi0gf.s:59     .text:0000000000000054 .L0 
     /tmp/ccsIi0gf.s:62     .text:0000000000000058 .L0 
     /tmp/ccsIi0gf.s:64     .text:000000000000005c .L0 
     /tmp/ccsIi0gf.s:65     .text:0000000000000060 .L0 
     /tmp/ccsIi0gf.s:66     .text:0000000000000060 .L0 
     /tmp/ccsIi0gf.s:68     .text:0000000000000064 .L0 
     /tmp/ccsIi0gf.s:69     .text:0000000000000064 .L0 
     /tmp/ccsIi0gf.s:71     .text:0000000000000068 .L0 
     /tmp/ccsIi0gf.s:74     .text:000000000000006c .L0 
     /tmp/ccsIi0gf.s:76     .text:0000000000000070 .L0 
     /tmp/ccsIi0gf.s:80     .text:0000000000000074 .L0 
     /tmp/ccsIi0gf.s:82     .text:0000000000000074 .L0 
     /tmp/ccsIi0gf.s:83     .text:0000000000000074 .L0 
     /tmp/ccsIi0gf.s:87     .text:0000000000000080 .L0 
     /tmp/ccsIi0gf.s:91     .text:0000000000000088 .L0 
     /tmp/ccsIi0gf.s:93     .text:0000000000000090 .L0 
     /tmp/ccsIi0gf.s:99     .text:0000000000000090 _ZN3CCB9inputBodyEPv
     /tmp/ccsIi0gf.s:102    .text:0000000000000090 .L0 
     /tmp/ccsIi0gf.s:103    .text:0000000000000090 .L0 
     /tmp/ccsIi0gf.s:104    .text:0000000000000094 .L0 
     /tmp/ccsIi0gf.s:108    .text:00000000000000a0 .L0 
     /tmp/ccsIi0gf.s:109    .text:00000000000000a0 .L0 
     /tmp/ccsIi0gf.s:110    .text:00000000000000a0 .L0 
     /tmp/ccsIi0gf.s:112    .text:00000000000000a4 .L0 
     /tmp/ccsIi0gf.s:116    .text:00000000000000a8 .L0 
     /tmp/ccsIi0gf.s:117    .text:00000000000000a8 .L0 
     /tmp/ccsIi0gf.s:124    .text:00000000000000c8 .L0 
     /tmp/ccsIi0gf.s:125    .text:00000000000000c8 .L0 
     /tmp/ccsIi0gf.s:130    .text:00000000000000dc .L0 
     /tmp/ccsIi0gf.s:131    .text:00000000000000dc .L0 
     /tmp/ccsIi0gf.s:135    .text:00000000000000e8 .L0 
     /tmp/ccsIi0gf.s:136    .text:00000000000000e8 .L0 
GAS LISTING /tmp/ccsIi0gf.s 			page 12


     /tmp/ccsIi0gf.s:141    .text:00000000000000f4 .L0 
     /tmp/ccsIi0gf.s:142    .text:00000000000000f4 .L0 
     /tmp/ccsIi0gf.s:143    .text:00000000000000f4 .L0 
     /tmp/ccsIi0gf.s:144    .text:00000000000000f4 .L0 
     /tmp/ccsIi0gf.s:148    .text:0000000000000104 .L0 
     /tmp/ccsIi0gf.s:151    .text:000000000000010c .L0 
     /tmp/ccsIi0gf.s:152    .text:000000000000010c .L0 
     /tmp/ccsIi0gf.s:155    .text:0000000000000114 .L0 
     /tmp/ccsIi0gf.s:156    .text:0000000000000114 .L0 
     /tmp/ccsIi0gf.s:157    .text:0000000000000118 .L0 
     /tmp/ccsIi0gf.s:163    .text:0000000000000118 _ZN8IOBuffer8popFrontEv
     /tmp/ccsIi0gf.s:166    .text:0000000000000118 .L0 
     /tmp/ccsIi0gf.s:168    .text:0000000000000118 .L0 
     /tmp/ccsIi0gf.s:169    .text:000000000000011c .L0 
     /tmp/ccsIi0gf.s:171    .text:0000000000000120 .L0 
     /tmp/ccsIi0gf.s:173    .text:0000000000000124 .L0 
     /tmp/ccsIi0gf.s:175    .text:0000000000000124 .L0 
     /tmp/ccsIi0gf.s:176    .text:0000000000000124 .L0 
     /tmp/ccsIi0gf.s:178    .text:0000000000000128 .L0 
     /tmp/ccsIi0gf.s:181    .text:0000000000000130 .L0 
     /tmp/ccsIi0gf.s:182    .text:0000000000000130 .L0 
     /tmp/ccsIi0gf.s:184    .text:0000000000000134 .L0 
     /tmp/ccsIi0gf.s:186    .text:0000000000000138 .L0 
     /tmp/ccsIi0gf.s:188    .text:000000000000013c .L0 
     /tmp/ccsIi0gf.s:191    .text:0000000000000140 .L0 
     /tmp/ccsIi0gf.s:192    .text:0000000000000140 .L0 
     /tmp/ccsIi0gf.s:195    .text:0000000000000148 .L0 
     /tmp/ccsIi0gf.s:196    .text:0000000000000148 .L0 
     /tmp/ccsIi0gf.s:198    .text:000000000000014c .L0 
     /tmp/ccsIi0gf.s:200    .text:0000000000000150 .L0 
     /tmp/ccsIi0gf.s:202    .text:0000000000000154 .L0 
     /tmp/ccsIi0gf.s:205    .text:0000000000000158 .L0 
     /tmp/ccsIi0gf.s:209    .text:000000000000015c .L0 
     /tmp/ccsIi0gf.s:210    .text:000000000000015c .L0 
     /tmp/ccsIi0gf.s:211    .text:0000000000000160 .L0 
     /tmp/ccsIi0gf.s:212    .text:0000000000000160 .L0 
     /tmp/ccsIi0gf.s:213    .text:0000000000000160 .L0 
     /tmp/ccsIi0gf.s:215    .text:0000000000000164 .L0 
     /tmp/ccsIi0gf.s:219    .text:0000000000000168 .L0 
     /tmp/ccsIi0gf.s:221    .text:0000000000000168 .L0 
     /tmp/ccsIi0gf.s:226    .text:0000000000000170 .L0 
     /tmp/ccsIi0gf.s:229    .text:0000000000000178 .L0 
     /tmp/ccsIi0gf.s:235    .text:0000000000000178 _ZN8IOBuffer8peekBackEv
     /tmp/ccsIi0gf.s:238    .text:0000000000000178 .L0 
     /tmp/ccsIi0gf.s:240    .text:0000000000000178 .L0 
     /tmp/ccsIi0gf.s:241    .text:000000000000017c .L0 
     /tmp/ccsIi0gf.s:243    .text:0000000000000180 .L0 
     /tmp/ccsIi0gf.s:245    .text:0000000000000184 .L0 
     /tmp/ccsIi0gf.s:247    .text:0000000000000184 .L0 
     /tmp/ccsIi0gf.s:248    .text:0000000000000184 .L0 
     /tmp/ccsIi0gf.s:250    .text:0000000000000188 .L0 
     /tmp/ccsIi0gf.s:252    .text:000000000000018c .L0 
     /tmp/ccsIi0gf.s:254    .text:0000000000000190 .L0 
     /tmp/ccsIi0gf.s:256    .text:0000000000000194 .L0 
     /tmp/ccsIi0gf.s:258    .text:0000000000000198 .L0 
     /tmp/ccsIi0gf.s:262    .text:000000000000019c .L0 
     /tmp/ccsIi0gf.s:263    .text:00000000000001a0 .L0 
GAS LISTING /tmp/ccsIi0gf.s 			page 13


     /tmp/ccsIi0gf.s:264    .text:00000000000001a0 .L0 
     /tmp/ccsIi0gf.s:265    .text:00000000000001a0 .L0 
     /tmp/ccsIi0gf.s:267    .text:00000000000001a4 .L0 
     /tmp/ccsIi0gf.s:271    .text:00000000000001a8 .L0 
     /tmp/ccsIi0gf.s:273    .text:00000000000001a8 .L0 
     /tmp/ccsIi0gf.s:276    .text:00000000000001b0 .L0 
     /tmp/ccsIi0gf.s:282    .text:00000000000001b0 _ZN8IOBuffer9peekFrontEv
     /tmp/ccsIi0gf.s:285    .text:00000000000001b0 .L0 
     /tmp/ccsIi0gf.s:287    .text:00000000000001b0 .L0 
     /tmp/ccsIi0gf.s:288    .text:00000000000001b4 .L0 
     /tmp/ccsIi0gf.s:290    .text:00000000000001b8 .L0 
     /tmp/ccsIi0gf.s:292    .text:00000000000001bc .L0 
     /tmp/ccsIi0gf.s:294    .text:00000000000001bc .L0 
     /tmp/ccsIi0gf.s:295    .text:00000000000001bc .L0 
     /tmp/ccsIi0gf.s:297    .text:00000000000001c0 .L0 
     /tmp/ccsIi0gf.s:299    .text:00000000000001c4 .L0 
     /tmp/ccsIi0gf.s:301    .text:00000000000001c8 .L0 
     /tmp/ccsIi0gf.s:303    .text:00000000000001cc .L0 
     /tmp/ccsIi0gf.s:305    .text:00000000000001d0 .L0 
     /tmp/ccsIi0gf.s:309    .text:00000000000001d4 .L0 
     /tmp/ccsIi0gf.s:310    .text:00000000000001d8 .L0 
     /tmp/ccsIi0gf.s:311    .text:00000000000001d8 .L0 
     /tmp/ccsIi0gf.s:312    .text:00000000000001d8 .L0 
     /tmp/ccsIi0gf.s:314    .text:00000000000001dc .L0 
     /tmp/ccsIi0gf.s:318    .text:00000000000001e0 .L0 
     /tmp/ccsIi0gf.s:320    .text:00000000000001e0 .L0 
     /tmp/ccsIi0gf.s:323    .text:00000000000001e8 .L0 
     /tmp/ccsIi0gf.s:329    .text:00000000000001e8 _ZN3CCB10outputBodyEPv
     /tmp/ccsIi0gf.s:332    .text:00000000000001e8 .L0 
     /tmp/ccsIi0gf.s:333    .text:00000000000001e8 .L0 
     /tmp/ccsIi0gf.s:334    .text:00000000000001ec .L0 
     /tmp/ccsIi0gf.s:338    .text:00000000000001f8 .L0 
     /tmp/ccsIi0gf.s:339    .text:00000000000001f8 .L0 
     /tmp/ccsIi0gf.s:340    .text:00000000000001f8 .L0 
     /tmp/ccsIi0gf.s:342    .text:00000000000001fc .L0 
     /tmp/ccsIi0gf.s:346    .text:0000000000000200 .L0 
     /tmp/ccsIi0gf.s:347    .text:0000000000000200 .L0 
     /tmp/ccsIi0gf.s:351    .text:0000000000000208 .L0 
     /tmp/ccsIi0gf.s:352    .text:0000000000000208 .L0 
     /tmp/ccsIi0gf.s:353    .text:0000000000000208 .L0 
     /tmp/ccsIi0gf.s:354    .text:0000000000000208 .L0 
     /tmp/ccsIi0gf.s:355    .text:0000000000000208 .L0 
     /tmp/ccsIi0gf.s:359    .text:0000000000000218 .L0 
     /tmp/ccsIi0gf.s:362    .text:0000000000000220 .L0 
     /tmp/ccsIi0gf.s:363    .text:0000000000000220 .L0 
     /tmp/ccsIi0gf.s:367    .text:0000000000000230 .L0 
     /tmp/ccsIi0gf.s:369    .text:0000000000000234 .L0 
     /tmp/ccsIi0gf.s:372    .text:0000000000000240 .L0 
     /tmp/ccsIi0gf.s:376    .text:0000000000000250 .L0 
     /tmp/ccsIi0gf.s:378    .text:0000000000000254 .L0 
     /tmp/ccsIi0gf.s:379    .text:0000000000000254 .L0 
     /tmp/ccsIi0gf.s:383    .text:0000000000000264 .L0 
     /tmp/ccsIi0gf.s:384    .text:0000000000000268 .L0 
     /tmp/ccsIi0gf.s:407    .data:0000000000000018 _ZN3CCB12outputBufferE
     /tmp/ccsIi0gf.s:399    .data:0000000000000000 _ZN3CCB11inputBufferE
     /tmp/ccsIi0gf.s:418    .bss:0000000000000000 _ZN3CCB16inputBufferEmptyE
     /tmp/ccsIi0gf.s:426    .bss:0000000000000010 _ZN3CCB9semOutputE
GAS LISTING /tmp/ccsIi0gf.s 			page 14


     /tmp/ccsIi0gf.s:422    .bss:0000000000000008 _ZN3CCB8semInputE
     /tmp/ccsIi0gf.s:430    .bss:0000000000000018 _ZN3CCB13outputProcessE
     /tmp/ccsIi0gf.s:434    .bss:0000000000000020 _ZN3CCB12inputProccesE
     /tmp/ccsIi0gf.s:396    .data:0000000000000000 .LANCHOR0
     /tmp/ccsIi0gf.s:415    .bss:0000000000000000 .LANCHOR1
     /tmp/ccsIi0gf.s:444    .text:0000000000000268 .L0 
     /tmp/ccsIi0gf.s:117    .text:00000000000000a8 .L0 
     /tmp/ccsIi0gf.s:120    .text:00000000000000b8 .L0 
     /tmp/ccsIi0gf.s:125    .text:00000000000000c8 .L0 
     /tmp/ccsIi0gf.s:144    .text:00000000000000f4 .L0 
     /tmp/ccsIi0gf.s:355    .text:0000000000000208 .L0 
     /tmp/ccsIi0gf.s:363    .text:0000000000000220 .L0 
     /tmp/ccsIi0gf.s:369    .text:0000000000000234 .L0 
     /tmp/ccsIi0gf.s:372    .text:0000000000000240 .L0 
     /tmp/ccsIi0gf.s:379    .text:0000000000000254 .L0 
     /tmp/ccsIi0gf.s:79     .text:0000000000000074 .L6
     /tmp/ccsIi0gf.s:89     .text:0000000000000088 .L4
     /tmp/ccsIi0gf.s:35     .text:0000000000000028 .L2
     /tmp/ccsIi0gf.s:60     .text:0000000000000058 .L3
     /tmp/ccsIi0gf.s:139    .text:00000000000000f4 .L8
     /tmp/ccsIi0gf.s:114    .text:00000000000000a8 .L12
     /tmp/ccsIi0gf.s:224    .text:0000000000000170 .L16
     /tmp/ccsIi0gf.s:218    .text:0000000000000168 .L17
     /tmp/ccsIi0gf.s:203    .text:0000000000000158 .L15
     /tmp/ccsIi0gf.s:208    .text:000000000000015c .L14
     /tmp/ccsIi0gf.s:270    .text:00000000000001a8 .L21
     /tmp/ccsIi0gf.s:260    .text:000000000000019c .L20
     /tmp/ccsIi0gf.s:317    .text:00000000000001e0 .L25
     /tmp/ccsIi0gf.s:307    .text:00000000000001d4 .L24
     /tmp/ccsIi0gf.s:350    .text:0000000000000208 .L28
     /tmp/ccsIi0gf.s:344    .text:0000000000000200 .L29
     /tmp/ccsIi0gf.s:1742   .debug_abbrev:0000000000000000 .Ldebug_abbrev0
     /tmp/ccsIi0gf.s:2701   .debug_str:0000000000000095 .LASF156
     /tmp/ccsIi0gf.s:2723   .debug_str:0000000000000214 .LASF157
     /tmp/ccsIi0gf.s:2793   .debug_str:0000000000000445 .LASF158
     /tmp/ccsIi0gf.s:5      .text:0000000000000000 .Ltext0
     /tmp/ccsIi0gf.s:437    .text:0000000000000268 .Letext0
     /tmp/ccsIi0gf.s:2679   .debug_line:0000000000000000 .Ldebug_line0
     /tmp/ccsIi0gf.s:2689   .debug_str:000000000000002c .LASF0
     /tmp/ccsIi0gf.s:2905   .debug_str:0000000000000794 .LASF1
     /tmp/ccsIi0gf.s:2867   .debug_str:0000000000000668 .LASF2
     /tmp/ccsIi0gf.s:2849   .debug_str:00000000000005f9 .LASF3
     /tmp/ccsIi0gf.s:2767   .debug_str:0000000000000381 .LASF4
     /tmp/ccsIi0gf.s:2955   .debug_str:00000000000008fd .LASF5
     /tmp/ccsIi0gf.s:2919   .debug_str:00000000000007d7 .LASF6
     /tmp/ccsIi0gf.s:2835   .debug_str:0000000000000598 .LASF7
     /tmp/ccsIi0gf.s:2855   .debug_str:0000000000000613 .LASF9
     /tmp/ccsIi0gf.s:2901   .debug_str:000000000000077e .LASF8
     /tmp/ccsIi0gf.s:2697   .debug_str:000000000000006b .LASF10
     /tmp/ccsIi0gf.s:2709   .debug_str:00000000000001a9 .LASF36
     /tmp/ccsIi0gf.s:2715   .debug_str:00000000000001d9 .LASF11
     /tmp/ccsIi0gf.s:2777   .debug_str:00000000000003c1 .LASF13
     /tmp/ccsIi0gf.s:2741   .debug_str:00000000000002ad .LASF12
     /tmp/ccsIi0gf.s:2975   .debug_str:00000000000009aa .LASF14
     /tmp/ccsIi0gf.s:2923   .debug_str:00000000000007f1 .LASF15
     /tmp/ccsIi0gf.s:2815   .debug_str:00000000000004fb .LASF17
     /tmp/ccsIi0gf.s:2691   .debug_str:0000000000000035 .LASF16
GAS LISTING /tmp/ccsIi0gf.s 			page 15


     /tmp/ccsIi0gf.s:2967   .debug_str:000000000000095f .LASF18
     /tmp/ccsIi0gf.s:2999   .debug_str:0000000000000a6c .LASF19
     /tmp/ccsIi0gf.s:2935   .debug_str:000000000000082c .LASF20
     /tmp/ccsIi0gf.s:2683   .debug_str:0000000000000009 .LASF21
     /tmp/ccsIi0gf.s:2921   .debug_str:00000000000007e4 .LASF22
     /tmp/ccsIi0gf.s:2915   .debug_str:00000000000007c2 .LASF23
     /tmp/ccsIi0gf.s:2987   .debug_str:0000000000000a0f .LASF24
     /tmp/ccsIi0gf.s:2807   .debug_str:00000000000004b1 .LASF25
     /tmp/ccsIi0gf.s:2951   .debug_str:00000000000008c7 .LASF26
     /tmp/ccsIi0gf.s:2889   .debug_str:000000000000070b .LASF27
     /tmp/ccsIi0gf.s:2745   .debug_str:00000000000002c5 .LASF28
     /tmp/ccsIi0gf.s:2757   .debug_str:000000000000033b .LASF29
     /tmp/ccsIi0gf.s:2753   .debug_str:0000000000000316 .LASF30
     /tmp/ccsIi0gf.s:2843   .debug_str:00000000000005ca .LASF31
     /tmp/ccsIi0gf.s:2775   .debug_str:00000000000003aa .LASF32
     /tmp/ccsIi0gf.s:2913   .debug_str:00000000000007b9 .LASF33
     /tmp/ccsIi0gf.s:2883   .debug_str:00000000000006d8 .LASF69
     /tmp/ccsIi0gf.s:2727   .debug_str:0000000000000229 .LASF71
     /tmp/ccsIi0gf.s:2779   .debug_str:00000000000003d9 .LASF34
     /tmp/ccsIi0gf.s:2733   .debug_str:000000000000026e .LASF35
     /tmp/ccsIi0gf.s:2873   .debug_str:0000000000000695 .LASF37
     /tmp/ccsIi0gf.s:2797   .debug_str:0000000000000473 .LASF38
     /tmp/ccsIi0gf.s:2865   .debug_str:0000000000000658 .LASF39
     /tmp/ccsIi0gf.s:2685   .debug_str:0000000000000019 .LASF40
     /tmp/ccsIi0gf.s:3003   .debug_str:0000000000000a88 .LASF41
     /tmp/ccsIi0gf.s:2917   .debug_str:00000000000007d2 .LASF42
     /tmp/ccsIi0gf.s:2851   .debug_str:0000000000000606 .LASF43
     /tmp/ccsIi0gf.s:2795   .debug_str:000000000000046a .LASF44
     /tmp/ccsIi0gf.s:2929   .debug_str:0000000000000811 .LASF45
     /tmp/ccsIi0gf.s:2977   .debug_str:00000000000009b9 .LASF46
     /tmp/ccsIi0gf.s:2743   .debug_str:00000000000002b2 .LASF47
     /tmp/ccsIi0gf.s:2945   .debug_str:000000000000087b .LASF48
     /tmp/ccsIi0gf.s:2927   .debug_str:0000000000000801 .LASF49
     /tmp/ccsIi0gf.s:2811   .debug_str:00000000000004d6 .LASF50
     /tmp/ccsIi0gf.s:2759   .debug_str:0000000000000348 .LASF51
     /tmp/ccsIi0gf.s:3007   .debug_str:0000000000000ab5 .LASF52
     /tmp/ccsIi0gf.s:2783   .debug_str:00000000000003ef .LASF53
     /tmp/ccsIi0gf.s:2829   .debug_str:0000000000000564 .LASF54
     /tmp/ccsIi0gf.s:2845   .debug_str:00000000000005d5 .LASF55
     /tmp/ccsIi0gf.s:3005   .debug_str:0000000000000a9a .LASF56
     /tmp/ccsIi0gf.s:2933   .debug_str:0000000000000821 .LASF57
     /tmp/ccsIi0gf.s:2991   .debug_str:0000000000000a38 .LASF58
     /tmp/ccsIi0gf.s:2881   .debug_str:00000000000006ca .LASF59
     /tmp/ccsIi0gf.s:2939   .debug_str:0000000000000840 .LASF60
     /tmp/ccsIi0gf.s:2737   .debug_str:0000000000000297 .LASF61
     /tmp/ccsIi0gf.s:2887   .debug_str:00000000000006f3 .LASF62
     /tmp/ccsIi0gf.s:2711   .debug_str:00000000000001b5 .LASF63
     /tmp/ccsIi0gf.s:2785   .debug_str:00000000000003fd .LASF64
     /tmp/ccsIi0gf.s:3001   .debug_str:0000000000000a79 .LASF65
     /tmp/ccsIi0gf.s:2695   .debug_str:000000000000004b .LASF66
     /tmp/ccsIi0gf.s:2911   .debug_str:00000000000007ad .LASF159
     /tmp/ccsIi0gf.s:2961   .debug_str:0000000000000926 .LASF67
     /tmp/ccsIi0gf.s:2705   .debug_str:0000000000000171 .LASF68
     /tmp/ccsIi0gf.s:2827   .debug_str:000000000000055e .LASF70
     /tmp/ccsIi0gf.s:2831   .debug_str:000000000000057e .LASF72
     /tmp/ccsIi0gf.s:2937   .debug_str:0000000000000838 .LASF73
     /tmp/ccsIi0gf.s:2823   .debug_str:0000000000000546 .LASF74
GAS LISTING /tmp/ccsIi0gf.s 			page 16


     /tmp/ccsIi0gf.s:2995   .debug_str:0000000000000a5b .LASF75
     /tmp/ccsIi0gf.s:2755   .debug_str:000000000000032f .LASF76
     /tmp/ccsIi0gf.s:2805   .debug_str:00000000000004a4 .LASF77
     /tmp/ccsIi0gf.s:2791   .debug_str:000000000000043a .LASF160
     /tmp/ccsIi0gf.s:2707   .debug_str:0000000000000193 .LASF161
     /tmp/ccsIi0gf.s:2993   .debug_str:0000000000000a4e .LASF78
     /tmp/ccsIi0gf.s:2713   .debug_str:00000000000001c1 .LASF79
     /tmp/ccsIi0gf.s:2879   .debug_str:00000000000006c1 .LASF80
     /tmp/ccsIi0gf.s:2969   .debug_str:0000000000000979 .LASF81
     /tmp/ccsIi0gf.s:2747   .debug_str:00000000000002de .LASF82
     /tmp/ccsIi0gf.s:2735   .debug_str:0000000000000280 .LASF83
     /tmp/ccsIi0gf.s:2903   .debug_str:0000000000000789 .LASF84
     /tmp/ccsIi0gf.s:2821   .debug_str:0000000000000529 .LASF85
     /tmp/ccsIi0gf.s:2687   .debug_str:0000000000000021 .LASF86
     /tmp/ccsIi0gf.s:2909   .debug_str:00000000000007a7 .LASF87
     /tmp/ccsIi0gf.s:2973   .debug_str:00000000000009a1 .LASF88
     /tmp/ccsIi0gf.s:2819   .debug_str:000000000000051f .LASF89
     /tmp/ccsIi0gf.s:2997   .debug_str:0000000000000a67 .LASF90
     /tmp/ccsIi0gf.s:2925   .debug_str:00000000000007f8 .LASF91
     /tmp/ccsIi0gf.s:2853   .debug_str:000000000000060b .LASF92
     /tmp/ccsIi0gf.s:2837   .debug_str:00000000000005a2 .LASF93
     /tmp/ccsIi0gf.s:2979   .debug_str:00000000000009d0 .LASF94
     /tmp/ccsIi0gf.s:2989   .debug_str:0000000000000a2a .LASF95
     /tmp/ccsIi0gf.s:2943   .debug_str:0000000000000871 .LASF96
     /tmp/ccsIi0gf.s:2899   .debug_str:000000000000076d .LASF162
     /tmp/ccsIi0gf.s:2739   .debug_str:00000000000002a4 .LASF102
     /tmp/ccsIi0gf.s:2699   .debug_str:0000000000000082 .LASF104
     /tmp/ccsIi0gf.s:2801   .debug_str:0000000000000486 .LASF97
     /tmp/ccsIi0gf.s:2965   .debug_str:0000000000000941 .LASF98
     /tmp/ccsIi0gf.s:2803   .debug_str:0000000000000495 .LASF99
     /tmp/ccsIi0gf.s:2895   .debug_str:0000000000000738 .LASF100
     /tmp/ccsIi0gf.s:2833   .debug_str:000000000000058e .LASF101
     /tmp/ccsIi0gf.s:2875   .debug_str:00000000000006a1 .LASF103
     /tmp/ccsIi0gf.s:2981   .debug_str:00000000000009dd .LASF105
     /tmp/ccsIi0gf.s:2813   .debug_str:00000000000004f2 .LASF106
     /tmp/ccsIi0gf.s:2681   .debug_str:0000000000000000 .LASF107
     /tmp/ccsIi0gf.s:2985   .debug_str:0000000000000a0a .LASF108
     /tmp/ccsIi0gf.s:2771   .debug_str:0000000000000394 .LASF109
     /tmp/ccsIi0gf.s:2725   .debug_str:0000000000000220 .LASF110
     /tmp/ccsIi0gf.s:2893   .debug_str:0000000000000720 .LASF111
     /tmp/ccsIi0gf.s:2869   .debug_str:0000000000000679 .LASF112
     /tmp/ccsIi0gf.s:2941   .debug_str:0000000000000859 .LASF113
     /tmp/ccsIi0gf.s:2963   .debug_str:0000000000000937 .LASF114
     /tmp/ccsIi0gf.s:2731   .debug_str:0000000000000255 .LASF115
     /tmp/ccsIi0gf.s:2751   .debug_str:000000000000030d .LASF116
     /tmp/ccsIi0gf.s:2953   .debug_str:00000000000008e5 .LASF117
     /tmp/ccsIi0gf.s:2931   .debug_str:000000000000081c .LASF118
     /tmp/ccsIi0gf.s:2799   .debug_str:0000000000000479 .LASF119
     /tmp/ccsIi0gf.s:2825   .debug_str:000000000000054b .LASF120
     /tmp/ccsIi0gf.s:2885   .debug_str:00000000000006e5 .LASF121
     /tmp/ccsIi0gf.s:2891   .debug_str:0000000000000719 .LASF123
     /tmp/ccsIi0gf.s:2809   .debug_str:00000000000004c4 .LASF122
     /tmp/ccsIi0gf.s:2693   .debug_str:0000000000000044 .LASF124
     /tmp/ccsIi0gf.s:2863   .debug_str:0000000000000651 .LASF125
     /tmp/ccsIi0gf.s:2857   .debug_str:0000000000000628 .LASF126
     /tmp/ccsIi0gf.s:2817   .debug_str:000000000000050c .LASF127
     /tmp/ccsIi0gf.s:2773   .debug_str:000000000000039a .LASF128
GAS LISTING /tmp/ccsIi0gf.s 			page 17


     /tmp/ccsIi0gf.s:2781   .debug_str:00000000000003e1 .LASF129
     /tmp/ccsIi0gf.s:2719   .debug_str:00000000000001f5 .LASF130
     /tmp/ccsIi0gf.s:2765   .debug_str:0000000000000372 .LASF131
     /tmp/ccsIi0gf.s:2721   .debug_str:0000000000000204 .LASF132
     /tmp/ccsIi0gf.s:2717   .debug_str:00000000000001e5 .LASF133
     /tmp/ccsIi0gf.s:2703   .debug_str:0000000000000165 .LASF134
     /tmp/ccsIi0gf.s:2749   .debug_str:00000000000002f7 .LASF135
     /tmp/ccsIi0gf.s:2847   .debug_str:00000000000005e3 .LASF136
     /tmp/ccsIi0gf.s:2763   .debug_str:0000000000000365 .LASF137
     /tmp/ccsIi0gf.s:2761   .debug_str:0000000000000358 .LASF163
     /tmp/ccsIi0gf.s:2839   .debug_str:00000000000005ad .LASF138
     /tmp/ccsIi0gf.s:2897   .debug_str:0000000000000756 .LASF139
     /tmp/ccsIi0gf.s:2841   .debug_str:00000000000005b2 .LASF140
     /tmp/ccsIi0gf.s:2983   .debug_str:00000000000009f8 .LASF141
     /tmp/ccsIi0gf.s:2871   .debug_str:0000000000000682 .LASF142
     /tmp/ccsIi0gf.s:2789   .debug_str:000000000000041f .LASF143
     /tmp/ccsIi0gf.s:2949   .debug_str:00000000000008b1 .LASF144
     /tmp/ccsIi0gf.s:2947   .debug_str:000000000000089a .LASF145
     /tmp/ccsIi0gf.s:283    .text:00000000000001b0 .LFB52
     /tmp/ccsIi0gf.s:324    .text:00000000000001e8 .LFE52
     /tmp/ccsIi0gf.s:2769   .debug_str:000000000000038f .LASF146
     /tmp/ccsIi0gf.s:2525   .debug_loc:0000000000000000 .LLST5
     /tmp/ccsIi0gf.s:236    .text:0000000000000178 .LFB51
     /tmp/ccsIi0gf.s:277    .text:00000000000001b0 .LFE51
     /tmp/ccsIi0gf.s:2550   .debug_loc:0000000000000062 .LLST4
     /tmp/ccsIi0gf.s:164    .text:0000000000000118 .LFB50
     /tmp/ccsIi0gf.s:230    .text:0000000000000178 .LFE50
     /tmp/ccsIi0gf.s:2575   .debug_loc:00000000000000c4 .LLST2
     /tmp/ccsIi0gf.s:2608   .debug_loc:000000000000014c .LLST3
     /tmp/ccsIi0gf.s:10     .text:0000000000000000 .LFB49
     /tmp/ccsIi0gf.s:94     .text:0000000000000090 .LFE49
     /tmp/ccsIi0gf.s:2619   .debug_loc:0000000000000182 .LLST0
     /tmp/ccsIi0gf.s:2641   .debug_loc:00000000000001e1 .LLST1
     /tmp/ccsIi0gf.s:85     .text:0000000000000080 .LVL4
     /tmp/ccsIi0gf.s:330    .text:00000000000001e8 .LFB48
     /tmp/ccsIi0gf.s:385    .text:0000000000000268 .LFE48
     /tmp/ccsIi0gf.s:348    .text:0000000000000208 .LVL24
     /tmp/ccsIi0gf.s:365    .text:0000000000000230 .LVL25
     /tmp/ccsIi0gf.s:374    .text:0000000000000250 .LVL26
     /tmp/ccsIi0gf.s:381    .text:0000000000000264 .LVL27
     /tmp/ccsIi0gf.s:100    .text:0000000000000090 .LFB47
     /tmp/ccsIi0gf.s:158    .text:0000000000000118 .LFE47
     /tmp/ccsIi0gf.s:122    .text:00000000000000c8 .LVL5
     /tmp/ccsIi0gf.s:128    .text:00000000000000dc .LVL6
     /tmp/ccsIi0gf.s:133    .text:00000000000000e8 .LVL7
     /tmp/ccsIi0gf.s:138    .text:00000000000000f4 .LVL8
     /tmp/ccsIi0gf.s:153    .text:0000000000000114 .LVL9
     /tmp/ccsIi0gf.s:2959   .debug_str:000000000000091a .LASF147
     /tmp/ccsIi0gf.s:2859   .debug_str:000000000000063b .LASF149
     /tmp/ccsIi0gf.s:2971   .debug_str:000000000000098c .LASF148
     /tmp/ccsIi0gf.s:2877   .debug_str:00000000000006b1 .LASF150
     /tmp/ccsIi0gf.s:2957   .debug_str:0000000000000909 .LASF151
     /tmp/ccsIi0gf.s:2907   .debug_str:000000000000079e .LASF152
     /tmp/ccsIi0gf.s:2729   .debug_str:0000000000000241 .LASF153
     /tmp/ccsIi0gf.s:2787   .debug_str:0000000000000414 .LASF154
     /tmp/ccsIi0gf.s:2861   .debug_str:0000000000000643 .LASF155
     /tmp/ccsIi0gf.s:286    .text:00000000000001b0 .LVL20
GAS LISTING /tmp/ccsIi0gf.s 			page 18


     /tmp/ccsIi0gf.s:306    .text:00000000000001d4 .LVL21
     /tmp/ccsIi0gf.s:316    .text:00000000000001e0 .LVL22
     /tmp/ccsIi0gf.s:321    .text:00000000000001e4 .LVL23
     /tmp/ccsIi0gf.s:239    .text:0000000000000178 .LVL16
     /tmp/ccsIi0gf.s:259    .text:000000000000019c .LVL17
     /tmp/ccsIi0gf.s:269    .text:00000000000001a8 .LVL18
     /tmp/ccsIi0gf.s:274    .text:00000000000001ac .LVL19
     /tmp/ccsIi0gf.s:167    .text:0000000000000118 .LVL10
     /tmp/ccsIi0gf.s:189    .text:0000000000000140 .LVL11
     /tmp/ccsIi0gf.s:207    .text:000000000000015c .LVL12
     /tmp/ccsIi0gf.s:217    .text:0000000000000168 .LVL13
     /tmp/ccsIi0gf.s:223    .text:0000000000000170 .LVL14
     /tmp/ccsIi0gf.s:227    .text:0000000000000174 .LVL15
     /tmp/ccsIi0gf.s:14     .text:0000000000000000 .LVL0
     /tmp/ccsIi0gf.s:34     .text:0000000000000028 .LVL1
     /tmp/ccsIi0gf.s:72     .text:0000000000000068 .LVL2
     /tmp/ccsIi0gf.s:78     .text:0000000000000074 .LVL3
     /tmp/ccsIi0gf.s:445    .debug_info:0000000000000000 .Ldebug_info0

UNDEFINED SYMBOLS
_Z7kmallocm
CONSOLE_RX_DATA
_Z10sem_signalP3SCB
plic_complete
_Z8sem_waitP3SCB
CONSOLE_STATUS
_Z15thread_dispatchv
CONSOLE_TX_DATA
