GAS LISTING /tmp/ccmrqyiz.s 			page 1


   1              		.file	"kernel.cpp"
   2              		.option pic
   3              		.option norelax
   4              		.text
   5              	.Ltext0:
   6              		.align	2
   7              		.globl	_ZN6Kernel10popSppSpieEv
   9              	_ZN6Kernel10popSppSpieEv:
  10              	.LFB33:
  11              		.file 1 "src/kernel.cpp"
   1:src/kernel.cpp **** #include "../h/kernel.h"
   2:src/kernel.cpp **** #include "../h/PCB.h"
   3:src/kernel.cpp **** #include "../h/MemoryAllocator.h"
   4:src/kernel.cpp **** #include "../h/console.h"
   5:src/kernel.cpp **** #include "../h/print.h"
   6:src/kernel.cpp **** #include "../h/Scheduler.h"
   7:src/kernel.cpp **** #include "../h/SCB.h"
   8:src/kernel.cpp **** 
   9:src/kernel.cpp **** void Kernel::popSppSpie() {
  12              		.loc 1 9 27
  13              		.cfi_startproc
  14 0000 130101FF 		addi	sp,sp,-16
  15              		.cfi_def_cfa_offset 16
  16 0004 23348100 		sd	s0,8(sp)
  17              		.cfi_offset 8, -8
  18 0008 13040101 		addi	s0,sp,16
  19              		.cfi_def_cfa 8, 0
  10:src/kernel.cpp ****     asm volatile("csrw sepc, ra"); // da bi se funkcija vratila u wrapper
  20              		.loc 1 10 5
  21              		.loc 1 10 34 is_stmt 0
  22              	#APP
  23              	# 10 "src/kernel.cpp" 1
  11              	    asm volatile("sret");
  24              		csrw sepc, ra
  25              	# 0 "" 2
  26              		.loc 1 11 5 is_stmt 1
  27              		.loc 1 11 25 is_stmt 0
  28              	# 11 "src/kernel.cpp" 1
  12              	}
  29              		sret
  30              	# 0 "" 2
  31              		.loc 1 12 1
  32              	#NO_APP
  33 0014 03348100 		ld	s0,8(sp)
  34              		.cfi_restore 8
  35              		.cfi_def_cfa 2, 16
  36 0018 13010101 		addi	sp,sp,16
  37              		.cfi_def_cfa_offset 0
  38 001c 67800000 		jr	ra
  39              		.cfi_endproc
  40              	.LFE33:
  42              		.align	2
  43              		.globl	interruptHandler
  45              	interruptHandler:
  46              	.LFB34:
  13:src/kernel.cpp **** 
  14:src/kernel.cpp **** extern "C" void interruptHandler() { // extern C da kompajler ne bi menjao ime funkcije
GAS LISTING /tmp/ccmrqyiz.s 			page 2


  47              		.loc 1 14 36 is_stmt 1
  48              		.cfi_startproc
  49 0020 130101FA 		addi	sp,sp,-96
  50              		.cfi_def_cfa_offset 96
  51 0024 233C1104 		sd	ra,88(sp)
  52 0028 23388104 		sd	s0,80(sp)
  53 002c 23349104 		sd	s1,72(sp)
  54 0030 23302105 		sd	s2,64(sp)
  55              		.cfi_offset 1, -8
  56              		.cfi_offset 8, -16
  57              		.cfi_offset 9, -24
  58              		.cfi_offset 18, -32
  59 0034 13040106 		addi	s0,sp,96
  60              		.cfi_def_cfa 8, 0
  15:src/kernel.cpp ****     size_t volatile scause = Kernel::r_scause();
  61              		.loc 1 15 5
  62              	.LBB39:
  63              	.LBB40:
  64              		.file 2 "src/../h/kernel.h"
   1:src/../h/kernel.h **** #ifndef KERNEL_H
   2:src/../h/kernel.h **** #define KERNEL_H
   3:src/../h/kernel.h **** 
   4:src/../h/kernel.h **** #include "hw.h"
   5:src/../h/kernel.h **** 
   6:src/../h/kernel.h **** class Kernel {
   7:src/../h/kernel.h **** public:
   8:src/../h/kernel.h **** 
   9:src/../h/kernel.h ****     // postavlja code u registar a0
  10:src/../h/kernel.h ****     static size_t setCode(size_t code) {
  11:src/../h/kernel.h ****         return code;
  12:src/../h/kernel.h ****     }
  13:src/../h/kernel.h **** 
  14:src/../h/kernel.h ****     // kodovi po kojima se prepoznaju sistemski pozivi
  15:src/../h/kernel.h ****     enum sysCallCodes {
  16:src/../h/kernel.h ****         mem_alloc = 0x01,
  17:src/../h/kernel.h ****         mem_free = 0x02,
  18:src/../h/kernel.h ****         thread_create = 0x11,
  19:src/../h/kernel.h ****         thread_exit = 0x12,
  20:src/../h/kernel.h ****         thread_dispatch = 0x13,
  21:src/../h/kernel.h ****         thread_start = 0x14,
  22:src/../h/kernel.h ****         sem_open = 0x21,
  23:src/../h/kernel.h ****         sem_close = 0x22,
  24:src/../h/kernel.h ****         sem_wait = 0x23,
  25:src/../h/kernel.h ****         sem_signal = 0x24,
  26:src/../h/kernel.h ****         tim_sleep = 0x31,
  27:src/../h/kernel.h ****         getc = 0x41,
  28:src/../h/kernel.h ****         putc = 0x42
  29:src/../h/kernel.h ****     };
  30:src/../h/kernel.h **** 
  31:src/../h/kernel.h ****     // pop sstatus.spp and sstatus.spie bits (has to be a non inline function)
  32:src/../h/kernel.h ****     static void popSppSpie();
  33:src/../h/kernel.h **** 
  34:src/../h/kernel.h ****     // cita registar scause (uzrok nastanka prekida)
  35:src/../h/kernel.h ****     static size_t r_scause() {
  36:src/../h/kernel.h ****         size_t volatile scause;
  65              		.loc 2 36 9
  37:src/../h/kernel.h ****         __asm__ volatile ("csrr %[scause], scause" : [scause] "=r"(scause));
GAS LISTING /tmp/ccmrqyiz.s 			page 3


  66              		.loc 2 37 9
  67              		.loc 2 37 76 is_stmt 0
  68              	#APP
  69              	# 37 "src/../h/kernel.h" 1
  38              	        return scause;
  70              		csrr a5, scause
  71              	# 0 "" 2
  72              	#NO_APP
  73 003c 2330F4FC 		sd	a5,-64(s0)
  74              		.loc 2 38 9 is_stmt 1
  75              		.loc 2 38 16 is_stmt 0
  76 0040 833704FC 		ld	a5,-64(s0)
  77              	.LBE40:
  78              	.LBE39:
  79              		.loc 1 15 47
  80 0044 233CF4FC 		sd	a5,-40(s0)
  16:src/kernel.cpp ****     size_t volatile sepc = Kernel::r_sepc();
  81              		.loc 1 16 5 is_stmt 1
  82              	.LBB41:
  83              	.LBB42:
  39:src/../h/kernel.h ****     }
  40:src/../h/kernel.h **** 
  41:src/../h/kernel.h ****     // upisuje u registar scause (uzrok nastanka prekida)
  42:src/../h/kernel.h ****     static void w_scause(size_t scause) {
  43:src/../h/kernel.h ****         __asm__ volatile ("csrw scause, %[scause]" : : [scause] "r"(scause));
  44:src/../h/kernel.h ****     }
  45:src/../h/kernel.h **** 
  46:src/../h/kernel.h ****     // cita registar sepc
  47:src/../h/kernel.h ****     static size_t r_sepc() {
  48:src/../h/kernel.h ****         size_t volatile sepc;
  84              		.loc 2 48 9
  49:src/../h/kernel.h ****         __asm__ volatile ("csrr %[sepc], sepc" : [sepc] "=r"(sepc));
  85              		.loc 2 49 9
  86              		.loc 2 49 68 is_stmt 0
  87              	#APP
  88              	# 49 "src/../h/kernel.h" 1
  50              	        return sepc;
  89              		csrr a5, sepc
  90              	# 0 "" 2
  91              	#NO_APP
  92 004c 233CF4FA 		sd	a5,-72(s0)
  93              		.loc 2 50 9 is_stmt 1
  94              		.loc 2 50 16 is_stmt 0
  95 0050 833784FB 		ld	a5,-72(s0)
  96              	.LBE42:
  97              	.LBE41:
  98              		.loc 1 16 43
  99 0054 2338F4FC 		sd	a5,-48(s0)
  17:src/kernel.cpp ****     size_t volatile sstatus = Kernel::r_sstatus();
 100              		.loc 1 17 5 is_stmt 1
 101              	.LBB43:
 102              	.LBB44:
  51:src/../h/kernel.h ****     }
  52:src/../h/kernel.h **** 
  53:src/../h/kernel.h ****     // upisuje u registar sepc
  54:src/../h/kernel.h ****     static void w_sepc(size_t sepc) {
  55:src/../h/kernel.h ****         __asm__ volatile ("csrw sepc, %[sepc]" : : [sepc] "r"(sepc));
GAS LISTING /tmp/ccmrqyiz.s 			page 4


  56:src/../h/kernel.h ****     }
  57:src/../h/kernel.h **** 
  58:src/../h/kernel.h ****     // read register stvec
  59:src/../h/kernel.h ****     static size_t r_stvec() {
  60:src/../h/kernel.h ****         size_t volatile stvec;
  61:src/../h/kernel.h ****         __asm__ volatile ("csrr %[stvec], stvec" : [stvec] "=r"(stvec));
  62:src/../h/kernel.h ****         return stvec;
  63:src/../h/kernel.h ****     }
  64:src/../h/kernel.h **** 
  65:src/../h/kernel.h ****     // write register stvec
  66:src/../h/kernel.h ****     static void w_stvec(size_t stvec) {
  67:src/../h/kernel.h ****         __asm__ volatile ("csrw stvec, %[stvec]" : : [stvec] "r"(stvec));
  68:src/../h/kernel.h ****     }
  69:src/../h/kernel.h **** 
  70:src/../h/kernel.h ****     // read register stval
  71:src/../h/kernel.h ****     static size_t r_stval() {
  72:src/../h/kernel.h ****         size_t volatile stval;
  73:src/../h/kernel.h ****         __asm__ volatile ("csrr %[stval], stval" : [stval] "=r"(stval));
  74:src/../h/kernel.h ****         return stval;
  75:src/../h/kernel.h ****     }
  76:src/../h/kernel.h **** 
  77:src/../h/kernel.h ****     // write register stval
  78:src/../h/kernel.h ****     static void w_stval(size_t stval) {
  79:src/../h/kernel.h ****         __asm__ volatile ("csrw stval, %[stval]" : : [stval] "r"(stval));
  80:src/../h/kernel.h ****     }
  81:src/../h/kernel.h **** 
  82:src/../h/kernel.h ****     enum BitMaskSip
  83:src/../h/kernel.h ****     {
  84:src/../h/kernel.h ****         SIP_SSIE = (1 << 1), // da li su dozvoljeni softverski prekidi
  85:src/../h/kernel.h ****         SIP_SEIE = (1 << 9), // da li su dozvoljeni spoljasnji hardverski prekidi
  86:src/../h/kernel.h ****     };
  87:src/../h/kernel.h **** 
  88:src/../h/kernel.h ****     // postavljanje odredjenih bitova (BitMaskSip) u registar sip
  89:src/../h/kernel.h ****     static void ms_sip(size_t mask) {
  90:src/../h/kernel.h ****         __asm__ volatile ("csrs sip, %[mask]" : : [mask] "r"(mask));
  91:src/../h/kernel.h ****     }
  92:src/../h/kernel.h **** 
  93:src/../h/kernel.h ****     // brisanje odredjenih bitova (BitMaskSip) iz registra sip
  94:src/../h/kernel.h ****     static void mc_sip(size_t mask) {
  95:src/../h/kernel.h ****         __asm__ volatile ("csrc sip, %[mask]" : : [mask] "r"(mask));
  96:src/../h/kernel.h ****     }
  97:src/../h/kernel.h **** 
  98:src/../h/kernel.h ****     // citanje iz registra sip
  99:src/../h/kernel.h ****     static size_t r_sip() {
 100:src/../h/kernel.h ****         size_t volatile sip;
 101:src/../h/kernel.h ****         __asm__ volatile ("csrr %[sip], sip" : [sip] "=r"(sip));
 102:src/../h/kernel.h ****         return sip;
 103:src/../h/kernel.h ****     }
 104:src/../h/kernel.h **** 
 105:src/../h/kernel.h ****     // upis u registar sip
 106:src/../h/kernel.h ****     static void w_sip(size_t sip) {
 107:src/../h/kernel.h ****         __asm__ volatile ("csrw sip, %[sip]" : : [sip] "r"(sip));
 108:src/../h/kernel.h ****     }
 109:src/../h/kernel.h **** 
 110:src/../h/kernel.h ****     enum BitMaskSstatus
 111:src/../h/kernel.h ****     {
 112:src/../h/kernel.h ****         SSTATUS_SIE = (1 << 1),
GAS LISTING /tmp/ccmrqyiz.s 			page 5


 113:src/../h/kernel.h ****         SSTATUS_SPIE = (1 << 5),
 114:src/../h/kernel.h ****         SSTATUS_SPP = (1 << 8),
 115:src/../h/kernel.h ****     };
 116:src/../h/kernel.h **** 
 117:src/../h/kernel.h ****     // mask set register sstatus
 118:src/../h/kernel.h ****     static void ms_sstatus(size_t mask) {
 119:src/../h/kernel.h ****         __asm__ volatile ("csrs sstatus, %[mask]" : : [mask] "r"(mask));
 120:src/../h/kernel.h ****     }
 121:src/../h/kernel.h **** 
 122:src/../h/kernel.h ****     // mask clear register sstatus
 123:src/../h/kernel.h ****     static void mc_sstatus(size_t mask) {
 124:src/../h/kernel.h ****         __asm__ volatile ("csrc sstatus, %[mask]" : : [mask] "r"(mask));
 125:src/../h/kernel.h ****     }
 126:src/../h/kernel.h **** 
 127:src/../h/kernel.h ****     // read register sstatus
 128:src/../h/kernel.h ****     static size_t r_sstatus() {
 129:src/../h/kernel.h ****         size_t volatile sstatus;
 103              		.loc 2 129 9
 130:src/../h/kernel.h ****         __asm__ volatile ("csrr %[sstatus], sstatus" : [sstatus] "=r"(sstatus));
 104              		.loc 2 130 9
 105              		.loc 2 130 80 is_stmt 0
 106              	#APP
 107              	# 130 "src/../h/kernel.h" 1
 131              	        return sstatus;
 108              		csrr a5, sstatus
 109              	# 0 "" 2
 110              	#NO_APP
 111 005c 2338F4FA 		sd	a5,-80(s0)
 112              		.loc 2 131 9 is_stmt 1
 113              		.loc 2 131 16 is_stmt 0
 114 0060 833704FB 		ld	a5,-80(s0)
 115              	.LBE44:
 116              	.LBE43:
 117              		.loc 1 17 49
 118 0064 2334F4FC 		sd	a5,-56(s0)
  18:src/kernel.cpp ****     if(scause == 9 || scause == 8) { // sistemski poziv iz korisnickog(8) ili sistemskog(9) rezima
 119              		.loc 1 18 5 is_stmt 1
 120              	.LBB45:
 121              		.loc 1 18 15 is_stmt 0
 122 0068 033784FD 		ld	a4,-40(s0)
 123              		.loc 1 18 20
 124 006c 93079000 		li	a5,9
 125 0070 6302F704 		beq	a4,a5,.L4
 126              		.loc 1 18 30 discriminator 2
 127 0074 033784FD 		ld	a4,-40(s0)
 128              		.loc 1 18 20 discriminator 2
 129 0078 93078000 		li	a5,8
 130 007c 630CF702 		beq	a4,a5,.L4
  19:src/kernel.cpp ****         sepc += 4; // da bi se sret vratio na pravo mesto
  20:src/kernel.cpp ****         size_t volatile code = PCB::running->registers[10]; // a0
  21:src/kernel.cpp ****         switch(code) {
  22:src/kernel.cpp ****             case Kernel::sysCallCodes::mem_alloc: // mem_alloc(size_t size) a1 - size
  23:src/kernel.cpp ****             {
  24:src/kernel.cpp ****                 size_t size = PCB::running->registers[11];
  25:src/kernel.cpp ****                 size = MemoryAllocator::blocksInSize(size);
  26:src/kernel.cpp **** 
  27:src/kernel.cpp ****                 PCB::running->registers[10] = (size_t)MemoryAllocator::mem_alloc(size);
GAS LISTING /tmp/ccmrqyiz.s 			page 6


  28:src/kernel.cpp ****                 break;
  29:src/kernel.cpp ****             }
  30:src/kernel.cpp ****             case Kernel::sysCallCodes::mem_free: // mem_free(void* memSegment) a1 - memSegment
  31:src/kernel.cpp ****             {
  32:src/kernel.cpp ****                 void* memSegment = (void*)PCB::running->registers[11];
  33:src/kernel.cpp ****                 PCB::running->registers[10] = (size_t)MemoryAllocator::mem_free(memSegment);
  34:src/kernel.cpp ****                 break;
  35:src/kernel.cpp ****             }
  36:src/kernel.cpp ****             case Kernel::sysCallCodes::thread_dispatch:
  37:src/kernel.cpp ****             {
  38:src/kernel.cpp ****                 PCB::timeSliceCounter = 0;
  39:src/kernel.cpp ****                 PCB::dispatch();
  40:src/kernel.cpp ****                 break;
  41:src/kernel.cpp ****             }
  42:src/kernel.cpp ****             case Kernel::sysCallCodes::thread_exit:
  43:src/kernel.cpp ****             {
  44:src/kernel.cpp ****                 PCB::running->finished = true;
  45:src/kernel.cpp ****                 PCB::timeSliceCounter = 0;
  46:src/kernel.cpp ****                 PCB::dispatch();
  47:src/kernel.cpp ****                 PCB::running->registers[10] = (size_t)0;
  48:src/kernel.cpp ****                 break;
  49:src/kernel.cpp ****             }
  50:src/kernel.cpp ****             case Kernel::sysCallCodes::thread_start: // a1 - handle
  51:src/kernel.cpp ****             {
  52:src/kernel.cpp ****                 PCB **handle = (PCB **) PCB::running->registers[11];
  53:src/kernel.cpp ****                 Scheduler::put(*handle);
  54:src/kernel.cpp ****                 break;
  55:src/kernel.cpp ****             }
  56:src/kernel.cpp ****             case Kernel::sysCallCodes::thread_create: // a1 - handle a2 - startRoutine a3 - arg a4 
  57:src/kernel.cpp ****             {
  58:src/kernel.cpp ****                 // argumenti
  59:src/kernel.cpp ****                 PCB::processMain main = (PCB::processMain)PCB::running->registers[12];
  60:src/kernel.cpp ****                 void *arg = (void*)PCB::running->registers[13];
  61:src/kernel.cpp **** 
  62:src/kernel.cpp ****                 PCB **handle = (PCB**)PCB::running->registers[11];
  63:src/kernel.cpp ****                 *handle = PCB::createProccess(main, arg);
  64:src/kernel.cpp **** 
  65:src/kernel.cpp ****                 // stavljamo handle u a0 (verovatno vec jeste ali za svaki slucaj)
  66:src/kernel.cpp ****                 PCB::running->registers[10] = (size_t)handle;
  67:src/kernel.cpp **** 
  68:src/kernel.cpp ****                 if(*handle == nullptr) break;
  69:src/kernel.cpp ****                 // dodeljujemo alociran stek procesu
  70:src/kernel.cpp ****                 size_t* stack = (size_t*)PCB::running->registers[14];
  71:src/kernel.cpp ****                 (*handle)->stack = stack;
  72:src/kernel.cpp ****                 (*handle)->registers[2] = (size_t)&stack[DEFAULT_STACK_SIZE]; // sp(x2)
  73:src/kernel.cpp **** 
  74:src/kernel.cpp ****                 break;
  75:src/kernel.cpp ****             }
  76:src/kernel.cpp ****             case Kernel::sysCallCodes::sem_open: // a1 = handle a2 = init
  77:src/kernel.cpp ****             {
  78:src/kernel.cpp ****                 SCB **handle = (SCB**) PCB::running->registers[11];
  79:src/kernel.cpp ****                 size_t init = (int) PCB::running->registers[12];
  80:src/kernel.cpp **** 
  81:src/kernel.cpp ****                 (*handle) = SCB::createSemaphore(init);
  82:src/kernel.cpp **** 
  83:src/kernel.cpp ****                 PCB::running->registers[10] = (size_t)handle;
  84:src/kernel.cpp ****                 break;
GAS LISTING /tmp/ccmrqyiz.s 			page 7


  85:src/kernel.cpp ****             }
  86:src/kernel.cpp ****             case Kernel::sysCallCodes::sem_wait: // a1 = sem
  87:src/kernel.cpp ****             {
  88:src/kernel.cpp ****                 SCB* sem = (SCB*) PCB::running->registers[11];
  89:src/kernel.cpp **** 
  90:src/kernel.cpp ****                 PCB::running->registers[10] = sem->wait(); // true kao proces treba da se blokira, 
  91:src/kernel.cpp ****                 break;
  92:src/kernel.cpp ****             }
  93:src/kernel.cpp ****             case Kernel::sysCallCodes::sem_signal:
  94:src/kernel.cpp ****             {
  95:src/kernel.cpp ****                 SCB* sem = (SCB*) PCB::running->registers[11];
  96:src/kernel.cpp **** 
  97:src/kernel.cpp ****                 PCB::running->registers[10] = (size_t)sem->signal(); // vraca pokazivac na PCB ako 
  98:src/kernel.cpp ****                 break;
  99:src/kernel.cpp ****             }
 100:src/kernel.cpp ****             default:
 101:src/kernel.cpp ****                 printError();
 102:src/kernel.cpp ****                 break;
 103:src/kernel.cpp ****         }
 104:src/kernel.cpp ****         Kernel::w_sepc(sepc);
 105:src/kernel.cpp ****         Kernel::w_sstatus(sstatus);
 106:src/kernel.cpp ****         return;
 107:src/kernel.cpp ****     }
 108:src/kernel.cpp ****     else if(scause == (1UL << 63 | 1)) { // softverski prekid od tajmera
 131              		.loc 1 108 10 is_stmt 1
 132              		.loc 1 108 20 is_stmt 0
 133 0080 033784FD 		ld	a4,-40(s0)
 134              		.loc 1 108 10
 135 0084 9307F0FF 		li	a5,-1
 136 0088 9397F703 		slli	a5,a5,63
 137 008c 93871700 		addi	a5,a5,1
 138 0090 6304F722 		beq	a4,a5,.L24
 109:src/kernel.cpp ****         PCB::timeSliceCounter++;
 110:src/kernel.cpp ****         if(PCB::timeSliceCounter >= PCB::running->timeSlice) {
 111:src/kernel.cpp ****             PCB::timeSliceCounter = 0;
 112:src/kernel.cpp ****             PCB::dispatch(); // vrsimo promenu konteksta ako je istekao time slice procesa
 113:src/kernel.cpp ****             Kernel::w_sepc(sepc);
 114:src/kernel.cpp ****             Kernel::w_sstatus(sstatus);
 115:src/kernel.cpp ****         }
 116:src/kernel.cpp ****         Kernel::mc_sip(Kernel::SIP_SSIE); // postavljamo SSIE na 0 jer smo obradili softverski prek
 117:src/kernel.cpp ****     }
 118:src/kernel.cpp ****     else if(scause == (1UL << 63 | 9)) { // spoljasnji prekid od konzole
 139              		.loc 1 118 10 is_stmt 1
 140              		.loc 1 118 20 is_stmt 0
 141 0094 033784FD 		ld	a4,-40(s0)
 142              		.loc 1 118 10
 143 0098 9307F0FF 		li	a5,-1
 144 009c 9397F703 		slli	a5,a5,63
 145 00a0 93879700 		addi	a5,a5,9
 146 00a4 6308F726 		beq	a4,a5,.L25
 119:src/kernel.cpp ****         console_handler(); // TODO: zameniti sa svojim console_handlerom()
 120:src/kernel.cpp ****     }
 121:src/kernel.cpp ****     else { // neka vrsta greske, neocekivan skok na prekidnu rutinu
 122:src/kernel.cpp ****         printError();
 147              		.loc 1 122 9 is_stmt 1
 148              		.loc 1 122 19 is_stmt 0
 149 00a8 97000000 		call	_Z10printErrorv@plt
GAS LISTING /tmp/ccmrqyiz.s 			page 8


 149      E7800000 
 150              	.LVL0:
 151 00b0 6F004008 		j	.L3
 152              	.L4:
 153              	.LBB46:
  19:src/kernel.cpp ****         size_t volatile code = PCB::running->registers[10]; // a0
 154              		.loc 1 19 9 is_stmt 1
  19:src/kernel.cpp ****         size_t volatile code = PCB::running->registers[10]; // a0
 155              		.loc 1 19 14 is_stmt 0
 156 00b4 833704FD 		ld	a5,-48(s0)
 157 00b8 93874700 		addi	a5,a5,4
 158 00bc 2338F4FC 		sd	a5,-48(s0)
  20:src/kernel.cpp ****         switch(code) {
 159              		.loc 1 20 9 is_stmt 1
  20:src/kernel.cpp ****         switch(code) {
 160              		.loc 1 20 46 is_stmt 0
 161 00c0 97070000 		la	a5,_ZN3PCB7runningE
 161      83B70700 
 162 00c8 83B60700 		ld	a3,0(a5)
 163 00cc 03B78601 		ld	a4,24(a3)
  20:src/kernel.cpp ****         switch(code) {
 164              		.loc 1 20 25
 165 00d0 83370705 		ld	a5,80(a4)
 166 00d4 2334F4FA 		sd	a5,-88(s0)
  21:src/kernel.cpp ****             case Kernel::sysCallCodes::mem_alloc: // mem_alloc(size_t size) a1 - size
 167              		.loc 1 21 9 is_stmt 1
 168              	.LBB47:
  21:src/kernel.cpp ****             case Kernel::sysCallCodes::mem_alloc: // mem_alloc(size_t size) a1 - size
 169              		.loc 1 21 16 is_stmt 0
 170 00d8 833784FA 		ld	a5,-88(s0)
 171 00dc 13064002 		li	a2,36
 172 00e0 6366F61C 		bgtu	a5,a2,.L7
 173 00e4 93972700 		slli	a5,a5,2
 174 00e8 17060000 		lla	a2,.L9
 174      13060600 
 175 00f0 B387C700 		add	a5,a5,a2
 176 00f4 83A70700 		lw	a5,0(a5)
 177 00f8 B387C700 		add	a5,a5,a2
 178 00fc 67800700 		jr	a5
 179              		.section	.rodata
 180              		.align	2
 181              		.align	2
 182              	.L9:
 183 0000 00000000 		.word	.L7-.L9
 184 0004 00000000 		.word	.L17-.L9
 185 0008 00000000 		.word	.L16-.L9
 186 000c 00000000 		.word	.L7-.L9
 187 0010 00000000 		.word	.L7-.L9
 188 0014 00000000 		.word	.L7-.L9
 189 0018 00000000 		.word	.L7-.L9
 190 001c 00000000 		.word	.L7-.L9
 191 0020 00000000 		.word	.L7-.L9
 192 0024 00000000 		.word	.L7-.L9
 193 0028 00000000 		.word	.L7-.L9
 194 002c 00000000 		.word	.L7-.L9
 195 0030 00000000 		.word	.L7-.L9
 196 0034 00000000 		.word	.L7-.L9
GAS LISTING /tmp/ccmrqyiz.s 			page 9


 197 0038 00000000 		.word	.L7-.L9
 198 003c 00000000 		.word	.L7-.L9
 199 0040 00000000 		.word	.L7-.L9
 200 0044 00000000 		.word	.L15-.L9
 201 0048 00000000 		.word	.L14-.L9
 202 004c 00000000 		.word	.L13-.L9
 203 0050 00000000 		.word	.L12-.L9
 204 0054 00000000 		.word	.L7-.L9
 205 0058 00000000 		.word	.L7-.L9
 206 005c 00000000 		.word	.L7-.L9
 207 0060 00000000 		.word	.L7-.L9
 208 0064 00000000 		.word	.L7-.L9
 209 0068 00000000 		.word	.L7-.L9
 210 006c 00000000 		.word	.L7-.L9
 211 0070 00000000 		.word	.L7-.L9
 212 0074 00000000 		.word	.L7-.L9
 213 0078 00000000 		.word	.L7-.L9
 214 007c 00000000 		.word	.L7-.L9
 215 0080 00000000 		.word	.L7-.L9
 216 0084 00000000 		.word	.L11-.L9
 217 0088 00000000 		.word	.L7-.L9
 218 008c 00000000 		.word	.L10-.L9
 219 0090 00000000 		.word	.L8-.L9
 220              		.text
 221              	.L17:
 222              	.LBB48:
  22:src/kernel.cpp ****             {
 223              		.loc 1 22 13 is_stmt 1
  23:src/kernel.cpp ****                 size_t size = PCB::running->registers[11];
 224              		.loc 1 23 13
 225              	.LBB49:
  24:src/kernel.cpp ****                 size = MemoryAllocator::blocksInSize(size);
 226              		.loc 1 24 17
  24:src/kernel.cpp ****                 size = MemoryAllocator::blocksInSize(size);
 227              		.loc 1 24 24 is_stmt 0
 228 0100 03358705 		ld	a0,88(a4)
 229              	.LVL1:
  25:src/kernel.cpp **** 
 230              		.loc 1 25 17 is_stmt 1
 231              	.LBB50:
 232              	.LBB51:
 233              		.file 3 "src/../h/MemoryAllocator.h"
   1:src/../h/MemoryAllocator.h **** #ifndef PROJECT_BASE_MEMORYALLOCATOR_H
   2:src/../h/MemoryAllocator.h **** #define PROJECT_BASE_MEMORYALLOCATOR_H
   3:src/../h/MemoryAllocator.h **** 
   4:src/../h/MemoryAllocator.h **** #include "hw.h"
   5:src/../h/MemoryAllocator.h **** 
   6:src/../h/MemoryAllocator.h **** class MemoryAllocator {
   7:src/../h/MemoryAllocator.h **** public:
   8:src/../h/MemoryAllocator.h ****     /*
   9:src/../h/MemoryAllocator.h ****     Alocira (najmanje) size bajtova memorije, zaokruženo i poravnato na blokove veličine MEM_BLOC
  10:src/../h/MemoryAllocator.h ****     Svaki alocirani segment ima zaglavlje sa velicinom tog segmenta(vraca se adresa nakon tog zagla
  11:src/../h/MemoryAllocator.h **** 
  12:src/../h/MemoryAllocator.h ****     Vraća:
  13:src/../h/MemoryAllocator.h ****     pokazivač na alocirani deo memorije u slučaju uspeha, nullptr u slučaju neuspeha
  14:src/../h/MemoryAllocator.h **** 
  15:src/../h/MemoryAllocator.h ****     Radi se po algoritmu first fit(alociramo prvi segment koji je >= size). Ako je preostao prostor
GAS LISTING /tmp/ccmrqyiz.s 			page 10


  16:src/../h/MemoryAllocator.h ****     jednog bloka, taj preostali prostor se pridruzuje ovom koji smo sad alocirali(jer nema poente d
  17:src/../h/MemoryAllocator.h ****     */
  18:src/../h/MemoryAllocator.h ****     static void* mem_alloc(size_t size);
  19:src/../h/MemoryAllocator.h ****     /*
  20:src/../h/MemoryAllocator.h ****     Oslobađa prostor prethodno zauzet pomoću mem_alloc.
  21:src/../h/MemoryAllocator.h ****     Vraća 0 u slučaju uspeha, BAD_POINTER  flag ako je dostavljen los pokazivac.
  22:src/../h/MemoryAllocator.h ****     Ako je moguce, spaja dva susedna slobodna segmenta u jedan veci
  23:src/../h/MemoryAllocator.h ****     */
  24:src/../h/MemoryAllocator.h ****     static int mem_free(void* memSegment);
  25:src/../h/MemoryAllocator.h **** 
  26:src/../h/MemoryAllocator.h ****     enum memFreeFlags {
  27:src/../h/MemoryAllocator.h ****         BAD_POINTER = -1 // nije koriscen pokazviac iz mem_alloc
  28:src/../h/MemoryAllocator.h ****     };
  29:src/../h/MemoryAllocator.h **** 
  30:src/../h/MemoryAllocator.h ****     // Vraca minimalan potreban broj blokova za alokaciju memorije velicine size bajtova
  31:src/../h/MemoryAllocator.h ****     static inline size_t sizeInBlocks(size_t size) {
  32:src/../h/MemoryAllocator.h ****         return (size / MEM_BLOCK_SIZE) + (size % MEM_BLOCK_SIZE > 0);
  33:src/../h/MemoryAllocator.h ****     }
  34:src/../h/MemoryAllocator.h **** 
  35:src/../h/MemoryAllocator.h ****     // Vraca velicinu numOfBlocks blokova u bajtovima
  36:src/../h/MemoryAllocator.h ****     static inline size_t blocksInSize(size_t numOfBlocks) {
  37:src/../h/MemoryAllocator.h ****         return numOfBlocks * MEM_BLOCK_SIZE;
 234              		.loc 3 37 9
 235              	.LBE51:
 236              	.LBE50:
  27:src/kernel.cpp ****                 break;
 237              		.loc 1 27 17
  27:src/kernel.cpp ****                 break;
 238              		.loc 1 27 81 is_stmt 0
 239 0104 13156500 		slli	a0,a0,6
 240              	.LVL2:
 241 0108 97000000 		call	_ZN15MemoryAllocator9mem_allocEm@plt
 241      E7800000 
 242              	.LVL3:
  27:src/kernel.cpp ****                 break;
 243              		.loc 1 27 31
 244 0110 97070000 		la	a5,_ZN3PCB7runningE
 244      83B70700 
 245 0118 83B70700 		ld	a5,0(a5)
 246 011c 83B78701 		ld	a5,24(a5)
  27:src/kernel.cpp ****                 break;
 247              		.loc 1 27 45
 248 0120 23B8A704 		sd	a0,80(a5)
  28:src/kernel.cpp ****             }
 249              		.loc 1 28 17 is_stmt 1
 250              	.L18:
 251              	.LBE49:
 252              	.LBE48:
 253              	.LBE47:
 104:src/kernel.cpp ****         Kernel::w_sstatus(sstatus);
 254              		.loc 1 104 9
 104:src/kernel.cpp ****         Kernel::w_sstatus(sstatus);
 255              		.loc 1 104 23 is_stmt 0
 256 0124 833704FD 		ld	a5,-48(s0)
 257              	.LVL4:
 258              	.LBB63:
 259              	.LBB64:
GAS LISTING /tmp/ccmrqyiz.s 			page 11


  55:src/../h/kernel.h ****     }
 260              		.loc 2 55 9 is_stmt 1
  55:src/../h/kernel.h ****     }
 261              		.loc 2 55 69 is_stmt 0
 262              	#APP
 263              	# 55 "src/../h/kernel.h" 1
 264              		csrw sepc, a5
 265              	# 0 "" 2
 266              	.LVL5:
 267              	#NO_APP
 268              	.LBE64:
 269              	.LBE63:
 105:src/kernel.cpp ****         return;
 270              		.loc 1 105 9 is_stmt 1
 105:src/kernel.cpp ****         return;
 271              		.loc 1 105 26 is_stmt 0
 272 012c 833784FC 		ld	a5,-56(s0)
 273              	.LVL6:
 274              	.LBB65:
 275              	.LBB66:
 132:src/../h/kernel.h ****     }
 133:src/../h/kernel.h **** 
 134:src/../h/kernel.h ****     // write register sstatus
 135:src/../h/kernel.h ****     static void w_sstatus(size_t sstatus) {
 136:src/../h/kernel.h ****         __asm__ volatile ("csrw sstatus, %[sstatus]" : : [sstatus] "r"(sstatus));
 276              		.loc 2 136 9 is_stmt 1
 277              		.loc 2 136 81 is_stmt 0
 278              	#APP
 279              	# 136 "src/../h/kernel.h" 1
 137              	    }
 280              		csrw sstatus, a5
 281              	# 0 "" 2
 282              	.LVL7:
 283              	#NO_APP
 284              	.LBE66:
 285              	.LBE65:
 106:src/kernel.cpp ****     }
 286              		.loc 1 106 9 is_stmt 1
 287              	.L3:
 288              	.LBE46:
 289              	.LBE45:
 123:src/kernel.cpp ****     }
 124:src/kernel.cpp **** 
 125:src/kernel.cpp **** }
 290              		.loc 1 125 1 is_stmt 0
 291 0134 83308105 		ld	ra,88(sp)
 292              		.cfi_remember_state
 293              		.cfi_restore 1
 294 0138 03340105 		ld	s0,80(sp)
 295              		.cfi_restore 8
 296              		.cfi_def_cfa 2, 96
 297 013c 83348104 		ld	s1,72(sp)
 298              		.cfi_restore 9
 299 0140 03390104 		ld	s2,64(sp)
 300              		.cfi_restore 18
 301 0144 13010106 		addi	sp,sp,96
 302              		.cfi_def_cfa_offset 0
GAS LISTING /tmp/ccmrqyiz.s 			page 12


 303 0148 67800000 		jr	ra
 304              	.L16:
 305              		.cfi_restore_state
 306              	.LBB75:
 307              	.LBB68:
 308              	.LBB67:
 309              	.LBB62:
  30:src/kernel.cpp ****             {
 310              		.loc 1 30 13 is_stmt 1
  31:src/kernel.cpp ****                 void* memSegment = (void*)PCB::running->registers[11];
 311              		.loc 1 31 13
 312              	.LBB52:
  32:src/kernel.cpp ****                 PCB::running->registers[10] = (size_t)MemoryAllocator::mem_free(memSegment);
 313              		.loc 1 32 17
 314              	.LVL8:
  33:src/kernel.cpp ****                 break;
 315              		.loc 1 33 17
  33:src/kernel.cpp ****                 break;
 316              		.loc 1 33 80 is_stmt 0
 317 014c 03358705 		ld	a0,88(a4)
 318 0150 97000000 		call	_ZN15MemoryAllocator8mem_freeEPv@plt
 318      E7800000 
 319              	.LVL9:
  33:src/kernel.cpp ****                 break;
 320              		.loc 1 33 31
 321 0158 97070000 		la	a5,_ZN3PCB7runningE
 321      83B70700 
 322 0160 83B70700 		ld	a5,0(a5)
 323 0164 83B78701 		ld	a5,24(a5)
  33:src/kernel.cpp ****                 break;
 324              		.loc 1 33 45
 325 0168 23B8A704 		sd	a0,80(a5)
  34:src/kernel.cpp ****             }
 326              		.loc 1 34 17 is_stmt 1
 327 016c 6FF09FFB 		j	.L18
 328              	.L13:
 329              	.LBE52:
  36:src/kernel.cpp ****             {
 330              		.loc 1 36 13
  37:src/kernel.cpp ****                 PCB::timeSliceCounter = 0;
 331              		.loc 1 37 13
  38:src/kernel.cpp ****                 PCB::dispatch();
 332              		.loc 1 38 17
  38:src/kernel.cpp ****                 PCB::dispatch();
 333              		.loc 1 38 39 is_stmt 0
 334 0170 97070000 		la	a5,_ZN3PCB16timeSliceCounterE
 334      83B70700 
 335 0178 23B00700 		sd	zero,0(a5)
  39:src/kernel.cpp ****                 break;
 336              		.loc 1 39 17 is_stmt 1
  39:src/kernel.cpp ****                 break;
 337              		.loc 1 39 30 is_stmt 0
 338 017c 97000000 		call	_ZN3PCB8dispatchEv@plt
 338      E7800000 
 339              	.LVL10:
  40:src/kernel.cpp ****             }
 340              		.loc 1 40 17 is_stmt 1
GAS LISTING /tmp/ccmrqyiz.s 			page 13


 341 0184 6FF01FFA 		j	.L18
 342              	.L14:
  42:src/kernel.cpp ****             {
 343              		.loc 1 42 13
  43:src/kernel.cpp ****                 PCB::running->finished = true;
 344              		.loc 1 43 13
  44:src/kernel.cpp ****                 PCB::timeSliceCounter = 0;
 345              		.loc 1 44 17
  44:src/kernel.cpp ****                 PCB::timeSliceCounter = 0;
 346              		.loc 1 44 40 is_stmt 0
 347 0188 93071000 		li	a5,1
 348 018c 2384F602 		sb	a5,40(a3)
  45:src/kernel.cpp ****                 PCB::dispatch();
 349              		.loc 1 45 17 is_stmt 1
  45:src/kernel.cpp ****                 PCB::dispatch();
 350              		.loc 1 45 39 is_stmt 0
 351 0190 97070000 		la	a5,_ZN3PCB16timeSliceCounterE
 351      83B70700 
 352 0198 23B00700 		sd	zero,0(a5)
  46:src/kernel.cpp ****                 PCB::running->registers[10] = (size_t)0;
 353              		.loc 1 46 17 is_stmt 1
  46:src/kernel.cpp ****                 PCB::running->registers[10] = (size_t)0;
 354              		.loc 1 46 30 is_stmt 0
 355 019c 97000000 		call	_ZN3PCB8dispatchEv@plt
 355      E7800000 
 356              	.LVL11:
  47:src/kernel.cpp ****                 break;
 357              		.loc 1 47 17 is_stmt 1
  47:src/kernel.cpp ****                 break;
 358              		.loc 1 47 31 is_stmt 0
 359 01a4 97070000 		la	a5,_ZN3PCB7runningE
 359      83B70700 
 360 01ac 83B70700 		ld	a5,0(a5)
 361 01b0 83B78701 		ld	a5,24(a5)
  47:src/kernel.cpp ****                 break;
 362              		.loc 1 47 45
 363 01b4 23B80704 		sd	zero,80(a5)
  48:src/kernel.cpp ****             }
 364              		.loc 1 48 17 is_stmt 1
 365 01b8 6FF0DFF6 		j	.L18
 366              	.L12:
  50:src/kernel.cpp ****             {
 367              		.loc 1 50 13
  51:src/kernel.cpp ****                 PCB **handle = (PCB **) PCB::running->registers[11];
 368              		.loc 1 51 13
 369              	.LBB53:
  52:src/kernel.cpp ****                 Scheduler::put(*handle);
 370              		.loc 1 52 17
  52:src/kernel.cpp ****                 Scheduler::put(*handle);
 371              		.loc 1 52 67 is_stmt 0
 372 01bc 83378705 		ld	a5,88(a4)
 373              	.LVL12:
  53:src/kernel.cpp ****                 break;
 374              		.loc 1 53 17 is_stmt 1
  53:src/kernel.cpp ****                 break;
 375              		.loc 1 53 31 is_stmt 0
 376 01c0 03B50700 		ld	a0,0(a5)
GAS LISTING /tmp/ccmrqyiz.s 			page 14


 377 01c4 97000000 		call	_ZN9Scheduler3putEP3PCB@plt
 377      E7800000 
 378              	.LVL13:
  54:src/kernel.cpp ****             }
 379              		.loc 1 54 17 is_stmt 1
 380 01cc 6FF09FF5 		j	.L18
 381              	.L15:
 382              	.LBE53:
  56:src/kernel.cpp ****             {
 383              		.loc 1 56 13
  57:src/kernel.cpp ****                 // argumenti
 384              		.loc 1 57 13
 385              	.LBB54:
  59:src/kernel.cpp ****                 void *arg = (void*)PCB::running->registers[13];
 386              		.loc 1 59 17
 387              	.LVL14:
  60:src/kernel.cpp **** 
 388              		.loc 1 60 17
  62:src/kernel.cpp ****                 *handle = PCB::createProccess(main, arg);
 389              		.loc 1 62 17
  62:src/kernel.cpp ****                 *handle = PCB::createProccess(main, arg);
 390              		.loc 1 62 65 is_stmt 0
 391 01d0 83348705 		ld	s1,88(a4)
 392              	.LVL15:
  63:src/kernel.cpp **** 
 393              		.loc 1 63 17 is_stmt 1
  63:src/kernel.cpp **** 
 394              		.loc 1 63 46 is_stmt 0
 395 01d4 83358706 		ld	a1,104(a4)
 396 01d8 03350706 		ld	a0,96(a4)
 397 01dc 97000000 		call	_ZN3PCB14createProccessEPFvvEPv@plt
 397      E7800000 
 398              	.LVL16:
  63:src/kernel.cpp **** 
 399              		.loc 1 63 25
 400 01e4 23B0A400 		sd	a0,0(s1)
  66:src/kernel.cpp **** 
 401              		.loc 1 66 17 is_stmt 1
  66:src/kernel.cpp **** 
 402              		.loc 1 66 31 is_stmt 0
 403 01e8 97070000 		la	a5,_ZN3PCB7runningE
 403      83B70700 
 404 01f0 83B70700 		ld	a5,0(a5)
 405 01f4 03B78701 		ld	a4,24(a5)
  66:src/kernel.cpp **** 
 406              		.loc 1 66 45
 407 01f8 23389704 		sd	s1,80(a4)
  68:src/kernel.cpp ****                 // dodeljujemo alociran stek procesu
 408              		.loc 1 68 17 is_stmt 1
  68:src/kernel.cpp ****                 // dodeljujemo alociran stek procesu
 409              		.loc 1 68 20 is_stmt 0
 410 01fc 03B70400 		ld	a4,0(s1)
  68:src/kernel.cpp ****                 // dodeljujemo alociran stek procesu
 411              		.loc 1 68 17
 412 0200 E30207F2 		beqz	a4,.L18
  70:src/kernel.cpp ****                 (*handle)->stack = stack;
 413              		.loc 1 70 17 is_stmt 1
GAS LISTING /tmp/ccmrqyiz.s 			page 15


  70:src/kernel.cpp ****                 (*handle)->stack = stack;
 414              		.loc 1 70 56 is_stmt 0
 415 0204 83B78701 		ld	a5,24(a5)
  70:src/kernel.cpp ****                 (*handle)->stack = stack;
 416              		.loc 1 70 68
 417 0208 83B70707 		ld	a5,112(a5)
 418              	.LVL17:
  71:src/kernel.cpp ****                 (*handle)->registers[2] = (size_t)&stack[DEFAULT_STACK_SIZE]; // sp(x2)
 419              		.loc 1 71 17 is_stmt 1
  71:src/kernel.cpp ****                 (*handle)->registers[2] = (size_t)&stack[DEFAULT_STACK_SIZE]; // sp(x2)
 420              		.loc 1 71 34 is_stmt 0
 421 020c 2334F700 		sd	a5,8(a4)
  72:src/kernel.cpp **** 
 422              		.loc 1 72 17 is_stmt 1
  72:src/kernel.cpp **** 
 423              		.loc 1 72 51 is_stmt 0
 424 0210 37870000 		li	a4,32768
 425 0214 B387E700 		add	a5,a5,a4
 426              	.LVL18:
  72:src/kernel.cpp **** 
 427              		.loc 1 72 18
 428 0218 03B70400 		ld	a4,0(s1)
  72:src/kernel.cpp **** 
 429              		.loc 1 72 28
 430 021c 03378701 		ld	a4,24(a4)
  72:src/kernel.cpp **** 
 431              		.loc 1 72 41
 432 0220 2338F700 		sd	a5,16(a4)
  74:src/kernel.cpp ****             }
 433              		.loc 1 74 17 is_stmt 1
 434 0224 6FF01FF0 		j	.L18
 435              	.LVL19:
 436              	.L11:
 437              	.LBE54:
  76:src/kernel.cpp ****             {
 438              		.loc 1 76 13
  77:src/kernel.cpp ****                 SCB **handle = (SCB**) PCB::running->registers[11];
 439              		.loc 1 77 13
 440              	.LBB55:
  78:src/kernel.cpp ****                 size_t init = (int) PCB::running->registers[12];
 441              		.loc 1 78 17
  78:src/kernel.cpp ****                 size_t init = (int) PCB::running->registers[12];
 442              		.loc 1 78 66 is_stmt 0
 443 0228 83348705 		ld	s1,88(a4)
 444              	.LVL20:
  79:src/kernel.cpp **** 
 445              		.loc 1 79 17 is_stmt 1
  79:src/kernel.cpp **** 
 446              		.loc 1 79 31 is_stmt 0
 447 022c 03290706 		lw	s2,96(a4)
 448              	.LVL21:
  81:src/kernel.cpp **** 
 449              		.loc 1 81 17 is_stmt 1
 450              	.LBB56:
 451              	.LBB57:
 452              		.file 4 "src/../h/SCB.h"
   1:src/../h/SCB.h **** #ifndef PROJECT_BASE_SCB_H
GAS LISTING /tmp/ccmrqyiz.s 			page 16


   2:src/../h/SCB.h **** #define PROJECT_BASE_SCB_H
   3:src/../h/SCB.h **** 
   4:src/../h/SCB.h **** #include "PCB.h"
   5:src/../h/SCB.h **** 
   6:src/../h/SCB.h **** class SCB { // Semaphore Control Block
   7:src/../h/SCB.h **** public:
   8:src/../h/SCB.h ****     int getSemValue() const {
   9:src/../h/SCB.h ****         return semValue;
  10:src/../h/SCB.h ****     }
  11:src/../h/SCB.h **** 
  12:src/../h/SCB.h ****     // smanjuje vrednost semValue i ako ona padne manje od 0, vraca true(tekuci proces treba da se 
  13:src/../h/SCB.h ****     bool wait();
  14:src/../h/SCB.h **** 
  15:src/../h/SCB.h ****     // povecava vrednost semValue i ako je ona posle povecanja <= 0, vraca se proces koji treba da 
  16:src/../h/SCB.h ****     PCB* signal();
  17:src/../h/SCB.h **** 
  18:src/../h/SCB.h ****     void* operator new(size_t size);
  19:src/../h/SCB.h ****     void operator delete(void* memSegment);
  20:src/../h/SCB.h **** 
  21:src/../h/SCB.h ****     static SCB* createSemaphore(int semValue = 1) {
  22:src/../h/SCB.h ****         return new SCB(semValue);
 453              		.loc 4 22 9
 454              		.loc 4 22 32 is_stmt 0
 455 0230 13058001 		li	a0,24
 456 0234 97000000 		call	_ZN3SCBnwEm@plt
 456      E7800000 
 457              	.LVL22:
 458              	.LBB58:
 459              	.LBB59:
  23:src/../h/SCB.h ****     }
  24:src/../h/SCB.h **** private:
  25:src/../h/SCB.h ****     SCB(int semValue_ = 1) {
 460              		.loc 4 25 28
 461 023c 23300500 		sd	zero,0(a0)
 462 0240 23340500 		sd	zero,8(a0)
  26:src/../h/SCB.h ****         semValue = semValue_;
 463              		.loc 4 26 9 is_stmt 1
 464              		.loc 4 26 18 is_stmt 0
 465 0244 23282501 		sw	s2,16(a0)
 466              	.LVL23:
 467              	.LBE59:
 468              	.LBE58:
 469              	.LBE57:
 470              	.LBE56:
  81:src/kernel.cpp **** 
 471              		.loc 1 81 27
 472 0248 23B0A400 		sd	a0,0(s1)
  83:src/kernel.cpp ****                 break;
 473              		.loc 1 83 17 is_stmt 1
  83:src/kernel.cpp ****                 break;
 474              		.loc 1 83 31 is_stmt 0
 475 024c 97070000 		la	a5,_ZN3PCB7runningE
 475      83B70700 
 476 0254 83B70700 		ld	a5,0(a5)
 477 0258 83B78701 		ld	a5,24(a5)
  83:src/kernel.cpp ****                 break;
 478              		.loc 1 83 45
GAS LISTING /tmp/ccmrqyiz.s 			page 17


 479 025c 23B89704 		sd	s1,80(a5)
  84:src/kernel.cpp ****             }
 480              		.loc 1 84 17 is_stmt 1
 481 0260 6FF05FEC 		j	.L18
 482              	.LVL24:
 483              	.L10:
 484              	.LBE55:
  86:src/kernel.cpp ****             {
 485              		.loc 1 86 13
  87:src/kernel.cpp ****                 SCB* sem = (SCB*) PCB::running->registers[11];
 486              		.loc 1 87 13
 487              	.LBB60:
  88:src/kernel.cpp **** 
 488              		.loc 1 88 17
  90:src/kernel.cpp ****                 break;
 489              		.loc 1 90 17
  90:src/kernel.cpp ****                 break;
 490              		.loc 1 90 56 is_stmt 0
 491 0264 03358705 		ld	a0,88(a4)
 492 0268 97000000 		call	_ZN3SCB4waitEv@plt
 492      E7800000 
 493              	.LVL25:
  90:src/kernel.cpp ****                 break;
 494              		.loc 1 90 31
 495 0270 97070000 		la	a5,_ZN3PCB7runningE
 495      83B70700 
 496 0278 83B70700 		ld	a5,0(a5)
 497 027c 83B78701 		ld	a5,24(a5)
  90:src/kernel.cpp ****                 break;
 498              		.loc 1 90 45
 499 0280 23B8A704 		sd	a0,80(a5)
  91:src/kernel.cpp ****             }
 500              		.loc 1 91 17 is_stmt 1
 501 0284 6FF01FEA 		j	.L18
 502              	.L8:
 503              	.LBE60:
  93:src/kernel.cpp ****             {
 504              		.loc 1 93 13
  94:src/kernel.cpp ****                 SCB* sem = (SCB*) PCB::running->registers[11];
 505              		.loc 1 94 13
 506              	.LBB61:
  95:src/kernel.cpp **** 
 507              		.loc 1 95 17
 508              	.LVL26:
  97:src/kernel.cpp ****                 break;
 509              		.loc 1 97 17
  97:src/kernel.cpp ****                 break;
 510              		.loc 1 97 66 is_stmt 0
 511 0288 03358705 		ld	a0,88(a4)
 512 028c 97000000 		call	_ZN3SCB6signalEv@plt
 512      E7800000 
 513              	.LVL27:
  97:src/kernel.cpp ****                 break;
 514              		.loc 1 97 31
 515 0294 97070000 		la	a5,_ZN3PCB7runningE
 515      83B70700 
 516 029c 83B70700 		ld	a5,0(a5)
GAS LISTING /tmp/ccmrqyiz.s 			page 18


 517 02a0 83B78701 		ld	a5,24(a5)
  97:src/kernel.cpp ****                 break;
 518              		.loc 1 97 45
 519 02a4 23B8A704 		sd	a0,80(a5)
  98:src/kernel.cpp ****             }
 520              		.loc 1 98 17 is_stmt 1
 521 02a8 6FF0DFE7 		j	.L18
 522              	.L7:
 523              	.LBE61:
 100:src/kernel.cpp ****                 printError();
 524              		.loc 1 100 13
 101:src/kernel.cpp ****                 break;
 525              		.loc 1 101 17
 101:src/kernel.cpp ****                 break;
 526              		.loc 1 101 27 is_stmt 0
 527 02ac 97000000 		call	_Z10printErrorv@plt
 527      E7800000 
 528              	.LVL28:
 102:src/kernel.cpp ****         }
 529              		.loc 1 102 17 is_stmt 1
 530 02b4 6FF01FE7 		j	.L18
 531              	.L24:
 532              	.LBE62:
 533              	.LBE67:
 534              	.LBE68:
 109:src/kernel.cpp ****         if(PCB::timeSliceCounter >= PCB::running->timeSlice) {
 535              		.loc 1 109 9
 109:src/kernel.cpp ****         if(PCB::timeSliceCounter >= PCB::running->timeSlice) {
 536              		.loc 1 109 30 is_stmt 0
 537 02b8 17070000 		la	a4,_ZN3PCB16timeSliceCounterE
 537      03370700 
 538 02c0 83370700 		ld	a5,0(a4)
 539 02c4 93871700 		addi	a5,a5,1
 540 02c8 2330F700 		sd	a5,0(a4)
 110:src/kernel.cpp ****             PCB::timeSliceCounter = 0;
 541              		.loc 1 110 9 is_stmt 1
 110:src/kernel.cpp ****             PCB::timeSliceCounter = 0;
 542              		.loc 1 110 51 is_stmt 0
 543 02cc 17070000 		la	a4,_ZN3PCB7runningE
 543      03370700 
 544 02d4 03370700 		ld	a4,0(a4)
 545 02d8 03378703 		ld	a4,56(a4)
 110:src/kernel.cpp ****             PCB::timeSliceCounter = 0;
 546              		.loc 1 110 9
 547 02dc 63F8E700 		bgeu	a5,a4,.L26
 548              	.L20:
 116:src/kernel.cpp ****     }
 549              		.loc 1 116 9 is_stmt 1
 550              	.LVL29:
 551              	.LBB69:
 552              	.LBB70:
  95:src/../h/kernel.h ****     }
 553              		.loc 2 95 9
  95:src/../h/kernel.h ****     }
 554              		.loc 2 95 68 is_stmt 0
 555 02e0 93072000 		li	a5,2
 556              	#APP
GAS LISTING /tmp/ccmrqyiz.s 			page 19


 557              	# 95 "src/../h/kernel.h" 1
  96:src/../h/kernel.h **** 
 558              		csrc sip, a5
 559              	# 0 "" 2
 560              		.loc 2 96 5
 561              	#NO_APP
 562 02e8 6FF0DFE4 		j	.L3
 563              	.LVL30:
 564              	.L26:
 565              	.LBE70:
 566              	.LBE69:
 111:src/kernel.cpp ****             PCB::dispatch(); // vrsimo promenu konteksta ako je istekao time slice procesa
 567              		.loc 1 111 13 is_stmt 1
 111:src/kernel.cpp ****             PCB::dispatch(); // vrsimo promenu konteksta ako je istekao time slice procesa
 568              		.loc 1 111 35 is_stmt 0
 569 02ec 97070000 		la	a5,_ZN3PCB16timeSliceCounterE
 569      83B70700 
 570 02f4 23B00700 		sd	zero,0(a5)
 112:src/kernel.cpp ****             Kernel::w_sepc(sepc);
 571              		.loc 1 112 13 is_stmt 1
 112:src/kernel.cpp ****             Kernel::w_sepc(sepc);
 572              		.loc 1 112 26 is_stmt 0
 573 02f8 97000000 		call	_ZN3PCB8dispatchEv@plt
 573      E7800000 
 574              	.LVL31:
 113:src/kernel.cpp ****             Kernel::w_sstatus(sstatus);
 575              		.loc 1 113 13 is_stmt 1
 113:src/kernel.cpp ****             Kernel::w_sstatus(sstatus);
 576              		.loc 1 113 27 is_stmt 0
 577 0300 833704FD 		ld	a5,-48(s0)
 578              	.LVL32:
 579              	.LBB71:
 580              	.LBB72:
  55:src/../h/kernel.h ****     }
 581              		.loc 2 55 9 is_stmt 1
  55:src/../h/kernel.h ****     }
 582              		.loc 2 55 69 is_stmt 0
 583              	#APP
 584              	# 55 "src/../h/kernel.h" 1
 585              		csrw sepc, a5
 586              	# 0 "" 2
 587              	.LVL33:
 588              	#NO_APP
 589              	.LBE72:
 590              	.LBE71:
 114:src/kernel.cpp ****         }
 591              		.loc 1 114 13 is_stmt 1
 114:src/kernel.cpp ****         }
 592              		.loc 1 114 30 is_stmt 0
 593 0308 833784FC 		ld	a5,-56(s0)
 594              	.LVL34:
 595              	.LBB73:
 596              	.LBB74:
 136:src/../h/kernel.h ****     }
 597              		.loc 2 136 9 is_stmt 1
 136:src/../h/kernel.h ****     }
 598              		.loc 2 136 81 is_stmt 0
GAS LISTING /tmp/ccmrqyiz.s 			page 20


 599              	#APP
 600              	# 136 "src/../h/kernel.h" 1
 601              		csrw sstatus, a5
 602              	# 0 "" 2
 603              		.loc 2 137 5
 604              	#NO_APP
 605 0310 6FF01FFD 		j	.L20
 606              	.LVL35:
 607              	.L25:
 608              	.LBE74:
 609              	.LBE73:
 119:src/kernel.cpp ****     }
 610              		.loc 1 119 9 is_stmt 1
 119:src/kernel.cpp ****     }
 611              		.loc 1 119 24 is_stmt 0
 612 0314 97000000 		call	console_handler@plt
 612      E7800000 
 613              	.LVL36:
 614 031c 6FF09FE1 		j	.L3
 615              	.LBE75:
 616              		.cfi_endproc
 617              	.LFE34:
 619              	.Letext0:
 620              		.file 5 "src/../h/hw.h"
 621              		.file 6 "src/../h/PCB.h"
 622              		.file 7 "src/../h/Scheduler.h"
 623              		.file 8 "src/../h/print.h"
 624              		.file 9 "src/../h/console.h"
GAS LISTING /tmp/ccmrqyiz.s 			page 21

