GAS LISTING /tmp/ccclhgXc.s 			page 1


   1              		.file	"main.cpp"
   2              		.option pic
   3              		.option norelax
   4              		.text
   5              	.Ltext0:
   6              		.align	2
   7              		.globl	_Z12checkNullptrPv
   9              	_Z12checkNullptrPv:
  10              	.LFB9:
  11              		.file 1 "src/main.cpp"
   1:src/main.cpp  **** #include "../h/hw.h"
   2:src/main.cpp  **** #include "../h/console.h"
   3:src/main.cpp  **** #include "../h/MemoryAllocator.h"
   4:src/main.cpp  **** #include "../h/syscall_c.h"
   5:src/main.cpp  **** #include "../h/print.h"
   6:src/main.cpp  **** 
   7:src/main.cpp  **** void checkNullptr(void* p) {
  12              		.loc 1 7 28
  13              		.cfi_startproc
  14              	.LVL0:
   8:src/main.cpp  ****     static int x = 0;
  15              		.loc 1 8 5
   9:src/main.cpp  ****     if(p == nullptr) {
  16              		.loc 1 9 5
  17 0000 630E0500 		beqz	a0,.L7
  10:src/main.cpp  ****         __putc('?');
  11:src/main.cpp  ****         __putc('0' + x);
  12:src/main.cpp  ****     }
  13:src/main.cpp  ****     x++;
  18              		.loc 1 13 5
  19              		.loc 1 13 6 is_stmt 0
  20 0004 17070000 		lla	a4,.LANCHOR0
  20      13070700 
  21 000c 83270700 		lw	a5,0(a4)
  22 0010 9B871700 		addiw	a5,a5,1
  23 0014 2320F700 		sw	a5,0(a4)
  24 0018 67800000 		ret
  25              	.L7:
   7:src/main.cpp  ****     static int x = 0;
  26              		.loc 1 7 28
  27 001c 130101FF 		addi	sp,sp,-16
  28              		.cfi_def_cfa_offset 16
  29 0020 23341100 		sd	ra,8(sp)
  30 0024 23308100 		sd	s0,0(sp)
  31              		.cfi_offset 1, -8
  32              		.cfi_offset 8, -16
  33 0028 13040101 		addi	s0,sp,16
  34              		.cfi_def_cfa 8, 0
  10:src/main.cpp  ****         __putc('?');
  35              		.loc 1 10 9 is_stmt 1
  10:src/main.cpp  ****         __putc('?');
  36              		.loc 1 10 15 is_stmt 0
  37 002c 1305F003 		li	a0,63
  38              	.LVL1:
  39 0030 97000000 		call	__putc@plt
  39      E7800000 
  40              	.LVL2:
GAS LISTING /tmp/ccclhgXc.s 			page 2


  11:src/main.cpp  ****     }
  41              		.loc 1 11 9 is_stmt 1
  11:src/main.cpp  ****     }
  42              		.loc 1 11 15 is_stmt 0
  43 0038 17050000 		lw	a0,.LANCHOR0
  43      03250500 
  44 0040 1B050503 		addiw	a0,a0,48
  45 0044 1375F50F 		andi	a0,a0,0xff
  46 0048 97000000 		call	__putc@plt
  46      E7800000 
  47              	.LVL3:
  48              		.loc 1 13 5 is_stmt 1
  49              		.loc 1 13 6 is_stmt 0
  50 0050 17070000 		lla	a4,.LANCHOR0
  50      13070700 
  51 0058 83270700 		lw	a5,0(a4)
  52 005c 9B871700 		addiw	a5,a5,1
  53 0060 2320F700 		sw	a5,0(a4)
  14:src/main.cpp  **** }
  54              		.loc 1 14 1
  55 0064 83308100 		ld	ra,8(sp)
  56              		.cfi_restore 1
  57 0068 03340100 		ld	s0,0(sp)
  58              		.cfi_restore 8
  59              		.cfi_def_cfa 2, 16
  60 006c 13010101 		addi	sp,sp,16
  61              		.cfi_def_cfa_offset 0
  62 0070 67800000 		jr	ra
  63              		.cfi_endproc
  64              	.LFE9:
  66              		.align	2
  67              		.globl	_Z11checkStatusi
  69              	_Z11checkStatusi:
  70              	.LFB10:
  15:src/main.cpp  **** 
  16:src/main.cpp  **** void checkStatus(int status) {
  71              		.loc 1 16 30 is_stmt 1
  72              		.cfi_startproc
  73              	.LVL4:
  17:src/main.cpp  ****     static int y = 0;
  74              		.loc 1 17 5
  18:src/main.cpp  ****     if(status) {
  75              		.loc 1 18 5
  76 0074 631E0500 		bnez	a0,.L14
  19:src/main.cpp  ****         __putc('0' + y);
  20:src/main.cpp  ****         __putc('?');
  21:src/main.cpp  ****     }
  22:src/main.cpp  ****     y++;
  77              		.loc 1 22 5
  78              		.loc 1 22 6 is_stmt 0
  79 0078 17070000 		lla	a4,.LANCHOR0
  79      13070700 
  80 0080 83274700 		lw	a5,4(a4)
  81 0084 9B871700 		addiw	a5,a5,1
  82 0088 2322F700 		sw	a5,4(a4)
  83 008c 67800000 		ret
  84              	.L14:
GAS LISTING /tmp/ccclhgXc.s 			page 3


  16:src/main.cpp  ****     static int y = 0;
  85              		.loc 1 16 30
  86 0090 130101FF 		addi	sp,sp,-16
  87              		.cfi_def_cfa_offset 16
  88 0094 23341100 		sd	ra,8(sp)
  89 0098 23308100 		sd	s0,0(sp)
  90              		.cfi_offset 1, -8
  91              		.cfi_offset 8, -16
  92 009c 13040101 		addi	s0,sp,16
  93              		.cfi_def_cfa 8, 0
  19:src/main.cpp  ****         __putc('0' + y);
  94              		.loc 1 19 9 is_stmt 1
  19:src/main.cpp  ****         __putc('0' + y);
  95              		.loc 1 19 15 is_stmt 0
  96 00a0 17050000 		lw	a0,.LANCHOR0+4
  96      03250500 
  97              	.LVL5:
  98 00a8 1B050503 		addiw	a0,a0,48
  99 00ac 1375F50F 		andi	a0,a0,0xff
 100 00b0 97000000 		call	__putc@plt
 100      E7800000 
 101              	.LVL6:
  20:src/main.cpp  ****     }
 102              		.loc 1 20 9 is_stmt 1
  20:src/main.cpp  ****     }
 103              		.loc 1 20 15 is_stmt 0
 104 00b8 1305F003 		li	a0,63
 105 00bc 97000000 		call	__putc@plt
 105      E7800000 
 106              	.LVL7:
 107              		.loc 1 22 5 is_stmt 1
 108              		.loc 1 22 6 is_stmt 0
 109 00c4 17070000 		lla	a4,.LANCHOR0
 109      13070700 
 110 00cc 83274700 		lw	a5,4(a4)
 111 00d0 9B871700 		addiw	a5,a5,1
 112 00d4 2322F700 		sw	a5,4(a4)
  23:src/main.cpp  **** }
 113              		.loc 1 23 1
 114 00d8 83308100 		ld	ra,8(sp)
 115              		.cfi_restore 1
 116 00dc 03340100 		ld	s0,0(sp)
 117              		.cfi_restore 8
 118              		.cfi_def_cfa 2, 16
 119 00e0 13010101 		addi	sp,sp,16
 120              		.cfi_def_cfa_offset 0
 121 00e4 67800000 		jr	ra
 122              		.cfi_endproc
 123              	.LFE10:
 125              		.align	2
 126              		.globl	main
 128              	main:
 129              	.LFB11:
  24:src/main.cpp  **** 
  25:src/main.cpp  **** int main() {
 130              		.loc 1 25 12 is_stmt 1
 131              		.cfi_startproc
GAS LISTING /tmp/ccclhgXc.s 			page 4


 132 00e8 130101FD 		addi	sp,sp,-48
 133              		.cfi_def_cfa_offset 48
 134 00ec 23341102 		sd	ra,40(sp)
 135 00f0 23308102 		sd	s0,32(sp)
 136 00f4 233C9100 		sd	s1,24(sp)
 137 00f8 23382101 		sd	s2,16(sp)
 138 00fc 23343101 		sd	s3,8(sp)
 139              		.cfi_offset 1, -8
 140              		.cfi_offset 8, -16
 141              		.cfi_offset 9, -24
 142              		.cfi_offset 18, -32
 143              		.cfi_offset 19, -40
 144 0100 13040103 		addi	s0,sp,48
 145              		.cfi_def_cfa 8, 0
  26:src/main.cpp  ****     int velicinaZaglavlja = sizeof(size_t); // meni je ovoliko
 146              		.loc 1 26 5
 147              	.LVL8:
  27:src/main.cpp  **** 
  28:src/main.cpp  ****     int *p1 = (int*)MemoryAllocator::mem_alloc(15*sizeof(int)); // trebalo bi da predje jedan blok 
 148              		.loc 1 28 5
 149              		.loc 1 28 47 is_stmt 0
 150 0104 1305C003 		li	a0,60
 151 0108 97000000 		call	_ZN15MemoryAllocator9mem_allocEm@plt
 151      E7800000 
 152              	.LVL9:
 153 0110 93090500 		mv	s3,a0
 154              	.LVL10:
  29:src/main.cpp  ****     checkNullptr(p1);
 155              		.loc 1 29 5 is_stmt 1
 156              		.loc 1 29 17 is_stmt 0
 157 0114 97000000 		call	_Z12checkNullptrPv
 157      E7800000 
 158              	.LVL11:
  30:src/main.cpp  ****     int *p2 = (int*)MemoryAllocator::mem_alloc(30*sizeof(int));
 159              		.loc 1 30 5 is_stmt 1
 160              		.loc 1 30 47 is_stmt 0
 161 011c 13058007 		li	a0,120
 162 0120 97000000 		call	_ZN15MemoryAllocator9mem_allocEm@plt
 162      E7800000 
 163              	.LVL12:
 164 0128 93040500 		mv	s1,a0
 165              	.LVL13:
  31:src/main.cpp  ****     checkNullptr(p2);
 166              		.loc 1 31 5 is_stmt 1
 167              		.loc 1 31 17 is_stmt 0
 168 012c 97000000 		call	_Z12checkNullptrPv
 168      E7800000 
 169              	.LVL14:
  32:src/main.cpp  **** 
  33:src/main.cpp  ****     int *p3 = (int*)MemoryAllocator::mem_alloc(30*sizeof(int));
 170              		.loc 1 33 5 is_stmt 1
 171              		.loc 1 33 47 is_stmt 0
 172 0134 13058007 		li	a0,120
 173 0138 97000000 		call	_ZN15MemoryAllocator9mem_allocEm@plt
 173      E7800000 
 174              	.LVL15:
 175 0140 13090500 		mv	s2,a0
GAS LISTING /tmp/ccclhgXc.s 			page 5


 176              	.LVL16:
  34:src/main.cpp  ****     checkNullptr(p3);
 177              		.loc 1 34 5 is_stmt 1
 178              		.loc 1 34 17 is_stmt 0
 179 0144 97000000 		call	_Z12checkNullptrPv
 179      E7800000 
 180              	.LVL17:
  35:src/main.cpp  **** 
  36:src/main.cpp  ****     checkStatus(MemoryAllocator::mem_free(p1));
 181              		.loc 1 36 5 is_stmt 1
 182              		.loc 1 36 16 is_stmt 0
 183 014c 13850900 		mv	a0,s3
 184 0150 97000000 		call	_ZN15MemoryAllocator8mem_freeEPv@plt
 184      E7800000 
 185              	.LVL18:
 186 0158 97000000 		call	_Z11checkStatusi
 186      E7800000 
 187              	.LVL19:
  37:src/main.cpp  ****     checkStatus(MemoryAllocator::mem_free(p3));
 188              		.loc 1 37 5 is_stmt 1
 189              		.loc 1 37 16 is_stmt 0
 190 0160 13050900 		mv	a0,s2
 191 0164 97000000 		call	_ZN15MemoryAllocator8mem_freeEPv@plt
 191      E7800000 
 192              	.LVL20:
 193 016c 97000000 		call	_Z11checkStatusi
 193      E7800000 
 194              	.LVL21:
  38:src/main.cpp  ****     checkStatus(MemoryAllocator::mem_free(p2)); // p2 treba da se spoji sa p1 i p3
 195              		.loc 1 38 5 is_stmt 1
 196              		.loc 1 38 16 is_stmt 0
 197 0174 13850400 		mv	a0,s1
 198 0178 97000000 		call	_ZN15MemoryAllocator8mem_freeEPv@plt
 198      E7800000 
 199              	.LVL22:
 200 0180 97000000 		call	_Z11checkStatusi
 200      E7800000 
 201              	.LVL23:
  39:src/main.cpp  **** 
  40:src/main.cpp  ****     const size_t maxMemorija = (((size_t)HEAP_END_ADDR - (size_t)HEAP_START_ADDR - velicinaZaglavlj
 202              		.loc 1 40 5 is_stmt 1
 203              		.loc 1 40 56 is_stmt 0
 204 0188 97070000 		la	a5,HEAP_END_ADDR
 204      83B70700 
 205 0190 03B50700 		ld	a0,0(a5)
 206 0194 97070000 		la	a5,HEAP_START_ADDR
 206      83B70700 
 207 019c 83B70700 		ld	a5,0(a5)
 208 01a0 3305F540 		sub	a0,a0,a5
 209              		.loc 1 40 82
 210 01a4 130585FF 		addi	a0,a0,-8
 211              		.loc 1 40 102
 212 01a8 13556500 		srli	a0,a0,6
 213              		.loc 1 40 118
 214 01ac 1305F5FF 		addi	a0,a0,-1
 215              	.LVL24:
  41:src/main.cpp  ****     int *celaMemorija = (int*)MemoryAllocator::mem_alloc(maxMemorija);
GAS LISTING /tmp/ccclhgXc.s 			page 6


 216              		.loc 1 41 5 is_stmt 1
 217              		.loc 1 41 57 is_stmt 0
 218 01b0 13156500 		slli	a0,a0,6
 219              	.LVL25:
 220 01b4 97000000 		call	_ZN15MemoryAllocator9mem_allocEm@plt
 220      E7800000 
 221              	.LVL26:
 222 01bc 93040500 		mv	s1,a0
 223              	.LVL27:
  42:src/main.cpp  ****     checkNullptr(celaMemorija);
 224              		.loc 1 42 5 is_stmt 1
 225              		.loc 1 42 17 is_stmt 0
 226 01c0 97000000 		call	_Z12checkNullptrPv
 226      E7800000 
 227              	.LVL28:
  43:src/main.cpp  **** 
  44:src/main.cpp  ****     checkStatus(MemoryAllocator::mem_free(celaMemorija));
 228              		.loc 1 44 5 is_stmt 1
 229              		.loc 1 44 16 is_stmt 0
 230 01c8 13850400 		mv	a0,s1
 231 01cc 97000000 		call	_ZN15MemoryAllocator8mem_freeEPv@plt
 231      E7800000 
 232              	.LVL29:
 233 01d4 97000000 		call	_Z11checkStatusi
 233      E7800000 
 234              	.LVL30:
  45:src/main.cpp  **** 
  46:src/main.cpp  **** 
  47:src/main.cpp  ****     return 0;
 235              		.loc 1 47 5 is_stmt 1
  48:src/main.cpp  **** }
 236              		.loc 1 48 1 is_stmt 0
 237 01dc 13050000 		li	a0,0
 238 01e0 83308102 		ld	ra,40(sp)
 239              		.cfi_restore 1
 240 01e4 03340102 		ld	s0,32(sp)
 241              		.cfi_restore 8
 242              		.cfi_def_cfa 2, 48
 243 01e8 83348101 		ld	s1,24(sp)
 244              		.cfi_restore 9
 245              	.LVL31:
 246 01ec 03390101 		ld	s2,16(sp)
 247              		.cfi_restore 18
 248              	.LVL32:
 249 01f0 83398100 		ld	s3,8(sp)
 250              		.cfi_restore 19
 251              	.LVL33:
 252 01f4 13010103 		addi	sp,sp,48
 253              		.cfi_def_cfa_offset 0
 254 01f8 67800000 		jr	ra
 255              		.cfi_endproc
 256              	.LFE11:
 258              		.bss
 259              		.align	2
 260              		.set	.LANCHOR0,. + 0
 263              	_ZZ12checkNullptrPvE1x:
 264 0000 00000000 		.zero	4
GAS LISTING /tmp/ccclhgXc.s 			page 7


 267              	_ZZ11checkStatusiE1y:
 268 0004 00000000 		.zero	4
 269              		.text
 270              	.Letext0:
 271              		.file 2 "src/../h/hw.h"
 272              		.file 3 "src/../h/MemoryAllocator.h"
 273              		.file 4 "src/../h/console.h"
GAS LISTING /tmp/ccclhgXc.s 			page 8


DEFINED SYMBOLS
                            *ABS*:0000000000000000 main.cpp
     /tmp/ccclhgXc.s:9      .text:0000000000000000 _Z12checkNullptrPv
     /tmp/ccclhgXc.s:13     .text:0000000000000000 .L0 
     /tmp/ccclhgXc.s:15     .text:0000000000000000 .L0 
     /tmp/ccclhgXc.s:16     .text:0000000000000000 .L0 
     /tmp/ccclhgXc.s:17     .text:0000000000000000 .L0 
     /tmp/ccclhgXc.s:19     .text:0000000000000004 .L0 
     /tmp/ccclhgXc.s:20     .text:0000000000000004 .L0 
     /tmp/ccclhgXc.s:27     .text:000000000000001c .L0 
     /tmp/ccclhgXc.s:28     .text:0000000000000020 .L0 
     /tmp/ccclhgXc.s:31     .text:0000000000000028 .L0 
     /tmp/ccclhgXc.s:32     .text:0000000000000028 .L0 
     /tmp/ccclhgXc.s:34     .text:000000000000002c .L0 
     /tmp/ccclhgXc.s:36     .text:000000000000002c .L0 
     /tmp/ccclhgXc.s:37     .text:000000000000002c .L0 
     /tmp/ccclhgXc.s:42     .text:0000000000000038 .L0 
     /tmp/ccclhgXc.s:43     .text:0000000000000038 .L0 
     /tmp/ccclhgXc.s:49     .text:0000000000000050 .L0 
     /tmp/ccclhgXc.s:50     .text:0000000000000050 .L0 
     /tmp/ccclhgXc.s:55     .text:0000000000000064 .L0 
     /tmp/ccclhgXc.s:56     .text:0000000000000068 .L0 
     /tmp/ccclhgXc.s:58     .text:000000000000006c .L0 
     /tmp/ccclhgXc.s:59     .text:000000000000006c .L0 
     /tmp/ccclhgXc.s:61     .text:0000000000000070 .L0 
     /tmp/ccclhgXc.s:63     .text:0000000000000074 .L0 
     /tmp/ccclhgXc.s:69     .text:0000000000000074 _Z11checkStatusi
     /tmp/ccclhgXc.s:72     .text:0000000000000074 .L0 
     /tmp/ccclhgXc.s:74     .text:0000000000000074 .L0 
     /tmp/ccclhgXc.s:75     .text:0000000000000074 .L0 
     /tmp/ccclhgXc.s:76     .text:0000000000000074 .L0 
     /tmp/ccclhgXc.s:78     .text:0000000000000078 .L0 
     /tmp/ccclhgXc.s:79     .text:0000000000000078 .L0 
     /tmp/ccclhgXc.s:86     .text:0000000000000090 .L0 
     /tmp/ccclhgXc.s:87     .text:0000000000000094 .L0 
     /tmp/ccclhgXc.s:90     .text:000000000000009c .L0 
     /tmp/ccclhgXc.s:91     .text:000000000000009c .L0 
     /tmp/ccclhgXc.s:93     .text:00000000000000a0 .L0 
     /tmp/ccclhgXc.s:95     .text:00000000000000a0 .L0 
     /tmp/ccclhgXc.s:96     .text:00000000000000a0 .L0 
     /tmp/ccclhgXc.s:103    .text:00000000000000b8 .L0 
     /tmp/ccclhgXc.s:104    .text:00000000000000b8 .L0 
     /tmp/ccclhgXc.s:108    .text:00000000000000c4 .L0 
     /tmp/ccclhgXc.s:109    .text:00000000000000c4 .L0 
     /tmp/ccclhgXc.s:114    .text:00000000000000d8 .L0 
     /tmp/ccclhgXc.s:115    .text:00000000000000dc .L0 
     /tmp/ccclhgXc.s:117    .text:00000000000000e0 .L0 
     /tmp/ccclhgXc.s:118    .text:00000000000000e0 .L0 
     /tmp/ccclhgXc.s:120    .text:00000000000000e4 .L0 
     /tmp/ccclhgXc.s:122    .text:00000000000000e8 .L0 
     /tmp/ccclhgXc.s:128    .text:00000000000000e8 main
     /tmp/ccclhgXc.s:131    .text:00000000000000e8 .L0 
     /tmp/ccclhgXc.s:132    .text:00000000000000e8 .L0 
     /tmp/ccclhgXc.s:133    .text:00000000000000ec .L0 
     /tmp/ccclhgXc.s:139    .text:0000000000000100 .L0 
     /tmp/ccclhgXc.s:140    .text:0000000000000100 .L0 
     /tmp/ccclhgXc.s:141    .text:0000000000000100 .L0 
GAS LISTING /tmp/ccclhgXc.s 			page 9


     /tmp/ccclhgXc.s:142    .text:0000000000000100 .L0 
     /tmp/ccclhgXc.s:143    .text:0000000000000100 .L0 
     /tmp/ccclhgXc.s:145    .text:0000000000000104 .L0 
     /tmp/ccclhgXc.s:148    .text:0000000000000104 .L0 
     /tmp/ccclhgXc.s:149    .text:0000000000000104 .L0 
     /tmp/ccclhgXc.s:150    .text:0000000000000104 .L0 
     /tmp/ccclhgXc.s:156    .text:0000000000000114 .L0 
     /tmp/ccclhgXc.s:157    .text:0000000000000114 .L0 
     /tmp/ccclhgXc.s:160    .text:000000000000011c .L0 
     /tmp/ccclhgXc.s:161    .text:000000000000011c .L0 
     /tmp/ccclhgXc.s:167    .text:000000000000012c .L0 
     /tmp/ccclhgXc.s:168    .text:000000000000012c .L0 
     /tmp/ccclhgXc.s:171    .text:0000000000000134 .L0 
     /tmp/ccclhgXc.s:172    .text:0000000000000134 .L0 
     /tmp/ccclhgXc.s:178    .text:0000000000000144 .L0 
     /tmp/ccclhgXc.s:179    .text:0000000000000144 .L0 
     /tmp/ccclhgXc.s:182    .text:000000000000014c .L0 
     /tmp/ccclhgXc.s:183    .text:000000000000014c .L0 
     /tmp/ccclhgXc.s:189    .text:0000000000000160 .L0 
     /tmp/ccclhgXc.s:190    .text:0000000000000160 .L0 
     /tmp/ccclhgXc.s:196    .text:0000000000000174 .L0 
     /tmp/ccclhgXc.s:197    .text:0000000000000174 .L0 
     /tmp/ccclhgXc.s:203    .text:0000000000000188 .L0 
     /tmp/ccclhgXc.s:204    .text:0000000000000188 .L0 
     /tmp/ccclhgXc.s:210    .text:00000000000001a4 .L0 
     /tmp/ccclhgXc.s:212    .text:00000000000001a8 .L0 
     /tmp/ccclhgXc.s:214    .text:00000000000001ac .L0 
     /tmp/ccclhgXc.s:217    .text:00000000000001b0 .L0 
     /tmp/ccclhgXc.s:218    .text:00000000000001b0 .L0 
     /tmp/ccclhgXc.s:225    .text:00000000000001c0 .L0 
     /tmp/ccclhgXc.s:226    .text:00000000000001c0 .L0 
     /tmp/ccclhgXc.s:229    .text:00000000000001c8 .L0 
     /tmp/ccclhgXc.s:230    .text:00000000000001c8 .L0 
     /tmp/ccclhgXc.s:236    .text:00000000000001dc .L0 
     /tmp/ccclhgXc.s:237    .text:00000000000001dc .L0 
     /tmp/ccclhgXc.s:239    .text:00000000000001e4 .L0 
     /tmp/ccclhgXc.s:241    .text:00000000000001e8 .L0 
     /tmp/ccclhgXc.s:242    .text:00000000000001e8 .L0 
     /tmp/ccclhgXc.s:244    .text:00000000000001ec .L0 
     /tmp/ccclhgXc.s:247    .text:00000000000001f0 .L0 
     /tmp/ccclhgXc.s:250    .text:00000000000001f4 .L0 
     /tmp/ccclhgXc.s:253    .text:00000000000001f8 .L0 
     /tmp/ccclhgXc.s:255    .text:00000000000001fc .L0 
     /tmp/ccclhgXc.s:260    .bss:0000000000000000 .LANCHOR0
     /tmp/ccclhgXc.s:263    .bss:0000000000000000 _ZZ12checkNullptrPvE1x
     /tmp/ccclhgXc.s:267    .bss:0000000000000004 _ZZ11checkStatusiE1y
     /tmp/ccclhgXc.s:274    .text:00000000000001fc .L0 
     /tmp/ccclhgXc.s:20     .text:0000000000000004 .L0 
     /tmp/ccclhgXc.s:43     .text:0000000000000038 .L0 
     /tmp/ccclhgXc.s:50     .text:0000000000000050 .L0 
     /tmp/ccclhgXc.s:79     .text:0000000000000078 .L0 
     /tmp/ccclhgXc.s:96     .text:00000000000000a0 .L0 
     /tmp/ccclhgXc.s:109    .text:00000000000000c4 .L0 
     /tmp/ccclhgXc.s:204    .text:0000000000000188 .L0 
     /tmp/ccclhgXc.s:206    .text:0000000000000194 .L0 
     /tmp/ccclhgXc.s:25     .text:000000000000001c .L7
     /tmp/ccclhgXc.s:84     .text:0000000000000090 .L14
GAS LISTING /tmp/ccclhgXc.s 			page 10


     /tmp/ccclhgXc.s:839    .debug_abbrev:0000000000000000 .Ldebug_abbrev0
     /tmp/ccclhgXc.s:1521   .debug_str:0000000000000042 .LASF44
     /tmp/ccclhgXc.s:1563   .debug_str:0000000000000243 .LASF45
     /tmp/ccclhgXc.s:1607   .debug_str:00000000000003f9 .LASF46
     /tmp/ccclhgXc.s:5      .text:0000000000000000 .Ltext0
     /tmp/ccclhgXc.s:270    .text:00000000000001fc .Letext0
     /tmp/ccclhgXc.s:1507   .debug_line:0000000000000000 .Ldebug_line0
     /tmp/ccclhgXc.s:1565   .debug_str:0000000000000250 .LASF0
     /tmp/ccclhgXc.s:1547   .debug_str:00000000000001c8 .LASF1
     /tmp/ccclhgXc.s:1537   .debug_str:0000000000000183 .LASF2
     /tmp/ccclhgXc.s:1513   .debug_str:0000000000000023 .LASF47
     /tmp/ccclhgXc.s:1543   .debug_str:00000000000001aa .LASF3
     /tmp/ccclhgXc.s:1509   .debug_str:0000000000000000 .LASF4
     /tmp/ccclhgXc.s:1531   .debug_str:0000000000000140 .LASF5
     /tmp/ccclhgXc.s:1573   .debug_str:0000000000000285 .LASF6
     /tmp/ccclhgXc.s:1517   .debug_str:000000000000002f .LASF7
     /tmp/ccclhgXc.s:1613   .debug_str:0000000000000426 .LASF8
     /tmp/ccclhgXc.s:1533   .debug_str:0000000000000153 .LASF9
     /tmp/ccclhgXc.s:1605   .debug_str:00000000000003e9 .LASF10
     /tmp/ccclhgXc.s:1581   .debug_str:00000000000002dc .LASF11
     /tmp/ccclhgXc.s:1549   .debug_str:00000000000001db .LASF12
     /tmp/ccclhgXc.s:1523   .debug_str:00000000000000e4 .LASF13
     /tmp/ccclhgXc.s:1577   .debug_str:00000000000002bd .LASF14
     /tmp/ccclhgXc.s:1511   .debug_str:0000000000000013 .LASF26
     /tmp/ccclhgXc.s:1545   .debug_str:00000000000001bc .LASF48
     /tmp/ccclhgXc.s:1579   .debug_str:00000000000002d3 .LASF15
     /tmp/ccclhgXc.s:1611   .debug_str:0000000000000421 .LASF16
     /tmp/ccclhgXc.s:1515   .debug_str:000000000000002a .LASF17
     /tmp/ccclhgXc.s:1553   .debug_str:00000000000001f4 .LASF30
     /tmp/ccclhgXc.s:1587   .debug_str:000000000000031e .LASF32
     /tmp/ccclhgXc.s:1603   .debug_str:00000000000003bb .LASF49
     /tmp/ccclhgXc.s:1609   .debug_str:0000000000000417 .LASF18
     /tmp/ccclhgXc.s:1599   .debug_str:000000000000038e .LASF20
     /tmp/ccclhgXc.s:1583   .debug_str:00000000000002ec .LASF19
     /tmp/ccclhgXc.s:1535   .debug_str:0000000000000162 .LASF21
     /tmp/ccclhgXc.s:1595   .debug_str:000000000000036e .LASF22
     /tmp/ccclhgXc.s:1555   .debug_str:00000000000001fb .LASF23
     /tmp/ccclhgXc.s:1539   .debug_str:0000000000000191 .LASF24
     /tmp/ccclhgXc.s:1527   .debug_str:000000000000010a .LASF25
     /tmp/ccclhgXc.s:1559   .debug_str:0000000000000225 .LASF28
     /tmp/ccclhgXc.s:1591   .debug_str:0000000000000353 .LASF50
     /tmp/ccclhgXc.s:1561   .debug_str:000000000000023e .LASF51
     /tmp/ccclhgXc.s:1525   .debug_str:00000000000000fa .LASF27
     /tmp/ccclhgXc.s:1585   .debug_str:00000000000002f5 .LASF29
     /tmp/ccclhgXc.s:1567   .debug_str:000000000000025d .LASF31
     /tmp/ccclhgXc.s:1575   .debug_str:0000000000000295 .LASF33
     /tmp/ccclhgXc.s:1519   .debug_str:000000000000003d .LASF34
     /tmp/ccclhgXc.s:1557   .debug_str:0000000000000220 .LASF38
     /tmp/ccclhgXc.s:129    .text:00000000000000e8 .LFB11
     /tmp/ccclhgXc.s:256    .text:00000000000001fc .LFE11
     /tmp/ccclhgXc.s:1569   .debug_str:000000000000026c .LASF35
     /tmp/ccclhgXc.s:1415   .debug_loc:0000000000000000 .LLST2
     /tmp/ccclhgXc.s:1426   .debug_loc:0000000000000036 .LLST3
     /tmp/ccclhgXc.s:1433   .debug_loc:0000000000000059 .LLST4
     /tmp/ccclhgXc.s:1601   .debug_str:00000000000003af .LASF36
     /tmp/ccclhgXc.s:1444   .debug_loc:000000000000008f .LLST5
     /tmp/ccclhgXc.s:1551   .debug_str:00000000000001e7 .LASF37
GAS LISTING /tmp/ccclhgXc.s 			page 11


     /tmp/ccclhgXc.s:1459   .debug_loc:00000000000000c9 .LLST6
     /tmp/ccclhgXc.s:152    .text:0000000000000110 .LVL9
     /tmp/ccclhgXc.s:158    .text:000000000000011c .LVL11
     /tmp/ccclhgXc.s:163    .text:0000000000000128 .LVL12
     /tmp/ccclhgXc.s:169    .text:0000000000000134 .LVL14
     /tmp/ccclhgXc.s:174    .text:0000000000000140 .LVL15
     /tmp/ccclhgXc.s:180    .text:000000000000014c .LVL17
     /tmp/ccclhgXc.s:185    .text:0000000000000158 .LVL18
     /tmp/ccclhgXc.s:187    .text:0000000000000160 .LVL19
     /tmp/ccclhgXc.s:192    .text:000000000000016c .LVL20
     /tmp/ccclhgXc.s:194    .text:0000000000000174 .LVL21
     /tmp/ccclhgXc.s:199    .text:0000000000000180 .LVL22
     /tmp/ccclhgXc.s:201    .text:0000000000000188 .LVL23
     /tmp/ccclhgXc.s:221    .text:00000000000001bc .LVL26
     /tmp/ccclhgXc.s:227    .text:00000000000001c8 .LVL28
     /tmp/ccclhgXc.s:232    .text:00000000000001d4 .LVL29
     /tmp/ccclhgXc.s:234    .text:00000000000001dc .LVL30
     /tmp/ccclhgXc.s:1541   .debug_str:000000000000019e .LASF39
     /tmp/ccclhgXc.s:1529   .debug_str:000000000000012f .LASF41
     /tmp/ccclhgXc.s:70     .text:0000000000000074 .LFB10
     /tmp/ccclhgXc.s:123    .text:00000000000000e8 .LFE10
     /tmp/ccclhgXc.s:1589   .debug_str:000000000000034c .LASF43
     /tmp/ccclhgXc.s:1466   .debug_loc:00000000000000ec .LLST1
     /tmp/ccclhgXc.s:101    .text:00000000000000b8 .LVL6
     /tmp/ccclhgXc.s:106    .text:00000000000000c4 .LVL7
     /tmp/ccclhgXc.s:1593   .debug_str:0000000000000361 .LASF40
     /tmp/ccclhgXc.s:1597   .debug_str:000000000000037b .LASF42
     /tmp/ccclhgXc.s:10     .text:0000000000000000 .LFB9
     /tmp/ccclhgXc.s:64     .text:0000000000000074 .LFE9
     /tmp/ccclhgXc.s:1480   .debug_loc:0000000000000125 .LLST0
     /tmp/ccclhgXc.s:40     .text:0000000000000038 .LVL2
     /tmp/ccclhgXc.s:47     .text:0000000000000050 .LVL3
     /tmp/ccclhgXc.s:1571   .debug_str:000000000000027e .LASF52
     /tmp/ccclhgXc.s:154    .text:0000000000000114 .LVL10
     /tmp/ccclhgXc.s:251    .text:00000000000001f4 .LVL33
     /tmp/ccclhgXc.s:165    .text:000000000000012c .LVL13
     /tmp/ccclhgXc.s:223    .text:00000000000001c0 .LVL27
     /tmp/ccclhgXc.s:176    .text:0000000000000144 .LVL16
     /tmp/ccclhgXc.s:248    .text:00000000000001f0 .LVL32
     /tmp/ccclhgXc.s:215    .text:00000000000001b0 .LVL24
     /tmp/ccclhgXc.s:219    .text:00000000000001b4 .LVL25
     /tmp/ccclhgXc.s:245    .text:00000000000001ec .LVL31
     /tmp/ccclhgXc.s:73     .text:0000000000000074 .LVL4
     /tmp/ccclhgXc.s:97     .text:00000000000000a8 .LVL5
     /tmp/ccclhgXc.s:14     .text:0000000000000000 .LVL0
     /tmp/ccclhgXc.s:38     .text:0000000000000030 .LVL1
     /tmp/ccclhgXc.s:275    .debug_info:0000000000000000 .Ldebug_info0

UNDEFINED SYMBOLS
__putc
_ZN15MemoryAllocator9mem_allocEm
_ZN15MemoryAllocator8mem_freeEPv
HEAP_END_ADDR
HEAP_START_ADDR
