GAS LISTING /tmp/cc5M0Oga.s 			page 1


   1              		.file	"main.cpp"
   2              		.option pic
   3              		.option norelax
   4              		.text
   5              	.Ltext0:
   6              		.align	2
   7              		.globl	idleProcess
   9              	idleProcess:
  10              	.LFB35:
  11              		.file 1 "src/main.cpp"
   1:src/main.cpp  **** #include "../h/hw.h"
   2:src/main.cpp  **** #include "../h/syscall_c.h"
   3:src/main.cpp  **** #include "../h/PCB.h"
   4:src/main.cpp  **** #include "../h/kernel.h"
   5:src/main.cpp  **** #include "../h/SCB.h"
   6:src/main.cpp  **** #include "../h/CCB.h"
   7:src/main.cpp  **** #include "../h/userMain.h"
   8:src/main.cpp  **** #include "../h/Cache.h"
   9:src/main.cpp  **** #include "../h/slab.h"
  10:src/main.cpp  **** 
  11:src/main.cpp  **** // Kernel inicijalizacija
  12:src/main.cpp  **** extern "C" void interrupt();
  13:src/main.cpp  **** extern "C" void idleProcess(void*) {
  12              		.loc 1 13 36
  13              		.cfi_startproc
  14 0000 130101FF 		addi	sp,sp,-16
  15              		.cfi_def_cfa_offset 16
  16 0004 23348100 		sd	s0,8(sp)
  17              		.cfi_offset 8, -8
  18 0008 13040101 		addi	s0,sp,16
  19              		.cfi_def_cfa 8, 0
  20              	.L2:
  14:src/main.cpp  ****     while(true) {}
  21              		.loc 1 14 5 discriminator 1
  22              		.loc 1 14 5 discriminator 1
  23 000c 6F000000 		j	.L2
  24              		.cfi_endproc
  25              	.LFE35:
  27              		.align	2
  28              		.globl	_Z15userMainWrapperPv
  30              	_Z15userMainWrapperPv:
  31              	.LFB34:
  32              		.file 2 "src/../h/userMain.h"
   1:src/../h/userMain.h **** #ifndef USERMAIN_H
   2:src/../h/userMain.h **** #define USERMAIN_H
   3:src/../h/userMain.h **** 
   4:src/../h/userMain.h **** PCB* userProcess = nullptr;
   5:src/../h/userMain.h **** 
   6:src/../h/userMain.h **** extern "C" void interrupt();
   7:src/../h/userMain.h **** void userMode() {
   8:src/../h/userMain.h ****     size_t code = Kernel::sysCallCodes::userMode;
   9:src/../h/userMain.h ****     asm volatile("mv a0, %0" : : "r" (code));
  10:src/../h/userMain.h ****     asm volatile("ecall");
  11:src/../h/userMain.h **** 
  12:src/../h/userMain.h **** }
  13:src/../h/userMain.h **** void userMain();
  14:src/../h/userMain.h **** void userMainWrapper(void*) {
GAS LISTING /tmp/cc5M0Oga.s 			page 2


  33              		.loc 2 14 29
  34              		.cfi_startproc
  35 0010 130101FF 		addi	sp,sp,-16
  36              		.cfi_def_cfa_offset 16
  37 0014 23341100 		sd	ra,8(sp)
  38 0018 23308100 		sd	s0,0(sp)
  39              		.cfi_offset 1, -8
  40              		.cfi_offset 8, -16
  41 001c 13040101 		addi	s0,sp,16
  42              		.cfi_def_cfa 8, 0
  15:src/../h/userMain.h ****     //userMode(); // prelazak u user mod
  16:src/../h/userMain.h ****     userMain();
  43              		.loc 2 16 5
  44              		.loc 2 16 13 is_stmt 0
  45 0020 97000000 		call	_Z8userMainv@plt
  45      E7800000 
  46              	.LVL0:
  17:src/../h/userMain.h **** }
  47              		.loc 2 17 1
  48 0028 83308100 		ld	ra,8(sp)
  49              		.cfi_restore 1
  50 002c 03340100 		ld	s0,0(sp)
  51              		.cfi_restore 8
  52              		.cfi_def_cfa 2, 16
  53 0030 13010101 		addi	sp,sp,16
  54              		.cfi_def_cfa_offset 0
  55 0034 67800000 		jr	ra
  56              		.cfi_endproc
  57              	.LFE34:
  59              		.align	2
  60              		.globl	_Z8userModev
  62              	_Z8userModev:
  63              	.LFB33:
   7:src/../h/userMain.h ****     size_t code = Kernel::sysCallCodes::userMode;
  64              		.loc 2 7 17 is_stmt 1
  65              		.cfi_startproc
  66 0038 130101FF 		addi	sp,sp,-16
  67              		.cfi_def_cfa_offset 16
  68 003c 23348100 		sd	s0,8(sp)
  69              		.cfi_offset 8, -8
  70 0040 13040101 		addi	s0,sp,16
  71              		.cfi_def_cfa 8, 0
   8:src/../h/userMain.h ****     asm volatile("mv a0, %0" : : "r" (code));
  72              		.loc 2 8 5
  73              	.LVL1:
   9:src/../h/userMain.h ****     asm volatile("ecall");
  74              		.loc 2 9 5
   9:src/../h/userMain.h ****     asm volatile("ecall");
  75              		.loc 2 9 45 is_stmt 0
  76 0044 93073004 		li	a5,67
  77              	#APP
  78              	# 9 "src/../h/userMain.h" 1
  10:src/../h/userMain.h **** 
  79              		mv a0, a5
  80              	# 0 "" 2
  81              		.loc 2 10 5 is_stmt 1
  10:src/../h/userMain.h **** 
GAS LISTING /tmp/cc5M0Oga.s 			page 3


  82              		.loc 2 10 26 is_stmt 0
  83              	# 10 "src/../h/userMain.h" 1
  12:src/../h/userMain.h **** void userMain();
  84              		ecall
  85              	# 0 "" 2
  86              		.loc 2 12 1
  87              	#NO_APP
  88 0050 03348100 		ld	s0,8(sp)
  89              		.cfi_restore 8
  90              		.cfi_def_cfa 2, 16
  91 0054 13010101 		addi	sp,sp,16
  92              		.cfi_def_cfa_offset 0
  93 0058 67800000 		jr	ra
  94              		.cfi_endproc
  95              	.LFE33:
  97              		.align	2
  98              		.globl	main
 100              	main:
 101              	.LFB36:
  15:src/main.cpp  **** }
  16:src/main.cpp  **** // ------------
  17:src/main.cpp  **** 
  18:src/main.cpp  **** int main() {
 102              		.loc 1 18 12 is_stmt 1
 103              		.cfi_startproc
 104 005c 130101FF 		addi	sp,sp,-16
 105              		.cfi_def_cfa_offset 16
 106 0060 23341100 		sd	ra,8(sp)
 107 0064 23308100 		sd	s0,0(sp)
 108              		.cfi_offset 1, -8
 109              		.cfi_offset 8, -16
 110 0068 13040101 		addi	s0,sp,16
 111              		.cfi_def_cfa 8, 0
  19:src/main.cpp  ****     // Kernel inicijalizacija
  20:src/main.cpp  ****     asm volatile("csrw stvec, %0" : : "r" (&interrupt));
 112              		.loc 1 20 5
 113              		.loc 1 20 56 is_stmt 0
 114 006c 97070000 		la	a5,interrupt
 114      83B70700 
 115              	#APP
 116              	# 20 "src/main.cpp" 1
  21              	    kmem_init((void*)HEAP_START_ADDR, 1 << 24);
 117              		csrw stvec, a5
 118              	# 0 "" 2
 119              		.loc 1 21 5 is_stmt 1
 120              		.loc 1 21 14 is_stmt 0
 121              	#NO_APP
 122 0078 B7050001 		li	a1,16777216
 123 007c 97070000 		la	a5,HEAP_START_ADDR
 123      83B70700 
 124 0084 03B50700 		ld	a0,0(a5)
 125 0088 97000000 		call	_Z9kmem_initPvi@plt
 125      E7800000 
 126              	.LVL2:
  22:src/main.cpp  **** 
  23:src/main.cpp  ****     PCB* main = PCB::createSysProcess(nullptr, nullptr); // main proces(ne pravimo stek)
 127              		.loc 1 23 5 is_stmt 1
GAS LISTING /tmp/cc5M0Oga.s 			page 4


 128              		.loc 1 23 38 is_stmt 0
 129 0090 93050000 		li	a1,0
 130 0094 13050000 		li	a0,0
 131 0098 97000000 		call	_ZN3PCB16createSysProcessEPFvvEPv@plt
 131      E7800000 
 132              	.LVL3:
  24:src/main.cpp  ****     PCB::running = main;
 133              		.loc 1 24 5 is_stmt 1
 134              		.loc 1 24 18 is_stmt 0
 135 00a0 97070000 		la	a5,_ZN3PCB7runningE
 135      83B70700 
 136 00a8 23B0A700 		sd	a0,0(a5)
  25:src/main.cpp  **** /*
  26:src/main.cpp  ****     CCB::inputProcces = PCB::createSysProcess(CCB::inputBody, nullptr);
  27:src/main.cpp  ****     CCB::outputProcess = PCB::createSysProcess(CCB::outputBody, nullptr);
  28:src/main.cpp  ****     Scheduler::put(CCB::inputProcces);
  29:src/main.cpp  ****     Scheduler::put(CCB::outputProcess);
  30:src/main.cpp  ****     Scheduler::idleProcess = PCB::createSysProcess(idleProcess, nullptr);*/
  31:src/main.cpp  ****     thread_create(&CCB::inputProcces, CCB::inputBody, nullptr); // getc nit (stavljamo je prvi put 
 137              		.loc 1 31 5 is_stmt 1
 138              		.loc 1 31 18 is_stmt 0
 139 00ac 13060000 		li	a2,0
 140 00b0 97050000 		la	a1,_ZN3CCB9inputBodyEPv
 140      83B50500 
 141 00b8 17050000 		la	a0,_ZN3CCB12inputProccesE
 141      03350500 
 142              	.LVL4:
 143 00c0 97000000 		call	_Z13thread_createPP3PCBPFvPvES2_@plt
 143      E7800000 
 144              	.LVL5:
  32:src/main.cpp  ****     thread_create(&CCB::outputProcess, CCB::outputBody, nullptr); // putc nit ( stavljamo je prvi p
 145              		.loc 1 32 5 is_stmt 1
 146              		.loc 1 32 18 is_stmt 0
 147 00c8 13060000 		li	a2,0
 148 00cc 97050000 		la	a1,_ZN3CCB10outputBodyEPv
 148      83B50500 
 149 00d4 17050000 		la	a0,_ZN3CCB13outputProcessE
 149      03350500 
 150 00dc 97000000 		call	_Z13thread_createPP3PCBPFvPvES2_@plt
 150      E7800000 
 151              	.LVL6:
  33:src/main.cpp  ****     thread_create_only(&Scheduler::idleProcess, idleProcess, nullptr); // idle nit
 152              		.loc 1 33 5 is_stmt 1
 153              		.loc 1 33 23 is_stmt 0
 154 00e4 13060000 		li	a2,0
 155 00e8 97050000 		lla	a1,idleProcess
 155      93850500 
 156 00f0 17050000 		la	a0,_ZN9Scheduler11idleProcessE
 156      03350500 
 157 00f8 97000000 		call	_Z18thread_create_onlyPP3PCBPFvPvES2_@plt
 157      E7800000 
 158              	.LVL7:
  34:src/main.cpp  ****     Scheduler::idleProcess->setFinished(true);
 159              		.loc 1 34 5 is_stmt 1
 160              		.loc 1 34 40 is_stmt 0
 161 0100 97070000 		la	a5,_ZN9Scheduler11idleProcessE
 161      83B70700 
GAS LISTING /tmp/cc5M0Oga.s 			page 5


 162 0108 83B70700 		ld	a5,0(a5)
 163              	.LVL8:
 164              	.LBB12:
 165              	.LBB13:
 166              		.file 3 "src/../h/PCB.h"
   1:src/../h/PCB.h **** #ifndef PCB_H
   2:src/../h/PCB.h **** #define PCB_H
   3:src/../h/PCB.h **** 
   4:src/../h/PCB.h **** #include "hw.h"
   5:src/../h/PCB.h **** #include "slab.h"
   6:src/../h/PCB.h **** 
   7:src/../h/PCB.h **** extern "C" void interruptHandler();
   8:src/../h/PCB.h **** 
   9:src/../h/PCB.h **** class PCB {
  10:src/../h/PCB.h **** friend class Scheduler;
  11:src/../h/PCB.h **** friend void interruptHandler();
  12:src/../h/PCB.h **** friend class Kernel;
  13:src/../h/PCB.h **** friend class SCB;
  14:src/../h/PCB.h **** public:
  15:src/../h/PCB.h ****     // vraca true ako se proces zavrsio, false ako nije
  16:src/../h/PCB.h ****     bool isFinished() const {
  17:src/../h/PCB.h ****         return finished;
  18:src/../h/PCB.h ****     }
  19:src/../h/PCB.h ****     // vraca true ako je semafor obrisan pre nego sto je proces odblokiran
  20:src/../h/PCB.h ****     bool isSemaphoreDeleted() const {
  21:src/../h/PCB.h ****         return semDeleted;
  22:src/../h/PCB.h ****     }
  23:src/../h/PCB.h **** 
  24:src/../h/PCB.h ****     size_t getTimeSleeping() const {
  25:src/../h/PCB.h ****         return timeSleeping;
  26:src/../h/PCB.h ****     }
  27:src/../h/PCB.h **** 
  28:src/../h/PCB.h ****     void setTimeSleeping(size_t newTime) {
  29:src/../h/PCB.h ****         timeSleeping = newTime;
  30:src/../h/PCB.h ****     }
  31:src/../h/PCB.h **** 
  32:src/../h/PCB.h ****     PCB* getNextInList() const {
  33:src/../h/PCB.h ****         return nextInList;
  34:src/../h/PCB.h ****     }
  35:src/../h/PCB.h **** 
  36:src/../h/PCB.h ****     void setNextInList(PCB* next) {
  37:src/../h/PCB.h ****         nextInList = next;
  38:src/../h/PCB.h ****     }
  39:src/../h/PCB.h **** 
  40:src/../h/PCB.h ****     void setBlocked(bool newState) {
  41:src/../h/PCB.h ****         blocked = newState;
  42:src/../h/PCB.h ****     }
  43:src/../h/PCB.h **** 
  44:src/../h/PCB.h ****     void setSemDeleted(bool newState) {
  45:src/../h/PCB.h ****         semDeleted = newState;
  46:src/../h/PCB.h ****     }
  47:src/../h/PCB.h **** 
  48:src/../h/PCB.h ****     void setTimeSlice(time_t timeSlice_) {
  49:src/../h/PCB.h ****         timeSlice = timeSlice_;
  50:src/../h/PCB.h ****     }
  51:src/../h/PCB.h **** 
  52:src/../h/PCB.h ****     void setFinished(bool finished_) {
GAS LISTING /tmp/cc5M0Oga.s 			page 6


  53:src/../h/PCB.h ****         finished = finished_;
 167              		.loc 3 53 9 is_stmt 1
 168              		.loc 3 53 18 is_stmt 0
 169 010c 13071000 		li	a4,1
 170 0110 2384E702 		sb	a4,40(a5)
 171              	.LVL9:
 172              	.LBE13:
 173              	.LBE12:
  35:src/main.cpp  ****     Scheduler::idleProcess->setTimeSlice(1);
 174              		.loc 1 35 5 is_stmt 1
 175              	.LBB14:
 176              	.LBB15:
  49:src/../h/PCB.h ****     }
 177              		.loc 3 49 9
  49:src/../h/PCB.h ****     }
 178              		.loc 3 49 19 is_stmt 0
 179 0114 13071000 		li	a4,1
 180 0118 23B0E704 		sd	a4,64(a5)
 181              	.LVL10:
 182              	.LBE15:
 183              	.LBE14:
  36:src/main.cpp  **** 
  37:src/main.cpp  ****     //CCB::semInput = SCB::createSemaphore(0);
  38:src/main.cpp  ****     sem_open(&CCB::semInput, 0);
 184              		.loc 1 38 5 is_stmt 1
 185              		.loc 1 38 13 is_stmt 0
 186 011c 93050000 		li	a1,0
 187 0120 17050000 		la	a0,_ZN3CCB8semInputE
 187      03350500 
 188 0128 97000000 		call	_Z8sem_openPP3SCBj@plt
 188      E7800000 
 189              	.LVL11:
  39:src/main.cpp  ****     //CCB::semOutput = SCB::createSemaphore(0);
  40:src/main.cpp  ****     sem_open(&CCB::semOutput, 0);
 190              		.loc 1 40 5 is_stmt 1
 191              		.loc 1 40 13 is_stmt 0
 192 0130 93050000 		li	a1,0
 193 0134 17050000 		la	a0,_ZN3CCB9semOutputE
 193      03350500 
 194 013c 97000000 		call	_Z8sem_openPP3SCBj@plt
 194      E7800000 
 195              	.LVL12:
  41:src/main.cpp  ****     //CCB::inputBufferEmpty = SCB::createSemaphore(0);
  42:src/main.cpp  ****     sem_open(&CCB::inputBufferEmpty, 0);
 196              		.loc 1 42 5 is_stmt 1
 197              		.loc 1 42 13 is_stmt 0
 198 0144 93050000 		li	a1,0
 199 0148 17050000 		la	a0,_ZN3CCB16inputBufferEmptyE
 199      03350500 
 200 0150 97000000 		call	_Z8sem_openPP3SCBj@plt
 200      E7800000 
 201              	.LVL13:
  43:src/main.cpp  **** 
  44:src/main.cpp  ****     Kernel::ms_sstatus(Kernel::SSTATUS_SIE); // dozvoljavaju se prekidi
 202              		.loc 1 44 5 is_stmt 1
 203              	.LBB16:
 204              	.LBB17:
GAS LISTING /tmp/cc5M0Oga.s 			page 7


 205              		.file 4 "src/../h/kernel.h"
   1:src/../h/kernel.h **** #ifndef KERNEL_H
   2:src/../h/kernel.h **** #define KERNEL_H
   3:src/../h/kernel.h **** 
   4:src/../h/kernel.h **** #include "hw.h"
   5:src/../h/kernel.h **** 
   6:src/../h/kernel.h **** class Kernel {
   7:src/../h/kernel.h **** public:
   8:src/../h/kernel.h ****     // postavlja code u registar a0
   9:src/../h/kernel.h ****     static size_t setCode(size_t code) {
  10:src/../h/kernel.h ****         return code;
  11:src/../h/kernel.h ****     }
  12:src/../h/kernel.h **** 
  13:src/../h/kernel.h ****     // kodovi po kojima se prepoznaju sistemski pozivi
  14:src/../h/kernel.h ****     enum sysCallCodes {
  15:src/../h/kernel.h ****         mem_alloc = 0x01,
  16:src/../h/kernel.h ****         mem_free = 0x02,
  17:src/../h/kernel.h ****         thread_create = 0x11,
  18:src/../h/kernel.h ****         thread_exit = 0x12,
  19:src/../h/kernel.h ****         thread_dispatch = 0x13,
  20:src/../h/kernel.h ****         thread_start = 0x14,
  21:src/../h/kernel.h ****         sem_open = 0x21,
  22:src/../h/kernel.h ****         sem_close = 0x22,
  23:src/../h/kernel.h ****         sem_wait = 0x23,
  24:src/../h/kernel.h ****         sem_signal = 0x24,
  25:src/../h/kernel.h ****         time_sleep = 0x31,
  26:src/../h/kernel.h ****         getc = 0x41,
  27:src/../h/kernel.h ****         putc = 0x42,
  28:src/../h/kernel.h ****         userMode = 0x43
  29:src/../h/kernel.h ****     };
  30:src/../h/kernel.h **** 
  31:src/../h/kernel.h ****     // pop sstatus.spp and sstatus.spie bits (has to be a non inline function)
  32:src/../h/kernel.h ****     static void popSppSpie();
  33:src/../h/kernel.h **** 
  34:src/../h/kernel.h ****     // cita registar scause (uzrok nastanka prekida)
  35:src/../h/kernel.h ****     static size_t r_scause() {
  36:src/../h/kernel.h ****         size_t volatile scause;
  37:src/../h/kernel.h ****         __asm__ volatile ("csrr %[scause], scause" : [scause] "=r"(scause));
  38:src/../h/kernel.h ****         return scause;
  39:src/../h/kernel.h ****     }
  40:src/../h/kernel.h **** 
  41:src/../h/kernel.h ****     // upisuje u registar scause (uzrok nastanka prekida)
  42:src/../h/kernel.h ****     static void w_scause(size_t scause) {
  43:src/../h/kernel.h ****         __asm__ volatile ("csrw scause, %[scause]" : : [scause] "r"(scause));
  44:src/../h/kernel.h ****     }
  45:src/../h/kernel.h **** 
  46:src/../h/kernel.h ****     // cita registar sepc
  47:src/../h/kernel.h ****     static size_t r_sepc() {
  48:src/../h/kernel.h ****         size_t volatile sepc;
  49:src/../h/kernel.h ****         __asm__ volatile ("csrr %[sepc], sepc" : [sepc] "=r"(sepc));
  50:src/../h/kernel.h ****         return sepc;
  51:src/../h/kernel.h ****     }
  52:src/../h/kernel.h **** 
  53:src/../h/kernel.h ****     // upisuje u registar sepc
  54:src/../h/kernel.h ****     static void w_sepc(size_t sepc) {
  55:src/../h/kernel.h ****         __asm__ volatile ("csrw sepc, %[sepc]" : : [sepc] "r"(sepc));
  56:src/../h/kernel.h ****     }
GAS LISTING /tmp/cc5M0Oga.s 			page 8


  57:src/../h/kernel.h **** 
  58:src/../h/kernel.h ****     // read register stvec
  59:src/../h/kernel.h ****     static size_t r_stvec() {
  60:src/../h/kernel.h ****         size_t volatile stvec;
  61:src/../h/kernel.h ****         __asm__ volatile ("csrr %[stvec], stvec" : [stvec] "=r"(stvec));
  62:src/../h/kernel.h ****         return stvec;
  63:src/../h/kernel.h ****     }
  64:src/../h/kernel.h **** 
  65:src/../h/kernel.h ****     // write register stvec
  66:src/../h/kernel.h ****     static void w_stvec(size_t stvec) {
  67:src/../h/kernel.h ****         __asm__ volatile ("csrw stvec, %[stvec]" : : [stvec] "r"(stvec));
  68:src/../h/kernel.h ****     }
  69:src/../h/kernel.h **** 
  70:src/../h/kernel.h ****     // read register stval
  71:src/../h/kernel.h ****     static size_t r_stval() {
  72:src/../h/kernel.h ****         size_t volatile stval;
  73:src/../h/kernel.h ****         __asm__ volatile ("csrr %[stval], stval" : [stval] "=r"(stval));
  74:src/../h/kernel.h ****         return stval;
  75:src/../h/kernel.h ****     }
  76:src/../h/kernel.h **** 
  77:src/../h/kernel.h ****     // write register stval
  78:src/../h/kernel.h ****     static void w_stval(size_t stval) {
  79:src/../h/kernel.h ****         __asm__ volatile ("csrw stval, %[stval]" : : [stval] "r"(stval));
  80:src/../h/kernel.h ****     }
  81:src/../h/kernel.h **** 
  82:src/../h/kernel.h ****     enum BitMaskSip
  83:src/../h/kernel.h ****     {
  84:src/../h/kernel.h ****         SIP_SSIE = (1 << 1), // da li su dozvoljeni softverski prekidi
  85:src/../h/kernel.h ****         SIP_SEIE = (1 << 9), // da li su dozvoljeni spoljasnji hardverski prekidi
  86:src/../h/kernel.h ****     };
  87:src/../h/kernel.h **** 
  88:src/../h/kernel.h ****     // postavljanje odredjenih bitova (BitMaskSip) u registar sip
  89:src/../h/kernel.h ****     static void ms_sip(size_t mask) {
  90:src/../h/kernel.h ****         __asm__ volatile ("csrs sip, %[mask]" : : [mask] "r"(mask));
  91:src/../h/kernel.h ****     }
  92:src/../h/kernel.h **** 
  93:src/../h/kernel.h ****     // brisanje odredjenih bitova (BitMaskSip) iz registra sip
  94:src/../h/kernel.h ****     static void mc_sip(size_t mask) {
  95:src/../h/kernel.h ****         __asm__ volatile ("csrc sip, %[mask]" : : [mask] "r"(mask));
  96:src/../h/kernel.h ****     }
  97:src/../h/kernel.h **** 
  98:src/../h/kernel.h ****     // citanje iz registra sip
  99:src/../h/kernel.h ****     static size_t r_sip() {
 100:src/../h/kernel.h ****         size_t volatile sip;
 101:src/../h/kernel.h ****         __asm__ volatile ("csrr %[sip], sip" : [sip] "=r"(sip));
 102:src/../h/kernel.h ****         return sip;
 103:src/../h/kernel.h ****     }
 104:src/../h/kernel.h **** 
 105:src/../h/kernel.h ****     // upis u registar sip
 106:src/../h/kernel.h ****     static void w_sip(size_t sip) {
 107:src/../h/kernel.h ****         __asm__ volatile ("csrw sip, %[sip]" : : [sip] "r"(sip));
 108:src/../h/kernel.h ****     }
 109:src/../h/kernel.h **** 
 110:src/../h/kernel.h ****     enum BitMaskSstatus
 111:src/../h/kernel.h ****     {
 112:src/../h/kernel.h ****         SSTATUS_SIE = (1 << 1), // ako je 0 - maskiranje spoljasnjih prekida u sistemskom rezimu
 113:src/../h/kernel.h ****         SSTATUS_SPIE = (1 << 5), // prethodna vrednost sie
GAS LISTING /tmp/cc5M0Oga.s 			page 9


 114:src/../h/kernel.h ****         SSTATUS_SPP = (1 << 8), // u kom rezimu se desio prekid
 115:src/../h/kernel.h ****     };
 116:src/../h/kernel.h **** 
 117:src/../h/kernel.h ****     // mask set register sstatus
 118:src/../h/kernel.h ****     static void ms_sstatus(size_t mask) {
 119:src/../h/kernel.h ****         __asm__ volatile ("csrs sstatus, %[mask]" : : [mask] "r"(mask));
 206              		.loc 4 119 9
 207              		.loc 4 119 72 is_stmt 0
 208 0158 93072000 		li	a5,2
 209              	#APP
 210              	# 119 "src/../h/kernel.h" 1
 120              	    }
 211              		csrs sstatus, a5
 212              	# 0 "" 2
 213              	.LVL14:
 214              	#NO_APP
 215              	.LBE17:
 216              	.LBE16:
  45:src/main.cpp  **** 
  46:src/main.cpp  ****     thread_create(&userProcess, userMainWrapper, nullptr);
 217              		.loc 1 46 5 is_stmt 1
 218              		.loc 1 46 18 is_stmt 0
 219 0160 13060000 		li	a2,0
 220 0164 97050000 		lla	a1,_Z15userMainWrapperPv
 220      93850500 
 221 016c 17050000 		lla	a0,.LANCHOR0
 221      13050500 
 222 0174 97000000 		call	_Z13thread_createPP3PCBPFvPvES2_@plt
 222      E7800000 
 223              	.LVL15:
  47:src/main.cpp  ****     // ----
  48:src/main.cpp  ****     kmem_cache_info(PCB::pcbCache);
 224              		.loc 1 48 5 is_stmt 1
 225              		.loc 1 48 20 is_stmt 0
 226 017c 97070000 		la	a5,_ZN3PCB8pcbCacheE
 226      83B70700 
 227 0184 03B50700 		ld	a0,0(a5)
 228 0188 97000000 		call	_Z15kmem_cache_infoP12kmem_cache_s@plt
 228      E7800000 
 229              	.LVL16:
  49:src/main.cpp  ****     kmem_cache_info(SCB::scbCache);
 230              		.loc 1 49 5 is_stmt 1
 231              		.loc 1 49 20 is_stmt 0
 232 0190 97070000 		la	a5,_ZN3SCB8scbCacheE
 232      83B70700 
 233 0198 03B50700 		ld	a0,0(a5)
 234 019c 97000000 		call	_Z15kmem_cache_infoP12kmem_cache_s@plt
 234      E7800000 
 235              	.LVL17:
 236              	.L10:
  50:src/main.cpp  ****     while(!userProcess->isFinished()) {
 237              		.loc 1 50 5 is_stmt 1
 238              		.loc 1 50 11
 239              		.loc 1 50 35 is_stmt 0
 240 01a4 97070000 		ld	a5,.LANCHOR0
 240      83B70700 
 241              	.LVL18:
GAS LISTING /tmp/cc5M0Oga.s 			page 10


 242              	.LBB18:
 243              	.LBB19:
  17:src/../h/PCB.h ****     }
 244              		.loc 3 17 9 is_stmt 1
  17:src/../h/PCB.h ****     }
 245              		.loc 3 17 16 is_stmt 0
 246 01ac 83C78702 		lbu	a5,40(a5)
 247              	.LVL19:
 248              	.LBE19:
 249              	.LBE18:
 250              		.loc 1 50 11
 251 01b0 63980700 		bnez	a5,.L9
  51:src/main.cpp  ****         thread_dispatch();
 252              		.loc 1 51 9 is_stmt 1
 253              		.loc 1 51 24 is_stmt 0
 254 01b4 97000000 		call	_Z15thread_dispatchv@plt
 254      E7800000 
 255              	.LVL20:
  50:src/main.cpp  ****     while(!userProcess->isFinished()) {
 256              		.loc 1 50 5
 257 01bc 6FF09FFE 		j	.L10
 258              	.L9:
  52:src/main.cpp  ****     }
  53:src/main.cpp  **** 
  54:src/main.cpp  ****     while(CCB::semOutput->getSemValue() != 0) {
 259              		.loc 1 54 5 is_stmt 1
 260              		.loc 1 54 41
 261              		.loc 1 54 38 is_stmt 0
 262 01c0 97070000 		la	a5,_ZN3CCB9semOutputE
 262      83B70700 
 263 01c8 83B70700 		ld	a5,0(a5)
 264              	.LVL21:
 265              	.LBB20:
 266              	.LBB21:
 267              		.file 5 "src/../h/SCB.h"
   1:src/../h/SCB.h **** #ifndef PROJECT_BASE_SCB_H
   2:src/../h/SCB.h **** #define PROJECT_BASE_SCB_H
   3:src/../h/SCB.h **** 
   4:src/../h/SCB.h **** #include "PCB.h"
   5:src/../h/SCB.h **** #include "Scheduler.h"
   6:src/../h/SCB.h **** 
   7:src/../h/SCB.h **** class SCB { // Semaphore Control Block
   8:src/../h/SCB.h **** public:
   9:src/../h/SCB.h ****     int getSemValue() const {
  10:src/../h/SCB.h ****         return semValue;
 268              		.loc 5 10 9 is_stmt 1
 269              		.loc 5 10 16 is_stmt 0
 270 01cc 83A70701 		lw	a5,16(a5)
 271              	.LVL22:
 272              	.LBE21:
 273              	.LBE20:
 274              		.loc 1 54 41
 275 01d0 63880700 		beqz	a5,.L11
  55:src/main.cpp  ****         thread_dispatch();
 276              		.loc 1 55 9 is_stmt 1
 277              		.loc 1 55 24 is_stmt 0
 278 01d4 97000000 		call	_Z15thread_dispatchv@plt
GAS LISTING /tmp/cc5M0Oga.s 			page 11


 278      E7800000 
 279              	.LVL23:
  54:src/main.cpp  ****         thread_dispatch();
 280              		.loc 1 54 5
 281 01dc 6FF05FFE 		j	.L9
 282              	.L11:
  56:src/main.cpp  ****     }
  57:src/main.cpp  ****     return 0;
 283              		.loc 1 57 5 is_stmt 1
  58:src/main.cpp  **** }...
 284              		.loc 1 58 1 is_stmt 0
 285 01e0 13050000 		li	a0,0
 286 01e4 83308100 		ld	ra,8(sp)
 287              		.cfi_restore 1
 288 01e8 03340100 		ld	s0,0(sp)
 289              		.cfi_restore 8
 290              		.cfi_def_cfa 2, 16
 291 01ec 13010101 		addi	sp,sp,16
 292              		.cfi_def_cfa_offset 0
 293 01f0 67800000 		jr	ra
 294              		.cfi_endproc
 295              	.LFE36:
 297              		.globl	userProcess
 298              		.bss
 299              		.align	3
 300              		.set	.LANCHOR0,. + 0
 303              	userProcess:
 304 0000 00000000 		.zero	8
 304      00000000 
 305              		.text
 306              	.Letext0:
 307              		.file 6 "src/../h/hw.h"
 308              		.file 7 "src/../h/slab.h"
 309              		.file 8 "src/../h/syscall_c.h"
GAS LISTING /tmp/cc5M0Oga.s 			page 12


DEFINED SYMBOLS
                            *ABS*:0000000000000000 main.cpp
     /tmp/cc5M0Oga.s:9      .text:0000000000000000 idleProcess
     /tmp/cc5M0Oga.s:13     .text:0000000000000000 .L0 
     /tmp/cc5M0Oga.s:14     .text:0000000000000000 .L0 
     /tmp/cc5M0Oga.s:15     .text:0000000000000004 .L0 
     /tmp/cc5M0Oga.s:17     .text:0000000000000008 .L0 
     /tmp/cc5M0Oga.s:19     .text:000000000000000c .L0 
     /tmp/cc5M0Oga.s:22     .text:000000000000000c .L0 
     /tmp/cc5M0Oga.s:23     .text:000000000000000c .L0 
     /tmp/cc5M0Oga.s:24     .text:0000000000000010 .L0 
     /tmp/cc5M0Oga.s:30     .text:0000000000000010 _Z15userMainWrapperPv
     /tmp/cc5M0Oga.s:34     .text:0000000000000010 .L0 
     /tmp/cc5M0Oga.s:35     .text:0000000000000010 .L0 
     /tmp/cc5M0Oga.s:36     .text:0000000000000014 .L0 
     /tmp/cc5M0Oga.s:39     .text:000000000000001c .L0 
     /tmp/cc5M0Oga.s:40     .text:000000000000001c .L0 
     /tmp/cc5M0Oga.s:42     .text:0000000000000020 .L0 
     /tmp/cc5M0Oga.s:44     .text:0000000000000020 .L0 
     /tmp/cc5M0Oga.s:45     .text:0000000000000020 .L0 
     /tmp/cc5M0Oga.s:48     .text:0000000000000028 .L0 
     /tmp/cc5M0Oga.s:49     .text:000000000000002c .L0 
     /tmp/cc5M0Oga.s:51     .text:0000000000000030 .L0 
     /tmp/cc5M0Oga.s:52     .text:0000000000000030 .L0 
     /tmp/cc5M0Oga.s:54     .text:0000000000000034 .L0 
     /tmp/cc5M0Oga.s:56     .text:0000000000000038 .L0 
     /tmp/cc5M0Oga.s:62     .text:0000000000000038 _Z8userModev
     /tmp/cc5M0Oga.s:65     .text:0000000000000038 .L0 
     /tmp/cc5M0Oga.s:66     .text:0000000000000038 .L0 
     /tmp/cc5M0Oga.s:67     .text:000000000000003c .L0 
     /tmp/cc5M0Oga.s:69     .text:0000000000000040 .L0 
     /tmp/cc5M0Oga.s:71     .text:0000000000000044 .L0 
     /tmp/cc5M0Oga.s:74     .text:0000000000000044 .L0 
     /tmp/cc5M0Oga.s:75     .text:0000000000000044 .L0 
     /tmp/cc5M0Oga.s:76     .text:0000000000000044 .L0 
     /tmp/cc5M0Oga.s:82     .text:000000000000004c .L0 
 src/../h/userMain.h:10     .text:000000000000004c .L0 
     /tmp/cc5M0Oga.s:88     .text:0000000000000050 .L0 
     /tmp/cc5M0Oga.s:89     .text:0000000000000054 .L0 
     /tmp/cc5M0Oga.s:90     .text:0000000000000054 .L0 
     /tmp/cc5M0Oga.s:92     .text:0000000000000058 .L0 
     /tmp/cc5M0Oga.s:94     .text:000000000000005c .L0 
     /tmp/cc5M0Oga.s:100    .text:000000000000005c main
     /tmp/cc5M0Oga.s:103    .text:000000000000005c .L0 
     /tmp/cc5M0Oga.s:104    .text:000000000000005c .L0 
     /tmp/cc5M0Oga.s:105    .text:0000000000000060 .L0 
     /tmp/cc5M0Oga.s:108    .text:0000000000000068 .L0 
     /tmp/cc5M0Oga.s:109    .text:0000000000000068 .L0 
     /tmp/cc5M0Oga.s:111    .text:000000000000006c .L0 
     /tmp/cc5M0Oga.s:113    .text:000000000000006c .L0 
     /tmp/cc5M0Oga.s:114    .text:000000000000006c .L0 
     /tmp/cc5M0Oga.s:120    .text:0000000000000078 .L0 
     /tmp/cc5M0Oga.s:122    .text:0000000000000078 .L0 
     /tmp/cc5M0Oga.s:128    .text:0000000000000090 .L0 
     /tmp/cc5M0Oga.s:129    .text:0000000000000090 .L0 
     /tmp/cc5M0Oga.s:134    .text:00000000000000a0 .L0 
     /tmp/cc5M0Oga.s:135    .text:00000000000000a0 .L0 
GAS LISTING /tmp/cc5M0Oga.s 			page 13


     /tmp/cc5M0Oga.s:138    .text:00000000000000ac .L0 
     /tmp/cc5M0Oga.s:139    .text:00000000000000ac .L0 
     /tmp/cc5M0Oga.s:146    .text:00000000000000c8 .L0 
     /tmp/cc5M0Oga.s:147    .text:00000000000000c8 .L0 
     /tmp/cc5M0Oga.s:153    .text:00000000000000e4 .L0 
     /tmp/cc5M0Oga.s:154    .text:00000000000000e4 .L0 
     /tmp/cc5M0Oga.s:160    .text:0000000000000100 .L0 
     /tmp/cc5M0Oga.s:161    .text:0000000000000100 .L0 
     /tmp/cc5M0Oga.s:168    .text:000000000000010c .L0 
     /tmp/cc5M0Oga.s:169    .text:000000000000010c .L0 
     /tmp/cc5M0Oga.s:177    .text:0000000000000114 .L0 
     /tmp/cc5M0Oga.s:178    .text:0000000000000114 .L0 
     /tmp/cc5M0Oga.s:179    .text:0000000000000114 .L0 
     /tmp/cc5M0Oga.s:185    .text:000000000000011c .L0 
     /tmp/cc5M0Oga.s:186    .text:000000000000011c .L0 
     /tmp/cc5M0Oga.s:191    .text:0000000000000130 .L0 
     /tmp/cc5M0Oga.s:192    .text:0000000000000130 .L0 
     /tmp/cc5M0Oga.s:197    .text:0000000000000144 .L0 
     /tmp/cc5M0Oga.s:198    .text:0000000000000144 .L0 
     /tmp/cc5M0Oga.s:206    .text:0000000000000158 .L0 
     /tmp/cc5M0Oga.s:207    .text:0000000000000158 .L0 
     /tmp/cc5M0Oga.s:208    .text:0000000000000158 .L0 
     /tmp/cc5M0Oga.s:218    .text:0000000000000160 .L0 
     /tmp/cc5M0Oga.s:219    .text:0000000000000160 .L0 
     /tmp/cc5M0Oga.s:225    .text:000000000000017c .L0 
     /tmp/cc5M0Oga.s:226    .text:000000000000017c .L0 
     /tmp/cc5M0Oga.s:231    .text:0000000000000190 .L0 
     /tmp/cc5M0Oga.s:232    .text:0000000000000190 .L0 
     /tmp/cc5M0Oga.s:238    .text:00000000000001a4 .L0 
     /tmp/cc5M0Oga.s:239    .text:00000000000001a4 .L0 
     /tmp/cc5M0Oga.s:240    .text:00000000000001a4 .L0 
     /tmp/cc5M0Oga.s:245    .text:00000000000001ac .L0 
     /tmp/cc5M0Oga.s:246    .text:00000000000001ac .L0 
     /tmp/cc5M0Oga.s:251    .text:00000000000001b0 .L0 
     /tmp/cc5M0Oga.s:253    .text:00000000000001b4 .L0 
     /tmp/cc5M0Oga.s:254    .text:00000000000001b4 .L0 
     /tmp/cc5M0Oga.s:257    .text:00000000000001bc .L0 
     /tmp/cc5M0Oga.s:260    .text:00000000000001c0 .L0 
     /tmp/cc5M0Oga.s:261    .text:00000000000001c0 .L0 
     /tmp/cc5M0Oga.s:262    .text:00000000000001c0 .L0 
     /tmp/cc5M0Oga.s:269    .text:00000000000001cc .L0 
     /tmp/cc5M0Oga.s:270    .text:00000000000001cc .L0 
     /tmp/cc5M0Oga.s:275    .text:00000000000001d0 .L0 
     /tmp/cc5M0Oga.s:277    .text:00000000000001d4 .L0 
     /tmp/cc5M0Oga.s:278    .text:00000000000001d4 .L0 
     /tmp/cc5M0Oga.s:281    .text:00000000000001dc .L0 
     /tmp/cc5M0Oga.s:284    .text:00000000000001e0 .L0 
     /tmp/cc5M0Oga.s:285    .text:00000000000001e0 .L0 
     /tmp/cc5M0Oga.s:287    .text:00000000000001e8 .L0 
     /tmp/cc5M0Oga.s:289    .text:00000000000001ec .L0 
     /tmp/cc5M0Oga.s:290    .text:00000000000001ec .L0 
     /tmp/cc5M0Oga.s:292    .text:00000000000001f0 .L0 
     /tmp/cc5M0Oga.s:294    .text:00000000000001f4 .L0 
     /tmp/cc5M0Oga.s:303    .bss:0000000000000000 userProcess
     /tmp/cc5M0Oga.s:300    .bss:0000000000000000 .LANCHOR0
     /tmp/cc5M0Oga.s:310    .text:00000000000001f4 .L0 
     /tmp/cc5M0Oga.s:114    .text:000000000000006c .L0 
GAS LISTING /tmp/cc5M0Oga.s 			page 14


     /tmp/cc5M0Oga.s:123    .text:000000000000007c .L0 
     /tmp/cc5M0Oga.s:135    .text:00000000000000a0 .L0 
     /tmp/cc5M0Oga.s:140    .text:00000000000000b0 .L0 
     /tmp/cc5M0Oga.s:141    .text:00000000000000b8 .L0 
     /tmp/cc5M0Oga.s:148    .text:00000000000000cc .L0 
     /tmp/cc5M0Oga.s:149    .text:00000000000000d4 .L0 
     /tmp/cc5M0Oga.s:155    .text:00000000000000e8 .L0 
     /tmp/cc5M0Oga.s:156    .text:00000000000000f0 .L0 
     /tmp/cc5M0Oga.s:161    .text:0000000000000100 .L0 
     /tmp/cc5M0Oga.s:187    .text:0000000000000120 .L0 
     /tmp/cc5M0Oga.s:193    .text:0000000000000134 .L0 
     /tmp/cc5M0Oga.s:199    .text:0000000000000148 .L0 
     /tmp/cc5M0Oga.s:220    .text:0000000000000164 .L0 
     /tmp/cc5M0Oga.s:221    .text:000000000000016c .L0 
     /tmp/cc5M0Oga.s:226    .text:000000000000017c .L0 
     /tmp/cc5M0Oga.s:232    .text:0000000000000190 .L0 
     /tmp/cc5M0Oga.s:240    .text:00000000000001a4 .L0 
     /tmp/cc5M0Oga.s:262    .text:00000000000001c0 .L0 
     /tmp/cc5M0Oga.s:20     .text:000000000000000c .L2
     /tmp/cc5M0Oga.s:258    .text:00000000000001c0 .L9
     /tmp/cc5M0Oga.s:236    .text:00000000000001a4 .L10
     /tmp/cc5M0Oga.s:282    .text:00000000000001e0 .L11
     /tmp/cc5M0Oga.s:1790   .debug_abbrev:0000000000000000 .Ldebug_abbrev0
     /tmp/cc5M0Oga.s:3053   .debug_str:0000000000000998 .LASF194
     /tmp/cc5M0Oga.s:2809   .debug_str:00000000000002b2 .LASF195
     /tmp/cc5M0Oga.s:2837   .debug_str:0000000000000378 .LASF196
     /tmp/cc5M0Oga.s:5      .text:0000000000000000 .Ltext0
     /tmp/cc5M0Oga.s:306    .text:00000000000001f4 .Letext0
     /tmp/cc5M0Oga.s:2725   .debug_line:0000000000000000 .Ldebug_line0
     /tmp/cc5M0Oga.s:2845   .debug_str:00000000000003c0 .LASF0
     /tmp/cc5M0Oga.s:2877   .debug_str:00000000000004ad .LASF1
     /tmp/cc5M0Oga.s:2987   .debug_str:00000000000007c5 .LASF2
     /tmp/cc5M0Oga.s:2995   .debug_str:000000000000080c .LASF4
     /tmp/cc5M0Oga.s:2859   .debug_str:0000000000000416 .LASF3
     /tmp/cc5M0Oga.s:2735   .debug_str:0000000000000032 .LASF5
     /tmp/cc5M0Oga.s:2953   .debug_str:00000000000006d8 .LASF6
     /tmp/cc5M0Oga.s:2945   .debug_str:000000000000069b .LASF7
     /tmp/cc5M0Oga.s:2869   .debug_str:000000000000046e .LASF8
     /tmp/cc5M0Oga.s:2815   .debug_str:00000000000002d0 .LASF9
     /tmp/cc5M0Oga.s:2825   .debug_str:0000000000000324 .LASF10
     /tmp/cc5M0Oga.s:2757   .debug_str:00000000000000f9 .LASF11
     /tmp/cc5M0Oga.s:2807   .debug_str:00000000000002a3 .LASF12
     /tmp/cc5M0Oga.s:2759   .debug_str:0000000000000108 .LASF13
     /tmp/cc5M0Oga.s:2755   .debug_str:00000000000000e9 .LASF14
     /tmp/cc5M0Oga.s:3031   .debug_str:0000000000000925 .LASF15
     /tmp/cc5M0Oga.s:2787   .debug_str:00000000000001ed .LASF16
     /tmp/cc5M0Oga.s:3021   .debug_str:00000000000008eb .LASF17
     /tmp/cc5M0Oga.s:2805   .debug_str:0000000000000296 .LASF18
     /tmp/cc5M0Oga.s:2803   .debug_str:0000000000000289 .LASF197
     /tmp/cc5M0Oga.s:3041   .debug_str:000000000000095c .LASF19
     /tmp/cc5M0Oga.s:3095   .debug_str:0000000000000b9b .LASF21
     /tmp/cc5M0Oga.s:2779   .debug_str:00000000000001a2 .LASF20
     /tmp/cc5M0Oga.s:3065   .debug_str:0000000000000aa4 .LASF22
     /tmp/cc5M0Oga.s:3039   .debug_str:000000000000094c .LASF23
     /tmp/cc5M0Oga.s:2861   .debug_str:0000000000000428 .LASF24
     /tmp/cc5M0Oga.s:2797   .debug_str:0000000000000256 .LASF27
     /tmp/cc5M0Oga.s:3125   .debug_str:0000000000000c87 .LASF29
GAS LISTING /tmp/cc5M0Oga.s 			page 15


     /tmp/cc5M0Oga.s:2827   .debug_str:0000000000000332 .LASF25
     /tmp/cc5M0Oga.s:2883   .debug_str:00000000000004ec .LASF26
     /tmp/cc5M0Oga.s:2915   .debug_str:00000000000005c1 .LASF28
     /tmp/cc5M0Oga.s:3123   .debug_str:0000000000000c6c .LASF30
     /tmp/cc5M0Oga.s:3045   .debug_str:000000000000096c .LASF31
     /tmp/cc5M0Oga.s:3107   .debug_str:0000000000000c06 .LASF32
     /tmp/cc5M0Oga.s:3071   .debug_str:0000000000000aea .LASF33
     /tmp/cc5M0Oga.s:3055   .debug_str:0000000000000a5c .LASF34
     /tmp/cc5M0Oga.s:2773   .debug_str:000000000000017e .LASF35
     /tmp/cc5M0Oga.s:2991   .debug_str:00000000000007e6 .LASF36
     /tmp/cc5M0Oga.s:2749   .debug_str:00000000000000b9 .LASF37
     /tmp/cc5M0Oga.s:2829   .debug_str:0000000000000340 .LASF38
     /tmp/cc5M0Oga.s:3115   .debug_str:0000000000000c3a .LASF39
     /tmp/cc5M0Oga.s:2739   .debug_str:0000000000000044 .LASF40
     /tmp/cc5M0Oga.s:3017   .debug_str:00000000000008d6 .LASF198
     /tmp/cc5M0Oga.s:3081   .debug_str:0000000000000b2b .LASF41
     /tmp/cc5M0Oga.s:3007   .debug_str:0000000000000877 .LASF42
     /tmp/cc5M0Oga.s:2881   .debug_str:00000000000004e6 .LASF47
     /tmp/cc5M0Oga.s:2885   .debug_str:0000000000000506 .LASF49
     /tmp/cc5M0Oga.s:3049   .debug_str:0000000000000983 .LASF51
     /tmp/cc5M0Oga.s:2875   .debug_str:00000000000004a8 .LASF43
     /tmp/cc5M0Oga.s:3109   .debug_str:0000000000000c1c .LASF44
     /tmp/cc5M0Oga.s:3113   .debug_str:0000000000000c2d .LASF45
     /tmp/cc5M0Oga.s:2791   .debug_str:000000000000021c .LASF46
     /tmp/cc5M0Oga.s:2727   .debug_str:0000000000000000 .LASF53
     /tmp/cc5M0Oga.s:2855   .debug_str:00000000000003f6 .LASF59
     /tmp/cc5M0Oga.s:2835   .debug_str:000000000000036d .LASF138
     /tmp/cc5M0Oga.s:2747   .debug_str:00000000000000a3 .LASF140
     /tmp/cc5M0Oga.s:2941   .debug_str:0000000000000675 .LASF48
     /tmp/cc5M0Oga.s:2751   .debug_str:00000000000000c5 .LASF50
     /tmp/cc5M0Oga.s:2971   .debug_str:000000000000074e .LASF52
     /tmp/cc5M0Oga.s:2765   .debug_str:0000000000000136 .LASF105
     /tmp/cc5M0Oga.s:2795   .debug_str:0000000000000249 .LASF54
     /tmp/cc5M0Oga.s:2785   .debug_str:00000000000001d4 .LASF56
     /tmp/cc5M0Oga.s:2911   .debug_str:00000000000005a9 .LASF55
     /tmp/cc5M0Oga.s:2771   .debug_str:0000000000000167 .LASF57
     /tmp/cc5M0Oga.s:3011   .debug_str:00000000000008bc .LASF58
     /tmp/cc5M0Oga.s:2873   .debug_str:000000000000048b .LASF60
     /tmp/cc5M0Oga.s:2731   .debug_str:0000000000000018 .LASF61
     /tmp/cc5M0Oga.s:3015   .debug_str:00000000000008d0 .LASF62
     /tmp/cc5M0Oga.s:3089   .debug_str:0000000000000b7e .LASF63
     /tmp/cc5M0Oga.s:2871   .debug_str:0000000000000481 .LASF64
     /tmp/cc5M0Oga.s:3111   .debug_str:0000000000000c28 .LASF65
     /tmp/cc5M0Oga.s:3019   .debug_str:00000000000008e2 .LASF66
     /tmp/cc5M0Oga.s:2939   .debug_str:000000000000066d .LASF67
     /tmp/cc5M0Oga.s:2893   .debug_str:000000000000054d .LASF68
     /tmp/cc5M0Oga.s:3097   .debug_str:0000000000000bb2 .LASF69
     /tmp/cc5M0Oga.s:2777   .debug_str:0000000000000194 .LASF70
     /tmp/cc5M0Oga.s:3059   .debug_str:0000000000000a7a .LASF71
     /tmp/cc5M0Oga.s:3005   .debug_str:0000000000000866 .LASF199
     /tmp/cc5M0Oga.s:2775   .debug_str:000000000000018b .LASF77
     /tmp/cc5M0Oga.s:2743   .debug_str:0000000000000079 .LASF79
     /tmp/cc5M0Oga.s:2847   .debug_str:00000000000003cd .LASF72
     /tmp/cc5M0Oga.s:3083   .debug_str:0000000000000b3c .LASF73
     /tmp/cc5M0Oga.s:2849   .debug_str:00000000000003dc .LASF74
     /tmp/cc5M0Oga.s:2999   .debug_str:000000000000081a .LASF75
     /tmp/cc5M0Oga.s:2889   .debug_str:000000000000052b .LASF76
GAS LISTING /tmp/cc5M0Oga.s 			page 16


     /tmp/cc5M0Oga.s:2963   .debug_str:000000000000070e .LASF78
     /tmp/cc5M0Oga.s:3099   .debug_str:0000000000000bbf .LASF80
     /tmp/cc5M0Oga.s:2901   .debug_str:000000000000057a .LASF81
     /tmp/cc5M0Oga.s:2753   .debug_str:00000000000000dd .LASF82
     /tmp/cc5M0Oga.s:2819   .debug_str:00000000000002f7 .LASF83
     /tmp/cc5M0Oga.s:3057   .debug_str:0000000000000a75 .LASF84
     /tmp/cc5M0Oga.s:3093   .debug_str:0000000000000b8c .LASF85
     /tmp/cc5M0Oga.s:3037   .debug_str:0000000000000945 .LASF86
     /tmp/cc5M0Oga.s:2867   .debug_str:000000000000045d .LASF87
     /tmp/cc5M0Oga.s:2733   .debug_str:0000000000000023 .LASF88
     /tmp/cc5M0Oga.s:3087   .debug_str:0000000000000b64 .LASF89
     /tmp/cc5M0Oga.s:3047   .debug_str:0000000000000977 .LASF90
     /tmp/cc5M0Oga.s:3035   .debug_str:0000000000000938 .LASF91
     /tmp/cc5M0Oga.s:2981   .debug_str:0000000000000794 .LASF92
     /tmp/cc5M0Oga.s:3105   .debug_str:0000000000000beb .LASF93
     /tmp/cc5M0Oga.s:2857   .debug_str:0000000000000403 .LASF94
     /tmp/cc5M0Oga.s:3067   .debug_str:0000000000000ac3 .LASF95
     /tmp/cc5M0Oga.s:2993   .debug_str:00000000000007fe .LASF96
     /tmp/cc5M0Oga.s:2783   .debug_str:00000000000001bb .LASF97
     /tmp/cc5M0Oga.s:2789   .debug_str:0000000000000203 .LASF98
     /tmp/cc5M0Oga.s:2817   .debug_str:00000000000002e0 .LASF99
     /tmp/cc5M0Oga.s:3103   .debug_str:0000000000000be2 .LASF100
     /tmp/cc5M0Oga.s:2979   .debug_str:0000000000000787 .LASF101
     /tmp/cc5M0Oga.s:2891   .debug_str:0000000000000535 .LASF102
     /tmp/cc5M0Oga.s:2821   .debug_str:000000000000030f .LASF103
     /tmp/cc5M0Oga.s:2769   .debug_str:0000000000000155 .LASF104
     /tmp/cc5M0Oga.s:2959   .debug_str:00000000000006fb .LASF106
     /tmp/cc5M0Oga.s:2843   .debug_str:00000000000003ba .LASF107
     /tmp/cc5M0Oga.s:2955   .debug_str:00000000000006df .LASF108
     /tmp/cc5M0Oga.s:2729   .debug_str:0000000000000010 .LASF109
     /tmp/cc5M0Oga.s:3117   .debug_str:0000000000000c49 .LASF110
     /tmp/cc5M0Oga.s:3025   .debug_str:000000000000090b .LASF111
     /tmp/cc5M0Oga.s:2925   .debug_str:0000000000000609 .LASF112
     /tmp/cc5M0Oga.s:2839   .debug_str:000000000000039d .LASF113
     /tmp/cc5M0Oga.s:3033   .debug_str:0000000000000931 .LASF114
     /tmp/cc5M0Oga.s:2823   .debug_str:0000000000000317 .LASF129
     /tmp/cc5M0Oga.s:3061   .debug_str:0000000000000a84 .LASF115
     /tmp/cc5M0Oga.s:2909   .debug_str:00000000000005a0 .LASF116
     /tmp/cc5M0Oga.s:3029   .debug_str:0000000000000917 .LASF117
     /tmp/cc5M0Oga.s:2903   .debug_str:000000000000057f .LASF118
     /tmp/cc5M0Oga.s:2969   .debug_str:000000000000073e .LASF119
     /tmp/cc5M0Oga.s:2947   .debug_str:00000000000006ae .LASF120
     /tmp/cc5M0Oga.s:2975   .debug_str:000000000000076a .LASF121
     /tmp/cc5M0Oga.s:2967   .debug_str:0000000000000734 .LASF122
     /tmp/cc5M0Oga.s:3013   .debug_str:00000000000008c7 .LASF123
     /tmp/cc5M0Oga.s:2831   .debug_str:0000000000000357 .LASF124
     /tmp/cc5M0Oga.s:2763   .debug_str:000000000000012b .LASF125
     /tmp/cc5M0Oga.s:2851   .debug_str:00000000000003eb .LASF126
     /tmp/cc5M0Oga.s:2905   .debug_str:000000000000058b .LASF127
     /tmp/cc5M0Oga.s:2865   .debug_str:0000000000000454 .LASF128
     /tmp/cc5M0Oga.s:3073   .debug_str:0000000000000af8 .LASF130
     /tmp/cc5M0Oga.s:2799   .debug_str:0000000000000266 .LASF131
     /tmp/cc5M0Oga.s:3051   .debug_str:000000000000098b .LASF132
     /tmp/cc5M0Oga.s:2767   .debug_str:0000000000000149 .LASF133
     /tmp/cc5M0Oga.s:3101   .debug_str:0000000000000bda .LASF134
     /tmp/cc5M0Oga.s:3077   .debug_str:0000000000000b0c .LASF135
     /tmp/cc5M0Oga.s:2833   .debug_str:0000000000000362 .LASF136
GAS LISTING /tmp/cc5M0Oga.s 			page 17


     /tmp/cc5M0Oga.s:2943   .debug_str:0000000000000682 .LASF137
     /tmp/cc5M0Oga.s:3069   .debug_str:0000000000000ae1 .LASF139
     /tmp/cc5M0Oga.s:2983   .debug_str:00000000000007a4 .LASF141
     /tmp/cc5M0Oga.s:3119   .debug_str:0000000000000c5b .LASF142
     /tmp/cc5M0Oga.s:2965   .debug_str:000000000000071e .LASF143
     /tmp/cc5M0Oga.s:2961   .debug_str:0000000000000707 .LASF144
     /tmp/cc5M0Oga.s:2935   .debug_str:000000000000064e .LASF145
     /tmp/cc5M0Oga.s:2933   .debug_str:0000000000000647 .LASF146
     /tmp/cc5M0Oga.s:2977   .debug_str:0000000000000773 .LASF147
     /tmp/cc5M0Oga.s:2921   .debug_str:00000000000005f9 .LASF148
     /tmp/cc5M0Oga.s:3001   .debug_str:0000000000000838 .LASF149
     /tmp/cc5M0Oga.s:2923   .debug_str:0000000000000601 .LASF150
     /tmp/cc5M0Oga.s:2887   .debug_str:0000000000000516 .LASF151
     /tmp/cc5M0Oga.s:2897   .debug_str:0000000000000562 .LASF152
     /tmp/cc5M0Oga.s:2919   .debug_str:00000000000005e4 .LASF153
     /tmp/cc5M0Oga.s:3121   .debug_str:0000000000000c64 .LASF154
     /tmp/cc5M0Oga.s:2917   .debug_str:00000000000005cf .LASF155
     /tmp/cc5M0Oga.s:3027   .debug_str:0000000000000910 .LASF156
     /tmp/cc5M0Oga.s:2951   .debug_str:00000000000006c4 .LASF157
     /tmp/cc5M0Oga.s:2997   .debug_str:0000000000000813 .LASF158
     /tmp/cc5M0Oga.s:2841   .debug_str:00000000000003a6 .LASF159
     /tmp/cc5M0Oga.s:2781   .debug_str:00000000000001b5 .LASF160
     /tmp/cc5M0Oga.s:2989   .debug_str:00000000000007d3 .LASF161
     /tmp/cc5M0Oga.s:2853   .debug_str:00000000000003f0 .LASF162
     /tmp/cc5M0Oga.s:2931   .debug_str:0000000000000634 .LASF163
     /tmp/cc5M0Oga.s:2737   .debug_str:0000000000000039 .LASF164
     /tmp/cc5M0Oga.s:3003   .debug_str:000000000000084d .LASF165
     /tmp/cc5M0Oga.s:2985   .debug_str:00000000000007ba .LASF166
     /tmp/cc5M0Oga.s:2927   .debug_str:000000000000060e .LASF167
     /tmp/cc5M0Oga.s:3085   .debug_str:0000000000000b5a .LASF168
     /tmp/cc5M0Oga.s:2801   .debug_str:0000000000000272 .LASF169
     /tmp/cc5M0Oga.s:3079   .debug_str:0000000000000b21 .LASF170
     /tmp/cc5M0Oga.s:2745   .debug_str:000000000000008c .LASF171
     /tmp/cc5M0Oga.s:3043   .debug_str:0000000000000967 .LASF172
     /tmp/cc5M0Oga.s:2813   .debug_str:00000000000002c4 .LASF173
     /tmp/cc5M0Oga.s:101    .text:000000000000005c .LFB36
     /tmp/cc5M0Oga.s:295    .text:00000000000001f4 .LFE36
     /tmp/cc5M0Oga.s:2653   .debug_loc:0000000000000000 .LLST0
     /tmp/cc5M0Oga.s:164    .text:000000000000010c .LBB12
     /tmp/cc5M0Oga.s:173    .text:0000000000000114 .LBE12
     /tmp/cc5M0Oga.s:2660   .debug_loc:0000000000000023 .LLST1
     /tmp/cc5M0Oga.s:2668   .debug_loc:0000000000000047 .LLST2
     /tmp/cc5M0Oga.s:175    .text:0000000000000114 .LBB14
     /tmp/cc5M0Oga.s:183    .text:000000000000011c .LBE14
     /tmp/cc5M0Oga.s:2675   .debug_loc:000000000000006a .LLST3
     /tmp/cc5M0Oga.s:2683   .debug_loc:000000000000008e .LLST4
     /tmp/cc5M0Oga.s:203    .text:0000000000000158 .LBB16
     /tmp/cc5M0Oga.s:216    .text:0000000000000160 .LBE16
     /tmp/cc5M0Oga.s:2690   .debug_loc:00000000000000b1 .LLST5
     /tmp/cc5M0Oga.s:242    .text:00000000000001ac .LBB18
     /tmp/cc5M0Oga.s:249    .text:00000000000001b0 .LBE18
     /tmp/cc5M0Oga.s:2698   .debug_loc:00000000000000d5 .LLST6
     /tmp/cc5M0Oga.s:265    .text:00000000000001cc .LBB20
     /tmp/cc5M0Oga.s:273    .text:00000000000001d0 .LBE20
     /tmp/cc5M0Oga.s:2705   .debug_loc:00000000000000f8 .LLST7
     /tmp/cc5M0Oga.s:126    .text:0000000000000090 .LVL2
     /tmp/cc5M0Oga.s:132    .text:00000000000000a0 .LVL3
GAS LISTING /tmp/cc5M0Oga.s 			page 18


     /tmp/cc5M0Oga.s:144    .text:00000000000000c8 .LVL5
     /tmp/cc5M0Oga.s:151    .text:00000000000000e4 .LVL6
     /tmp/cc5M0Oga.s:158    .text:0000000000000100 .LVL7
     /tmp/cc5M0Oga.s:189    .text:0000000000000130 .LVL11
     /tmp/cc5M0Oga.s:195    .text:0000000000000144 .LVL12
     /tmp/cc5M0Oga.s:201    .text:0000000000000158 .LVL13
     /tmp/cc5M0Oga.s:223    .text:000000000000017c .LVL15
     /tmp/cc5M0Oga.s:229    .text:0000000000000190 .LVL16
     /tmp/cc5M0Oga.s:235    .text:00000000000001a4 .LVL17
     /tmp/cc5M0Oga.s:255    .text:00000000000001bc .LVL20
     /tmp/cc5M0Oga.s:279    .text:00000000000001dc .LVL23
     /tmp/cc5M0Oga.s:2957   .debug_str:00000000000006ef .LASF174
     /tmp/cc5M0Oga.s:10     .text:0000000000000000 .LFB35
     /tmp/cc5M0Oga.s:25     .text:0000000000000010 .LFE35
     /tmp/cc5M0Oga.s:2907   .debug_str:0000000000000590 .LASF175
     /tmp/cc5M0Oga.s:3063   .debug_str:0000000000000a8e .LASF176
     /tmp/cc5M0Oga.s:31     .text:0000000000000010 .LFB34
     /tmp/cc5M0Oga.s:57     .text:0000000000000038 .LFE34
     /tmp/cc5M0Oga.s:46     .text:0000000000000028 .LVL0
     /tmp/cc5M0Oga.s:2929   .debug_str:0000000000000627 .LASF177
     /tmp/cc5M0Oga.s:63     .text:0000000000000038 .LFB33
     /tmp/cc5M0Oga.s:95     .text:000000000000005c .LFE33
     /tmp/cc5M0Oga.s:3091   .debug_str:0000000000000b87 .LASF178
     /tmp/cc5M0Oga.s:3075   .debug_str:0000000000000b07 .LASF180
     /tmp/cc5M0Oga.s:2811   .debug_str:00000000000002bf .LASF179
     /tmp/cc5M0Oga.s:3023   .debug_str:0000000000000901 .LASF181
     /tmp/cc5M0Oga.s:2937   .debug_str:0000000000000662 .LASF182
     /tmp/cc5M0Oga.s:2899   .debug_str:000000000000056a .LASF183
     /tmp/cc5M0Oga.s:2895   .debug_str:0000000000000558 .LASF185
     /tmp/cc5M0Oga.s:2793   .debug_str:0000000000000228 .LASF184
     /tmp/cc5M0Oga.s:2879   .debug_str:00000000000004c0 .LASF186
     /tmp/cc5M0Oga.s:2761   .debug_str:0000000000000118 .LASF187
     /tmp/cc5M0Oga.s:2973   .debug_str:0000000000000757 .LASF188
     /tmp/cc5M0Oga.s:3009   .debug_str:0000000000000899 .LASF189
     /tmp/cc5M0Oga.s:2863   .debug_str:0000000000000444 .LASF190
     /tmp/cc5M0Oga.s:2741   .debug_str:0000000000000064 .LASF191
     /tmp/cc5M0Oga.s:2913   .debug_str:00000000000005b4 .LASF192
     /tmp/cc5M0Oga.s:2949   .debug_str:00000000000006bb .LASF193
     /tmp/cc5M0Oga.s:142    .text:00000000000000c0 .LVL4
     /tmp/cc5M0Oga.s:163    .text:000000000000010c .LVL8
     /tmp/cc5M0Oga.s:171    .text:0000000000000114 .LVL9
     /tmp/cc5M0Oga.s:181    .text:000000000000011c .LVL10
     /tmp/cc5M0Oga.s:213    .text:0000000000000160 .LVL14
     /tmp/cc5M0Oga.s:241    .text:00000000000001ac .LVL18
     /tmp/cc5M0Oga.s:247    .text:00000000000001b0 .LVL19
     /tmp/cc5M0Oga.s:264    .text:00000000000001cc .LVL21
     /tmp/cc5M0Oga.s:271    .text:00000000000001d0 .LVL22
     /tmp/cc5M0Oga.s:311    .debug_info:0000000000000000 .Ldebug_info0

UNDEFINED SYMBOLS
_Z8userMainv
interrupt
HEAP_START_ADDR
_Z9kmem_initPvi
_ZN3PCB16createSysProcessEPFvvEPv
_ZN3PCB7runningE
_ZN3CCB9inputBodyEPv
GAS LISTING /tmp/cc5M0Oga.s 			page 19


_ZN3CCB12inputProccesE
_Z13thread_createPP3PCBPFvPvES2_
_ZN3CCB10outputBodyEPv
_ZN3CCB13outputProcessE
_ZN9Scheduler11idleProcessE
_Z18thread_create_onlyPP3PCBPFvPvES2_
_ZN3CCB8semInputE
_Z8sem_openPP3SCBj
_ZN3CCB9semOutputE
_ZN3CCB16inputBufferEmptyE
_ZN3PCB8pcbCacheE
_Z15kmem_cache_infoP12kmem_cache_s
_ZN3SCB8scbCacheE
_Z15thread_dispatchv
