GAS LISTING /tmp/ccUYfJY8.s 			page 1


   1              		.file	"main.cpp"
   2              		.option pic
   3              		.option norelax
   4              		.text
   5              	.Ltext0:
   6              		.section	.rodata.str1.8,"aMS",@progbits,1
   7              		.align	3
   8              	.LC1:
   9 0000 413A2069 		.string	"A: i="
   9      3D00
  10 0006 0000     		.align	3
  11              	.LC2:
  12 0008 0A00     		.string	"\n"
  13 000a 00000000 		.align	3
  13      0000
  14              	.LC3:
  15 0010 4E697420 		.string	"Nit broj: "
  15      62726F6A 
  15      3A2000
  16 001b 00000000 		.align	3
  16      00
  17              	.LC4:
  18 0020 41206669 		.string	"A finished!\n"
  18      6E697368 
  18      6564210A 
  18      00
  19              		.text
  20              		.align	2
  21              		.globl	_Z11workerBodyAPv
  23              	_Z11workerBodyAPv:
  24              	.LFB34:
  25              		.file 1 "src/main.cpp"
   1:src/main.cpp  **** #include "../h/hw.h"
   2:src/main.cpp  **** #include "../h/console.h"
   3:src/main.cpp  **** #include "../h/MemoryAllocator.h"
   4:src/main.cpp  **** #include "../h/syscall_c.h"
   5:src/main.cpp  **** #include "../h/print.h"
   6:src/main.cpp  **** #include "../h/PCB.h"
   7:src/main.cpp  **** #include "../h/kernel.h"
   8:src/main.cpp  **** #include "../h/syscall_cpp.h"
   9:src/main.cpp  **** #include "../h/SCB.h"
  10:src/main.cpp  **** 
  11:src/main.cpp  **** SCB* semafor;
  12:src/main.cpp  **** 
  13:src/main.cpp  **** void workerBodyA(void* arg)
  14:src/main.cpp  **** {
  26              		.loc 1 14 1
  27              		.cfi_startproc
  28              	.LVL0:
  29 0000 130101FD 		addi	sp,sp,-48
  30              		.cfi_def_cfa_offset 48
  31 0004 23341102 		sd	ra,40(sp)
  32 0008 23308102 		sd	s0,32(sp)
  33 000c 233C9100 		sd	s1,24(sp)
  34 0010 23382101 		sd	s2,16(sp)
  35 0014 23343101 		sd	s3,8(sp)
  36              		.cfi_offset 1, -8
GAS LISTING /tmp/ccUYfJY8.s 			page 2


  37              		.cfi_offset 8, -16
  38              		.cfi_offset 9, -24
  39              		.cfi_offset 18, -32
  40              		.cfi_offset 19, -40
  41 0018 13040103 		addi	s0,sp,48
  42              		.cfi_def_cfa 8, 0
  43 001c 93090500 		mv	s3,a0
  15:src/main.cpp  ****     sem_wait(semafor);
  44              		.loc 1 15 5
  45              		.loc 1 15 13 is_stmt 0
  46 0020 17050000 		ld	a0,.LANCHOR0
  46      03350500 
  47              	.LVL1:
  48 0028 97000000 		call	_Z8sem_waitP3SCB@plt
  48      E7800000 
  49              	.LVL2:
  16:src/main.cpp  **** 
  17:src/main.cpp  ****     for (uint64 i = 0; i < 3; i++) {
  50              		.loc 1 17 5 is_stmt 1
  51              	.LBB14:
  52              		.loc 1 17 17 is_stmt 0
  53 0030 13090000 		li	s2,0
  54 0034 6F008003 		j	.L7
  55              	.LVL3:
  56              	.L4:
  57              	.LBB15:
  58              	.LBB16:
  59              	.LBB17:
  18:src/main.cpp  ****         printString("A: i="); printInteger(i); printString("\n");
  19:src/main.cpp  ****         printString("Nit broj: ");
  20:src/main.cpp  ****         printInteger(*(int*)arg);
  21:src/main.cpp  ****         printString("\n");
  22:src/main.cpp  ****         for (uint64 j = 0; j < 10000; j++) {
  23:src/main.cpp  ****             for (uint64 k = 0; k < 30000; k++) { /* busy wait */ }
  24:src/main.cpp  ****             thread_dispatch();
  60              		.loc 1 24 13 is_stmt 1 discriminator 2
  61              		.loc 1 24 28 is_stmt 0 discriminator 2
  62 0038 97000000 		call	_Z15thread_dispatchv@plt
  62      E7800000 
  63              	.LVL4:
  64              	.LBE17:
  22:src/main.cpp  ****             for (uint64 k = 0; k < 30000; k++) { /* busy wait */ }
  65              		.loc 1 22 9 is_stmt 1 discriminator 2
  66 0040 93841400 		addi	s1,s1,1
  67              	.LVL5:
  68              	.L6:
  22:src/main.cpp  ****             for (uint64 k = 0; k < 30000; k++) { /* busy wait */ }
  69              		.loc 1 22 30 discriminator 1
  70 0044 B7270000 		li	a5,8192
  71 0048 9387F770 		addi	a5,a5,1807
  72 004c 63EE9700 		bgtu	s1,a5,.L3
  73              	.LBB19:
  74              	.LBB18:
  23:src/main.cpp  ****             thread_dispatch();
  75              		.loc 1 23 25 is_stmt 0
  76 0050 13070000 		li	a4,0
  77              	.L5:
GAS LISTING /tmp/ccUYfJY8.s 			page 3


  78              	.LVL6:
  23:src/main.cpp  ****             thread_dispatch();
  79              		.loc 1 23 34 is_stmt 1 discriminator 3
  80 0054 B7770000 		li	a5,28672
  81 0058 9387F752 		addi	a5,a5,1327
  82 005c E3EEE7FC 		bgtu	a4,a5,.L4
  23:src/main.cpp  ****             thread_dispatch();
  83              		.loc 1 23 13 discriminator 2
  84 0060 13071700 		addi	a4,a4,1
  85              	.LVL7:
  86 0064 6FF01FFF 		j	.L5
  87              	.LVL8:
  88              	.L3:
  89              	.LBE18:
  90              	.LBE19:
  91              	.LBE16:
  92              	.LBE15:
  17:src/main.cpp  ****         printString("A: i="); printInteger(i); printString("\n");
  93              		.loc 1 17 5 discriminator 2
  94 0068 13091900 		addi	s2,s2,1
  95              	.LVL9:
  96              	.L7:
  17:src/main.cpp  ****         printString("A: i="); printInteger(i); printString("\n");
  97              		.loc 1 17 26 discriminator 1
  98 006c 93072000 		li	a5,2
  99 0070 63E22707 		bgtu	s2,a5,.L2
 100              	.LBB21:
  18:src/main.cpp  ****         printString("Nit broj: ");
 101              		.loc 1 18 9
  18:src/main.cpp  ****         printString("Nit broj: ");
 102              		.loc 1 18 20 is_stmt 0
 103 0074 17050000 		lla	a0,.LC1
 103      13050500 
 104 007c 97000000 		call	_Z11printStringPKc@plt
 104      E7800000 
 105              	.LVL10:
  18:src/main.cpp  ****         printString("Nit broj: ");
 106              		.loc 1 18 31 is_stmt 1
  18:src/main.cpp  ****         printString("Nit broj: ");
 107              		.loc 1 18 43 is_stmt 0
 108 0084 13050900 		mv	a0,s2
 109 0088 97000000 		call	_Z12printIntegerm@plt
 109      E7800000 
 110              	.LVL11:
  18:src/main.cpp  ****         printString("Nit broj: ");
 111              		.loc 1 18 48 is_stmt 1
  18:src/main.cpp  ****         printString("Nit broj: ");
 112              		.loc 1 18 59 is_stmt 0
 113 0090 17050000 		lla	a0,.LC2
 113      13050500 
 114 0098 97000000 		call	_Z11printStringPKc@plt
 114      E7800000 
 115              	.LVL12:
  19:src/main.cpp  ****         printInteger(*(int*)arg);
 116              		.loc 1 19 9 is_stmt 1
  19:src/main.cpp  ****         printInteger(*(int*)arg);
 117              		.loc 1 19 20 is_stmt 0
GAS LISTING /tmp/ccUYfJY8.s 			page 4


 118 00a0 17050000 		lla	a0,.LC3
 118      13050500 
 119 00a8 97000000 		call	_Z11printStringPKc@plt
 119      E7800000 
 120              	.LVL13:
  20:src/main.cpp  ****         printString("\n");
 121              		.loc 1 20 9 is_stmt 1
  20:src/main.cpp  ****         printString("\n");
 122              		.loc 1 20 21 is_stmt 0
 123 00b0 03A50900 		lw	a0,0(s3)
 124 00b4 97000000 		call	_Z12printIntegerm@plt
 124      E7800000 
 125              	.LVL14:
  21:src/main.cpp  ****         for (uint64 j = 0; j < 10000; j++) {
 126              		.loc 1 21 9 is_stmt 1
  21:src/main.cpp  ****         for (uint64 j = 0; j < 10000; j++) {
 127              		.loc 1 21 20 is_stmt 0
 128 00bc 17050000 		lla	a0,.LC2
 128      13050500 
 129 00c4 97000000 		call	_Z11printStringPKc@plt
 129      E7800000 
 130              	.LVL15:
  22:src/main.cpp  ****             for (uint64 k = 0; k < 30000; k++) { /* busy wait */ }
 131              		.loc 1 22 9 is_stmt 1
 132              	.LBB20:
  22:src/main.cpp  ****             for (uint64 k = 0; k < 30000; k++) { /* busy wait */ }
 133              		.loc 1 22 21 is_stmt 0
 134 00cc 93040000 		li	s1,0
 135 00d0 6FF05FF7 		j	.L6
 136              	.LVL16:
 137              	.L2:
 138              	.LBE20:
 139              	.LBE21:
 140              	.LBE14:
  25:src/main.cpp  ****         }
  26:src/main.cpp  ****     }
  27:src/main.cpp  ****     printString("A finished!\n");
 141              		.loc 1 27 5 is_stmt 1
 142              		.loc 1 27 16 is_stmt 0
 143 00d4 17050000 		lla	a0,.LC4
 143      13050500 
 144 00dc 97000000 		call	_Z11printStringPKc@plt
 144      E7800000 
 145              	.LVL17:
  28:src/main.cpp  ****     sem_signal(semafor);
 146              		.loc 1 28 5 is_stmt 1
 147              		.loc 1 28 15 is_stmt 0
 148 00e4 17050000 		ld	a0,.LANCHOR0
 148      03350500 
 149 00ec 97000000 		call	_Z10sem_signalP3SCB@plt
 149      E7800000 
 150              	.LVL18:
  29:src/main.cpp  **** }
 151              		.loc 1 29 1
 152 00f4 83308102 		ld	ra,40(sp)
 153              		.cfi_restore 1
 154 00f8 03340102 		ld	s0,32(sp)
GAS LISTING /tmp/ccUYfJY8.s 			page 5


 155              		.cfi_restore 8
 156              		.cfi_def_cfa 2, 48
 157 00fc 83348101 		ld	s1,24(sp)
 158              		.cfi_restore 9
 159 0100 03390101 		ld	s2,16(sp)
 160              		.cfi_restore 18
 161              	.LVL19:
 162 0104 83398100 		ld	s3,8(sp)
 163              		.cfi_restore 19
 164              	.LVL20:
 165 0108 13010103 		addi	sp,sp,48
 166              		.cfi_def_cfa_offset 0
 167 010c 67800000 		jr	ra
 168              		.cfi_endproc
 169              	.LFE34:
 171              		.align	2
 172              		.globl	main
 174              	main:
 175              	.LFB35:
  30:src/main.cpp  **** 
  31:src/main.cpp  **** extern "C" void interrupt();
  32:src/main.cpp  **** int main() {
 176              		.loc 1 32 12 is_stmt 1
 177              		.cfi_startproc
 178 0110 130101FB 		addi	sp,sp,-80
 179              		.cfi_def_cfa_offset 80
 180 0114 23341104 		sd	ra,72(sp)
 181 0118 23308104 		sd	s0,64(sp)
 182 011c 233C9102 		sd	s1,56(sp)
 183 0120 23382103 		sd	s2,48(sp)
 184              		.cfi_offset 1, -8
 185              		.cfi_offset 8, -16
 186              		.cfi_offset 9, -24
 187              		.cfi_offset 18, -32
 188 0124 13040105 		addi	s0,sp,80
 189              		.cfi_def_cfa 8, 0
  33:src/main.cpp  ****     asm volatile("csrw stvec, %0" : : "r" (&interrupt));
 190              		.loc 1 33 5
 191              		.loc 1 33 56 is_stmt 0
 192 0128 97070000 		la	a5,interrupt
 192      83B70700 
 193              	#APP
 194              	# 33 "src/main.cpp" 1
  34              	    PCB* main = PCB::createProccess(nullptr, nullptr); // main
 195              		csrw stvec, a5
 196              	# 0 "" 2
 197              		.loc 1 34 5 is_stmt 1
 198              		.loc 1 34 36 is_stmt 0
 199              	#NO_APP
 200 0134 93050000 		li	a1,0
 201 0138 13050000 		li	a0,0
 202 013c 97000000 		call	_ZN3PCB14createProccessEPFvvEPv@plt
 202      E7800000 
 203              	.LVL21:
  35:src/main.cpp  ****     PCB::running = main;
 204              		.loc 1 35 5 is_stmt 1
 205              		.loc 1 35 18 is_stmt 0
GAS LISTING /tmp/ccUYfJY8.s 			page 6


 206 0144 97070000 		la	a5,_ZN3PCB7runningE
 206      83B70700 
 207 014c 23B0A700 		sd	a0,0(a5)
  36:src/main.cpp  ****     Kernel::ms_sstatus(Kernel::SSTATUS_SIE); // dozvoljavaju se prekidi
 208              		.loc 1 36 5 is_stmt 1
 209              	.LVL22:
 210              	.LBB22:
 211              	.LBB23:
 212              		.file 2 "src/../h/kernel.h"
   1:src/../h/kernel.h **** #ifndef KERNEL_H
   2:src/../h/kernel.h **** #define KERNEL_H
   3:src/../h/kernel.h **** 
   4:src/../h/kernel.h **** #include "hw.h"
   5:src/../h/kernel.h **** 
   6:src/../h/kernel.h **** class Kernel {
   7:src/../h/kernel.h **** public:
   8:src/../h/kernel.h **** 
   9:src/../h/kernel.h ****     // postavlja code u registar a0
  10:src/../h/kernel.h ****     static size_t setCode(size_t code) {
  11:src/../h/kernel.h ****         return code;
  12:src/../h/kernel.h ****     }
  13:src/../h/kernel.h **** 
  14:src/../h/kernel.h ****     // kodovi po kojima se prepoznaju sistemski pozivi
  15:src/../h/kernel.h ****     enum sysCallCodes {
  16:src/../h/kernel.h ****         mem_alloc = 0x01,
  17:src/../h/kernel.h ****         mem_free = 0x02,
  18:src/../h/kernel.h ****         thread_create = 0x11,
  19:src/../h/kernel.h ****         thread_exit = 0x12,
  20:src/../h/kernel.h ****         thread_dispatch = 0x13,
  21:src/../h/kernel.h ****         thread_start = 0x14,
  22:src/../h/kernel.h ****         sem_open = 0x21,
  23:src/../h/kernel.h ****         sem_close = 0x22,
  24:src/../h/kernel.h ****         sem_wait = 0x23,
  25:src/../h/kernel.h ****         sem_signal = 0x24,
  26:src/../h/kernel.h ****         tim_sleep = 0x31,
  27:src/../h/kernel.h ****         getc = 0x41,
  28:src/../h/kernel.h ****         putc = 0x42
  29:src/../h/kernel.h ****     };
  30:src/../h/kernel.h **** 
  31:src/../h/kernel.h ****     // pop sstatus.spp and sstatus.spie bits (has to be a non inline function)
  32:src/../h/kernel.h ****     static void popSppSpie();
  33:src/../h/kernel.h **** 
  34:src/../h/kernel.h ****     // cita registar scause (uzrok nastanka prekida)
  35:src/../h/kernel.h ****     static size_t r_scause() {
  36:src/../h/kernel.h ****         size_t volatile scause;
  37:src/../h/kernel.h ****         __asm__ volatile ("csrr %[scause], scause" : [scause] "=r"(scause));
  38:src/../h/kernel.h ****         return scause;
  39:src/../h/kernel.h ****     }
  40:src/../h/kernel.h **** 
  41:src/../h/kernel.h ****     // upisuje u registar scause (uzrok nastanka prekida)
  42:src/../h/kernel.h ****     static void w_scause(size_t scause) {
  43:src/../h/kernel.h ****         __asm__ volatile ("csrw scause, %[scause]" : : [scause] "r"(scause));
  44:src/../h/kernel.h ****     }
  45:src/../h/kernel.h **** 
  46:src/../h/kernel.h ****     // cita registar sepc
  47:src/../h/kernel.h ****     static size_t r_sepc() {
  48:src/../h/kernel.h ****         size_t volatile sepc;
GAS LISTING /tmp/ccUYfJY8.s 			page 7


  49:src/../h/kernel.h ****         __asm__ volatile ("csrr %[sepc], sepc" : [sepc] "=r"(sepc));
  50:src/../h/kernel.h ****         return sepc;
  51:src/../h/kernel.h ****     }
  52:src/../h/kernel.h **** 
  53:src/../h/kernel.h ****     // upisuje u registar sepc
  54:src/../h/kernel.h ****     static void w_sepc(size_t sepc) {
  55:src/../h/kernel.h ****         __asm__ volatile ("csrw sepc, %[sepc]" : : [sepc] "r"(sepc));
  56:src/../h/kernel.h ****     }
  57:src/../h/kernel.h **** 
  58:src/../h/kernel.h ****     // read register stvec
  59:src/../h/kernel.h ****     static size_t r_stvec() {
  60:src/../h/kernel.h ****         size_t volatile stvec;
  61:src/../h/kernel.h ****         __asm__ volatile ("csrr %[stvec], stvec" : [stvec] "=r"(stvec));
  62:src/../h/kernel.h ****         return stvec;
  63:src/../h/kernel.h ****     }
  64:src/../h/kernel.h **** 
  65:src/../h/kernel.h ****     // write register stvec
  66:src/../h/kernel.h ****     static void w_stvec(size_t stvec) {
  67:src/../h/kernel.h ****         __asm__ volatile ("csrw stvec, %[stvec]" : : [stvec] "r"(stvec));
  68:src/../h/kernel.h ****     }
  69:src/../h/kernel.h **** 
  70:src/../h/kernel.h ****     // read register stval
  71:src/../h/kernel.h ****     static size_t r_stval() {
  72:src/../h/kernel.h ****         size_t volatile stval;
  73:src/../h/kernel.h ****         __asm__ volatile ("csrr %[stval], stval" : [stval] "=r"(stval));
  74:src/../h/kernel.h ****         return stval;
  75:src/../h/kernel.h ****     }
  76:src/../h/kernel.h **** 
  77:src/../h/kernel.h ****     // write register stval
  78:src/../h/kernel.h ****     static void w_stval(size_t stval) {
  79:src/../h/kernel.h ****         __asm__ volatile ("csrw stval, %[stval]" : : [stval] "r"(stval));
  80:src/../h/kernel.h ****     }
  81:src/../h/kernel.h **** 
  82:src/../h/kernel.h ****     enum BitMaskSip
  83:src/../h/kernel.h ****     {
  84:src/../h/kernel.h ****         SIP_SSIE = (1 << 1), // da li su dozvoljeni softverski prekidi
  85:src/../h/kernel.h ****         SIP_SEIE = (1 << 9), // da li su dozvoljeni spoljasnji hardverski prekidi
  86:src/../h/kernel.h ****     };
  87:src/../h/kernel.h **** 
  88:src/../h/kernel.h ****     // postavljanje odredjenih bitova (BitMaskSip) u registar sip
  89:src/../h/kernel.h ****     static void ms_sip(size_t mask) {
  90:src/../h/kernel.h ****         __asm__ volatile ("csrs sip, %[mask]" : : [mask] "r"(mask));
  91:src/../h/kernel.h ****     }
  92:src/../h/kernel.h **** 
  93:src/../h/kernel.h ****     // brisanje odredjenih bitova (BitMaskSip) iz registra sip
  94:src/../h/kernel.h ****     static void mc_sip(size_t mask) {
  95:src/../h/kernel.h ****         __asm__ volatile ("csrc sip, %[mask]" : : [mask] "r"(mask));
  96:src/../h/kernel.h ****     }
  97:src/../h/kernel.h **** 
  98:src/../h/kernel.h ****     // citanje iz registra sip
  99:src/../h/kernel.h ****     static size_t r_sip() {
 100:src/../h/kernel.h ****         size_t volatile sip;
 101:src/../h/kernel.h ****         __asm__ volatile ("csrr %[sip], sip" : [sip] "=r"(sip));
 102:src/../h/kernel.h ****         return sip;
 103:src/../h/kernel.h ****     }
 104:src/../h/kernel.h **** 
 105:src/../h/kernel.h ****     // upis u registar sip
GAS LISTING /tmp/ccUYfJY8.s 			page 8


 106:src/../h/kernel.h ****     static void w_sip(size_t sip) {
 107:src/../h/kernel.h ****         __asm__ volatile ("csrw sip, %[sip]" : : [sip] "r"(sip));
 108:src/../h/kernel.h ****     }
 109:src/../h/kernel.h **** 
 110:src/../h/kernel.h ****     enum BitMaskSstatus
 111:src/../h/kernel.h ****     {
 112:src/../h/kernel.h ****         SSTATUS_SIE = (1 << 1),
 113:src/../h/kernel.h ****         SSTATUS_SPIE = (1 << 5),
 114:src/../h/kernel.h ****         SSTATUS_SPP = (1 << 8),
 115:src/../h/kernel.h ****     };
 116:src/../h/kernel.h **** 
 117:src/../h/kernel.h ****     // mask set register sstatus
 118:src/../h/kernel.h ****     static void ms_sstatus(size_t mask) {
 119:src/../h/kernel.h ****         __asm__ volatile ("csrs sstatus, %[mask]" : : [mask] "r"(mask));
 213              		.loc 2 119 9
 214              		.loc 2 119 72 is_stmt 0
 215 0150 93072000 		li	a5,2
 216              	#APP
 217              	# 119 "src/../h/kernel.h" 1
 120              	    }
 218              		csrs sstatus, a5
 219              	# 0 "" 2
 220              	.LVL23:
 221              	#NO_APP
 222              	.LBE23:
 223              	.LBE22:
  37:src/main.cpp  **** 
  38:src/main.cpp  ****     sem_open(&semafor, 1);
 224              		.loc 1 38 5 is_stmt 1
 225              		.loc 1 38 13 is_stmt 0
 226 0158 93051000 		li	a1,1
 227 015c 17050000 		lla	a0,.LANCHOR0
 227      13050500 
 228              	.LVL24:
 229 0164 97000000 		call	_Z8sem_openPP3SCBj@plt
 229      E7800000 
 230              	.LVL25:
  39:src/main.cpp  ****     PCB* procesi[4];
 231              		.loc 1 39 5 is_stmt 1
  40:src/main.cpp  ****     int niz[4] = {0,1,2,3};
 232              		.loc 1 40 5
 233              		.loc 1 40 9 is_stmt 0
 234 016c 97070000 		lla	a5,.LANCHOR1
 234      93870700 
 235 0174 03B70700 		ld	a4,0(a5)
 236 0178 2338E4FA 		sd	a4,-80(s0)
 237 017c 83B78700 		ld	a5,8(a5)
 238 0180 233CF4FA 		sd	a5,-72(s0)
  41:src/main.cpp  ****     for(int i = 0; i < 4; i++) {
 239              		.loc 1 41 5 is_stmt 1
 240              	.LVL26:
 241              	.LBB24:
 242              		.loc 1 41 13 is_stmt 0
 243 0184 93040000 		li	s1,0
 244              	.LVL27:
 245              	.L11:
 246              		.loc 1 41 22 is_stmt 1 discriminator 1
GAS LISTING /tmp/ccUYfJY8.s 			page 9


 247 0188 93073000 		li	a5,3
 248 018c 63CE9702 		bgt	s1,a5,.L10
  42:src/main.cpp  ****         thread_create(&procesi[i], workerBodyA, &niz[i]);
 249              		.loc 1 42 9
 250              		.loc 1 42 49 is_stmt 0
 251 0190 13972400 		slli	a4,s1,2
 252              		.loc 1 42 22
 253 0194 93973400 		slli	a5,s1,3
 254 0198 130604FB 		addi	a2,s0,-80
 255 019c 3306E600 		add	a2,a2,a4
 256 01a0 97050000 		lla	a1,_Z11workerBodyAPv
 256      93850500 
 257 01a8 130504FC 		addi	a0,s0,-64
 258 01ac 3305F500 		add	a0,a0,a5
 259 01b0 97000000 		call	_Z13thread_createPP3PCBPFvPvES2_@plt
 259      E7800000 
 260              	.LVL28:
  41:src/main.cpp  ****     for(int i = 0; i < 4; i++) {
 261              		.loc 1 41 5 is_stmt 1
 262 01b8 9B841400 		addiw	s1,s1,1
 263              	.LVL29:
 264 01bc 6FF0DFFC 		j	.L11
 265              	.LVL30:
 266              	.L12:
 267              	.LBE24:
  43:src/main.cpp  ****     }
  44:src/main.cpp  **** 
  45:src/main.cpp  ****     while(!procesi[0]->isFinished() || !procesi[1]->isFinished() || !procesi[2]->isFinished() || !p
  46:src/main.cpp  ****         Thread::dispatch();
 268              		.loc 1 46 9 discriminator 7
 269              		.loc 1 46 25 is_stmt 0 discriminator 7
 270 01c0 97000000 		call	_ZN6Thread8dispatchEv@plt
 270      E7800000 
 271              	.LVL31:
 272              	.L10:
  45:src/main.cpp  ****         Thread::dispatch();
 273              		.loc 1 45 5 is_stmt 1
  45:src/main.cpp  ****         Thread::dispatch();
 274              		.loc 1 45 95
  45:src/main.cpp  ****         Thread::dispatch();
 275              		.loc 1 45 21 is_stmt 0
 276 01c8 833704FC 		ld	a5,-64(s0)
 277              	.LVL32:
 278              	.LBB25:
 279              	.LBB26:
 280              		.file 3 "src/../h/PCB.h"
   1:src/../h/PCB.h **** #ifndef PCB_H
   2:src/../h/PCB.h **** #define PCB_H
   3:src/../h/PCB.h **** 
   4:src/../h/PCB.h **** #include "hw.h"
   5:src/../h/PCB.h **** 
   6:src/../h/PCB.h **** extern "C" void interruptHandler();
   7:src/../h/PCB.h **** 
   8:src/../h/PCB.h **** class PCB {
   9:src/../h/PCB.h **** friend class Scheduler;
  10:src/../h/PCB.h **** friend class SCB;
  11:src/../h/PCB.h **** friend void interruptHandler();
GAS LISTING /tmp/ccUYfJY8.s 			page 10


  12:src/../h/PCB.h **** friend class Kernel;
  13:src/../h/PCB.h **** public:
  14:src/../h/PCB.h ****     // vraca true ako se proces zavrsio, false ako nije
  15:src/../h/PCB.h ****     bool isFinished() const {
  16:src/../h/PCB.h ****         return finished;
 281              		.loc 3 16 9 is_stmt 1
 282              		.loc 3 16 16 is_stmt 0
 283 01cc 83C78702 		lbu	a5,40(a5)
 284              	.LVL33:
 285              	.LBE26:
 286              	.LBE25:
  45:src/main.cpp  ****         Thread::dispatch();
 287              		.loc 1 45 95
 288 01d0 E38807FE 		beqz	a5,.L12
  45:src/main.cpp  ****         Thread::dispatch();
 289              		.loc 1 45 50 discriminator 2
 290 01d4 833784FC 		ld	a5,-56(s0)
 291              	.LVL34:
 292              	.LBB27:
 293              	.LBB28:
 294              		.loc 3 16 9 is_stmt 1 discriminator 2
 295              		.loc 3 16 16 is_stmt 0 discriminator 2
 296 01d8 83C78702 		lbu	a5,40(a5)
 297              	.LVL35:
 298              	.LBE28:
 299              	.LBE27:
  45:src/main.cpp  ****         Thread::dispatch();
 300              		.loc 1 45 37 discriminator 2
 301 01dc E38207FE 		beqz	a5,.L12
  45:src/main.cpp  ****         Thread::dispatch();
 302              		.loc 1 45 79 discriminator 4
 303 01e0 833704FD 		ld	a5,-48(s0)
 304              	.LVL36:
 305              	.LBB29:
 306              	.LBB30:
 307              		.loc 3 16 9 is_stmt 1 discriminator 4
 308              		.loc 3 16 16 is_stmt 0 discriminator 4
 309 01e4 83C78702 		lbu	a5,40(a5)
 310              	.LVL37:
 311              	.LBE30:
 312              	.LBE29:
  45:src/main.cpp  ****         Thread::dispatch();
 313              		.loc 1 45 66 discriminator 4
 314 01e8 E38C07FC 		beqz	a5,.L12
  45:src/main.cpp  ****         Thread::dispatch();
 315              		.loc 1 45 108 discriminator 6
 316 01ec 833784FD 		ld	a5,-40(s0)
 317              	.LVL38:
 318              	.LBB31:
 319              	.LBB32:
 320              		.loc 3 16 9 is_stmt 1 discriminator 6
 321              		.loc 3 16 16 is_stmt 0 discriminator 6
 322 01f0 83C78702 		lbu	a5,40(a5)
 323              	.LVL39:
 324              	.LBE32:
 325              	.LBE31:
  45:src/main.cpp  ****         Thread::dispatch();
GAS LISTING /tmp/ccUYfJY8.s 			page 11


 326              		.loc 1 45 95 discriminator 6
 327 01f4 E38607FC 		beqz	a5,.L12
 328 01f8 930404FC 		addi	s1,s0,-64
 329              	.LVL40:
 330 01fc 6F008000 		j	.L13
 331              	.LVL41:
 332              	.L15:
 333              	.LBB33:
  47:src/main.cpp  ****     }
  48:src/main.cpp  **** 
  49:src/main.cpp  ****     for(auto& proces : procesi) {
 334              		.loc 1 49 5 is_stmt 1 discriminator 3
 335 0200 93848400 		addi	s1,s1,8
 336              	.LVL42:
 337              	.L13:
 338              		.loc 1 49 24 discriminator 1
 339 0204 930704FE 		addi	a5,s0,-32
 340 0208 6384F402 		beq	s1,a5,.L14
 341              	.LVL43:
  50:src/main.cpp  ****         delete proces;
 342              		.loc 1 50 9 discriminator 2
 343              		.loc 1 50 16 is_stmt 0 discriminator 2
 344 020c 03B90400 		ld	s2,0(s1)
 345              		.loc 1 50 22 discriminator 2
 346 0210 E30809FE 		beqz	s2,.L15
 347              		.loc 1 50 16 discriminator 1
 348 0214 13050900 		mv	a0,s2
 349 0218 97000000 		call	_ZN3PCBD1Ev@plt
 349      E7800000 
 350              	.LVL44:
 351 0220 13050900 		mv	a0,s2
 352 0224 97000000 		call	_ZN3PCBdlEPv@plt
 352      E7800000 
 353              	.LVL45:
 354 022c 6FF05FFD 		j	.L15
 355              	.LVL46:
 356              	.L14:
 357              	.LBE33:
  51:src/main.cpp  ****     }
  52:src/main.cpp  **** 
  53:src/main.cpp  ****     return 0;
 358              		.loc 1 53 5 is_stmt 1
  54:src/main.cpp  **** }...
 359              		.loc 1 54 1 is_stmt 0
 360 0230 13050000 		li	a0,0
 361 0234 83308104 		ld	ra,72(sp)
 362              		.cfi_restore 1
 363 0238 03340104 		ld	s0,64(sp)
 364              		.cfi_restore 8
 365              		.cfi_def_cfa 2, 80
 366 023c 83348103 		ld	s1,56(sp)
 367              		.cfi_restore 9
 368              	.LVL47:
 369 0240 03390103 		ld	s2,48(sp)
 370              		.cfi_restore 18
 371 0244 13010105 		addi	sp,sp,80
 372              		.cfi_def_cfa_offset 0
GAS LISTING /tmp/ccUYfJY8.s 			page 12


 373 0248 67800000 		jr	ra
 374              		.cfi_endproc
 375              	.LFE35:
 377              		.globl	semafor
 378              		.section	.rodata
 379              		.align	3
 380              		.set	.LANCHOR1,. + 0
 381              	.LC0:
 382 0000 00000000 		.word	0
 383 0004 01000000 		.word	1
 384 0008 02000000 		.word	2
 385 000c 03000000 		.word	3
 386              		.bss
 387              		.align	3
 388              		.set	.LANCHOR0,. + 0
 391              	semafor:
 392 0000 00000000 		.zero	8
 392      00000000 
 393              		.text
 394              	.Letext0:
 395              		.file 4 "src/../h/hw.h"
 396              		.file 5 "src/../h/SCB.h"
 397              		.file 6 "src/../h/syscall_c.h"
 398              		.file 7 "src/../h/print.h"
GAS LISTING /tmp/ccUYfJY8.s 			page 13


DEFINED SYMBOLS
                            *ABS*:0000000000000000 main.cpp
     /tmp/ccUYfJY8.s:23     .text:0000000000000000 _Z11workerBodyAPv
     /tmp/ccUYfJY8.s:27     .text:0000000000000000 .L0 
     /tmp/ccUYfJY8.s:29     .text:0000000000000000 .L0 
     /tmp/ccUYfJY8.s:30     .text:0000000000000004 .L0 
     /tmp/ccUYfJY8.s:36     .text:0000000000000018 .L0 
     /tmp/ccUYfJY8.s:37     .text:0000000000000018 .L0 
     /tmp/ccUYfJY8.s:38     .text:0000000000000018 .L0 
     /tmp/ccUYfJY8.s:39     .text:0000000000000018 .L0 
     /tmp/ccUYfJY8.s:40     .text:0000000000000018 .L0 
     /tmp/ccUYfJY8.s:42     .text:000000000000001c .L0 
     /tmp/ccUYfJY8.s:45     .text:0000000000000020 .L0 
     /tmp/ccUYfJY8.s:46     .text:0000000000000020 .L0 
     /tmp/ccUYfJY8.s:52     .text:0000000000000030 .L0 
     /tmp/ccUYfJY8.s:53     .text:0000000000000030 .L0 
     /tmp/ccUYfJY8.s:61     .text:0000000000000038 .L0 
     /tmp/ccUYfJY8.s:62     .text:0000000000000038 .L0 
     /tmp/ccUYfJY8.s:66     .text:0000000000000040 .L0 
     /tmp/ccUYfJY8.s:70     .text:0000000000000044 .L0 
     /tmp/ccUYfJY8.s:76     .text:0000000000000050 .L0 
     /tmp/ccUYfJY8.s:80     .text:0000000000000054 .L0 
     /tmp/ccUYfJY8.s:84     .text:0000000000000060 .L0 
     /tmp/ccUYfJY8.s:94     .text:0000000000000068 .L0 
     /tmp/ccUYfJY8.s:98     .text:000000000000006c .L0 
     /tmp/ccUYfJY8.s:102    .text:0000000000000074 .L0 
     /tmp/ccUYfJY8.s:103    .text:0000000000000074 .L0 
     /tmp/ccUYfJY8.s:107    .text:0000000000000084 .L0 
     /tmp/ccUYfJY8.s:108    .text:0000000000000084 .L0 
     /tmp/ccUYfJY8.s:112    .text:0000000000000090 .L0 
     /tmp/ccUYfJY8.s:113    .text:0000000000000090 .L0 
     /tmp/ccUYfJY8.s:117    .text:00000000000000a0 .L0 
     /tmp/ccUYfJY8.s:118    .text:00000000000000a0 .L0 
     /tmp/ccUYfJY8.s:122    .text:00000000000000b0 .L0 
     /tmp/ccUYfJY8.s:123    .text:00000000000000b0 .L0 
     /tmp/ccUYfJY8.s:127    .text:00000000000000bc .L0 
     /tmp/ccUYfJY8.s:128    .text:00000000000000bc .L0 
     /tmp/ccUYfJY8.s:133    .text:00000000000000cc .L0 
     /tmp/ccUYfJY8.s:134    .text:00000000000000cc .L0 
     /tmp/ccUYfJY8.s:142    .text:00000000000000d4 .L0 
     /tmp/ccUYfJY8.s:143    .text:00000000000000d4 .L0 
     /tmp/ccUYfJY8.s:147    .text:00000000000000e4 .L0 
     /tmp/ccUYfJY8.s:148    .text:00000000000000e4 .L0 
     /tmp/ccUYfJY8.s:152    .text:00000000000000f4 .L0 
     /tmp/ccUYfJY8.s:153    .text:00000000000000f8 .L0 
     /tmp/ccUYfJY8.s:155    .text:00000000000000fc .L0 
     /tmp/ccUYfJY8.s:156    .text:00000000000000fc .L0 
     /tmp/ccUYfJY8.s:158    .text:0000000000000100 .L0 
     /tmp/ccUYfJY8.s:160    .text:0000000000000104 .L0 
     /tmp/ccUYfJY8.s:163    .text:0000000000000108 .L0 
     /tmp/ccUYfJY8.s:166    .text:000000000000010c .L0 
     /tmp/ccUYfJY8.s:168    .text:0000000000000110 .L0 
     /tmp/ccUYfJY8.s:174    .text:0000000000000110 main
     /tmp/ccUYfJY8.s:177    .text:0000000000000110 .L0 
     /tmp/ccUYfJY8.s:178    .text:0000000000000110 .L0 
     /tmp/ccUYfJY8.s:179    .text:0000000000000114 .L0 
     /tmp/ccUYfJY8.s:184    .text:0000000000000124 .L0 
GAS LISTING /tmp/ccUYfJY8.s 			page 14


     /tmp/ccUYfJY8.s:185    .text:0000000000000124 .L0 
     /tmp/ccUYfJY8.s:186    .text:0000000000000124 .L0 
     /tmp/ccUYfJY8.s:187    .text:0000000000000124 .L0 
     /tmp/ccUYfJY8.s:189    .text:0000000000000128 .L0 
     /tmp/ccUYfJY8.s:191    .text:0000000000000128 .L0 
     /tmp/ccUYfJY8.s:192    .text:0000000000000128 .L0 
     /tmp/ccUYfJY8.s:198    .text:0000000000000134 .L0 
     /tmp/ccUYfJY8.s:200    .text:0000000000000134 .L0 
     /tmp/ccUYfJY8.s:205    .text:0000000000000144 .L0 
     /tmp/ccUYfJY8.s:206    .text:0000000000000144 .L0 
     /tmp/ccUYfJY8.s:213    .text:0000000000000150 .L0 
     /tmp/ccUYfJY8.s:214    .text:0000000000000150 .L0 
     /tmp/ccUYfJY8.s:215    .text:0000000000000150 .L0 
     /tmp/ccUYfJY8.s:225    .text:0000000000000158 .L0 
     /tmp/ccUYfJY8.s:226    .text:0000000000000158 .L0 
     /tmp/ccUYfJY8.s:232    .text:000000000000016c .L0 
     /tmp/ccUYfJY8.s:233    .text:000000000000016c .L0 
     /tmp/ccUYfJY8.s:234    .text:000000000000016c .L0 
     /tmp/ccUYfJY8.s:242    .text:0000000000000184 .L0 
     /tmp/ccUYfJY8.s:243    .text:0000000000000184 .L0 
     /tmp/ccUYfJY8.s:247    .text:0000000000000188 .L0 
     /tmp/ccUYfJY8.s:250    .text:0000000000000190 .L0 
     /tmp/ccUYfJY8.s:251    .text:0000000000000190 .L0 
     /tmp/ccUYfJY8.s:253    .text:0000000000000194 .L0 
     /tmp/ccUYfJY8.s:262    .text:00000000000001b8 .L0 
     /tmp/ccUYfJY8.s:269    .text:00000000000001c0 .L0 
     /tmp/ccUYfJY8.s:270    .text:00000000000001c0 .L0 
     /tmp/ccUYfJY8.s:274    .text:00000000000001c8 .L0 
     /tmp/ccUYfJY8.s:275    .text:00000000000001c8 .L0 
     /tmp/ccUYfJY8.s:276    .text:00000000000001c8 .L0 
     /tmp/ccUYfJY8.s:282    .text:00000000000001cc .L0 
     /tmp/ccUYfJY8.s:283    .text:00000000000001cc .L0 
     /tmp/ccUYfJY8.s:288    .text:00000000000001d0 .L0 
     /tmp/ccUYfJY8.s:290    .text:00000000000001d4 .L0 
     /tmp/ccUYfJY8.s:295    .text:00000000000001d8 .L0 
     /tmp/ccUYfJY8.s:296    .text:00000000000001d8 .L0 
     /tmp/ccUYfJY8.s:301    .text:00000000000001dc .L0 
     /tmp/ccUYfJY8.s:303    .text:00000000000001e0 .L0 
     /tmp/ccUYfJY8.s:308    .text:00000000000001e4 .L0 
     /tmp/ccUYfJY8.s:309    .text:00000000000001e4 .L0 
     /tmp/ccUYfJY8.s:314    .text:00000000000001e8 .L0 
     /tmp/ccUYfJY8.s:316    .text:00000000000001ec .L0 
     /tmp/ccUYfJY8.s:321    .text:00000000000001f0 .L0 
     /tmp/ccUYfJY8.s:322    .text:00000000000001f0 .L0 
     /tmp/ccUYfJY8.s:327    .text:00000000000001f4 .L0 
     /tmp/ccUYfJY8.s:335    .text:0000000000000200 .L0 
     /tmp/ccUYfJY8.s:339    .text:0000000000000204 .L0 
     /tmp/ccUYfJY8.s:343    .text:000000000000020c .L0 
     /tmp/ccUYfJY8.s:344    .text:000000000000020c .L0 
     /tmp/ccUYfJY8.s:346    .text:0000000000000210 .L0 
     /tmp/ccUYfJY8.s:348    .text:0000000000000214 .L0 
     /tmp/ccUYfJY8.s:359    .text:0000000000000230 .L0 
     /tmp/ccUYfJY8.s:360    .text:0000000000000230 .L0 
     /tmp/ccUYfJY8.s:362    .text:0000000000000238 .L0 
     /tmp/ccUYfJY8.s:364    .text:000000000000023c .L0 
     /tmp/ccUYfJY8.s:365    .text:000000000000023c .L0 
     /tmp/ccUYfJY8.s:367    .text:0000000000000240 .L0 
GAS LISTING /tmp/ccUYfJY8.s 			page 15


     /tmp/ccUYfJY8.s:370    .text:0000000000000244 .L0 
     /tmp/ccUYfJY8.s:372    .text:0000000000000248 .L0 
     /tmp/ccUYfJY8.s:374    .text:000000000000024c .L0 
     /tmp/ccUYfJY8.s:391    .bss:0000000000000000 semafor
     /tmp/ccUYfJY8.s:380    .rodata:0000000000000000 .LANCHOR1
     /tmp/ccUYfJY8.s:388    .bss:0000000000000000 .LANCHOR0
     /tmp/ccUYfJY8.s:399    .text:000000000000024c .L0 
     /tmp/ccUYfJY8.s:46     .text:0000000000000020 .L0 
     /tmp/ccUYfJY8.s:8      .rodata.str1.8:0000000000000000 .LC1
     /tmp/ccUYfJY8.s:103    .text:0000000000000074 .L0 
     /tmp/ccUYfJY8.s:11     .rodata.str1.8:0000000000000008 .LC2
     /tmp/ccUYfJY8.s:113    .text:0000000000000090 .L0 
     /tmp/ccUYfJY8.s:14     .rodata.str1.8:0000000000000010 .LC3
     /tmp/ccUYfJY8.s:118    .text:00000000000000a0 .L0 
     /tmp/ccUYfJY8.s:128    .text:00000000000000bc .L0 
     /tmp/ccUYfJY8.s:17     .rodata.str1.8:0000000000000020 .LC4
     /tmp/ccUYfJY8.s:143    .text:00000000000000d4 .L0 
     /tmp/ccUYfJY8.s:148    .text:00000000000000e4 .L0 
     /tmp/ccUYfJY8.s:192    .text:0000000000000128 .L0 
     /tmp/ccUYfJY8.s:206    .text:0000000000000144 .L0 
     /tmp/ccUYfJY8.s:227    .text:000000000000015c .L0 
     /tmp/ccUYfJY8.s:234    .text:000000000000016c .L0 
     /tmp/ccUYfJY8.s:256    .text:00000000000001a0 .L0 
     /tmp/ccUYfJY8.s:96     .text:000000000000006c .L7
     /tmp/ccUYfJY8.s:88     .text:0000000000000068 .L3
     /tmp/ccUYfJY8.s:56     .text:0000000000000038 .L4
     /tmp/ccUYfJY8.s:77     .text:0000000000000054 .L5
     /tmp/ccUYfJY8.s:137    .text:00000000000000d4 .L2
     /tmp/ccUYfJY8.s:68     .text:0000000000000044 .L6
     /tmp/ccUYfJY8.s:272    .text:00000000000001c8 .L10
     /tmp/ccUYfJY8.s:245    .text:0000000000000188 .L11
     /tmp/ccUYfJY8.s:266    .text:00000000000001c0 .L12
     /tmp/ccUYfJY8.s:337    .text:0000000000000204 .L13
     /tmp/ccUYfJY8.s:356    .text:0000000000000230 .L14
     /tmp/ccUYfJY8.s:332    .text:0000000000000200 .L15
     /tmp/ccUYfJY8.s:1589   .debug_abbrev:0000000000000000 .Ldebug_abbrev0
     /tmp/ccUYfJY8.s:2945   .debug_str:000000000000064d .LASF132
     /tmp/ccUYfJY8.s:2833   .debug_str:0000000000000337 .LASF133
     /tmp/ccUYfJY8.s:2977   .debug_str:00000000000007fd .LASF134
     /tmp/ccUYfJY8.s:5      .text:0000000000000000 .Ltext0
     /tmp/ccUYfJY8.s:394    .text:000000000000024c .Letext0
     /tmp/ccUYfJY8.s:2707   .debug_line:0000000000000000 .Ldebug_line0
     /tmp/ccUYfJY8.s:2873   .debug_str:0000000000000456 .LASF0
     /tmp/ccUYfJY8.s:2889   .debug_str:00000000000004c9 .LASF1
     /tmp/ccUYfJY8.s:2851   .debug_str:00000000000003c1 .LASF2
     /tmp/ccUYfJY8.s:2819   .debug_str:00000000000002d9 .LASF4
     /tmp/ccUYfJY8.s:2927   .debug_str:00000000000005e7 .LASF3
     /tmp/ccUYfJY8.s:2731   .debug_str:000000000000008d .LASF5
     /tmp/ccUYfJY8.s:2891   .debug_str:00000000000004dc .LASF6
     /tmp/ccUYfJY8.s:2871   .debug_str:0000000000000443 .LASF7
     /tmp/ccUYfJY8.s:2959   .debug_str:0000000000000771 .LASF8
     /tmp/ccUYfJY8.s:2805   .debug_str:000000000000026b .LASF9
     /tmp/ccUYfJY8.s:2905   .debug_str:000000000000053a .LASF10
     /tmp/ccUYfJY8.s:2947   .debug_str:0000000000000711 .LASF11
     /tmp/ccUYfJY8.s:2735   .debug_str:000000000000009c .LASF12
     /tmp/ccUYfJY8.s:2715   .debug_str:0000000000000018 .LASF13
     /tmp/ccUYfJY8.s:2745   .debug_str:00000000000000e6 .LASF14
GAS LISTING /tmp/ccUYfJY8.s 			page 16


     /tmp/ccUYfJY8.s:2923   .debug_str:00000000000005cb .LASF15
     /tmp/ccUYfJY8.s:2761   .debug_str:000000000000013f .LASF16
     /tmp/ccUYfJY8.s:2791   .debug_str:0000000000000214 .LASF17
     /tmp/ccUYfJY8.s:2893   .debug_str:00000000000004ef .LASF45
     /tmp/ccUYfJY8.s:2897   .debug_str:0000000000000501 .LASF47
     /tmp/ccUYfJY8.s:2853   .debug_str:00000000000003cf .LASF18
     /tmp/ccUYfJY8.s:2721   .debug_str:000000000000003d .LASF20
     /tmp/ccUYfJY8.s:2799   .debug_str:0000000000000249 .LASF19
     /tmp/ccUYfJY8.s:2983   .debug_str:000000000000083d .LASF21
     /tmp/ccUYfJY8.s:2901   .debug_str:000000000000051d .LASF135
     /tmp/ccUYfJY8.s:2925   .debug_str:00000000000005e1 .LASF73
     /tmp/ccUYfJY8.s:2963   .debug_str:000000000000078d .LASF75
     /tmp/ccUYfJY8.s:2783   .debug_str:00000000000001e9 .LASF136
     /tmp/ccUYfJY8.s:2919   .debug_str:00000000000005bb .LASF22
     /tmp/ccUYfJY8.s:2863   .debug_str:000000000000040e .LASF23
     /tmp/ccUYfJY8.s:2971   .debug_str:00000000000007dd .LASF24
     /tmp/ccUYfJY8.s:2821   .debug_str:00000000000002e0 .LASF25
     /tmp/ccUYfJY8.s:2933   .debug_str:0000000000000611 .LASF26
     /tmp/ccUYfJY8.s:2937   .debug_str:0000000000000628 .LASF54
     /tmp/ccUYfJY8.s:2739   .debug_str:00000000000000bb .LASF77
     /tmp/ccUYfJY8.s:2773   .debug_str:0000000000000192 .LASF79
     /tmp/ccUYfJY8.s:2723   .debug_str:0000000000000054 .LASF58
     /tmp/ccUYfJY8.s:2857   .debug_str:00000000000003ef .LASF27
     /tmp/ccUYfJY8.s:2879   .debug_str:0000000000000484 .LASF28
     /tmp/ccUYfJY8.s:2953   .debug_str:000000000000074d .LASF29
     /tmp/ccUYfJY8.s:2749   .debug_str:0000000000000102 .LASF30
     /tmp/ccUYfJY8.s:2899   .debug_str:0000000000000518 .LASF31
     /tmp/ccUYfJY8.s:2825   .debug_str:0000000000000300 .LASF32
     /tmp/ccUYfJY8.s:2709   .debug_str:0000000000000000 .LASF33
     /tmp/ccUYfJY8.s:2775   .debug_str:00000000000001a8 .LASF34
     /tmp/ccUYfJY8.s:2883   .debug_str:000000000000049d .LASF35
     /tmp/ccUYfJY8.s:2929   .debug_str:00000000000005f9 .LASF137
     /tmp/ccUYfJY8.s:2875   .debug_str:0000000000000463 .LASF41
     /tmp/ccUYfJY8.s:2813   .debug_str:00000000000002a5 .LASF43
     /tmp/ccUYfJY8.s:2729   .debug_str:000000000000007e .LASF36
     /tmp/ccUYfJY8.s:2969   .debug_str:00000000000007bf .LASF38
     /tmp/ccUYfJY8.s:2737   .debug_str:00000000000000ac .LASF37
     /tmp/ccUYfJY8.s:2843   .debug_str:0000000000000379 .LASF39
     /tmp/ccUYfJY8.s:2861   .debug_str:0000000000000404 .LASF40
     /tmp/ccUYfJY8.s:2751   .debug_str:000000000000010c .LASF42
     /tmp/ccUYfJY8.s:2913   .debug_str:0000000000000575 .LASF44
     /tmp/ccUYfJY8.s:2839   .debug_str:000000000000035b .LASF46
     /tmp/ccUYfJY8.s:2877   .debug_str:000000000000046c .LASF48
     /tmp/ccUYfJY8.s:2789   .debug_str:000000000000020f .LASF49
     /tmp/ccUYfJY8.s:2809   .debug_str:000000000000028e .LASF50
     /tmp/ccUYfJY8.s:2895   .debug_str:00000000000004fa .LASF51
     /tmp/ccUYfJY8.s:2727   .debug_str:000000000000006d .LASF52
     /tmp/ccUYfJY8.s:2781   .debug_str:00000000000001dd .LASF53
     /tmp/ccUYfJY8.s:2803   .debug_str:000000000000025e .LASF55
     /tmp/ccUYfJY8.s:2979   .debug_str:000000000000081b .LASF56
     /tmp/ccUYfJY8.s:2949   .debug_str:0000000000000720 .LASF57
     /tmp/ccUYfJY8.s:2961   .debug_str:0000000000000781 .LASF59
     /tmp/ccUYfJY8.s:2829   .debug_str:000000000000031c .LASF60
     /tmp/ccUYfJY8.s:2849   .debug_str:00000000000003b1 .LASF61
     /tmp/ccUYfJY8.s:2733   .debug_str:0000000000000094 .LASF62
     /tmp/ccUYfJY8.s:2841   .debug_str:0000000000000367 .LASF63
     /tmp/ccUYfJY8.s:2769   .debug_str:0000000000000182 .LASF64
GAS LISTING /tmp/ccUYfJY8.s 			page 17


     /tmp/ccUYfJY8.s:2847   .debug_str:00000000000003ac .LASF65
     /tmp/ccUYfJY8.s:2755   .debug_str:0000000000000125 .LASF66
     /tmp/ccUYfJY8.s:2973   .debug_str:00000000000007ea .LASF67
     /tmp/ccUYfJY8.s:2763   .debug_str:0000000000000155 .LASF138
     /tmp/ccUYfJY8.s:2941   .debug_str:000000000000063c .LASF68
     /tmp/ccUYfJY8.s:2837   .debug_str:000000000000034e .LASF69
     /tmp/ccUYfJY8.s:2757   .debug_str:000000000000012e .LASF70
     /tmp/ccUYfJY8.s:2713   .debug_str:0000000000000010 .LASF71
     /tmp/ccUYfJY8.s:2785   .debug_str:00000000000001f1 .LASF72
     /tmp/ccUYfJY8.s:2921   .debug_str:00000000000005c0 .LASF74
     /tmp/ccUYfJY8.s:2909   .debug_str:0000000000000555 .LASF76
     /tmp/ccUYfJY8.s:2717   .debug_str:0000000000000028 .LASF78
     /tmp/ccUYfJY8.s:2767   .debug_str:000000000000016c .LASF80
     /tmp/ccUYfJY8.s:2753   .debug_str:000000000000011c .LASF81
     /tmp/ccUYfJY8.s:2741   .debug_str:00000000000000c6 .LASF82
     /tmp/ccUYfJY8.s:2931   .debug_str:000000000000060a .LASF83
     /tmp/ccUYfJY8.s:2869   .debug_str:000000000000042f .LASF84
     /tmp/ccUYfJY8.s:2935   .debug_str:0000000000000621 .LASF85
     /tmp/ccUYfJY8.s:2823   .debug_str:00000000000002ec .LASF86
     /tmp/ccUYfJY8.s:2797   .debug_str:0000000000000241 .LASF87
     /tmp/ccUYfJY8.s:2965   .debug_str:000000000000079d .LASF88
     /tmp/ccUYfJY8.s:2711   .debug_str:0000000000000008 .LASF89
     /tmp/ccUYfJY8.s:2831   .debug_str:0000000000000322 .LASF90
     /tmp/ccUYfJY8.s:2817   .debug_str:00000000000002d1 .LASF91
     /tmp/ccUYfJY8.s:2845   .debug_str:0000000000000397 .LASF92
     /tmp/ccUYfJY8.s:2989   .debug_str:000000000000087b .LASF93
     /tmp/ccUYfJY8.s:2807   .debug_str:0000000000000279 .LASF94
     /tmp/ccUYfJY8.s:2911   .debug_str:000000000000056e .LASF95
     /tmp/ccUYfJY8.s:2957   .debug_str:000000000000075d .LASF96
     /tmp/ccUYfJY8.s:2955   .debug_str:0000000000000756 .LASF97
     /tmp/ccUYfJY8.s:2917   .debug_str:00000000000005a7 .LASF98
     /tmp/ccUYfJY8.s:2801   .debug_str:0000000000000258 .LASF99
     /tmp/ccUYfJY8.s:2881   .debug_str:000000000000048a .LASF100
     /tmp/ccUYfJY8.s:2725   .debug_str:0000000000000067 .LASF101
     /tmp/ccUYfJY8.s:2827   .debug_str:0000000000000309 .LASF102
     /tmp/ccUYfJY8.s:2987   .debug_str:0000000000000870 .LASF103
     /tmp/ccUYfJY8.s:2815   .debug_str:00000000000002b8 .LASF104
     /tmp/ccUYfJY8.s:2887   .debug_str:00000000000004be .LASF105
     /tmp/ccUYfJY8.s:2779   .debug_str:00000000000001c4 .LASF106
     /tmp/ccUYfJY8.s:2743   .debug_str:00000000000000dc .LASF107
     /tmp/ccUYfJY8.s:2885   .debug_str:00000000000004a7 .LASF108
     /tmp/ccUYfJY8.s:2859   .debug_str:00000000000003fa .LASF109
     /tmp/ccUYfJY8.s:2915   .debug_str:0000000000000590 .LASF110
     /tmp/ccUYfJY8.s:2811   .debug_str:000000000000029d .LASF111
     /tmp/ccUYfJY8.s:175    .text:0000000000000110 .LFB35
     /tmp/ccUYfJY8.s:375    .text:000000000000024c .LFE35
     /tmp/ccUYfJY8.s:2556   .debug_loc:0000000000000000 .LLST4
     /tmp/ccUYfJY8.s:2765   .debug_str:0000000000000164 .LASF112
     /tmp/ccUYfJY8.s:241    .text:0000000000000184 .LBB24
     /tmp/ccUYfJY8.s:267    .text:00000000000001c0 .LBE24
     /tmp/ccUYfJY8.s:2563   .debug_loc:0000000000000023 .LLST6
     /tmp/ccUYfJY8.s:260    .text:00000000000001b8 .LVL28
     /tmp/ccUYfJY8.s:333    .text:0000000000000200 .LBB33
     /tmp/ccUYfJY8.s:357    .text:0000000000000230 .LBE33
     /tmp/ccUYfJY8.s:2939   .debug_str:0000000000000635 .LASF113
     /tmp/ccUYfJY8.s:2579   .debug_loc:000000000000006d .LLST11
     /tmp/ccUYfJY8.s:2975   .debug_str:00000000000007f1 .LASF114
GAS LISTING /tmp/ccUYfJY8.s 			page 18


     /tmp/ccUYfJY8.s:2907   .debug_str:0000000000000549 .LASF139
     /tmp/ccUYfJY8.s:2590   .debug_loc:00000000000000a3 .LLST12
     /tmp/ccUYfJY8.s:2835   .debug_str:0000000000000344 .LASF115
     /tmp/ccUYfJY8.s:350    .text:0000000000000220 .LVL44
     /tmp/ccUYfJY8.s:353    .text:000000000000022c .LVL45
     /tmp/ccUYfJY8.s:210    .text:0000000000000150 .LBB22
     /tmp/ccUYfJY8.s:223    .text:0000000000000158 .LBE22
     /tmp/ccUYfJY8.s:2597   .debug_loc:00000000000000c6 .LLST5
     /tmp/ccUYfJY8.s:278    .text:00000000000001cc .LBB25
     /tmp/ccUYfJY8.s:286    .text:00000000000001d0 .LBE25
     /tmp/ccUYfJY8.s:2605   .debug_loc:00000000000000ea .LLST7
     /tmp/ccUYfJY8.s:292    .text:00000000000001d8 .LBB27
     /tmp/ccUYfJY8.s:299    .text:00000000000001dc .LBE27
     /tmp/ccUYfJY8.s:2612   .debug_loc:000000000000010d .LLST8
     /tmp/ccUYfJY8.s:305    .text:00000000000001e4 .LBB29
     /tmp/ccUYfJY8.s:312    .text:00000000000001e8 .LBE29
     /tmp/ccUYfJY8.s:2619   .debug_loc:0000000000000130 .LLST9
     /tmp/ccUYfJY8.s:318    .text:00000000000001f0 .LBB31
     /tmp/ccUYfJY8.s:325    .text:00000000000001f4 .LBE31
     /tmp/ccUYfJY8.s:2626   .debug_loc:0000000000000153 .LLST10
     /tmp/ccUYfJY8.s:203    .text:0000000000000144 .LVL21
     /tmp/ccUYfJY8.s:230    .text:000000000000016c .LVL25
     /tmp/ccUYfJY8.s:271    .text:00000000000001c8 .LVL31
     /tmp/ccUYfJY8.s:2865   .debug_str:000000000000041a .LASF116
     /tmp/ccUYfJY8.s:2981   .debug_str:000000000000082b .LASF117
     /tmp/ccUYfJY8.s:24     .text:0000000000000000 .LFB34
     /tmp/ccUYfJY8.s:169    .text:0000000000000110 .LFE34
     /tmp/ccUYfJY8.s:2633   .debug_loc:0000000000000176 .LLST0
     /tmp/ccUYfJY8.s:51     .text:0000000000000030 .LBB14
     /tmp/ccUYfJY8.s:140    .text:00000000000000d4 .LBE14
     /tmp/ccUYfJY8.s:2651   .debug_loc:00000000000001c2 .LLST1
     /tmp/ccUYfJY8.s:2699   .debug_ranges:0000000000000000 .Ldebug_ranges0
     /tmp/ccUYfJY8.s:2663   .debug_loc:00000000000001f9 .LLST2
     /tmp/ccUYfJY8.s:74     .text:0000000000000050 .LBB18
     /tmp/ccUYfJY8.s:89     .text:0000000000000068 .LBE18
     /tmp/ccUYfJY8.s:2675   .debug_loc:0000000000000230 .LLST3
     /tmp/ccUYfJY8.s:63     .text:0000000000000040 .LVL4
     /tmp/ccUYfJY8.s:105    .text:0000000000000084 .LVL10
     /tmp/ccUYfJY8.s:110    .text:0000000000000090 .LVL11
     /tmp/ccUYfJY8.s:115    .text:00000000000000a0 .LVL12
     /tmp/ccUYfJY8.s:120    .text:00000000000000b0 .LVL13
     /tmp/ccUYfJY8.s:125    .text:00000000000000bc .LVL14
     /tmp/ccUYfJY8.s:130    .text:00000000000000cc .LVL15
     /tmp/ccUYfJY8.s:49     .text:0000000000000030 .LVL2
     /tmp/ccUYfJY8.s:145    .text:00000000000000e4 .LVL17
     /tmp/ccUYfJY8.s:150    .text:00000000000000f4 .LVL18
     /tmp/ccUYfJY8.s:2943   .debug_str:0000000000000648 .LASF140
     /tmp/ccUYfJY8.s:2759   .debug_str:000000000000013a .LASF141
     /tmp/ccUYfJY8.s:2991   .debug_str:0000000000000883 .LASF118
     /tmp/ccUYfJY8.s:2777   .debug_str:00000000000001b6 .LASF120
     /tmp/ccUYfJY8.s:2793   .debug_str:0000000000000219 .LASF119
     /tmp/ccUYfJY8.s:2787   .debug_str:0000000000000206 .LASF121
     /tmp/ccUYfJY8.s:2795   .debug_str:000000000000022c .LASF122
     /tmp/ccUYfJY8.s:2747   .debug_str:00000000000000f2 .LASF123
     /tmp/ccUYfJY8.s:2985   .debug_str:000000000000085d .LASF124
     /tmp/ccUYfJY8.s:2719   .debug_str:0000000000000031 .LASF125
     /tmp/ccUYfJY8.s:2951   .debug_str:000000000000073b .LASF126
GAS LISTING /tmp/ccUYfJY8.s 			page 19


     /tmp/ccUYfJY8.s:2967   .debug_str:00000000000007b2 .LASF127
     /tmp/ccUYfJY8.s:2903   .debug_str:0000000000000529 .LASF128
     /tmp/ccUYfJY8.s:2867   .debug_str:0000000000000426 .LASF129
     /tmp/ccUYfJY8.s:2855   .debug_str:00000000000003db .LASF130
     /tmp/ccUYfJY8.s:2771   .debug_str:0000000000000187 .LASF131
     /tmp/ccUYfJY8.s:228    .text:0000000000000164 .LVL24
     /tmp/ccUYfJY8.s:240    .text:0000000000000184 .LVL26
     /tmp/ccUYfJY8.s:244    .text:0000000000000188 .LVL27
     /tmp/ccUYfJY8.s:263    .text:00000000000001bc .LVL29
     /tmp/ccUYfJY8.s:265    .text:00000000000001c0 .LVL30
     /tmp/ccUYfJY8.s:329    .text:00000000000001fc .LVL40
     /tmp/ccUYfJY8.s:331    .text:0000000000000200 .LVL41
     /tmp/ccUYfJY8.s:336    .text:0000000000000204 .LVL42
     /tmp/ccUYfJY8.s:341    .text:000000000000020c .LVL43
     /tmp/ccUYfJY8.s:355    .text:0000000000000230 .LVL46
     /tmp/ccUYfJY8.s:368    .text:0000000000000240 .LVL47
     /tmp/ccUYfJY8.s:209    .text:0000000000000150 .LVL22
     /tmp/ccUYfJY8.s:220    .text:0000000000000158 .LVL23
     /tmp/ccUYfJY8.s:277    .text:00000000000001cc .LVL32
     /tmp/ccUYfJY8.s:284    .text:00000000000001d0 .LVL33
     /tmp/ccUYfJY8.s:291    .text:00000000000001d8 .LVL34
     /tmp/ccUYfJY8.s:297    .text:00000000000001dc .LVL35
     /tmp/ccUYfJY8.s:304    .text:00000000000001e4 .LVL36
     /tmp/ccUYfJY8.s:310    .text:00000000000001e8 .LVL37
     /tmp/ccUYfJY8.s:317    .text:00000000000001f0 .LVL38
     /tmp/ccUYfJY8.s:323    .text:00000000000001f4 .LVL39
     /tmp/ccUYfJY8.s:28     .text:0000000000000000 .LVL0
     /tmp/ccUYfJY8.s:47     .text:0000000000000028 .LVL1
     /tmp/ccUYfJY8.s:164    .text:0000000000000108 .LVL20
     /tmp/ccUYfJY8.s:55     .text:0000000000000038 .LVL3
     /tmp/ccUYfJY8.s:161    .text:0000000000000104 .LVL19
     /tmp/ccUYfJY8.s:95     .text:000000000000006c .LVL9
     /tmp/ccUYfJY8.s:136    .text:00000000000000d4 .LVL16
     /tmp/ccUYfJY8.s:78     .text:0000000000000054 .LVL6
     /tmp/ccUYfJY8.s:87     .text:0000000000000068 .LVL8
     /tmp/ccUYfJY8.s:400    .debug_info:0000000000000000 .Ldebug_info0
     /tmp/ccUYfJY8.s:58     .text:0000000000000038 .LBB16
     /tmp/ccUYfJY8.s:91     .text:0000000000000068 .LBE16
     /tmp/ccUYfJY8.s:132    .text:00000000000000cc .LBB20
     /tmp/ccUYfJY8.s:138    .text:00000000000000d4 .LBE20

UNDEFINED SYMBOLS
_Z8sem_waitP3SCB
_Z15thread_dispatchv
_Z11printStringPKc
_Z12printIntegerm
_Z10sem_signalP3SCB
interrupt
_ZN3PCB14createProccessEPFvvEPv
_ZN3PCB7runningE
_Z8sem_openPP3SCBj
_Z13thread_createPP3PCBPFvPvES2_
_ZN6Thread8dispatchEv
_ZN3PCBD1Ev
_ZN3PCBdlEPv
