GAS LISTING /tmp/ccsEQFaZ.s 			page 1


   1              		.file	"main.cpp"
   2              		.option pic
   3              		.option norelax
   4              		.text
   5              	.Ltext0:
   6              		.section	.rodata.str1.8,"aMS",@progbits,1
   7              		.align	3
   8              	.LC1:
   9 0000 4E697420 		.string	"Nit broj: "
   9      62726F6A 
   9      3A2000
  10 000b 00000000 		.align	3
  10      00
  11              	.LC2:
  12 0010 0A537461 		.string	"\nStatus: "
  12      7475733A 
  12      2000
  13 001a 00000000 		.align	3
  13      0000
  14              	.LC3:
  15 0020 0A00     		.string	"\n"
  16 0022 00000000 		.align	3
  16      0000
  17              	.LC4:
  18 0028 413A2069 		.string	"A: i="
  18      3D00
  19 002e 0000     		.align	3
  20              	.LC5:
  21 0030 41206669 		.string	"A finished!\n"
  21      6E697368 
  21      6564210A 
  21      00
  22              		.text
  23              		.align	2
  24              		.globl	_Z11workerBodyAPv
  26              	_Z11workerBodyAPv:
  27              	.LFB34:
  28              		.file 1 "src/main.cpp"
   1:src/main.cpp  **** #include "../h/hw.h"
   2:src/main.cpp  **** #include "../h/console.h"
   3:src/main.cpp  **** #include "../h/MemoryAllocator.h"
   4:src/main.cpp  **** #include "../h/syscall_c.h"
   5:src/main.cpp  **** #include "../h/print.h"
   6:src/main.cpp  **** #include "../h/PCB.h"
   7:src/main.cpp  **** #include "../h/kernel.h"
   8:src/main.cpp  **** #include "../h/syscall_cpp.h"
   9:src/main.cpp  **** #include "../h/SCB.h"
  10:src/main.cpp  **** 
  11:src/main.cpp  **** SCB* semafor;
  12:src/main.cpp  **** 
  13:src/main.cpp  **** void workerBodyA(void* arg)
  14:src/main.cpp  **** {
  29              		.loc 1 14 1
  30              		.cfi_startproc
  31              	.LVL0:
  32 0000 130101FD 		addi	sp,sp,-48
  33              		.cfi_def_cfa_offset 48
GAS LISTING /tmp/ccsEQFaZ.s 			page 2


  34 0004 23341102 		sd	ra,40(sp)
  35 0008 23308102 		sd	s0,32(sp)
  36 000c 233C9100 		sd	s1,24(sp)
  37 0010 23382101 		sd	s2,16(sp)
  38 0014 23343101 		sd	s3,8(sp)
  39              		.cfi_offset 1, -8
  40              		.cfi_offset 8, -16
  41              		.cfi_offset 9, -24
  42              		.cfi_offset 18, -32
  43              		.cfi_offset 19, -40
  44 0018 13040103 		addi	s0,sp,48
  45              		.cfi_def_cfa 8, 0
  46 001c 13090500 		mv	s2,a0
  15:src/main.cpp  ****     int status = sem_wait(semafor);
  47              		.loc 1 15 5
  48              		.loc 1 15 26 is_stmt 0
  49 0020 17050000 		ld	a0,.LANCHOR0
  49      03350500 
  50              	.LVL1:
  51 0028 97000000 		call	_Z8sem_waitP3SCB@plt
  51      E7800000 
  52              	.LVL2:
  53 0030 93040500 		mv	s1,a0
  54              	.LVL3:
  16:src/main.cpp  ****     printString("Nit broj: ");
  55              		.loc 1 16 5 is_stmt 1
  56              		.loc 1 16 16 is_stmt 0
  57 0034 17050000 		lla	a0,.LC1
  57      13050500 
  58 003c 97000000 		call	_Z11printStringPKc@plt
  58      E7800000 
  59              	.LVL4:
  17:src/main.cpp  ****     printInteger(*(int*)arg);
  60              		.loc 1 17 5 is_stmt 1
  61              		.loc 1 17 17 is_stmt 0
  62 0044 03250900 		lw	a0,0(s2)
  63 0048 97000000 		call	_Z12printIntegerm@plt
  63      E7800000 
  64              	.LVL5:
  18:src/main.cpp  ****     printString("\nStatus: ");
  65              		.loc 1 18 5 is_stmt 1
  66              		.loc 1 18 16 is_stmt 0
  67 0050 17050000 		lla	a0,.LC2
  67      13050500 
  68 0058 97000000 		call	_Z11printStringPKc@plt
  68      E7800000 
  69              	.LVL6:
  19:src/main.cpp  ****     printInteger(status+2);
  70              		.loc 1 19 5 is_stmt 1
  71              		.loc 1 19 17 is_stmt 0
  72 0060 1B852400 		addiw	a0,s1,2
  73 0064 97000000 		call	_Z12printIntegerm@plt
  73      E7800000 
  74              	.LVL7:
  20:src/main.cpp  ****     printString("\n");
  75              		.loc 1 20 5 is_stmt 1
  76              		.loc 1 20 16 is_stmt 0
GAS LISTING /tmp/ccsEQFaZ.s 			page 3


  77 006c 17050000 		lla	a0,.LC3
  77      13050500 
  78 0074 97000000 		call	_Z11printStringPKc@plt
  78      E7800000 
  79              	.LVL8:
  21:src/main.cpp  ****     for (uint64 i = 0; i < 3; i++) {
  80              		.loc 1 21 5 is_stmt 1
  81              	.LBB14:
  82              		.loc 1 21 17 is_stmt 0
  83 007c 93090000 		li	s3,0
  84 0080 6F008003 		j	.L7
  85              	.LVL9:
  86              	.L4:
  87              	.LBB15:
  88              	.LBB16:
  89              	.LBB17:
  22:src/main.cpp  ****         printString("A: i="); printInteger(i); printString("\n");
  23:src/main.cpp  ****         for (uint64 j = 0; j < 10000; j++) {
  24:src/main.cpp  ****             for (uint64 k = 0; k < 30000; k++) { /* busy wait */ }
  25:src/main.cpp  ****             thread_dispatch();
  90              		.loc 1 25 13 is_stmt 1 discriminator 2
  91              		.loc 1 25 28 is_stmt 0 discriminator 2
  92 0084 97000000 		call	_Z15thread_dispatchv@plt
  92      E7800000 
  93              	.LVL10:
  94              	.LBE17:
  23:src/main.cpp  ****             for (uint64 k = 0; k < 30000; k++) { /* busy wait */ }
  95              		.loc 1 23 9 is_stmt 1 discriminator 2
  96 008c 93841400 		addi	s1,s1,1
  97              	.LVL11:
  98              	.L6:
  23:src/main.cpp  ****             for (uint64 k = 0; k < 30000; k++) { /* busy wait */ }
  99              		.loc 1 23 30 discriminator 1
 100 0090 B7270000 		li	a5,8192
 101 0094 9387F770 		addi	a5,a5,1807
 102 0098 63EE9700 		bgtu	s1,a5,.L3
 103              	.LBB19:
 104              	.LBB18:
  24:src/main.cpp  ****             thread_dispatch();
 105              		.loc 1 24 25 is_stmt 0
 106 009c 13070000 		li	a4,0
 107              	.L5:
 108              	.LVL12:
  24:src/main.cpp  ****             thread_dispatch();
 109              		.loc 1 24 34 is_stmt 1 discriminator 3
 110 00a0 B7770000 		li	a5,28672
 111 00a4 9387F752 		addi	a5,a5,1327
 112 00a8 E3EEE7FC 		bgtu	a4,a5,.L4
  24:src/main.cpp  ****             thread_dispatch();
 113              		.loc 1 24 13 discriminator 2
 114 00ac 13071700 		addi	a4,a4,1
 115              	.LVL13:
 116 00b0 6FF01FFF 		j	.L5
 117              	.LVL14:
 118              	.L3:
 119              	.LBE18:
 120              	.LBE19:
GAS LISTING /tmp/ccsEQFaZ.s 			page 4


 121              	.LBE16:
 122              	.LBE15:
  21:src/main.cpp  ****         printString("A: i="); printInteger(i); printString("\n");
 123              		.loc 1 21 5 discriminator 2
 124 00b4 93891900 		addi	s3,s3,1
 125              	.LVL15:
 126              	.L7:
  21:src/main.cpp  ****         printString("A: i="); printInteger(i); printString("\n");
 127              		.loc 1 21 26 discriminator 1
 128 00b8 93072000 		li	a5,2
 129 00bc 63EC3703 		bgtu	s3,a5,.L2
 130              	.LBB21:
  22:src/main.cpp  ****         for (uint64 j = 0; j < 10000; j++) {
 131              		.loc 1 22 9
  22:src/main.cpp  ****         for (uint64 j = 0; j < 10000; j++) {
 132              		.loc 1 22 20 is_stmt 0
 133 00c0 17050000 		lla	a0,.LC4
 133      13050500 
 134 00c8 97000000 		call	_Z11printStringPKc@plt
 134      E7800000 
 135              	.LVL16:
  22:src/main.cpp  ****         for (uint64 j = 0; j < 10000; j++) {
 136              		.loc 1 22 31 is_stmt 1
  22:src/main.cpp  ****         for (uint64 j = 0; j < 10000; j++) {
 137              		.loc 1 22 43 is_stmt 0
 138 00d0 13850900 		mv	a0,s3
 139 00d4 97000000 		call	_Z12printIntegerm@plt
 139      E7800000 
 140              	.LVL17:
  22:src/main.cpp  ****         for (uint64 j = 0; j < 10000; j++) {
 141              		.loc 1 22 48 is_stmt 1
  22:src/main.cpp  ****         for (uint64 j = 0; j < 10000; j++) {
 142              		.loc 1 22 59 is_stmt 0
 143 00dc 17050000 		lla	a0,.LC3
 143      13050500 
 144 00e4 97000000 		call	_Z11printStringPKc@plt
 144      E7800000 
 145              	.LVL18:
  23:src/main.cpp  ****             for (uint64 k = 0; k < 30000; k++) { /* busy wait */ }
 146              		.loc 1 23 9 is_stmt 1
 147              	.LBB20:
  23:src/main.cpp  ****             for (uint64 k = 0; k < 30000; k++) { /* busy wait */ }
 148              		.loc 1 23 21 is_stmt 0
 149 00ec 93040000 		li	s1,0
 150 00f0 6FF01FFA 		j	.L6
 151              	.LVL19:
 152              	.L2:
 153              	.LBE20:
 154              	.LBE21:
 155              	.LBE14:
  26:src/main.cpp  ****         }
  27:src/main.cpp  ****     }
  28:src/main.cpp  ****     printString("A finished!\n");
 156              		.loc 1 28 5 is_stmt 1
 157              		.loc 1 28 16 is_stmt 0
 158 00f4 17050000 		lla	a0,.LC5
 158      13050500 
GAS LISTING /tmp/ccsEQFaZ.s 			page 5


 159 00fc 97000000 		call	_Z11printStringPKc@plt
 159      E7800000 
 160              	.LVL20:
  29:src/main.cpp  ****     sem_signal(semafor);
 161              		.loc 1 29 5 is_stmt 1
 162              		.loc 1 29 15 is_stmt 0
 163 0104 17050000 		ld	a0,.LANCHOR0
 163      03350500 
 164 010c 97000000 		call	_Z10sem_signalP3SCB@plt
 164      E7800000 
 165              	.LVL21:
  30:src/main.cpp  ****     if(*(int*)arg == 0) {
 166              		.loc 1 30 5 is_stmt 1
 167              		.loc 1 30 8 is_stmt 0
 168 0114 83270900 		lw	a5,0(s2)
 169              		.loc 1 30 5
 170 0118 63800702 		beqz	a5,.L10
 171              	.L1:
  31:src/main.cpp  ****         sem_close(semafor);
  32:src/main.cpp  ****         semafor = nullptr;
  33:src/main.cpp  ****     }
  34:src/main.cpp  **** }
 172              		.loc 1 34 1
 173 011c 83308102 		ld	ra,40(sp)
 174              		.cfi_remember_state
 175              		.cfi_restore 1
 176 0120 03340102 		ld	s0,32(sp)
 177              		.cfi_restore 8
 178              		.cfi_def_cfa 2, 48
 179 0124 83348101 		ld	s1,24(sp)
 180              		.cfi_restore 9
 181 0128 03390101 		ld	s2,16(sp)
 182              		.cfi_restore 18
 183              	.LVL22:
 184 012c 83398100 		ld	s3,8(sp)
 185              		.cfi_restore 19
 186              	.LVL23:
 187 0130 13010103 		addi	sp,sp,48
 188              		.cfi_def_cfa_offset 0
 189 0134 67800000 		jr	ra
 190              	.LVL24:
 191              	.L10:
 192              		.cfi_restore_state
  31:src/main.cpp  ****         sem_close(semafor);
 193              		.loc 1 31 9 is_stmt 1
  31:src/main.cpp  ****         sem_close(semafor);
 194              		.loc 1 31 18 is_stmt 0
 195 0138 97040000 		lla	s1,.LANCHOR0
 195      93840400 
 196 0140 03B50400 		ld	a0,0(s1)
 197 0144 97000000 		call	_Z9sem_closeP3SCB@plt
 197      E7800000 
 198              	.LVL25:
  32:src/main.cpp  ****     }
 199              		.loc 1 32 9 is_stmt 1
  32:src/main.cpp  ****     }
 200              		.loc 1 32 17 is_stmt 0
GAS LISTING /tmp/ccsEQFaZ.s 			page 6


 201 014c 23B00400 		sd	zero,0(s1)
 202              		.loc 1 34 1
 203 0150 6FF0DFFC 		j	.L1
 204              		.cfi_endproc
 205              	.LFE34:
 207              		.align	2
 208              		.globl	main
 210              	main:
 211              	.LFB35:
  35:src/main.cpp  **** 
  36:src/main.cpp  **** extern "C" void interrupt();
  37:src/main.cpp  **** int main() {
 212              		.loc 1 37 12 is_stmt 1
 213              		.cfi_startproc
 214 0154 130101FB 		addi	sp,sp,-80
 215              		.cfi_def_cfa_offset 80
 216 0158 23341104 		sd	ra,72(sp)
 217 015c 23308104 		sd	s0,64(sp)
 218 0160 233C9102 		sd	s1,56(sp)
 219 0164 23382103 		sd	s2,48(sp)
 220              		.cfi_offset 1, -8
 221              		.cfi_offset 8, -16
 222              		.cfi_offset 9, -24
 223              		.cfi_offset 18, -32
 224 0168 13040105 		addi	s0,sp,80
 225              		.cfi_def_cfa 8, 0
  38:src/main.cpp  ****     asm volatile("csrw stvec, %0" : : "r" (&interrupt));
 226              		.loc 1 38 5
 227              		.loc 1 38 56 is_stmt 0
 228 016c 97070000 		la	a5,interrupt
 228      83B70700 
 229              	#APP
 230              	# 38 "src/main.cpp" 1
  39              	    PCB* main = PCB::createProccess(nullptr, nullptr); // main
 231              		csrw stvec, a5
 232              	# 0 "" 2
 233              		.loc 1 39 5 is_stmt 1
 234              		.loc 1 39 36 is_stmt 0
 235              	#NO_APP
 236 0178 93050000 		li	a1,0
 237 017c 13050000 		li	a0,0
 238 0180 97000000 		call	_ZN3PCB14createProccessEPFvvEPv@plt
 238      E7800000 
 239              	.LVL26:
  40:src/main.cpp  ****     PCB::running = main;
 240              		.loc 1 40 5 is_stmt 1
 241              		.loc 1 40 18 is_stmt 0
 242 0188 97070000 		la	a5,_ZN3PCB7runningE
 242      83B70700 
 243 0190 23B0A700 		sd	a0,0(a5)
  41:src/main.cpp  ****     Kernel::ms_sstatus(Kernel::SSTATUS_SIE); // dozvoljavaju se prekidi
 244              		.loc 1 41 5 is_stmt 1
 245              	.LVL27:
 246              	.LBB22:
 247              	.LBB23:
 248              		.file 2 "src/../h/kernel.h"
   1:src/../h/kernel.h **** #ifndef KERNEL_H
GAS LISTING /tmp/ccsEQFaZ.s 			page 7


   2:src/../h/kernel.h **** #define KERNEL_H
   3:src/../h/kernel.h **** 
   4:src/../h/kernel.h **** #include "hw.h"
   5:src/../h/kernel.h **** 
   6:src/../h/kernel.h **** class Kernel {
   7:src/../h/kernel.h **** public:
   8:src/../h/kernel.h **** 
   9:src/../h/kernel.h ****     // postavlja code u registar a0
  10:src/../h/kernel.h ****     static size_t setCode(size_t code) {
  11:src/../h/kernel.h ****         return code;
  12:src/../h/kernel.h ****     }
  13:src/../h/kernel.h **** 
  14:src/../h/kernel.h ****     // kodovi po kojima se prepoznaju sistemski pozivi
  15:src/../h/kernel.h ****     enum sysCallCodes {
  16:src/../h/kernel.h ****         mem_alloc = 0x01,
  17:src/../h/kernel.h ****         mem_free = 0x02,
  18:src/../h/kernel.h ****         thread_create = 0x11,
  19:src/../h/kernel.h ****         thread_exit = 0x12,
  20:src/../h/kernel.h ****         thread_dispatch = 0x13,
  21:src/../h/kernel.h ****         thread_start = 0x14,
  22:src/../h/kernel.h ****         sem_open = 0x21,
  23:src/../h/kernel.h ****         sem_close = 0x22,
  24:src/../h/kernel.h ****         sem_wait = 0x23,
  25:src/../h/kernel.h ****         sem_signal = 0x24,
  26:src/../h/kernel.h ****         tim_sleep = 0x31,
  27:src/../h/kernel.h ****         getc = 0x41,
  28:src/../h/kernel.h ****         putc = 0x42
  29:src/../h/kernel.h ****     };
  30:src/../h/kernel.h **** 
  31:src/../h/kernel.h ****     // pop sstatus.spp and sstatus.spie bits (has to be a non inline function)
  32:src/../h/kernel.h ****     static void popSppSpie();
  33:src/../h/kernel.h **** 
  34:src/../h/kernel.h ****     // cita registar scause (uzrok nastanka prekida)
  35:src/../h/kernel.h ****     static size_t r_scause() {
  36:src/../h/kernel.h ****         size_t volatile scause;
  37:src/../h/kernel.h ****         __asm__ volatile ("csrr %[scause], scause" : [scause] "=r"(scause));
  38:src/../h/kernel.h ****         return scause;
  39:src/../h/kernel.h ****     }
  40:src/../h/kernel.h **** 
  41:src/../h/kernel.h ****     // upisuje u registar scause (uzrok nastanka prekida)
  42:src/../h/kernel.h ****     static void w_scause(size_t scause) {
  43:src/../h/kernel.h ****         __asm__ volatile ("csrw scause, %[scause]" : : [scause] "r"(scause));
  44:src/../h/kernel.h ****     }
  45:src/../h/kernel.h **** 
  46:src/../h/kernel.h ****     // cita registar sepc
  47:src/../h/kernel.h ****     static size_t r_sepc() {
  48:src/../h/kernel.h ****         size_t volatile sepc;
  49:src/../h/kernel.h ****         __asm__ volatile ("csrr %[sepc], sepc" : [sepc] "=r"(sepc));
  50:src/../h/kernel.h ****         return sepc;
  51:src/../h/kernel.h ****     }
  52:src/../h/kernel.h **** 
  53:src/../h/kernel.h ****     // upisuje u registar sepc
  54:src/../h/kernel.h ****     static void w_sepc(size_t sepc) {
  55:src/../h/kernel.h ****         __asm__ volatile ("csrw sepc, %[sepc]" : : [sepc] "r"(sepc));
  56:src/../h/kernel.h ****     }
  57:src/../h/kernel.h **** 
  58:src/../h/kernel.h ****     // read register stvec
GAS LISTING /tmp/ccsEQFaZ.s 			page 8


  59:src/../h/kernel.h ****     static size_t r_stvec() {
  60:src/../h/kernel.h ****         size_t volatile stvec;
  61:src/../h/kernel.h ****         __asm__ volatile ("csrr %[stvec], stvec" : [stvec] "=r"(stvec));
  62:src/../h/kernel.h ****         return stvec;
  63:src/../h/kernel.h ****     }
  64:src/../h/kernel.h **** 
  65:src/../h/kernel.h ****     // write register stvec
  66:src/../h/kernel.h ****     static void w_stvec(size_t stvec) {
  67:src/../h/kernel.h ****         __asm__ volatile ("csrw stvec, %[stvec]" : : [stvec] "r"(stvec));
  68:src/../h/kernel.h ****     }
  69:src/../h/kernel.h **** 
  70:src/../h/kernel.h ****     // read register stval
  71:src/../h/kernel.h ****     static size_t r_stval() {
  72:src/../h/kernel.h ****         size_t volatile stval;
  73:src/../h/kernel.h ****         __asm__ volatile ("csrr %[stval], stval" : [stval] "=r"(stval));
  74:src/../h/kernel.h ****         return stval;
  75:src/../h/kernel.h ****     }
  76:src/../h/kernel.h **** 
  77:src/../h/kernel.h ****     // write register stval
  78:src/../h/kernel.h ****     static void w_stval(size_t stval) {
  79:src/../h/kernel.h ****         __asm__ volatile ("csrw stval, %[stval]" : : [stval] "r"(stval));
  80:src/../h/kernel.h ****     }
  81:src/../h/kernel.h **** 
  82:src/../h/kernel.h ****     enum BitMaskSip
  83:src/../h/kernel.h ****     {
  84:src/../h/kernel.h ****         SIP_SSIE = (1 << 1), // da li su dozvoljeni softverski prekidi
  85:src/../h/kernel.h ****         SIP_SEIE = (1 << 9), // da li su dozvoljeni spoljasnji hardverski prekidi
  86:src/../h/kernel.h ****     };
  87:src/../h/kernel.h **** 
  88:src/../h/kernel.h ****     // postavljanje odredjenih bitova (BitMaskSip) u registar sip
  89:src/../h/kernel.h ****     static void ms_sip(size_t mask) {
  90:src/../h/kernel.h ****         __asm__ volatile ("csrs sip, %[mask]" : : [mask] "r"(mask));
  91:src/../h/kernel.h ****     }
  92:src/../h/kernel.h **** 
  93:src/../h/kernel.h ****     // brisanje odredjenih bitova (BitMaskSip) iz registra sip
  94:src/../h/kernel.h ****     static void mc_sip(size_t mask) {
  95:src/../h/kernel.h ****         __asm__ volatile ("csrc sip, %[mask]" : : [mask] "r"(mask));
  96:src/../h/kernel.h ****     }
  97:src/../h/kernel.h **** 
  98:src/../h/kernel.h ****     // citanje iz registra sip
  99:src/../h/kernel.h ****     static size_t r_sip() {
 100:src/../h/kernel.h ****         size_t volatile sip;
 101:src/../h/kernel.h ****         __asm__ volatile ("csrr %[sip], sip" : [sip] "=r"(sip));
 102:src/../h/kernel.h ****         return sip;
 103:src/../h/kernel.h ****     }
 104:src/../h/kernel.h **** 
 105:src/../h/kernel.h ****     // upis u registar sip
 106:src/../h/kernel.h ****     static void w_sip(size_t sip) {
 107:src/../h/kernel.h ****         __asm__ volatile ("csrw sip, %[sip]" : : [sip] "r"(sip));
 108:src/../h/kernel.h ****     }
 109:src/../h/kernel.h **** 
 110:src/../h/kernel.h ****     enum BitMaskSstatus
 111:src/../h/kernel.h ****     {
 112:src/../h/kernel.h ****         SSTATUS_SIE = (1 << 1),
 113:src/../h/kernel.h ****         SSTATUS_SPIE = (1 << 5),
 114:src/../h/kernel.h ****         SSTATUS_SPP = (1 << 8),
 115:src/../h/kernel.h ****     };
GAS LISTING /tmp/ccsEQFaZ.s 			page 9


 116:src/../h/kernel.h **** 
 117:src/../h/kernel.h ****     // mask set register sstatus
 118:src/../h/kernel.h ****     static void ms_sstatus(size_t mask) {
 119:src/../h/kernel.h ****         __asm__ volatile ("csrs sstatus, %[mask]" : : [mask] "r"(mask));
 249              		.loc 2 119 9
 250              		.loc 2 119 72 is_stmt 0
 251 0194 93072000 		li	a5,2
 252              	#APP
 253              	# 119 "src/../h/kernel.h" 1
 120              	    }
 254              		csrs sstatus, a5
 255              	# 0 "" 2
 256              	.LVL28:
 257              	#NO_APP
 258              	.LBE23:
 259              	.LBE22:
  42:src/main.cpp  **** 
  43:src/main.cpp  ****     sem_open(&semafor, 1);
 260              		.loc 1 43 5 is_stmt 1
 261              		.loc 1 43 13 is_stmt 0
 262 019c 93051000 		li	a1,1
 263 01a0 17050000 		lla	a0,.LANCHOR0
 263      13050500 
 264              	.LVL29:
 265 01a8 97000000 		call	_Z8sem_openPP3SCBj@plt
 265      E7800000 
 266              	.LVL30:
  44:src/main.cpp  ****     PCB* procesi[4];
 267              		.loc 1 44 5 is_stmt 1
  45:src/main.cpp  ****     int niz[4] = {0,1,2,3};
 268              		.loc 1 45 5
 269              		.loc 1 45 9 is_stmt 0
 270 01b0 97070000 		lla	a5,.LANCHOR1
 270      93870700 
 271 01b8 03B70700 		ld	a4,0(a5)
 272 01bc 2338E4FA 		sd	a4,-80(s0)
 273 01c0 83B78700 		ld	a5,8(a5)
 274 01c4 233CF4FA 		sd	a5,-72(s0)
  46:src/main.cpp  ****     for(int i = 0; i < 4; i++) {
 275              		.loc 1 46 5 is_stmt 1
 276              	.LVL31:
 277              	.LBB24:
 278              		.loc 1 46 13 is_stmt 0
 279 01c8 93040000 		li	s1,0
 280              	.LVL32:
 281              	.L13:
 282              		.loc 1 46 22 is_stmt 1 discriminator 1
 283 01cc 93073000 		li	a5,3
 284 01d0 63CE9702 		bgt	s1,a5,.L12
  47:src/main.cpp  ****         thread_create(&procesi[i], workerBodyA, &niz[i]);
 285              		.loc 1 47 9
 286              		.loc 1 47 49 is_stmt 0
 287 01d4 13972400 		slli	a4,s1,2
 288              		.loc 1 47 22
 289 01d8 93973400 		slli	a5,s1,3
 290 01dc 130604FB 		addi	a2,s0,-80
 291 01e0 3306E600 		add	a2,a2,a4
GAS LISTING /tmp/ccsEQFaZ.s 			page 10


 292 01e4 97050000 		lla	a1,_Z11workerBodyAPv
 292      93850500 
 293 01ec 130504FC 		addi	a0,s0,-64
 294 01f0 3305F500 		add	a0,a0,a5
 295 01f4 97000000 		call	_Z13thread_createPP3PCBPFvPvES2_@plt
 295      E7800000 
 296              	.LVL33:
  46:src/main.cpp  ****     for(int i = 0; i < 4; i++) {
 297              		.loc 1 46 5 is_stmt 1
 298 01fc 9B841400 		addiw	s1,s1,1
 299              	.LVL34:
 300 0200 6FF0DFFC 		j	.L13
 301              	.LVL35:
 302              	.L14:
 303              	.LBE24:
  48:src/main.cpp  ****     }
  49:src/main.cpp  **** 
  50:src/main.cpp  ****     while(!procesi[0]->isFinished() || !procesi[1]->isFinished() || !procesi[2]->isFinished() || !p
  51:src/main.cpp  ****         Thread::dispatch();
 304              		.loc 1 51 9 discriminator 7
 305              		.loc 1 51 25 is_stmt 0 discriminator 7
 306 0204 97000000 		call	_ZN6Thread8dispatchEv@plt
 306      E7800000 
 307              	.LVL36:
 308              	.L12:
  50:src/main.cpp  ****         Thread::dispatch();
 309              		.loc 1 50 5 is_stmt 1
  50:src/main.cpp  ****         Thread::dispatch();
 310              		.loc 1 50 95
  50:src/main.cpp  ****         Thread::dispatch();
 311              		.loc 1 50 21 is_stmt 0
 312 020c 833704FC 		ld	a5,-64(s0)
 313              	.LVL37:
 314              	.LBB25:
 315              	.LBB26:
 316              		.file 3 "src/../h/PCB.h"
   1:src/../h/PCB.h **** #ifndef PCB_H
   2:src/../h/PCB.h **** #define PCB_H
   3:src/../h/PCB.h **** 
   4:src/../h/PCB.h **** #include "hw.h"
   5:src/../h/PCB.h **** 
   6:src/../h/PCB.h **** extern "C" void interruptHandler();
   7:src/../h/PCB.h **** 
   8:src/../h/PCB.h **** class PCB {
   9:src/../h/PCB.h **** friend class Scheduler;
  10:src/../h/PCB.h **** friend class SCB;
  11:src/../h/PCB.h **** friend void interruptHandler();
  12:src/../h/PCB.h **** friend class Kernel;
  13:src/../h/PCB.h **** public:
  14:src/../h/PCB.h ****     // vraca true ako se proces zavrsio, false ako nije
  15:src/../h/PCB.h ****     bool isFinished() const {
  16:src/../h/PCB.h ****         return finished;
 317              		.loc 3 16 9 is_stmt 1
 318              		.loc 3 16 16 is_stmt 0
 319 0210 83C78702 		lbu	a5,40(a5)
 320              	.LVL38:
 321              	.LBE26:
GAS LISTING /tmp/ccsEQFaZ.s 			page 11


 322              	.LBE25:
  50:src/main.cpp  ****         Thread::dispatch();
 323              		.loc 1 50 95
 324 0214 E38807FE 		beqz	a5,.L14
  50:src/main.cpp  ****         Thread::dispatch();
 325              		.loc 1 50 50 discriminator 2
 326 0218 833784FC 		ld	a5,-56(s0)
 327              	.LVL39:
 328              	.LBB27:
 329              	.LBB28:
 330              		.loc 3 16 9 is_stmt 1 discriminator 2
 331              		.loc 3 16 16 is_stmt 0 discriminator 2
 332 021c 83C78702 		lbu	a5,40(a5)
 333              	.LVL40:
 334              	.LBE28:
 335              	.LBE27:
  50:src/main.cpp  ****         Thread::dispatch();
 336              		.loc 1 50 37 discriminator 2
 337 0220 E38207FE 		beqz	a5,.L14
  50:src/main.cpp  ****         Thread::dispatch();
 338              		.loc 1 50 79 discriminator 4
 339 0224 833704FD 		ld	a5,-48(s0)
 340              	.LVL41:
 341              	.LBB29:
 342              	.LBB30:
 343              		.loc 3 16 9 is_stmt 1 discriminator 4
 344              		.loc 3 16 16 is_stmt 0 discriminator 4
 345 0228 83C78702 		lbu	a5,40(a5)
 346              	.LVL42:
 347              	.LBE30:
 348              	.LBE29:
  50:src/main.cpp  ****         Thread::dispatch();
 349              		.loc 1 50 66 discriminator 4
 350 022c E38C07FC 		beqz	a5,.L14
  50:src/main.cpp  ****         Thread::dispatch();
 351              		.loc 1 50 108 discriminator 6
 352 0230 833784FD 		ld	a5,-40(s0)
 353              	.LVL43:
 354              	.LBB31:
 355              	.LBB32:
 356              		.loc 3 16 9 is_stmt 1 discriminator 6
 357              		.loc 3 16 16 is_stmt 0 discriminator 6
 358 0234 83C78702 		lbu	a5,40(a5)
 359              	.LVL44:
 360              	.LBE32:
 361              	.LBE31:
  50:src/main.cpp  ****         Thread::dispatch();
 362              		.loc 1 50 95 discriminator 6
 363 0238 E38607FC 		beqz	a5,.L14
 364 023c 930404FC 		addi	s1,s0,-64
 365              	.LVL45:
 366 0240 6F008000 		j	.L15
 367              	.LVL46:
 368              	.L17:
 369              	.LBB33:
  52:src/main.cpp  ****     }
  53:src/main.cpp  **** 
GAS LISTING /tmp/ccsEQFaZ.s 			page 12


  54:src/main.cpp  ****     for(auto& proces : procesi) {
 370              		.loc 1 54 5 is_stmt 1 discriminator 3
 371 0244 93848400 		addi	s1,s1,8
 372              	.LVL47:
 373              	.L15:
 374              		.loc 1 54 24 discriminator 1
 375 0248 930704FE 		addi	a5,s0,-32
 376 024c 6384F402 		beq	s1,a5,.L16
 377              	.LVL48:
  55:src/main.cpp  ****         delete proces;
 378              		.loc 1 55 9 discriminator 2
 379              		.loc 1 55 16 is_stmt 0 discriminator 2
 380 0250 03B90400 		ld	s2,0(s1)
 381              		.loc 1 55 22 discriminator 2
 382 0254 E30809FE 		beqz	s2,.L17
 383              		.loc 1 55 16 discriminator 1
 384 0258 13050900 		mv	a0,s2
 385 025c 97000000 		call	_ZN3PCBD1Ev@plt
 385      E7800000 
 386              	.LVL49:
 387 0264 13050900 		mv	a0,s2
 388 0268 97000000 		call	_ZN3PCBdlEPv@plt
 388      E7800000 
 389              	.LVL50:
 390 0270 6FF05FFD 		j	.L17
 391              	.LVL51:
 392              	.L16:
 393              	.LBE33:
  56:src/main.cpp  ****     }
  57:src/main.cpp  **** 
  58:src/main.cpp  ****     return 0;
 394              		.loc 1 58 5 is_stmt 1
  59:src/main.cpp  **** }...
 395              		.loc 1 59 1 is_stmt 0
 396 0274 13050000 		li	a0,0
 397 0278 83308104 		ld	ra,72(sp)
 398              		.cfi_restore 1
 399 027c 03340104 		ld	s0,64(sp)
 400              		.cfi_restore 8
 401              		.cfi_def_cfa 2, 80
 402 0280 83348103 		ld	s1,56(sp)
 403              		.cfi_restore 9
 404              	.LVL52:
 405 0284 03390103 		ld	s2,48(sp)
 406              		.cfi_restore 18
 407 0288 13010105 		addi	sp,sp,80
 408              		.cfi_def_cfa_offset 0
 409 028c 67800000 		jr	ra
 410              		.cfi_endproc
 411              	.LFE35:
 413              		.globl	semafor
 414              		.section	.rodata
 415              		.align	3
 416              		.set	.LANCHOR1,. + 0
 417              	.LC0:
 418 0000 00000000 		.word	0
 419 0004 01000000 		.word	1
GAS LISTING /tmp/ccsEQFaZ.s 			page 13


 420 0008 02000000 		.word	2
 421 000c 03000000 		.word	3
 422              		.bss
 423              		.align	3
 424              		.set	.LANCHOR0,. + 0
 427              	semafor:
 428 0000 00000000 		.zero	8
 428      00000000 
 429              		.text
 430              	.Letext0:
 431              		.file 4 "src/../h/hw.h"
 432              		.file 5 "src/../h/SCB.h"
 433              		.file 6 "src/../h/syscall_c.h"
 434              		.file 7 "src/../h/print.h"
GAS LISTING /tmp/ccsEQFaZ.s 			page 14


DEFINED SYMBOLS
                            *ABS*:0000000000000000 main.cpp
     /tmp/ccsEQFaZ.s:26     .text:0000000000000000 _Z11workerBodyAPv
     /tmp/ccsEQFaZ.s:30     .text:0000000000000000 .L0 
     /tmp/ccsEQFaZ.s:32     .text:0000000000000000 .L0 
     /tmp/ccsEQFaZ.s:33     .text:0000000000000004 .L0 
     /tmp/ccsEQFaZ.s:39     .text:0000000000000018 .L0 
     /tmp/ccsEQFaZ.s:40     .text:0000000000000018 .L0 
     /tmp/ccsEQFaZ.s:41     .text:0000000000000018 .L0 
     /tmp/ccsEQFaZ.s:42     .text:0000000000000018 .L0 
     /tmp/ccsEQFaZ.s:43     .text:0000000000000018 .L0 
     /tmp/ccsEQFaZ.s:45     .text:000000000000001c .L0 
     /tmp/ccsEQFaZ.s:48     .text:0000000000000020 .L0 
     /tmp/ccsEQFaZ.s:49     .text:0000000000000020 .L0 
     /tmp/ccsEQFaZ.s:56     .text:0000000000000034 .L0 
     /tmp/ccsEQFaZ.s:57     .text:0000000000000034 .L0 
     /tmp/ccsEQFaZ.s:61     .text:0000000000000044 .L0 
     /tmp/ccsEQFaZ.s:62     .text:0000000000000044 .L0 
     /tmp/ccsEQFaZ.s:66     .text:0000000000000050 .L0 
     /tmp/ccsEQFaZ.s:67     .text:0000000000000050 .L0 
     /tmp/ccsEQFaZ.s:71     .text:0000000000000060 .L0 
     /tmp/ccsEQFaZ.s:72     .text:0000000000000060 .L0 
     /tmp/ccsEQFaZ.s:76     .text:000000000000006c .L0 
     /tmp/ccsEQFaZ.s:77     .text:000000000000006c .L0 
     /tmp/ccsEQFaZ.s:82     .text:000000000000007c .L0 
     /tmp/ccsEQFaZ.s:83     .text:000000000000007c .L0 
     /tmp/ccsEQFaZ.s:91     .text:0000000000000084 .L0 
     /tmp/ccsEQFaZ.s:92     .text:0000000000000084 .L0 
     /tmp/ccsEQFaZ.s:96     .text:000000000000008c .L0 
     /tmp/ccsEQFaZ.s:100    .text:0000000000000090 .L0 
     /tmp/ccsEQFaZ.s:106    .text:000000000000009c .L0 
     /tmp/ccsEQFaZ.s:110    .text:00000000000000a0 .L0 
     /tmp/ccsEQFaZ.s:114    .text:00000000000000ac .L0 
     /tmp/ccsEQFaZ.s:124    .text:00000000000000b4 .L0 
     /tmp/ccsEQFaZ.s:128    .text:00000000000000b8 .L0 
     /tmp/ccsEQFaZ.s:132    .text:00000000000000c0 .L0 
     /tmp/ccsEQFaZ.s:133    .text:00000000000000c0 .L0 
     /tmp/ccsEQFaZ.s:137    .text:00000000000000d0 .L0 
     /tmp/ccsEQFaZ.s:138    .text:00000000000000d0 .L0 
     /tmp/ccsEQFaZ.s:142    .text:00000000000000dc .L0 
     /tmp/ccsEQFaZ.s:143    .text:00000000000000dc .L0 
     /tmp/ccsEQFaZ.s:148    .text:00000000000000ec .L0 
     /tmp/ccsEQFaZ.s:149    .text:00000000000000ec .L0 
     /tmp/ccsEQFaZ.s:157    .text:00000000000000f4 .L0 
     /tmp/ccsEQFaZ.s:158    .text:00000000000000f4 .L0 
     /tmp/ccsEQFaZ.s:162    .text:0000000000000104 .L0 
     /tmp/ccsEQFaZ.s:163    .text:0000000000000104 .L0 
     /tmp/ccsEQFaZ.s:167    .text:0000000000000114 .L0 
     /tmp/ccsEQFaZ.s:168    .text:0000000000000114 .L0 
     /tmp/ccsEQFaZ.s:170    .text:0000000000000118 .L0 
     /tmp/ccsEQFaZ.s:173    .text:000000000000011c .L0 
     /tmp/ccsEQFaZ.s:174    .text:0000000000000120 .L0 
     /tmp/ccsEQFaZ.s:175    .text:0000000000000120 .L0 
     /tmp/ccsEQFaZ.s:177    .text:0000000000000124 .L0 
     /tmp/ccsEQFaZ.s:178    .text:0000000000000124 .L0 
     /tmp/ccsEQFaZ.s:180    .text:0000000000000128 .L0 
     /tmp/ccsEQFaZ.s:182    .text:000000000000012c .L0 
GAS LISTING /tmp/ccsEQFaZ.s 			page 15


     /tmp/ccsEQFaZ.s:185    .text:0000000000000130 .L0 
     /tmp/ccsEQFaZ.s:188    .text:0000000000000134 .L0 
     /tmp/ccsEQFaZ.s:192    .text:0000000000000138 .L0 
     /tmp/ccsEQFaZ.s:194    .text:0000000000000138 .L0 
     /tmp/ccsEQFaZ.s:195    .text:0000000000000138 .L0 
     /tmp/ccsEQFaZ.s:200    .text:000000000000014c .L0 
     /tmp/ccsEQFaZ.s:201    .text:000000000000014c .L0 
     /tmp/ccsEQFaZ.s:203    .text:0000000000000150 .L0 
     /tmp/ccsEQFaZ.s:204    .text:0000000000000154 .L0 
     /tmp/ccsEQFaZ.s:210    .text:0000000000000154 main
     /tmp/ccsEQFaZ.s:213    .text:0000000000000154 .L0 
     /tmp/ccsEQFaZ.s:214    .text:0000000000000154 .L0 
     /tmp/ccsEQFaZ.s:215    .text:0000000000000158 .L0 
     /tmp/ccsEQFaZ.s:220    .text:0000000000000168 .L0 
     /tmp/ccsEQFaZ.s:221    .text:0000000000000168 .L0 
     /tmp/ccsEQFaZ.s:222    .text:0000000000000168 .L0 
     /tmp/ccsEQFaZ.s:223    .text:0000000000000168 .L0 
     /tmp/ccsEQFaZ.s:225    .text:000000000000016c .L0 
     /tmp/ccsEQFaZ.s:227    .text:000000000000016c .L0 
     /tmp/ccsEQFaZ.s:228    .text:000000000000016c .L0 
     /tmp/ccsEQFaZ.s:234    .text:0000000000000178 .L0 
     /tmp/ccsEQFaZ.s:236    .text:0000000000000178 .L0 
     /tmp/ccsEQFaZ.s:241    .text:0000000000000188 .L0 
     /tmp/ccsEQFaZ.s:242    .text:0000000000000188 .L0 
     /tmp/ccsEQFaZ.s:249    .text:0000000000000194 .L0 
     /tmp/ccsEQFaZ.s:250    .text:0000000000000194 .L0 
     /tmp/ccsEQFaZ.s:251    .text:0000000000000194 .L0 
     /tmp/ccsEQFaZ.s:261    .text:000000000000019c .L0 
     /tmp/ccsEQFaZ.s:262    .text:000000000000019c .L0 
     /tmp/ccsEQFaZ.s:268    .text:00000000000001b0 .L0 
     /tmp/ccsEQFaZ.s:269    .text:00000000000001b0 .L0 
     /tmp/ccsEQFaZ.s:270    .text:00000000000001b0 .L0 
     /tmp/ccsEQFaZ.s:278    .text:00000000000001c8 .L0 
     /tmp/ccsEQFaZ.s:279    .text:00000000000001c8 .L0 
     /tmp/ccsEQFaZ.s:283    .text:00000000000001cc .L0 
     /tmp/ccsEQFaZ.s:286    .text:00000000000001d4 .L0 
     /tmp/ccsEQFaZ.s:287    .text:00000000000001d4 .L0 
     /tmp/ccsEQFaZ.s:289    .text:00000000000001d8 .L0 
     /tmp/ccsEQFaZ.s:298    .text:00000000000001fc .L0 
     /tmp/ccsEQFaZ.s:305    .text:0000000000000204 .L0 
     /tmp/ccsEQFaZ.s:306    .text:0000000000000204 .L0 
     /tmp/ccsEQFaZ.s:310    .text:000000000000020c .L0 
     /tmp/ccsEQFaZ.s:311    .text:000000000000020c .L0 
     /tmp/ccsEQFaZ.s:312    .text:000000000000020c .L0 
     /tmp/ccsEQFaZ.s:318    .text:0000000000000210 .L0 
     /tmp/ccsEQFaZ.s:319    .text:0000000000000210 .L0 
     /tmp/ccsEQFaZ.s:324    .text:0000000000000214 .L0 
     /tmp/ccsEQFaZ.s:326    .text:0000000000000218 .L0 
     /tmp/ccsEQFaZ.s:331    .text:000000000000021c .L0 
     /tmp/ccsEQFaZ.s:332    .text:000000000000021c .L0 
     /tmp/ccsEQFaZ.s:337    .text:0000000000000220 .L0 
     /tmp/ccsEQFaZ.s:339    .text:0000000000000224 .L0 
     /tmp/ccsEQFaZ.s:344    .text:0000000000000228 .L0 
     /tmp/ccsEQFaZ.s:345    .text:0000000000000228 .L0 
     /tmp/ccsEQFaZ.s:350    .text:000000000000022c .L0 
     /tmp/ccsEQFaZ.s:352    .text:0000000000000230 .L0 
     /tmp/ccsEQFaZ.s:357    .text:0000000000000234 .L0 
GAS LISTING /tmp/ccsEQFaZ.s 			page 16


     /tmp/ccsEQFaZ.s:358    .text:0000000000000234 .L0 
     /tmp/ccsEQFaZ.s:363    .text:0000000000000238 .L0 
     /tmp/ccsEQFaZ.s:371    .text:0000000000000244 .L0 
     /tmp/ccsEQFaZ.s:375    .text:0000000000000248 .L0 
     /tmp/ccsEQFaZ.s:379    .text:0000000000000250 .L0 
     /tmp/ccsEQFaZ.s:380    .text:0000000000000250 .L0 
     /tmp/ccsEQFaZ.s:382    .text:0000000000000254 .L0 
     /tmp/ccsEQFaZ.s:384    .text:0000000000000258 .L0 
     /tmp/ccsEQFaZ.s:395    .text:0000000000000274 .L0 
     /tmp/ccsEQFaZ.s:396    .text:0000000000000274 .L0 
     /tmp/ccsEQFaZ.s:398    .text:000000000000027c .L0 
     /tmp/ccsEQFaZ.s:400    .text:0000000000000280 .L0 
     /tmp/ccsEQFaZ.s:401    .text:0000000000000280 .L0 
     /tmp/ccsEQFaZ.s:403    .text:0000000000000284 .L0 
     /tmp/ccsEQFaZ.s:406    .text:0000000000000288 .L0 
     /tmp/ccsEQFaZ.s:408    .text:000000000000028c .L0 
     /tmp/ccsEQFaZ.s:410    .text:0000000000000290 .L0 
     /tmp/ccsEQFaZ.s:427    .bss:0000000000000000 semafor
     /tmp/ccsEQFaZ.s:416    .rodata:0000000000000000 .LANCHOR1
     /tmp/ccsEQFaZ.s:424    .bss:0000000000000000 .LANCHOR0
     /tmp/ccsEQFaZ.s:435    .text:0000000000000290 .L0 
     /tmp/ccsEQFaZ.s:49     .text:0000000000000020 .L0 
     /tmp/ccsEQFaZ.s:8      .rodata.str1.8:0000000000000000 .LC1
     /tmp/ccsEQFaZ.s:57     .text:0000000000000034 .L0 
     /tmp/ccsEQFaZ.s:11     .rodata.str1.8:0000000000000010 .LC2
     /tmp/ccsEQFaZ.s:67     .text:0000000000000050 .L0 
     /tmp/ccsEQFaZ.s:14     .rodata.str1.8:0000000000000020 .LC3
     /tmp/ccsEQFaZ.s:77     .text:000000000000006c .L0 
     /tmp/ccsEQFaZ.s:17     .rodata.str1.8:0000000000000028 .LC4
     /tmp/ccsEQFaZ.s:133    .text:00000000000000c0 .L0 
     /tmp/ccsEQFaZ.s:143    .text:00000000000000dc .L0 
     /tmp/ccsEQFaZ.s:20     .rodata.str1.8:0000000000000030 .LC5
     /tmp/ccsEQFaZ.s:158    .text:00000000000000f4 .L0 
     /tmp/ccsEQFaZ.s:163    .text:0000000000000104 .L0 
     /tmp/ccsEQFaZ.s:195    .text:0000000000000138 .L0 
     /tmp/ccsEQFaZ.s:228    .text:000000000000016c .L0 
     /tmp/ccsEQFaZ.s:242    .text:0000000000000188 .L0 
     /tmp/ccsEQFaZ.s:263    .text:00000000000001a0 .L0 
     /tmp/ccsEQFaZ.s:270    .text:00000000000001b0 .L0 
     /tmp/ccsEQFaZ.s:292    .text:00000000000001e4 .L0 
     /tmp/ccsEQFaZ.s:126    .text:00000000000000b8 .L7
     /tmp/ccsEQFaZ.s:118    .text:00000000000000b4 .L3
     /tmp/ccsEQFaZ.s:86     .text:0000000000000084 .L4
     /tmp/ccsEQFaZ.s:107    .text:00000000000000a0 .L5
     /tmp/ccsEQFaZ.s:152    .text:00000000000000f4 .L2
     /tmp/ccsEQFaZ.s:98     .text:0000000000000090 .L6
     /tmp/ccsEQFaZ.s:191    .text:0000000000000138 .L10
     /tmp/ccsEQFaZ.s:171    .text:000000000000011c .L1
     /tmp/ccsEQFaZ.s:308    .text:000000000000020c .L12
     /tmp/ccsEQFaZ.s:281    .text:00000000000001cc .L13
     /tmp/ccsEQFaZ.s:302    .text:0000000000000204 .L14
     /tmp/ccsEQFaZ.s:373    .text:0000000000000248 .L15
     /tmp/ccsEQFaZ.s:392    .text:0000000000000274 .L16
     /tmp/ccsEQFaZ.s:368    .text:0000000000000244 .L17
     /tmp/ccsEQFaZ.s:1687   .debug_abbrev:0000000000000000 .Ldebug_abbrev0
     /tmp/ccsEQFaZ.s:3060   .debug_str:00000000000006a4 .LASF138
     /tmp/ccsEQFaZ.s:2890   .debug_str:0000000000000220 .LASF139
GAS LISTING /tmp/ccsEQFaZ.s 			page 17


     /tmp/ccsEQFaZ.s:3026   .debug_str:00000000000005d6 .LASF140
     /tmp/ccsEQFaZ.s:5      .text:0000000000000000 .Ltext0
     /tmp/ccsEQFaZ.s:430    .text:0000000000000290 .Letext0
     /tmp/ccsEQFaZ.s:2820   .debug_line:0000000000000000 .Ldebug_line0
     /tmp/ccsEQFaZ.s:2912   .debug_str:00000000000002a0 .LASF0
     /tmp/ccsEQFaZ.s:2936   .debug_str:000000000000033f .LASF1
     /tmp/ccsEQFaZ.s:3010   .debug_str:0000000000000555 .LASF2
     /tmp/ccsEQFaZ.s:3016   .debug_str:0000000000000584 .LASF4
     /tmp/ccsEQFaZ.s:2924   .debug_str:00000000000002f3 .LASF3
     /tmp/ccsEQFaZ.s:2832   .debug_str:000000000000003f .LASF5
     /tmp/ccsEQFaZ.s:2978   .debug_str:000000000000045e .LASF6
     /tmp/ccsEQFaZ.s:2928   .debug_str:0000000000000316 .LASF7
     /tmp/ccsEQFaZ.s:2894   .debug_str:0000000000000232 .LASF8
     /tmp/ccsEQFaZ.s:2898   .debug_str:000000000000025a .LASF9
     /tmp/ccsEQFaZ.s:2848   .debug_str:00000000000000cd .LASF10
     /tmp/ccsEQFaZ.s:2888   .debug_str:0000000000000211 .LASF11
     /tmp/ccsEQFaZ.s:2854   .debug_str:00000000000000f6 .LASF12
     /tmp/ccsEQFaZ.s:2846   .debug_str:00000000000000bd .LASF13
     /tmp/ccsEQFaZ.s:3042   .debug_str:0000000000000645 .LASF14
     /tmp/ccsEQFaZ.s:2874   .debug_str:0000000000000196 .LASF15
     /tmp/ccsEQFaZ.s:3032   .debug_str:0000000000000609 .LASF16
     /tmp/ccsEQFaZ.s:2950   .debug_str:000000000000039a .LASF17
     /tmp/ccsEQFaZ.s:3050   .debug_str:000000000000066c .LASF18
     /tmp/ccsEQFaZ.s:3092   .debug_str:000000000000084e .LASF20
     /tmp/ccsEQFaZ.s:2868   .debug_str:0000000000000164 .LASF19
     /tmp/ccsEQFaZ.s:3066   .debug_str:0000000000000777 .LASF21
     /tmp/ccsEQFaZ.s:3108   .debug_str:00000000000008cd .LASF22
     /tmp/ccsEQFaZ.s:2836   .debug_str:0000000000000051 .LASF24
     /tmp/ccsEQFaZ.s:3028   .debug_str:00000000000005f4 .LASF141
     /tmp/ccsEQFaZ.s:2938   .debug_str:0000000000000352 .LASF76
     /tmp/ccsEQFaZ.s:2940   .debug_str:0000000000000358 .LASF78
     /tmp/ccsEQFaZ.s:3056   .debug_str:000000000000068f .LASF142
     /tmp/ccsEQFaZ.s:2934   .debug_str:000000000000033a .LASF23
     /tmp/ccsEQFaZ.s:3102   .debug_str:00000000000008af .LASF25
     /tmp/ccsEQFaZ.s:3106   .debug_str:00000000000008c0 .LASF26
     /tmp/ccsEQFaZ.s:2878   .debug_str:00000000000001b9 .LASF27
     /tmp/ccsEQFaZ.s:2826   .debug_str:000000000000001c .LASF28
     /tmp/ccsEQFaZ.s:2920   .debug_str:00000000000002d1 .LASF55
     /tmp/ccsEQFaZ.s:2906   .debug_str:0000000000000286 .LASF80
     /tmp/ccsEQFaZ.s:2842   .debug_str:000000000000009b .LASF82
     /tmp/ccsEQFaZ.s:2856   .debug_str:0000000000000106 .LASF61
     /tmp/ccsEQFaZ.s:2830   .debug_str:0000000000000034 .LASF29
     /tmp/ccsEQFaZ.s:2952   .debug_str:000000000000039f .LASF30
     /tmp/ccsEQFaZ.s:3088   .debug_str:0000000000000836 .LASF31
     /tmp/ccsEQFaZ.s:2930   .debug_str:0000000000000329 .LASF32
     /tmp/ccsEQFaZ.s:3104   .debug_str:00000000000008bb .LASF33
     /tmp/ccsEQFaZ.s:3030   .debug_str:0000000000000600 .LASF34
     /tmp/ccsEQFaZ.s:2974   .debug_str:000000000000043d .LASF35
     /tmp/ccsEQFaZ.s:2946   .debug_str:0000000000000387 .LASF36
     /tmp/ccsEQFaZ.s:2866   .debug_str:0000000000000156 .LASF37
     /tmp/ccsEQFaZ.s:3064   .debug_str:000000000000076d .LASF38
     /tmp/ccsEQFaZ.s:3024   .debug_str:00000000000005c5 .LASF143
     /tmp/ccsEQFaZ.s:2864   .debug_str:000000000000014d .LASF44
     /tmp/ccsEQFaZ.s:2838   .debug_str:0000000000000071 .LASF46
     /tmp/ccsEQFaZ.s:2914   .debug_str:00000000000002ad .LASF39
     /tmp/ccsEQFaZ.s:3084   .debug_str:000000000000080e .LASF41
     /tmp/ccsEQFaZ.s:2916   .debug_str:00000000000002bc .LASF40
GAS LISTING /tmp/ccsEQFaZ.s 			page 18


     /tmp/ccsEQFaZ.s:3020   .debug_str:0000000000000592 .LASF42
     /tmp/ccsEQFaZ.s:2944   .debug_str:000000000000037d .LASF43
     /tmp/ccsEQFaZ.s:2990   .debug_str:00000000000004b4 .LASF45
     /tmp/ccsEQFaZ.s:3094   .debug_str:0000000000000865 .LASF47
     /tmp/ccsEQFaZ.s:2844   .debug_str:00000000000000b1 .LASF48
     /tmp/ccsEQFaZ.s:2896   .debug_str:0000000000000242 .LASF49
     /tmp/ccsEQFaZ.s:3062   .debug_str:0000000000000768 .LASF50
     /tmp/ccsEQFaZ.s:3090   .debug_str:000000000000083f .LASF51
     /tmp/ccsEQFaZ.s:3048   .debug_str:0000000000000665 .LASF52
     /tmp/ccsEQFaZ.s:2926   .debug_str:0000000000000305 .LASF53
     /tmp/ccsEQFaZ.s:3052   .debug_str:0000000000000677 .LASF54
     /tmp/ccsEQFaZ.s:3046   .debug_str:0000000000000658 .LASF56
     /tmp/ccsEQFaZ.s:3004   .debug_str:0000000000000524 .LASF57
     /tmp/ccsEQFaZ.s:3098   .debug_str:0000000000000888 .LASF58
     /tmp/ccsEQFaZ.s:3014   .debug_str:0000000000000576 .LASF59
     /tmp/ccsEQFaZ.s:2872   .debug_str:000000000000017d .LASF60
     /tmp/ccsEQFaZ.s:2986   .debug_str:00000000000004a1 .LASF62
     /tmp/ccsEQFaZ.s:2910   .debug_str:000000000000029a .LASF63
     /tmp/ccsEQFaZ.s:2984   .debug_str:0000000000000491 .LASF64
     /tmp/ccsEQFaZ.s:2828   .debug_str:000000000000002c .LASF65
     /tmp/ccsEQFaZ.s:3110   .debug_str:00000000000008dc .LASF66
     /tmp/ccsEQFaZ.s:3036   .debug_str:000000000000062b .LASF67
     /tmp/ccsEQFaZ.s:2964   .debug_str:00000000000003f1 .LASF68
     /tmp/ccsEQFaZ.s:2908   .debug_str:0000000000000291 .LASF69
     /tmp/ccsEQFaZ.s:3044   .debug_str:0000000000000651 .LASF70
     /tmp/ccsEQFaZ.s:3074   .debug_str:00000000000007c6 .LASF144
     /tmp/ccsEQFaZ.s:2882   .debug_str:00000000000001e6 .LASF71
     /tmp/ccsEQFaZ.s:3058   .debug_str:0000000000000697 .LASF72
     /tmp/ccsEQFaZ.s:2860   .debug_str:000000000000012d .LASF73
     /tmp/ccsEQFaZ.s:3096   .debug_str:0000000000000880 .LASF74
     /tmp/ccsEQFaZ.s:2922   .debug_str:00000000000002de .LASF75
     /tmp/ccsEQFaZ.s:2902   .debug_str:0000000000000273 .LASF77
     /tmp/ccsEQFaZ.s:2976   .debug_str:0000000000000445 .LASF79
     /tmp/ccsEQFaZ.s:3070   .debug_str:00000000000007ab .LASF81
     /tmp/ccsEQFaZ.s:3006   .debug_str:0000000000000534 .LASF83
     /tmp/ccsEQFaZ.s:3112   .debug_str:00000000000008ee .LASF84
     /tmp/ccsEQFaZ.s:2992   .debug_str:00000000000004c4 .LASF85
     /tmp/ccsEQFaZ.s:2988   .debug_str:00000000000004ad .LASF86
     /tmp/ccsEQFaZ.s:2972   .debug_str:0000000000000429 .LASF87
     /tmp/ccsEQFaZ.s:2970   .debug_str:0000000000000422 .LASF88
     /tmp/ccsEQFaZ.s:3002   .debug_str:0000000000000510 .LASF89
     /tmp/ccsEQFaZ.s:2960   .debug_str:00000000000003e1 .LASF90
     /tmp/ccsEQFaZ.s:3022   .debug_str:00000000000005b0 .LASF91
     /tmp/ccsEQFaZ.s:2962   .debug_str:00000000000003e9 .LASF92
     /tmp/ccsEQFaZ.s:2942   .debug_str:0000000000000368 .LASF93
     /tmp/ccsEQFaZ.s:2948   .debug_str:0000000000000392 .LASF94
     /tmp/ccsEQFaZ.s:2958   .debug_str:00000000000003cc .LASF95
     /tmp/ccsEQFaZ.s:3114   .debug_str:00000000000008f7 .LASF96
     /tmp/ccsEQFaZ.s:3068   .debug_str:0000000000000796 .LASF97
     /tmp/ccsEQFaZ.s:3038   .debug_str:0000000000000630 .LASF98
     /tmp/ccsEQFaZ.s:2982   .debug_str:000000000000047d .LASF99
     /tmp/ccsEQFaZ.s:3018   .debug_str:000000000000058b .LASF100
     /tmp/ccsEQFaZ.s:2862   .debug_str:0000000000000139 .LASF101
     /tmp/ccsEQFaZ.s:2870   .debug_str:0000000000000177 .LASF102
     /tmp/ccsEQFaZ.s:3012   .debug_str:0000000000000563 .LASF103
     /tmp/ccsEQFaZ.s:2918   .debug_str:00000000000002cb .LASF104
     /tmp/ccsEQFaZ.s:2968   .debug_str:000000000000040f .LASF105
GAS LISTING /tmp/ccsEQFaZ.s 			page 19


     /tmp/ccsEQFaZ.s:2834   .debug_str:0000000000000046 .LASF106
     /tmp/ccsEQFaZ.s:3078   .debug_str:00000000000007da .LASF107
     /tmp/ccsEQFaZ.s:3008   .debug_str:000000000000054a .LASF108
     /tmp/ccsEQFaZ.s:2966   .debug_str:00000000000003f6 .LASF109
     /tmp/ccsEQFaZ.s:3086   .debug_str:000000000000082c .LASF110
     /tmp/ccsEQFaZ.s:2884   .debug_str:00000000000001f2 .LASF111
     /tmp/ccsEQFaZ.s:3082   .debug_str:0000000000000804 .LASF112
     /tmp/ccsEQFaZ.s:2840   .debug_str:0000000000000084 .LASF113
     /tmp/ccsEQFaZ.s:2886   .debug_str:0000000000000209 .LASF114
     /tmp/ccsEQFaZ.s:211    .text:0000000000000154 .LFB35
     /tmp/ccsEQFaZ.s:411    .text:0000000000000290 .LFE35
     /tmp/ccsEQFaZ.s:2654   .debug_loc:0000000000000000 .LLST5
     /tmp/ccsEQFaZ.s:2904   .debug_str:000000000000027e .LASF115
     /tmp/ccsEQFaZ.s:277    .text:00000000000001c8 .LBB24
     /tmp/ccsEQFaZ.s:303    .text:0000000000000204 .LBE24
     /tmp/ccsEQFaZ.s:2661   .debug_loc:0000000000000023 .LLST7
     /tmp/ccsEQFaZ.s:296    .text:00000000000001fc .LVL33
     /tmp/ccsEQFaZ.s:369    .text:0000000000000244 .LBB33
     /tmp/ccsEQFaZ.s:393    .text:0000000000000274 .LBE33
     /tmp/ccsEQFaZ.s:2932   .debug_str:0000000000000333 .LASF116
     /tmp/ccsEQFaZ.s:2677   .debug_loc:000000000000006d .LLST12
     /tmp/ccsEQFaZ.s:3034   .debug_str:000000000000061f .LASF117
     /tmp/ccsEQFaZ.s:3054   .debug_str:0000000000000683 .LASF145
     /tmp/ccsEQFaZ.s:2688   .debug_loc:00000000000000a3 .LLST13
     /tmp/ccsEQFaZ.s:2822   .debug_str:0000000000000000 .LASF118
     /tmp/ccsEQFaZ.s:386    .text:0000000000000264 .LVL49
     /tmp/ccsEQFaZ.s:389    .text:0000000000000270 .LVL50
     /tmp/ccsEQFaZ.s:246    .text:0000000000000194 .LBB22
     /tmp/ccsEQFaZ.s:259    .text:000000000000019c .LBE22
     /tmp/ccsEQFaZ.s:2695   .debug_loc:00000000000000c6 .LLST6
     /tmp/ccsEQFaZ.s:314    .text:0000000000000210 .LBB25
     /tmp/ccsEQFaZ.s:322    .text:0000000000000214 .LBE25
     /tmp/ccsEQFaZ.s:2703   .debug_loc:00000000000000ea .LLST8
     /tmp/ccsEQFaZ.s:328    .text:000000000000021c .LBB27
     /tmp/ccsEQFaZ.s:335    .text:0000000000000220 .LBE27
     /tmp/ccsEQFaZ.s:2710   .debug_loc:000000000000010d .LLST9
     /tmp/ccsEQFaZ.s:341    .text:0000000000000228 .LBB29
     /tmp/ccsEQFaZ.s:348    .text:000000000000022c .LBE29
     /tmp/ccsEQFaZ.s:2717   .debug_loc:0000000000000130 .LLST10
     /tmp/ccsEQFaZ.s:354    .text:0000000000000234 .LBB31
     /tmp/ccsEQFaZ.s:361    .text:0000000000000238 .LBE31
     /tmp/ccsEQFaZ.s:2724   .debug_loc:0000000000000153 .LLST11
     /tmp/ccsEQFaZ.s:239    .text:0000000000000188 .LVL26
     /tmp/ccsEQFaZ.s:266    .text:00000000000001b0 .LVL30
     /tmp/ccsEQFaZ.s:307    .text:000000000000020c .LVL36
     /tmp/ccsEQFaZ.s:2980   .debug_str:0000000000000471 .LASF119
     /tmp/ccsEQFaZ.s:2956   .debug_str:00000000000003ba .LASF120
     /tmp/ccsEQFaZ.s:27     .text:0000000000000000 .LFB34
     /tmp/ccsEQFaZ.s:205    .text:0000000000000154 .LFE34
     /tmp/ccsEQFaZ.s:2731   .debug_loc:0000000000000176 .LLST0
     /tmp/ccsEQFaZ.s:2852   .debug_str:00000000000000ef .LASF121
     /tmp/ccsEQFaZ.s:2753   .debug_loc:00000000000001d5 .LLST1
     /tmp/ccsEQFaZ.s:81     .text:000000000000007c .LBB14
     /tmp/ccsEQFaZ.s:155    .text:00000000000000f4 .LBE14
     /tmp/ccsEQFaZ.s:2760   .debug_loc:00000000000001f8 .LLST2
     /tmp/ccsEQFaZ.s:2812   .debug_ranges:0000000000000000 .Ldebug_ranges0
     /tmp/ccsEQFaZ.s:2776   .debug_loc:0000000000000242 .LLST3
GAS LISTING /tmp/ccsEQFaZ.s 			page 20


     /tmp/ccsEQFaZ.s:104    .text:000000000000009c .LBB18
     /tmp/ccsEQFaZ.s:119    .text:00000000000000b4 .LBE18
     /tmp/ccsEQFaZ.s:2788   .debug_loc:0000000000000279 .LLST4
     /tmp/ccsEQFaZ.s:93     .text:000000000000008c .LVL10
     /tmp/ccsEQFaZ.s:135    .text:00000000000000d0 .LVL16
     /tmp/ccsEQFaZ.s:140    .text:00000000000000dc .LVL17
     /tmp/ccsEQFaZ.s:145    .text:00000000000000ec .LVL18
     /tmp/ccsEQFaZ.s:52     .text:0000000000000030 .LVL2
     /tmp/ccsEQFaZ.s:59     .text:0000000000000044 .LVL4
     /tmp/ccsEQFaZ.s:64     .text:0000000000000050 .LVL5
     /tmp/ccsEQFaZ.s:69     .text:0000000000000060 .LVL6
     /tmp/ccsEQFaZ.s:74     .text:000000000000006c .LVL7
     /tmp/ccsEQFaZ.s:79     .text:000000000000007c .LVL8
     /tmp/ccsEQFaZ.s:160    .text:0000000000000104 .LVL20
     /tmp/ccsEQFaZ.s:165    .text:0000000000000114 .LVL21
     /tmp/ccsEQFaZ.s:198    .text:000000000000014c .LVL25
     /tmp/ccsEQFaZ.s:3076   .debug_str:00000000000007d5 .LASF146
     /tmp/ccsEQFaZ.s:2892   .debug_str:000000000000022d .LASF147
     /tmp/ccsEQFaZ.s:2880   .debug_str:00000000000001c5 .LASF122
     /tmp/ccsEQFaZ.s:3040   .debug_str:0000000000000637 .LASF124
     /tmp/ccsEQFaZ.s:2998   .debug_str:00000000000004f4 .LASF123
     /tmp/ccsEQFaZ.s:3000   .debug_str:0000000000000507 .LASF125
     /tmp/ccsEQFaZ.s:2954   .debug_str:00000000000003a5 .LASF126
     /tmp/ccsEQFaZ.s:2996   .debug_str:00000000000004e4 .LASF127
     /tmp/ccsEQFaZ.s:2850   .debug_str:00000000000000dc .LASF128
     /tmp/ccsEQFaZ.s:3100   .debug_str:00000000000008a3 .LASF129
     /tmp/ccsEQFaZ.s:2824   .debug_str:000000000000000a .LASF130
     /tmp/ccsEQFaZ.s:2876   .debug_str:00000000000001ac .LASF131
     /tmp/ccsEQFaZ.s:3080   .debug_str:00000000000007f3 .LASF132
     /tmp/ccsEQFaZ.s:3116   .debug_str:00000000000008ff .LASF133
     /tmp/ccsEQFaZ.s:2858   .debug_str:0000000000000119 .LASF134
     /tmp/ccsEQFaZ.s:2900   .debug_str:0000000000000268 .LASF135
     /tmp/ccsEQFaZ.s:3072   .debug_str:00000000000007b4 .LASF136
     /tmp/ccsEQFaZ.s:2994   .debug_str:00000000000004da .LASF137
     /tmp/ccsEQFaZ.s:264    .text:00000000000001a8 .LVL29
     /tmp/ccsEQFaZ.s:276    .text:00000000000001c8 .LVL31
     /tmp/ccsEQFaZ.s:280    .text:00000000000001cc .LVL32
     /tmp/ccsEQFaZ.s:299    .text:0000000000000200 .LVL34
     /tmp/ccsEQFaZ.s:301    .text:0000000000000204 .LVL35
     /tmp/ccsEQFaZ.s:365    .text:0000000000000240 .LVL45
     /tmp/ccsEQFaZ.s:367    .text:0000000000000244 .LVL46
     /tmp/ccsEQFaZ.s:372    .text:0000000000000248 .LVL47
     /tmp/ccsEQFaZ.s:377    .text:0000000000000250 .LVL48
     /tmp/ccsEQFaZ.s:391    .text:0000000000000274 .LVL51
     /tmp/ccsEQFaZ.s:404    .text:0000000000000284 .LVL52
     /tmp/ccsEQFaZ.s:245    .text:0000000000000194 .LVL27
     /tmp/ccsEQFaZ.s:256    .text:000000000000019c .LVL28
     /tmp/ccsEQFaZ.s:313    .text:0000000000000210 .LVL37
     /tmp/ccsEQFaZ.s:320    .text:0000000000000214 .LVL38
     /tmp/ccsEQFaZ.s:327    .text:000000000000021c .LVL39
     /tmp/ccsEQFaZ.s:333    .text:0000000000000220 .LVL40
     /tmp/ccsEQFaZ.s:340    .text:0000000000000228 .LVL41
     /tmp/ccsEQFaZ.s:346    .text:000000000000022c .LVL42
     /tmp/ccsEQFaZ.s:353    .text:0000000000000234 .LVL43
     /tmp/ccsEQFaZ.s:359    .text:0000000000000238 .LVL44
     /tmp/ccsEQFaZ.s:31     .text:0000000000000000 .LVL0
     /tmp/ccsEQFaZ.s:50     .text:0000000000000028 .LVL1
GAS LISTING /tmp/ccsEQFaZ.s 			page 21


     /tmp/ccsEQFaZ.s:183    .text:000000000000012c .LVL22
     /tmp/ccsEQFaZ.s:190    .text:0000000000000138 .LVL24
     /tmp/ccsEQFaZ.s:54     .text:0000000000000034 .LVL3
     /tmp/ccsEQFaZ.s:85     .text:0000000000000084 .LVL9
     /tmp/ccsEQFaZ.s:186    .text:0000000000000130 .LVL23
     /tmp/ccsEQFaZ.s:125    .text:00000000000000b8 .LVL15
     /tmp/ccsEQFaZ.s:151    .text:00000000000000f4 .LVL19
     /tmp/ccsEQFaZ.s:108    .text:00000000000000a0 .LVL12
     /tmp/ccsEQFaZ.s:117    .text:00000000000000b4 .LVL14
     /tmp/ccsEQFaZ.s:436    .debug_info:0000000000000000 .Ldebug_info0
     /tmp/ccsEQFaZ.s:88     .text:0000000000000084 .LBB16
     /tmp/ccsEQFaZ.s:121    .text:00000000000000b4 .LBE16
     /tmp/ccsEQFaZ.s:147    .text:00000000000000ec .LBB20
     /tmp/ccsEQFaZ.s:153    .text:00000000000000f4 .LBE20

UNDEFINED SYMBOLS
_Z8sem_waitP3SCB
_Z11printStringPKc
_Z12printIntegerm
_Z15thread_dispatchv
_Z10sem_signalP3SCB
_Z9sem_closeP3SCB
interrupt
_ZN3PCB14createProccessEPFvvEPv
_ZN3PCB7runningE
_Z8sem_openPP3SCBj
_Z13thread_createPP3PCBPFvPvES2_
_ZN6Thread8dispatchEv
_ZN3PCBD1Ev
_ZN3PCBdlEPv
