GAS LISTING /tmp/cck9xLXu.s 			page 1


   1              		.file	"main.cpp"
   2              		.option pic
   3              		.option norelax
   4              		.text
   5              	.Ltext0:
   6              		.align	2
   7              		.globl	_Z12checkNullptrPv
   9              	_Z12checkNullptrPv:
  10              	.LFB9:
  11              		.file 1 "src/main.cpp"
   1:src/main.cpp  **** #include "../lib/hw.h"
   2:src/main.cpp  **** #include "../lib/console.h"
   3:src/main.cpp  **** #include "../h/MemoryAllocator.h"
   4:src/main.cpp  **** #include "../h/syscall_c.h"
   5:src/main.cpp  **** #include "../h/print.h"
   6:src/main.cpp  **** 
   7:src/main.cpp  **** void checkNullptr(void* p) {
  12              		.loc 1 7 28
  13              		.cfi_startproc
  14              	.LVL0:
   8:src/main.cpp  ****     static int x = 0;
  15              		.loc 1 8 5
   9:src/main.cpp  ****     if(p == nullptr) {
  16              		.loc 1 9 5
  17 0000 630E0500 		beqz	a0,.L7
  10:src/main.cpp  ****         __putc('?');
  11:src/main.cpp  ****         __putc('0' + x);
  12:src/main.cpp  ****     }
  13:src/main.cpp  ****     x++;
  18              		.loc 1 13 5
  19              		.loc 1 13 6 is_stmt 0
  20 0004 17070000 		lla	a4,.LANCHOR0
  20      13070700 
  21 000c 83270700 		lw	a5,0(a4)
  22 0010 9B871700 		addiw	a5,a5,1
  23 0014 2320F700 		sw	a5,0(a4)
  24 0018 67800000 		ret
  25              	.L7:
   7:src/main.cpp  ****     static int x = 0;
  26              		.loc 1 7 28
  27 001c 130101FF 		addi	sp,sp,-16
  28              		.cfi_def_cfa_offset 16
  29 0020 23341100 		sd	ra,8(sp)
  30 0024 23308100 		sd	s0,0(sp)
  31              		.cfi_offset 1, -8
  32              		.cfi_offset 8, -16
  33 0028 13040101 		addi	s0,sp,16
  34              		.cfi_def_cfa 8, 0
  10:src/main.cpp  ****         __putc('?');
  35              		.loc 1 10 9 is_stmt 1
  10:src/main.cpp  ****         __putc('?');
  36              		.loc 1 10 15 is_stmt 0
  37 002c 1305F003 		li	a0,63
  38              	.LVL1:
  39 0030 97000000 		call	__putc@plt
  39      E7800000 
  40              	.LVL2:
GAS LISTING /tmp/cck9xLXu.s 			page 2


  11:src/main.cpp  ****     }
  41              		.loc 1 11 9 is_stmt 1
  11:src/main.cpp  ****     }
  42              		.loc 1 11 15 is_stmt 0
  43 0038 17050000 		lw	a0,.LANCHOR0
  43      03250500 
  44 0040 1B050503 		addiw	a0,a0,48
  45 0044 1375F50F 		andi	a0,a0,0xff
  46 0048 97000000 		call	__putc@plt
  46      E7800000 
  47              	.LVL3:
  48              		.loc 1 13 5 is_stmt 1
  49              		.loc 1 13 6 is_stmt 0
  50 0050 17070000 		lla	a4,.LANCHOR0
  50      13070700 
  51 0058 83270700 		lw	a5,0(a4)
  52 005c 9B871700 		addiw	a5,a5,1
  53 0060 2320F700 		sw	a5,0(a4)
  14:src/main.cpp  **** }
  54              		.loc 1 14 1
  55 0064 83308100 		ld	ra,8(sp)
  56              		.cfi_restore 1
  57 0068 03340100 		ld	s0,0(sp)
  58              		.cfi_restore 8
  59              		.cfi_def_cfa 2, 16
  60 006c 13010101 		addi	sp,sp,16
  61              		.cfi_def_cfa_offset 0
  62 0070 67800000 		jr	ra
  63              		.cfi_endproc
  64              	.LFE9:
  66              		.align	2
  67              		.globl	_Z11checkStatusi
  69              	_Z11checkStatusi:
  70              	.LFB10:
  15:src/main.cpp  **** 
  16:src/main.cpp  **** void checkStatus(int status) {
  71              		.loc 1 16 30 is_stmt 1
  72              		.cfi_startproc
  73              	.LVL4:
  17:src/main.cpp  ****     static int y = 0;
  74              		.loc 1 17 5
  18:src/main.cpp  ****     if(status) {
  75              		.loc 1 18 5
  76 0074 631E0500 		bnez	a0,.L14
  19:src/main.cpp  ****         __putc('0' + y);
  20:src/main.cpp  ****         __putc('?');
  21:src/main.cpp  ****     }
  22:src/main.cpp  ****     y++;
  77              		.loc 1 22 5
  78              		.loc 1 22 6 is_stmt 0
  79 0078 17070000 		lla	a4,.LANCHOR0
  79      13070700 
  80 0080 83274700 		lw	a5,4(a4)
  81 0084 9B871700 		addiw	a5,a5,1
  82 0088 2322F700 		sw	a5,4(a4)
  83 008c 67800000 		ret
  84              	.L14:
GAS LISTING /tmp/cck9xLXu.s 			page 3


  16:src/main.cpp  ****     static int y = 0;
  85              		.loc 1 16 30
  86 0090 130101FF 		addi	sp,sp,-16
  87              		.cfi_def_cfa_offset 16
  88 0094 23341100 		sd	ra,8(sp)
  89 0098 23308100 		sd	s0,0(sp)
  90              		.cfi_offset 1, -8
  91              		.cfi_offset 8, -16
  92 009c 13040101 		addi	s0,sp,16
  93              		.cfi_def_cfa 8, 0
  19:src/main.cpp  ****         __putc('0' + y);
  94              		.loc 1 19 9 is_stmt 1
  19:src/main.cpp  ****         __putc('0' + y);
  95              		.loc 1 19 15 is_stmt 0
  96 00a0 17050000 		lw	a0,.LANCHOR0+4
  96      03250500 
  97              	.LVL5:
  98 00a8 1B050503 		addiw	a0,a0,48
  99 00ac 1375F50F 		andi	a0,a0,0xff
 100 00b0 97000000 		call	__putc@plt
 100      E7800000 
 101              	.LVL6:
  20:src/main.cpp  ****     }
 102              		.loc 1 20 9 is_stmt 1
  20:src/main.cpp  ****     }
 103              		.loc 1 20 15 is_stmt 0
 104 00b8 1305F003 		li	a0,63
 105 00bc 97000000 		call	__putc@plt
 105      E7800000 
 106              	.LVL7:
 107              		.loc 1 22 5 is_stmt 1
 108              		.loc 1 22 6 is_stmt 0
 109 00c4 17070000 		lla	a4,.LANCHOR0
 109      13070700 
 110 00cc 83274700 		lw	a5,4(a4)
 111 00d0 9B871700 		addiw	a5,a5,1
 112 00d4 2322F700 		sw	a5,4(a4)
  23:src/main.cpp  **** }
 113              		.loc 1 23 1
 114 00d8 83308100 		ld	ra,8(sp)
 115              		.cfi_restore 1
 116 00dc 03340100 		ld	s0,0(sp)
 117              		.cfi_restore 8
 118              		.cfi_def_cfa 2, 16
 119 00e0 13010101 		addi	sp,sp,16
 120              		.cfi_def_cfa_offset 0
 121 00e4 67800000 		jr	ra
 122              		.cfi_endproc
 123              	.LFE10:
 125              		.align	2
 126              		.globl	main
 128              	main:
 129              	.LFB11:
  24:src/main.cpp  **** 
  25:src/main.cpp  **** int main() {
 130              		.loc 1 25 12 is_stmt 1
 131              		.cfi_startproc
GAS LISTING /tmp/cck9xLXu.s 			page 4


 132 00e8 130101FE 		addi	sp,sp,-32
 133              		.cfi_def_cfa_offset 32
 134 00ec 233C1100 		sd	ra,24(sp)
 135 00f0 23388100 		sd	s0,16(sp)
 136 00f4 23349100 		sd	s1,8(sp)
 137              		.cfi_offset 1, -8
 138              		.cfi_offset 8, -16
 139              		.cfi_offset 9, -24
 140 00f8 13040102 		addi	s0,sp,32
 141              		.cfi_def_cfa 8, 0
  26:src/main.cpp  ****     int* par = (int*)mem_alloc(2*sizeof(int));
 142              		.loc 1 26 5
 143              		.loc 1 26 31 is_stmt 0
 144 00fc 13058000 		li	a0,8
 145 0100 97000000 		call	_Z9mem_allocm@plt
 145      E7800000 
 146              	.LVL8:
 147 0108 93040500 		mv	s1,a0
 148              	.LVL9:
  27:src/main.cpp  ****     par[0] = 1;
 149              		.loc 1 27 5 is_stmt 1
 150              		.loc 1 27 12 is_stmt 0
 151 010c 93071000 		li	a5,1
 152 0110 2320F500 		sw	a5,0(a0)
  28:src/main.cpp  ****     par[1] = 2;
 153              		.loc 1 28 5 is_stmt 1
 154              		.loc 1 28 12 is_stmt 0
 155 0114 93072000 		li	a5,2
 156 0118 2322F500 		sw	a5,4(a0)
  29:src/main.cpp  **** 
  30:src/main.cpp  ****     printInteger(par[0]);
 157              		.loc 1 30 5 is_stmt 1
 158              		.loc 1 30 17 is_stmt 0
 159 011c 13051000 		li	a0,1
 160 0120 97000000 		call	_Z12printIntegerm@plt
 160      E7800000 
 161              	.LVL10:
  31:src/main.cpp  ****     printInteger(par[1]);
 162              		.loc 1 31 5 is_stmt 1
 163              		.loc 1 31 17 is_stmt 0
 164 0128 03A54400 		lw	a0,4(s1)
 165 012c 97000000 		call	_Z12printIntegerm@plt
 165      E7800000 
 166              	.LVL11:
  32:src/main.cpp  ****     return 0;
 167              		.loc 1 32 5 is_stmt 1
  33:src/main.cpp  **** }...
 168              		.loc 1 33 1 is_stmt 0
 169 0134 13050000 		li	a0,0
 170 0138 83308101 		ld	ra,24(sp)
 171              		.cfi_restore 1
 172 013c 03340101 		ld	s0,16(sp)
 173              		.cfi_restore 8
 174              		.cfi_def_cfa 2, 32
 175 0140 83348100 		ld	s1,8(sp)
 176              		.cfi_restore 9
 177              	.LVL12:
GAS LISTING /tmp/cck9xLXu.s 			page 5


 178 0144 13010102 		addi	sp,sp,32
 179              		.cfi_def_cfa_offset 0
 180 0148 67800000 		jr	ra
 181              		.cfi_endproc
 182              	.LFE11:
 184              		.bss
 185              		.align	2
 186              		.set	.LANCHOR0,. + 0
 189              	_ZZ12checkNullptrPvE1x:
 190 0000 00000000 		.zero	4
 193              	_ZZ11checkStatusiE1y:
 194 0004 00000000 		.zero	4
 195              		.text
 196              	.Letext0:
 197              		.file 2 "src/../lib/hw.h"
 198              		.file 3 "src/../h/syscall_c.h"
 199              		.file 4 "src/../h/print.h"
 200              		.file 5 "src/../lib/console.h"
GAS LISTING /tmp/cck9xLXu.s 			page 6


DEFINED SYMBOLS
                            *ABS*:0000000000000000 main.cpp
     /tmp/cck9xLXu.s:9      .text:0000000000000000 _Z12checkNullptrPv
     /tmp/cck9xLXu.s:13     .text:0000000000000000 .L0 
     /tmp/cck9xLXu.s:15     .text:0000000000000000 .L0 
     /tmp/cck9xLXu.s:16     .text:0000000000000000 .L0 
     /tmp/cck9xLXu.s:17     .text:0000000000000000 .L0 
     /tmp/cck9xLXu.s:19     .text:0000000000000004 .L0 
     /tmp/cck9xLXu.s:20     .text:0000000000000004 .L0 
     /tmp/cck9xLXu.s:27     .text:000000000000001c .L0 
     /tmp/cck9xLXu.s:28     .text:0000000000000020 .L0 
     /tmp/cck9xLXu.s:31     .text:0000000000000028 .L0 
     /tmp/cck9xLXu.s:32     .text:0000000000000028 .L0 
     /tmp/cck9xLXu.s:34     .text:000000000000002c .L0 
     /tmp/cck9xLXu.s:36     .text:000000000000002c .L0 
     /tmp/cck9xLXu.s:37     .text:000000000000002c .L0 
     /tmp/cck9xLXu.s:42     .text:0000000000000038 .L0 
     /tmp/cck9xLXu.s:43     .text:0000000000000038 .L0 
     /tmp/cck9xLXu.s:49     .text:0000000000000050 .L0 
     /tmp/cck9xLXu.s:50     .text:0000000000000050 .L0 
     /tmp/cck9xLXu.s:55     .text:0000000000000064 .L0 
     /tmp/cck9xLXu.s:56     .text:0000000000000068 .L0 
     /tmp/cck9xLXu.s:58     .text:000000000000006c .L0 
     /tmp/cck9xLXu.s:59     .text:000000000000006c .L0 
     /tmp/cck9xLXu.s:61     .text:0000000000000070 .L0 
     /tmp/cck9xLXu.s:63     .text:0000000000000074 .L0 
     /tmp/cck9xLXu.s:69     .text:0000000000000074 _Z11checkStatusi
     /tmp/cck9xLXu.s:72     .text:0000000000000074 .L0 
     /tmp/cck9xLXu.s:74     .text:0000000000000074 .L0 
     /tmp/cck9xLXu.s:75     .text:0000000000000074 .L0 
     /tmp/cck9xLXu.s:76     .text:0000000000000074 .L0 
     /tmp/cck9xLXu.s:78     .text:0000000000000078 .L0 
     /tmp/cck9xLXu.s:79     .text:0000000000000078 .L0 
     /tmp/cck9xLXu.s:86     .text:0000000000000090 .L0 
     /tmp/cck9xLXu.s:87     .text:0000000000000094 .L0 
     /tmp/cck9xLXu.s:90     .text:000000000000009c .L0 
     /tmp/cck9xLXu.s:91     .text:000000000000009c .L0 
     /tmp/cck9xLXu.s:93     .text:00000000000000a0 .L0 
     /tmp/cck9xLXu.s:95     .text:00000000000000a0 .L0 
     /tmp/cck9xLXu.s:96     .text:00000000000000a0 .L0 
     /tmp/cck9xLXu.s:103    .text:00000000000000b8 .L0 
     /tmp/cck9xLXu.s:104    .text:00000000000000b8 .L0 
     /tmp/cck9xLXu.s:108    .text:00000000000000c4 .L0 
     /tmp/cck9xLXu.s:109    .text:00000000000000c4 .L0 
     /tmp/cck9xLXu.s:114    .text:00000000000000d8 .L0 
     /tmp/cck9xLXu.s:115    .text:00000000000000dc .L0 
     /tmp/cck9xLXu.s:117    .text:00000000000000e0 .L0 
     /tmp/cck9xLXu.s:118    .text:00000000000000e0 .L0 
     /tmp/cck9xLXu.s:120    .text:00000000000000e4 .L0 
     /tmp/cck9xLXu.s:122    .text:00000000000000e8 .L0 
     /tmp/cck9xLXu.s:128    .text:00000000000000e8 main
     /tmp/cck9xLXu.s:131    .text:00000000000000e8 .L0 
     /tmp/cck9xLXu.s:132    .text:00000000000000e8 .L0 
     /tmp/cck9xLXu.s:133    .text:00000000000000ec .L0 
     /tmp/cck9xLXu.s:137    .text:00000000000000f8 .L0 
     /tmp/cck9xLXu.s:138    .text:00000000000000f8 .L0 
     /tmp/cck9xLXu.s:139    .text:00000000000000f8 .L0 
GAS LISTING /tmp/cck9xLXu.s 			page 7


     /tmp/cck9xLXu.s:141    .text:00000000000000fc .L0 
     /tmp/cck9xLXu.s:143    .text:00000000000000fc .L0 
     /tmp/cck9xLXu.s:144    .text:00000000000000fc .L0 
     /tmp/cck9xLXu.s:150    .text:000000000000010c .L0 
     /tmp/cck9xLXu.s:151    .text:000000000000010c .L0 
     /tmp/cck9xLXu.s:154    .text:0000000000000114 .L0 
     /tmp/cck9xLXu.s:155    .text:0000000000000114 .L0 
     /tmp/cck9xLXu.s:158    .text:000000000000011c .L0 
     /tmp/cck9xLXu.s:159    .text:000000000000011c .L0 
     /tmp/cck9xLXu.s:163    .text:0000000000000128 .L0 
     /tmp/cck9xLXu.s:164    .text:0000000000000128 .L0 
     /tmp/cck9xLXu.s:168    .text:0000000000000134 .L0 
     /tmp/cck9xLXu.s:169    .text:0000000000000134 .L0 
     /tmp/cck9xLXu.s:171    .text:000000000000013c .L0 
     /tmp/cck9xLXu.s:173    .text:0000000000000140 .L0 
     /tmp/cck9xLXu.s:174    .text:0000000000000140 .L0 
     /tmp/cck9xLXu.s:176    .text:0000000000000144 .L0 
     /tmp/cck9xLXu.s:179    .text:0000000000000148 .L0 
     /tmp/cck9xLXu.s:181    .text:000000000000014c .L0 
     /tmp/cck9xLXu.s:186    .bss:0000000000000000 .LANCHOR0
     /tmp/cck9xLXu.s:189    .bss:0000000000000000 _ZZ12checkNullptrPvE1x
     /tmp/cck9xLXu.s:193    .bss:0000000000000004 _ZZ11checkStatusiE1y
     /tmp/cck9xLXu.s:201    .text:000000000000014c .L0 
     /tmp/cck9xLXu.s:20     .text:0000000000000004 .L0 
     /tmp/cck9xLXu.s:43     .text:0000000000000038 .L0 
     /tmp/cck9xLXu.s:50     .text:0000000000000050 .L0 
     /tmp/cck9xLXu.s:79     .text:0000000000000078 .L0 
     /tmp/cck9xLXu.s:96     .text:00000000000000a0 .L0 
     /tmp/cck9xLXu.s:109    .text:00000000000000c4 .L0 
     /tmp/cck9xLXu.s:25     .text:000000000000001c .L7
     /tmp/cck9xLXu.s:84     .text:0000000000000090 .L14
     /tmp/cck9xLXu.s:481    .debug_abbrev:0000000000000000 .Ldebug_abbrev0
     /tmp/cck9xLXu.s:863    .debug_str:000000000000003b .LASF29
     /tmp/cck9xLXu.s:889    .debug_str:0000000000000197 .LASF30
     /tmp/cck9xLXu.s:907    .debug_str:0000000000000215 .LASF31
     /tmp/cck9xLXu.s:5      .text:0000000000000000 .Ltext0
     /tmp/cck9xLXu.s:196    .text:000000000000014c .Letext0
     /tmp/cck9xLXu.s:849    .debug_line:0000000000000000 .Ldebug_line0
     /tmp/cck9xLXu.s:891    .debug_str:00000000000001a4 .LASF0
     /tmp/cck9xLXu.s:879    .debug_str:0000000000000152 .LASF1
     /tmp/cck9xLXu.s:875    .debug_str:0000000000000132 .LASF2
     /tmp/cck9xLXu.s:859    .debug_str:000000000000002f .LASF4
     /tmp/cck9xLXu.s:877    .debug_str:0000000000000140 .LASF3
     /tmp/cck9xLXu.s:853    .debug_str:0000000000000013 .LASF5
     /tmp/cck9xLXu.s:851    .debug_str:0000000000000000 .LASF6
     /tmp/cck9xLXu.s:871    .debug_str:0000000000000110 .LASF7
     /tmp/cck9xLXu.s:897    .debug_str:00000000000001c5 .LASF8
     /tmp/cck9xLXu.s:857    .debug_str:0000000000000021 .LASF9
     /tmp/cck9xLXu.s:913    .debug_str:0000000000000252 .LASF10
     /tmp/cck9xLXu.s:873    .debug_str:0000000000000123 .LASF11
     /tmp/cck9xLXu.s:903    .debug_str:00000000000001fb .LASF12
     /tmp/cck9xLXu.s:901    .debug_str:00000000000001eb .LASF13
     /tmp/cck9xLXu.s:881    .debug_str:0000000000000165 .LASF14
     /tmp/cck9xLXu.s:865    .debug_str:00000000000000dd .LASF15
     /tmp/cck9xLXu.s:899    .debug_str:00000000000001d5 .LASF16
     /tmp/cck9xLXu.s:861    .debug_str:0000000000000036 .LASF17
     /tmp/cck9xLXu.s:885    .debug_str:0000000000000184 .LASF18
GAS LISTING /tmp/cck9xLXu.s 			page 8


     /tmp/cck9xLXu.s:129    .text:00000000000000e8 .LFB11
     /tmp/cck9xLXu.s:182    .text:000000000000014c .LFE11
     /tmp/cck9xLXu.s:801    .debug_loc:0000000000000000 .LLST2
     /tmp/cck9xLXu.s:146    .text:0000000000000108 .LVL8
     /tmp/cck9xLXu.s:161    .text:0000000000000128 .LVL10
     /tmp/cck9xLXu.s:166    .text:0000000000000134 .LVL11
     /tmp/cck9xLXu.s:867    .debug_str:00000000000000f3 .LASF19
     /tmp/cck9xLXu.s:869    .debug_str:00000000000000ff .LASF21
     /tmp/cck9xLXu.s:70     .text:0000000000000074 .LFB10
     /tmp/cck9xLXu.s:123    .text:00000000000000e8 .LFE10
     /tmp/cck9xLXu.s:855    .debug_str:000000000000001a .LASF23
     /tmp/cck9xLXu.s:808    .debug_loc:0000000000000023 .LLST1
     /tmp/cck9xLXu.s:101    .text:00000000000000b8 .LVL6
     /tmp/cck9xLXu.s:106    .text:00000000000000c4 .LVL7
     /tmp/cck9xLXu.s:909    .debug_str:0000000000000233 .LASF20
     /tmp/cck9xLXu.s:883    .debug_str:0000000000000171 .LASF22
     /tmp/cck9xLXu.s:10     .text:0000000000000000 .LFB9
     /tmp/cck9xLXu.s:64     .text:0000000000000074 .LFE9
     /tmp/cck9xLXu.s:822    .debug_loc:000000000000005c .LLST0
     /tmp/cck9xLXu.s:40     .text:0000000000000038 .LVL2
     /tmp/cck9xLXu.s:47     .text:0000000000000050 .LVL3
     /tmp/cck9xLXu.s:887    .debug_str:0000000000000189 .LASF24
     /tmp/cck9xLXu.s:905    .debug_str:000000000000020b .LASF26
     /tmp/cck9xLXu.s:911    .debug_str:0000000000000240 .LASF25
     /tmp/cck9xLXu.s:895    .debug_str:00000000000001b8 .LASF27
     /tmp/cck9xLXu.s:893    .debug_str:00000000000001b1 .LASF28
     /tmp/cck9xLXu.s:148    .text:000000000000010c .LVL9
     /tmp/cck9xLXu.s:177    .text:0000000000000144 .LVL12
     /tmp/cck9xLXu.s:73     .text:0000000000000074 .LVL4
     /tmp/cck9xLXu.s:97     .text:00000000000000a8 .LVL5
     /tmp/cck9xLXu.s:14     .text:0000000000000000 .LVL0
     /tmp/cck9xLXu.s:38     .text:0000000000000030 .LVL1
     /tmp/cck9xLXu.s:202    .debug_info:0000000000000000 .Ldebug_info0

UNDEFINED SYMBOLS
__putc
_Z9mem_allocm
_Z12printIntegerm
