GAS LISTING /tmp/cc8w3pOr.s 			page 1


   1              		.file	"main.cpp"
   2              		.option pic
   3              		.option norelax
   4              		.text
   5              	.Ltext0:
   6              		.section	.rodata.str1.8,"aMS",@progbits,1
   7              		.align	3
   8              	.LC0:
   9 0000 6E697420 		.string	"nit A\n"
   9      410A00
  10 0007 00       		.align	3
  11              	.LC1:
  12 0008 0A4B7261 		.string	"\nKraj niti A\n"
  12      6A206E69 
  12      74692041 
  12      0A00
  13              		.text
  14              		.align	2
  15              		.globl	_Z4nitAPv
  17              	_Z4nitAPv:
  18              	.LFB28:
  19              		.file 1 "src/main.cpp"
   1:src/main.cpp  **** #include "../h/hw.h"
   2:src/main.cpp  **** #include "../h/console.h"
   3:src/main.cpp  **** #include "../h/MemoryAllocator.h"
   4:src/main.cpp  **** #include "../h/syscall_c.h"
   5:src/main.cpp  **** #include "../h/print.h"
   6:src/main.cpp  **** #include "../h/PCB.h"
   7:src/main.cpp  **** #include "../h/kernel.h"
   8:src/main.cpp  **** 
   9:src/main.cpp  **** void nitA(void* x) {
  20              		.loc 1 9 20
  21              		.cfi_startproc
  22              	.LVL0:
  23 0000 130101FE 		addi	sp,sp,-32
  24              		.cfi_def_cfa_offset 32
  25 0004 233C1100 		sd	ra,24(sp)
  26 0008 23388100 		sd	s0,16(sp)
  27 000c 23349100 		sd	s1,8(sp)
  28              		.cfi_offset 1, -8
  29              		.cfi_offset 8, -16
  30              		.cfi_offset 9, -24
  31 0010 13040102 		addi	s0,sp,32
  32              		.cfi_def_cfa 8, 0
  33 0014 93040500 		mv	s1,a0
  10:src/main.cpp  ****     printString("nit A\n");
  34              		.loc 1 10 5
  35              		.loc 1 10 16 is_stmt 0
  36 0018 17050000 		lla	a0,.LC0
  36      13050500 
  37              	.LVL1:
  38 0020 97000000 		call	_Z11printStringPKc@plt
  38      E7800000 
  39              	.LVL2:
  11:src/main.cpp  ****     PCB::yield();
  40              		.loc 1 11 5 is_stmt 1
  41              		.loc 1 11 15 is_stmt 0
GAS LISTING /tmp/cc8w3pOr.s 			page 2


  42 0028 97000000 		call	_ZN3PCB5yieldEv@plt
  42      E7800000 
  43              	.LVL3:
  12:src/main.cpp  ****     for(int i = 0; i < 30000; i++) {
  44              		.loc 1 12 5 is_stmt 1
  45              	.LBB9:
  46              		.loc 1 12 13 is_stmt 0
  47 0030 93060000 		li	a3,0
  48 0034 6F008000 		j	.L5
  49              	.LVL4:
  50              	.L3:
  51              		.loc 1 12 5 is_stmt 1 discriminator 2
  52 0038 9B861600 		addiw	a3,a3,1
  53              	.LVL5:
  54              	.L5:
  55              		.loc 1 12 22 discriminator 1
  56 003c B7770000 		li	a5,28672
  57 0040 9387F752 		addi	a5,a5,1327
  58 0044 63CED700 		bgt	a3,a5,.L2
  59              	.LBB10:
  13:src/main.cpp  ****         for(int j = 0; j < 10000; j++) {
  60              		.loc 1 13 17 is_stmt 0
  61 0048 13070000 		li	a4,0
  62              	.L4:
  63              	.LVL6:
  64              		.loc 1 13 26 is_stmt 1 discriminator 3
  65 004c B7270000 		li	a5,8192
  66 0050 9387F770 		addi	a5,a5,1807
  67 0054 E3C2E7FE 		bgt	a4,a5,.L3
  68              		.loc 1 13 9 discriminator 2
  69 0058 1B071700 		addiw	a4,a4,1
  70              	.LVL7:
  71 005c 6FF01FFF 		j	.L4
  72              	.L2:
  73              	.LBE10:
  74              	.LBE9:
  14:src/main.cpp  ****             // uposleno cekanje
  15:src/main.cpp  ****         }
  16:src/main.cpp  ****     }
  17:src/main.cpp  **** 
  18:src/main.cpp  ****     printInteger(*(int*)x);
  75              		.loc 1 18 5
  76              		.loc 1 18 17 is_stmt 0
  77 0060 03A50400 		lw	a0,0(s1)
  78 0064 97000000 		call	_Z12printIntegerm@plt
  78      E7800000 
  79              	.LVL8:
  19:src/main.cpp  ****     printString("\nKraj niti A\n");
  80              		.loc 1 19 5 is_stmt 1
  81              		.loc 1 19 16 is_stmt 0
  82 006c 17050000 		lla	a0,.LC1
  82      13050500 
  83 0074 97000000 		call	_Z11printStringPKc@plt
  83      E7800000 
  84              	.LVL9:
  20:src/main.cpp  **** }
  85              		.loc 1 20 1
GAS LISTING /tmp/cc8w3pOr.s 			page 3


  86 007c 83308101 		ld	ra,24(sp)
  87              		.cfi_restore 1
  88 0080 03340101 		ld	s0,16(sp)
  89              		.cfi_restore 8
  90              		.cfi_def_cfa 2, 32
  91 0084 83348100 		ld	s1,8(sp)
  92              		.cfi_restore 9
  93              	.LVL10:
  94 0088 13010102 		addi	sp,sp,32
  95              		.cfi_def_cfa_offset 0
  96 008c 67800000 		jr	ra
  97              		.cfi_endproc
  98              	.LFE28:
 100              		.section	.rodata.str1.8
 101 0016 0000     		.align	3
 102              	.LC2:
 103 0018 6E697420 		.string	"nit B\n"
 103      420A00
 104              		.text
 105              		.align	2
 106              		.globl	_Z4nitBPv
 108              	_Z4nitBPv:
 109              	.LFB29:
  21:src/main.cpp  **** 
  22:src/main.cpp  **** void nitB(void* c) {
 110              		.loc 1 22 20 is_stmt 1
 111              		.cfi_startproc
 112              	.LVL11:
 113 0090 130101FE 		addi	sp,sp,-32
 114              		.cfi_def_cfa_offset 32
 115 0094 233C1100 		sd	ra,24(sp)
 116 0098 23388100 		sd	s0,16(sp)
 117 009c 23349100 		sd	s1,8(sp)
 118              		.cfi_offset 1, -8
 119              		.cfi_offset 8, -16
 120              		.cfi_offset 9, -24
 121 00a0 13040102 		addi	s0,sp,32
 122              		.cfi_def_cfa 8, 0
 123 00a4 93040500 		mv	s1,a0
  23:src/main.cpp  ****     printString("nit B\n");
 124              		.loc 1 23 5
 125              		.loc 1 23 16 is_stmt 0
 126 00a8 17050000 		lla	a0,.LC2
 126      13050500 
 127              	.LVL12:
 128 00b0 97000000 		call	_Z11printStringPKc@plt
 128      E7800000 
 129              	.LVL13:
  24:src/main.cpp  ****     __putc(*(char*)c);
 130              		.loc 1 24 5 is_stmt 1
 131              		.loc 1 24 11 is_stmt 0
 132 00b8 03C50400 		lbu	a0,0(s1)
 133 00bc 97000000 		call	__putc@plt
 133      E7800000 
 134              	.LVL14:
  25:src/main.cpp  ****     __putc('\n');
 135              		.loc 1 25 5 is_stmt 1
GAS LISTING /tmp/cc8w3pOr.s 			page 4


 136              		.loc 1 25 11 is_stmt 0
 137 00c4 1305A000 		li	a0,10
 138 00c8 97000000 		call	__putc@plt
 138      E7800000 
 139              	.LVL15:
  26:src/main.cpp  **** }
 140              		.loc 1 26 1
 141 00d0 83308101 		ld	ra,24(sp)
 142              		.cfi_restore 1
 143 00d4 03340101 		ld	s0,16(sp)
 144              		.cfi_restore 8
 145              		.cfi_def_cfa 2, 32
 146 00d8 83348100 		ld	s1,8(sp)
 147              		.cfi_restore 9
 148              	.LVL16:
 149 00dc 13010102 		addi	sp,sp,32
 150              		.cfi_def_cfa_offset 0
 151 00e0 67800000 		jr	ra
 152              		.cfi_endproc
 153              	.LFE29:
 155              		.align	2
 156              		.globl	main
 158              	main:
 159              	.LFB30:
  27:src/main.cpp  **** extern "C" void interrupt();
  28:src/main.cpp  **** int main() {
 160              		.loc 1 28 12 is_stmt 1
 161              		.cfi_startproc
 162 00e4 130101FB 		addi	sp,sp,-80
 163              		.cfi_def_cfa_offset 80
 164 00e8 23341104 		sd	ra,72(sp)
 165 00ec 23308104 		sd	s0,64(sp)
 166 00f0 233C9102 		sd	s1,56(sp)
 167 00f4 23382103 		sd	s2,48(sp)
 168              		.cfi_offset 1, -8
 169              		.cfi_offset 8, -16
 170              		.cfi_offset 9, -24
 171              		.cfi_offset 18, -32
 172 00f8 13040105 		addi	s0,sp,80
 173              		.cfi_def_cfa 8, 0
  29:src/main.cpp  **** 
  30:src/main.cpp  ****     asm volatile("csrw stvec, %0" : : "r" (&interrupt));
 174              		.loc 1 30 5
 175              		.loc 1 30 56 is_stmt 0
 176 00fc 97070000 		la	a5,interrupt
 176      83B70700 
 177              	#APP
 178              	# 30 "src/main.cpp" 1
  31              	
  32:src/main.cpp  ****     thread_t procesi[5];
 179              		csrw stvec, a5
 180              	# 0 "" 2
 181              		.loc 1 32 5 is_stmt 1
  33:src/main.cpp  ****     procesi[0] = PCB::createProccess(nullptr, nullptr); // main
 182              		.loc 1 33 5
 183              		.loc 1 33 37 is_stmt 0
 184              	#NO_APP
GAS LISTING /tmp/cc8w3pOr.s 			page 5


 185 0108 93050000 		li	a1,0
 186 010c 13050000 		li	a0,0
 187 0110 97000000 		call	_ZN3PCB14createProccessEPFvvEPv@plt
 187      E7800000 
 188              	.LVL17:
 189              		.loc 1 33 16
 190 0118 233CA4FA 		sd	a0,-72(s0)
  34:src/main.cpp  ****     PCB::running = procesi[0];
 191              		.loc 1 34 5 is_stmt 1
 192              		.loc 1 34 18 is_stmt 0
 193 011c 97070000 		la	a5,_ZN3PCB7runningE
 193      83B70700 
 194 0124 23B0A700 		sd	a0,0(a5)
  35:src/main.cpp  ****     Kernel::ms_sstatus(Kernel::SSTATUS_SIE); // dozvoljavaju se prekidi
 195              		.loc 1 35 5 is_stmt 1
 196              	.LVL18:
 197              	.LBB11:
 198              	.LBB12:
 199              		.file 2 "src/../h/kernel.h"
   1:src/../h/kernel.h **** #ifndef KERNEL_H
   2:src/../h/kernel.h **** #define KERNEL_H
   3:src/../h/kernel.h **** 
   4:src/../h/kernel.h **** #include "hw.h"
   5:src/../h/kernel.h **** 
   6:src/../h/kernel.h **** class Kernel {
   7:src/../h/kernel.h **** public:
   8:src/../h/kernel.h **** 
   9:src/../h/kernel.h ****     // postavlja code u registar a0
  10:src/../h/kernel.h ****     static size_t setCode(size_t code) {
  11:src/../h/kernel.h ****         return code;
  12:src/../h/kernel.h ****     }
  13:src/../h/kernel.h **** 
  14:src/../h/kernel.h ****     // kodovi po kojima se prepoznaju sistemski pozivi
  15:src/../h/kernel.h ****     enum sysCallCodes {
  16:src/../h/kernel.h ****         mem_alloc = 0x01,
  17:src/../h/kernel.h ****         mem_free = 0x02,
  18:src/../h/kernel.h ****         thread_create = 0x11,
  19:src/../h/kernel.h ****         thread_exit = 0x12,
  20:src/../h/kernel.h ****         thread_dispatch = 0x13,
  21:src/../h/kernel.h ****         sem_open = 0x21,
  22:src/../h/kernel.h ****         sem_close = 0x22,
  23:src/../h/kernel.h ****         sem_wait = 0x23,
  24:src/../h/kernel.h ****         sem_signal = 0x24,
  25:src/../h/kernel.h ****         tim_sleep = 0x31,
  26:src/../h/kernel.h ****         getc = 0x41,
  27:src/../h/kernel.h ****         putc = 0x42
  28:src/../h/kernel.h ****     };
  29:src/../h/kernel.h **** 
  30:src/../h/kernel.h ****     // pop sstatus.spp and sstatus.spie bits (has to be a non inline function)
  31:src/../h/kernel.h ****     static void popSppSpie();
  32:src/../h/kernel.h **** 
  33:src/../h/kernel.h ****     // cita registar scause (uzrok nastanka prekida)
  34:src/../h/kernel.h ****     static size_t r_scause() {
  35:src/../h/kernel.h ****         size_t volatile scause;
  36:src/../h/kernel.h ****         __asm__ volatile ("csrr %[scause], scause" : [scause] "=r"(scause));
  37:src/../h/kernel.h ****         return scause;
  38:src/../h/kernel.h ****     }
GAS LISTING /tmp/cc8w3pOr.s 			page 6


  39:src/../h/kernel.h **** 
  40:src/../h/kernel.h ****     // upisuje u registar scause (uzrok nastanka prekida)
  41:src/../h/kernel.h ****     static void w_scause(size_t scause) {
  42:src/../h/kernel.h ****         __asm__ volatile ("csrw scause, %[scause]" : : [scause] "r"(scause));
  43:src/../h/kernel.h ****     }
  44:src/../h/kernel.h **** 
  45:src/../h/kernel.h ****     // cita registar sepc
  46:src/../h/kernel.h ****     static size_t r_sepc() {
  47:src/../h/kernel.h ****         size_t volatile sepc;
  48:src/../h/kernel.h ****         __asm__ volatile ("csrr %[sepc], sepc" : [sepc] "=r"(sepc));
  49:src/../h/kernel.h ****         return sepc;
  50:src/../h/kernel.h ****     }
  51:src/../h/kernel.h **** 
  52:src/../h/kernel.h ****     // upisuje u registar sepc
  53:src/../h/kernel.h ****     static void w_sepc(size_t sepc) {
  54:src/../h/kernel.h ****         __asm__ volatile ("csrw sepc, %[sepc]" : : [sepc] "r"(sepc));
  55:src/../h/kernel.h ****     }
  56:src/../h/kernel.h **** 
  57:src/../h/kernel.h ****     // read register stvec
  58:src/../h/kernel.h ****     static size_t r_stvec() {
  59:src/../h/kernel.h ****         size_t volatile stvec;
  60:src/../h/kernel.h ****         __asm__ volatile ("csrr %[stvec], stvec" : [stvec] "=r"(stvec));
  61:src/../h/kernel.h ****         return stvec;
  62:src/../h/kernel.h ****     }
  63:src/../h/kernel.h **** 
  64:src/../h/kernel.h ****     // write register stvec
  65:src/../h/kernel.h ****     static void w_stvec(size_t stvec) {
  66:src/../h/kernel.h ****         __asm__ volatile ("csrw stvec, %[stvec]" : : [stvec] "r"(stvec));
  67:src/../h/kernel.h ****     }
  68:src/../h/kernel.h **** 
  69:src/../h/kernel.h ****     // read register stval
  70:src/../h/kernel.h ****     static size_t r_stval() {
  71:src/../h/kernel.h ****         size_t volatile stval;
  72:src/../h/kernel.h ****         __asm__ volatile ("csrr %[stval], stval" : [stval] "=r"(stval));
  73:src/../h/kernel.h ****         return stval;
  74:src/../h/kernel.h ****     }
  75:src/../h/kernel.h **** 
  76:src/../h/kernel.h ****     // write register stval
  77:src/../h/kernel.h ****     static void w_stval(size_t stval) {
  78:src/../h/kernel.h ****         __asm__ volatile ("csrw stval, %[stval]" : : [stval] "r"(stval));
  79:src/../h/kernel.h ****     }
  80:src/../h/kernel.h **** 
  81:src/../h/kernel.h ****     enum BitMaskSip
  82:src/../h/kernel.h ****     {
  83:src/../h/kernel.h ****         SIP_SSIE = (1 << 1), // da li su dozvoljeni softverski prekidi
  84:src/../h/kernel.h ****         SIP_SEIE = (1 << 9), // da li su dozvoljeni spoljasnji hardverski prekidi
  85:src/../h/kernel.h ****     };
  86:src/../h/kernel.h **** 
  87:src/../h/kernel.h ****     // postavljanje odredjenih bitova (BitMaskSip) u registar sip
  88:src/../h/kernel.h ****     static void ms_sip(size_t mask) {
  89:src/../h/kernel.h ****         __asm__ volatile ("csrs sip, %[mask]" : : [mask] "r"(mask));
  90:src/../h/kernel.h ****     }
  91:src/../h/kernel.h **** 
  92:src/../h/kernel.h ****     // brisanje odredjenih bitova (BitMaskSip) iz registra sip
  93:src/../h/kernel.h ****     static void mc_sip(size_t mask) {
  94:src/../h/kernel.h ****         __asm__ volatile ("csrc sip, %[mask]" : : [mask] "r"(mask));
  95:src/../h/kernel.h ****     }
GAS LISTING /tmp/cc8w3pOr.s 			page 7


  96:src/../h/kernel.h **** 
  97:src/../h/kernel.h ****     // citanje iz registra sip
  98:src/../h/kernel.h ****     static size_t r_sip() {
  99:src/../h/kernel.h ****         size_t volatile sip;
 100:src/../h/kernel.h ****         __asm__ volatile ("csrr %[sip], sip" : [sip] "=r"(sip));
 101:src/../h/kernel.h ****         return sip;
 102:src/../h/kernel.h ****     }
 103:src/../h/kernel.h **** 
 104:src/../h/kernel.h ****     // upis u registar sip
 105:src/../h/kernel.h ****     static void w_sip(size_t sip) {
 106:src/../h/kernel.h ****         __asm__ volatile ("csrw sip, %[sip]" : : [sip] "r"(sip));
 107:src/../h/kernel.h ****     }
 108:src/../h/kernel.h **** 
 109:src/../h/kernel.h ****     enum BitMaskSstatus
 110:src/../h/kernel.h ****     {
 111:src/../h/kernel.h ****         SSTATUS_SIE = (1 << 1),
 112:src/../h/kernel.h ****         SSTATUS_SPIE = (1 << 5),
 113:src/../h/kernel.h ****         SSTATUS_SPP = (1 << 8),
 114:src/../h/kernel.h ****     };
 115:src/../h/kernel.h **** 
 116:src/../h/kernel.h ****     // mask set register sstatus
 117:src/../h/kernel.h ****     static void ms_sstatus(size_t mask) {
 118:src/../h/kernel.h ****         __asm__ volatile ("csrs sstatus, %[mask]" : : [mask] "r"(mask));
 200              		.loc 2 118 9
 201              		.loc 2 118 72 is_stmt 0
 202 0128 93072000 		li	a5,2
 203              	#APP
 204              	# 118 "src/../h/kernel.h" 1
 119              	    }
 205              		csrs sstatus, a5
 206              	# 0 "" 2
 207              	.LVL19:
 208              	#NO_APP
 209              	.LBE12:
 210              	.LBE11:
  36:src/main.cpp  ****     using pFunc = void(*)(void*);
 211              		.loc 1 36 5 is_stmt 1
  37:src/main.cpp  ****     int x = 11;
 212              		.loc 1 37 5
 213              		.loc 1 37 9 is_stmt 0
 214 0130 9307B000 		li	a5,11
 215 0134 232AF4FA 		sw	a5,-76(s0)
  38:src/main.cpp  ****     char c = 'k';
 216              		.loc 1 38 5 is_stmt 1
 217              		.loc 1 38 10 is_stmt 0
 218 0138 9307B006 		li	a5,107
 219 013c A309F4FA 		sb	a5,-77(s0)
  39:src/main.cpp  ****     thread_create(&procesi[1], (pFunc)nitA, &x);
 220              		.loc 1 39 5 is_stmt 1
 221              		.loc 1 39 18 is_stmt 0
 222 0140 130644FB 		addi	a2,s0,-76
 223 0144 97050000 		lla	a1,_Z4nitAPv
 223      93850500 
 224 014c 130504FC 		addi	a0,s0,-64
 225 0150 97000000 		call	_Z13thread_createPP3PCBPFvPvES2_@plt
 225      E7800000 
 226              	.LVL20:
GAS LISTING /tmp/cc8w3pOr.s 			page 8


  40:src/main.cpp  ****     thread_create(&procesi[2], (pFunc)nitB, &c);
 227              		.loc 1 40 5 is_stmt 1
 228              		.loc 1 40 18 is_stmt 0
 229 0158 130634FB 		addi	a2,s0,-77
 230 015c 97050000 		lla	a1,_Z4nitBPv
 230      93850500 
 231 0164 130584FC 		addi	a0,s0,-56
 232 0168 97000000 		call	_Z13thread_createPP3PCBPFvPvES2_@plt
 232      E7800000 
 233              	.LVL21:
 234 0170 6F00C000 		j	.L12
 235              	.L10:
  41:src/main.cpp  **** 
  42:src/main.cpp  ****     while(!procesi[1]->isFinished() || !procesi[2]->isFinished()) {
  43:src/main.cpp  ****         PCB::yield();
 236              		.loc 1 43 9 is_stmt 1 discriminator 3
 237              		.loc 1 43 19 is_stmt 0 discriminator 3
 238 0174 97000000 		call	_ZN3PCB5yieldEv@plt
 238      E7800000 
 239              	.LVL22:
 240              	.L12:
  42:src/main.cpp  ****         PCB::yield();
 241              		.loc 1 42 5 is_stmt 1
  42:src/main.cpp  ****         PCB::yield();
 242              		.loc 1 42 37
  42:src/main.cpp  ****         PCB::yield();
 243              		.loc 1 42 21 is_stmt 0
 244 017c 833704FC 		ld	a5,-64(s0)
 245              	.LVL23:
 246              	.LBB13:
 247              	.LBB14:
 248              		.file 3 "src/../h/PCB.h"
   1:src/../h/PCB.h **** #ifndef PCB_H
   2:src/../h/PCB.h **** #define PCB_H
   3:src/../h/PCB.h **** 
   4:src/../h/PCB.h **** #include "hw.h"
   5:src/../h/PCB.h **** 
   6:src/../h/PCB.h **** extern "C" void interruptHandler();
   7:src/../h/PCB.h **** 
   8:src/../h/PCB.h **** class PCB {
   9:src/../h/PCB.h **** friend class Scheduler;
  10:src/../h/PCB.h **** friend void interruptHandler();
  11:src/../h/PCB.h **** public:
  12:src/../h/PCB.h ****     // vraca true ako se proces zavrsio, false ako nije
  13:src/../h/PCB.h ****     bool isFinished() const {
  14:src/../h/PCB.h ****         return finished;
 249              		.loc 3 14 9 is_stmt 1
 250              		.loc 3 14 16 is_stmt 0
 251 0180 83C78702 		lbu	a5,40(a5)
 252              	.LVL24:
 253              	.LBE14:
 254              	.LBE13:
  42:src/main.cpp  ****         PCB::yield();
 255              		.loc 1 42 37
 256 0184 E38807FE 		beqz	a5,.L10
  42:src/main.cpp  ****         PCB::yield();
 257              		.loc 1 42 50 discriminator 2
GAS LISTING /tmp/cc8w3pOr.s 			page 9


 258 0188 833784FC 		ld	a5,-56(s0)
 259              	.LVL25:
 260              	.LBB15:
 261              	.LBB16:
 262              		.loc 3 14 9 is_stmt 1 discriminator 2
 263              		.loc 3 14 16 is_stmt 0 discriminator 2
 264 018c 83C78702 		lbu	a5,40(a5)
 265              	.LVL26:
 266              	.LBE16:
 267              	.LBE15:
  42:src/main.cpp  ****         PCB::yield();
 268              		.loc 1 42 37 discriminator 2
 269 0190 E38207FE 		beqz	a5,.L10
 270 0194 930484FB 		addi	s1,s0,-72
 271 0198 6F008000 		j	.L11
 272              	.LVL27:
 273              	.L14:
 274              	.LBB17:
  44:src/main.cpp  ****     }
  45:src/main.cpp  **** 
  46:src/main.cpp  ****     for(auto &proces : procesi) {
 275              		.loc 1 46 5 is_stmt 1 discriminator 3
 276 019c 93848400 		addi	s1,s1,8
 277              	.LVL28:
 278              	.L11:
 279              		.loc 1 46 24 discriminator 1
 280 01a0 930704FE 		addi	a5,s0,-32
 281 01a4 6384F402 		beq	s1,a5,.L13
 282              	.LVL29:
  47:src/main.cpp  ****         delete proces;
 283              		.loc 1 47 9 discriminator 2
 284              		.loc 1 47 16 is_stmt 0 discriminator 2
 285 01a8 03B90400 		ld	s2,0(s1)
 286              		.loc 1 47 22 discriminator 2
 287 01ac E30809FE 		beqz	s2,.L14
 288              		.loc 1 47 16 discriminator 1
 289 01b0 13050900 		mv	a0,s2
 290 01b4 97000000 		call	_ZN3PCBD1Ev@plt
 290      E7800000 
 291              	.LVL30:
 292 01bc 13050900 		mv	a0,s2
 293 01c0 97000000 		call	_ZN3PCBdlEPv@plt
 293      E7800000 
 294              	.LVL31:
 295 01c8 6FF05FFD 		j	.L14
 296              	.LVL32:
 297              	.L13:
 298              	.LBE17:
  48:src/main.cpp  ****     }
  49:src/main.cpp  **** 
  50:src/main.cpp  ****     return 0;
 299              		.loc 1 50 5 is_stmt 1
  51:src/main.cpp  **** }
 300              		.loc 1 51 1 is_stmt 0
 301 01cc 13050000 		li	a0,0
 302 01d0 83308104 		ld	ra,72(sp)
 303              		.cfi_restore 1
GAS LISTING /tmp/cc8w3pOr.s 			page 10


 304 01d4 03340104 		ld	s0,64(sp)
 305              		.cfi_restore 8
 306              		.cfi_def_cfa 2, 80
 307 01d8 83348103 		ld	s1,56(sp)
 308              		.cfi_restore 9
 309              	.LVL33:
 310 01dc 03390103 		ld	s2,48(sp)
 311              		.cfi_restore 18
 312 01e0 13010105 		addi	sp,sp,80
 313              		.cfi_def_cfa_offset 0
 314 01e4 67800000 		jr	ra
 315              		.cfi_endproc
 316              	.LFE30:
 318              	.Letext0:
 319              		.file 4 "src/../h/hw.h"
 320              		.file 5 "src/../h/syscall_c.h"
 321              		.file 6 "src/../h/print.h"
 322              		.file 7 "src/../h/console.h"
GAS LISTING /tmp/cc8w3pOr.s 			page 11


DEFINED SYMBOLS
                            *ABS*:0000000000000000 main.cpp
     /tmp/cc8w3pOr.s:17     .text:0000000000000000 _Z4nitAPv
     /tmp/cc8w3pOr.s:21     .text:0000000000000000 .L0 
     /tmp/cc8w3pOr.s:23     .text:0000000000000000 .L0 
     /tmp/cc8w3pOr.s:24     .text:0000000000000004 .L0 
     /tmp/cc8w3pOr.s:28     .text:0000000000000010 .L0 
     /tmp/cc8w3pOr.s:29     .text:0000000000000010 .L0 
     /tmp/cc8w3pOr.s:30     .text:0000000000000010 .L0 
     /tmp/cc8w3pOr.s:32     .text:0000000000000014 .L0 
     /tmp/cc8w3pOr.s:35     .text:0000000000000018 .L0 
     /tmp/cc8w3pOr.s:36     .text:0000000000000018 .L0 
     /tmp/cc8w3pOr.s:41     .text:0000000000000028 .L0 
     /tmp/cc8w3pOr.s:42     .text:0000000000000028 .L0 
     /tmp/cc8w3pOr.s:46     .text:0000000000000030 .L0 
     /tmp/cc8w3pOr.s:47     .text:0000000000000030 .L0 
     /tmp/cc8w3pOr.s:52     .text:0000000000000038 .L0 
     /tmp/cc8w3pOr.s:56     .text:000000000000003c .L0 
     /tmp/cc8w3pOr.s:61     .text:0000000000000048 .L0 
     /tmp/cc8w3pOr.s:65     .text:000000000000004c .L0 
     /tmp/cc8w3pOr.s:69     .text:0000000000000058 .L0 
     /tmp/cc8w3pOr.s:76     .text:0000000000000060 .L0 
     /tmp/cc8w3pOr.s:77     .text:0000000000000060 .L0 
     /tmp/cc8w3pOr.s:81     .text:000000000000006c .L0 
     /tmp/cc8w3pOr.s:82     .text:000000000000006c .L0 
     /tmp/cc8w3pOr.s:86     .text:000000000000007c .L0 
     /tmp/cc8w3pOr.s:87     .text:0000000000000080 .L0 
     /tmp/cc8w3pOr.s:89     .text:0000000000000084 .L0 
     /tmp/cc8w3pOr.s:90     .text:0000000000000084 .L0 
     /tmp/cc8w3pOr.s:92     .text:0000000000000088 .L0 
     /tmp/cc8w3pOr.s:95     .text:000000000000008c .L0 
     /tmp/cc8w3pOr.s:97     .text:0000000000000090 .L0 
     /tmp/cc8w3pOr.s:108    .text:0000000000000090 _Z4nitBPv
     /tmp/cc8w3pOr.s:111    .text:0000000000000090 .L0 
     /tmp/cc8w3pOr.s:113    .text:0000000000000090 .L0 
     /tmp/cc8w3pOr.s:114    .text:0000000000000094 .L0 
     /tmp/cc8w3pOr.s:118    .text:00000000000000a0 .L0 
     /tmp/cc8w3pOr.s:119    .text:00000000000000a0 .L0 
     /tmp/cc8w3pOr.s:120    .text:00000000000000a0 .L0 
     /tmp/cc8w3pOr.s:122    .text:00000000000000a4 .L0 
     /tmp/cc8w3pOr.s:125    .text:00000000000000a8 .L0 
     /tmp/cc8w3pOr.s:126    .text:00000000000000a8 .L0 
     /tmp/cc8w3pOr.s:131    .text:00000000000000b8 .L0 
     /tmp/cc8w3pOr.s:132    .text:00000000000000b8 .L0 
     /tmp/cc8w3pOr.s:136    .text:00000000000000c4 .L0 
     /tmp/cc8w3pOr.s:137    .text:00000000000000c4 .L0 
     /tmp/cc8w3pOr.s:141    .text:00000000000000d0 .L0 
     /tmp/cc8w3pOr.s:142    .text:00000000000000d4 .L0 
     /tmp/cc8w3pOr.s:144    .text:00000000000000d8 .L0 
     /tmp/cc8w3pOr.s:145    .text:00000000000000d8 .L0 
     /tmp/cc8w3pOr.s:147    .text:00000000000000dc .L0 
     /tmp/cc8w3pOr.s:150    .text:00000000000000e0 .L0 
     /tmp/cc8w3pOr.s:152    .text:00000000000000e4 .L0 
     /tmp/cc8w3pOr.s:158    .text:00000000000000e4 main
     /tmp/cc8w3pOr.s:161    .text:00000000000000e4 .L0 
     /tmp/cc8w3pOr.s:162    .text:00000000000000e4 .L0 
     /tmp/cc8w3pOr.s:163    .text:00000000000000e8 .L0 
GAS LISTING /tmp/cc8w3pOr.s 			page 12


     /tmp/cc8w3pOr.s:168    .text:00000000000000f8 .L0 
     /tmp/cc8w3pOr.s:169    .text:00000000000000f8 .L0 
     /tmp/cc8w3pOr.s:170    .text:00000000000000f8 .L0 
     /tmp/cc8w3pOr.s:171    .text:00000000000000f8 .L0 
     /tmp/cc8w3pOr.s:173    .text:00000000000000fc .L0 
     /tmp/cc8w3pOr.s:175    .text:00000000000000fc .L0 
     /tmp/cc8w3pOr.s:176    .text:00000000000000fc .L0 
     /tmp/cc8w3pOr.s:182    .text:0000000000000108 .L0 
     /tmp/cc8w3pOr.s:183    .text:0000000000000108 .L0 
     /tmp/cc8w3pOr.s:185    .text:0000000000000108 .L0 
     /tmp/cc8w3pOr.s:190    .text:0000000000000118 .L0 
     /tmp/cc8w3pOr.s:192    .text:000000000000011c .L0 
     /tmp/cc8w3pOr.s:193    .text:000000000000011c .L0 
     /tmp/cc8w3pOr.s:200    .text:0000000000000128 .L0 
     /tmp/cc8w3pOr.s:201    .text:0000000000000128 .L0 
     /tmp/cc8w3pOr.s:202    .text:0000000000000128 .L0 
     /tmp/cc8w3pOr.s:212    .text:0000000000000130 .L0 
     /tmp/cc8w3pOr.s:213    .text:0000000000000130 .L0 
     /tmp/cc8w3pOr.s:214    .text:0000000000000130 .L0 
     /tmp/cc8w3pOr.s:217    .text:0000000000000138 .L0 
     /tmp/cc8w3pOr.s:218    .text:0000000000000138 .L0 
     /tmp/cc8w3pOr.s:221    .text:0000000000000140 .L0 
     /tmp/cc8w3pOr.s:222    .text:0000000000000140 .L0 
     /tmp/cc8w3pOr.s:228    .text:0000000000000158 .L0 
     /tmp/cc8w3pOr.s:229    .text:0000000000000158 .L0 
     /tmp/cc8w3pOr.s:237    .text:0000000000000174 .L0 
     /tmp/cc8w3pOr.s:238    .text:0000000000000174 .L0 
     /tmp/cc8w3pOr.s:242    .text:000000000000017c .L0 
     /tmp/cc8w3pOr.s:243    .text:000000000000017c .L0 
     /tmp/cc8w3pOr.s:244    .text:000000000000017c .L0 
     /tmp/cc8w3pOr.s:250    .text:0000000000000180 .L0 
     /tmp/cc8w3pOr.s:251    .text:0000000000000180 .L0 
     /tmp/cc8w3pOr.s:256    .text:0000000000000184 .L0 
     /tmp/cc8w3pOr.s:258    .text:0000000000000188 .L0 
     /tmp/cc8w3pOr.s:263    .text:000000000000018c .L0 
     /tmp/cc8w3pOr.s:264    .text:000000000000018c .L0 
     /tmp/cc8w3pOr.s:269    .text:0000000000000190 .L0 
     /tmp/cc8w3pOr.s:276    .text:000000000000019c .L0 
     /tmp/cc8w3pOr.s:280    .text:00000000000001a0 .L0 
     /tmp/cc8w3pOr.s:284    .text:00000000000001a8 .L0 
     /tmp/cc8w3pOr.s:285    .text:00000000000001a8 .L0 
     /tmp/cc8w3pOr.s:287    .text:00000000000001ac .L0 
     /tmp/cc8w3pOr.s:289    .text:00000000000001b0 .L0 
     /tmp/cc8w3pOr.s:300    .text:00000000000001cc .L0 
     /tmp/cc8w3pOr.s:301    .text:00000000000001cc .L0 
     /tmp/cc8w3pOr.s:303    .text:00000000000001d4 .L0 
     /tmp/cc8w3pOr.s:305    .text:00000000000001d8 .L0 
     /tmp/cc8w3pOr.s:306    .text:00000000000001d8 .L0 
     /tmp/cc8w3pOr.s:308    .text:00000000000001dc .L0 
     /tmp/cc8w3pOr.s:311    .text:00000000000001e0 .L0 
     /tmp/cc8w3pOr.s:313    .text:00000000000001e4 .L0 
     /tmp/cc8w3pOr.s:315    .text:00000000000001e8 .L0 
     /tmp/cc8w3pOr.s:323    .text:00000000000001e8 .L0 
     /tmp/cc8w3pOr.s:8      .rodata.str1.8:0000000000000000 .LC0
     /tmp/cc8w3pOr.s:36     .text:0000000000000018 .L0 
     /tmp/cc8w3pOr.s:11     .rodata.str1.8:0000000000000008 .LC1
     /tmp/cc8w3pOr.s:82     .text:000000000000006c .L0 
GAS LISTING /tmp/cc8w3pOr.s 			page 13


     /tmp/cc8w3pOr.s:102    .rodata.str1.8:0000000000000018 .LC2
     /tmp/cc8w3pOr.s:126    .text:00000000000000a8 .L0 
     /tmp/cc8w3pOr.s:176    .text:00000000000000fc .L0 
     /tmp/cc8w3pOr.s:193    .text:000000000000011c .L0 
     /tmp/cc8w3pOr.s:223    .text:0000000000000144 .L0 
     /tmp/cc8w3pOr.s:230    .text:000000000000015c .L0 
     /tmp/cc8w3pOr.s:54     .text:000000000000003c .L5
     /tmp/cc8w3pOr.s:72     .text:0000000000000060 .L2
     /tmp/cc8w3pOr.s:50     .text:0000000000000038 .L3
     /tmp/cc8w3pOr.s:62     .text:000000000000004c .L4
     /tmp/cc8w3pOr.s:240    .text:000000000000017c .L12
     /tmp/cc8w3pOr.s:235    .text:0000000000000174 .L10
     /tmp/cc8w3pOr.s:278    .text:00000000000001a0 .L11
     /tmp/cc8w3pOr.s:297    .text:00000000000001cc .L13
     /tmp/cc8w3pOr.s:273    .text:000000000000019c .L14
     /tmp/cc8w3pOr.s:1281   .debug_abbrev:0000000000000000 .Ldebug_abbrev0
     /tmp/cc8w3pOr.s:2533   .debug_str:0000000000000594 .LASF102
     /tmp/cc8w3pOr.s:2427   .debug_str:0000000000000295 .LASF103
     /tmp/cc8w3pOr.s:2519   .debug_str:000000000000050a .LASF104
     /tmp/cc8w3pOr.s:5      .text:0000000000000000 .Ltext0
     /tmp/cc8w3pOr.s:318    .text:00000000000001e8 .Letext0
     /tmp/cc8w3pOr.s:2327   .debug_line:0000000000000000 .Ldebug_line0
     /tmp/cc8w3pOr.s:2451   .debug_str:0000000000000347 .LASF0
     /tmp/cc8w3pOr.s:2465   .debug_str:0000000000000395 .LASF1
     /tmp/cc8w3pOr.s:2437   .debug_str:00000000000002e7 .LASF2
     /tmp/cc8w3pOr.s:2355   .debug_str:000000000000008a .LASF16
     /tmp/cc8w3pOr.s:2503   .debug_str:00000000000004ba .LASF3
     /tmp/cc8w3pOr.s:2469   .debug_str:00000000000003d0 .LASF4
     /tmp/cc8w3pOr.s:2449   .debug_str:0000000000000334 .LASF5
     /tmp/cc8w3pOr.s:2527   .debug_str:000000000000055d .LASF6
     /tmp/cc8w3pOr.s:2405   .debug_str:00000000000001e1 .LASF7
     /tmp/cc8w3pOr.s:2481   .debug_str:000000000000041b .LASF8
     /tmp/cc8w3pOr.s:2521   .debug_str:0000000000000528 .LASF9
     /tmp/cc8w3pOr.s:2359   .debug_str:000000000000009d .LASF10
     /tmp/cc8w3pOr.s:2337   .debug_str:000000000000001e .LASF11
     /tmp/cc8w3pOr.s:2365   .debug_str:00000000000000c3 .LASF12
     /tmp/cc8w3pOr.s:2499   .debug_str:000000000000049e .LASF13
     /tmp/cc8w3pOr.s:2375   .debug_str:000000000000010f .LASF14
     /tmp/cc8w3pOr.s:2397   .debug_str:00000000000001bf .LASF15
     /tmp/cc8w3pOr.s:2329   .debug_str:0000000000000000 .LASF17
     /tmp/cc8w3pOr.s:2343   .debug_str:0000000000000043 .LASF105
     /tmp/cc8w3pOr.s:2471   .debug_str:00000000000003e3 .LASF83
     /tmp/cc8w3pOr.s:2475   .debug_str:00000000000003f3 .LASF91
     /tmp/cc8w3pOr.s:2439   .debug_str:00000000000002f5 .LASF18
     /tmp/cc8w3pOr.s:2345   .debug_str:000000000000004b .LASF20
     /tmp/cc8w3pOr.s:2401   .debug_str:00000000000001cc .LASF19
     /tmp/cc8w3pOr.s:2545   .debug_str:0000000000000665 .LASF21
     /tmp/cc8w3pOr.s:2479   .debug_str:000000000000040f .LASF106
     /tmp/cc8w3pOr.s:2501   .debug_str:00000000000004b4 .LASF44
     /tmp/cc8w3pOr.s:2529   .debug_str:000000000000056d .LASF46
     /tmp/cc8w3pOr.s:2391   .debug_str:000000000000018d .LASF107
     /tmp/cc8w3pOr.s:2495   .debug_str:000000000000048e .LASF22
     /tmp/cc8w3pOr.s:2361   .debug_str:00000000000000ad .LASF23
     /tmp/cc8w3pOr.s:2537   .debug_str:0000000000000640 .LASF24
     /tmp/cc8w3pOr.s:2415   .debug_str:000000000000023c .LASF25
     /tmp/cc8w3pOr.s:2507   .debug_str:00000000000004d3 .LASF26
     /tmp/cc8w3pOr.s:2511   .debug_str:00000000000004ea .LASF49
GAS LISTING /tmp/cc8w3pOr.s 			page 14


     /tmp/cc8w3pOr.s:2347   .debug_str:0000000000000062 .LASF108
     /tmp/cc8w3pOr.s:2549   .debug_str:0000000000000698 .LASF27
     /tmp/cc8w3pOr.s:2455   .debug_str:000000000000035d .LASF28
     /tmp/cc8w3pOr.s:2423   .debug_str:0000000000000278 .LASF29
     /tmp/cc8w3pOr.s:2477   .debug_str:000000000000040a .LASF30
     /tmp/cc8w3pOr.s:2419   .debug_str:000000000000025c .LASF31
     /tmp/cc8w3pOr.s:2381   .debug_str:000000000000014a .LASF32
     /tmp/cc8w3pOr.s:2459   .debug_str:0000000000000376 .LASF33
     /tmp/cc8w3pOr.s:2413   .debug_str:000000000000022b .LASF109
     /tmp/cc8w3pOr.s:2453   .debug_str:0000000000000354 .LASF34
     /tmp/cc8w3pOr.s:2409   .debug_str:0000000000000204 .LASF36
     /tmp/cc8w3pOr.s:2367   .debug_str:00000000000000cf .LASF79
     /tmp/cc8w3pOr.s:2467   .debug_str:00000000000003a8 .LASF81
     /tmp/cc8w3pOr.s:2369   .debug_str:00000000000000dd .LASF35
     /tmp/cc8w3pOr.s:2491   .debug_str:000000000000045c .LASF37
     /tmp/cc8w3pOr.s:2539   .debug_str:000000000000064d .LASF38
     /tmp/cc8w3pOr.s:2377   .debug_str:0000000000000125 .LASF110
     /tmp/cc8w3pOr.s:2371   .debug_str:00000000000000ed .LASF39
     /tmp/cc8w3pOr.s:2431   .debug_str:00000000000002ac .LASF40
     /tmp/cc8w3pOr.s:2357   .debug_str:0000000000000091 .LASF41
     /tmp/cc8w3pOr.s:2333   .debug_str:0000000000000011 .LASF42
     /tmp/cc8w3pOr.s:2393   .debug_str:0000000000000195 .LASF43
     /tmp/cc8w3pOr.s:2497   .debug_str:0000000000000493 .LASF45
     /tmp/cc8w3pOr.s:2485   .debug_str:0000000000000436 .LASF47
     /tmp/cc8w3pOr.s:2339   .debug_str:000000000000002e .LASF51
     /tmp/cc8w3pOr.s:2379   .debug_str:0000000000000134 .LASF53
     /tmp/cc8w3pOr.s:2389   .debug_str:0000000000000184 .LASF48
     /tmp/cc8w3pOr.s:2373   .debug_str:00000000000000f9 .LASF50
     /tmp/cc8w3pOr.s:2505   .debug_str:00000000000004cc .LASF52
     /tmp/cc8w3pOr.s:2447   .debug_str:0000000000000320 .LASF54
     /tmp/cc8w3pOr.s:2509   .debug_str:00000000000004e3 .LASF55
     /tmp/cc8w3pOr.s:2417   .debug_str:0000000000000248 .LASF56
     /tmp/cc8w3pOr.s:2399   .debug_str:00000000000001c4 .LASF57
     /tmp/cc8w3pOr.s:2395   .debug_str:00000000000001aa .LASF58
     /tmp/cc8w3pOr.s:2331   .debug_str:0000000000000009 .LASF59
     /tmp/cc8w3pOr.s:2425   .debug_str:0000000000000280 .LASF60
     /tmp/cc8w3pOr.s:2353   .debug_str:0000000000000082 .LASF61
     /tmp/cc8w3pOr.s:2433   .debug_str:00000000000002b9 .LASF62
     /tmp/cc8w3pOr.s:2553   .debug_str:00000000000006ad .LASF63
     /tmp/cc8w3pOr.s:2407   .debug_str:00000000000001ef .LASF64
     /tmp/cc8w3pOr.s:2489   .debug_str:0000000000000455 .LASF65
     /tmp/cc8w3pOr.s:2525   .debug_str:0000000000000549 .LASF66
     /tmp/cc8w3pOr.s:2351   .debug_str:000000000000007b .LASF67
     /tmp/cc8w3pOr.s:2411   .debug_str:0000000000000217 .LASF68
     /tmp/cc8w3pOr.s:2403   .debug_str:00000000000001db .LASF69
     /tmp/cc8w3pOr.s:2457   .debug_str:0000000000000363 .LASF70
     /tmp/cc8w3pOr.s:2349   .debug_str:0000000000000075 .LASF71
     /tmp/cc8w3pOr.s:2421   .debug_str:0000000000000265 .LASF72
     /tmp/cc8w3pOr.s:2551   .debug_str:00000000000006a2 .LASF73
     /tmp/cc8w3pOr.s:2435   .debug_str:00000000000002ce .LASF74
     /tmp/cc8w3pOr.s:2463   .debug_str:000000000000038a .LASF75
     /tmp/cc8w3pOr.s:2387   .debug_str:000000000000016b .LASF76
     /tmp/cc8w3pOr.s:2363   .debug_str:00000000000000b9 .LASF77
     /tmp/cc8w3pOr.s:2531   .debug_str:000000000000057d .LASF78
     /tmp/cc8w3pOr.s:2441   .debug_str:0000000000000301 .LASF80
     /tmp/cc8w3pOr.s:2493   .debug_str:0000000000000477 .LASF82
     /tmp/cc8w3pOr.s:159    .text:00000000000000e4 .LFB30
GAS LISTING /tmp/cc8w3pOr.s 			page 15


     /tmp/cc8w3pOr.s:316    .text:00000000000001e8 .LFE30
     /tmp/cc8w3pOr.s:2443   .debug_str:000000000000030b .LASF84
     /tmp/cc8w3pOr.s:2487   .debug_str:000000000000044f .LASF85
     /tmp/cc8w3pOr.s:274    .text:000000000000019c .LBB17
     /tmp/cc8w3pOr.s:298    .text:00000000000001cc .LBE17
     /tmp/cc8w3pOr.s:2515   .debug_str:00000000000004fe .LASF86
     /tmp/cc8w3pOr.s:2215   .debug_loc:0000000000000000 .LLST7
     /tmp/cc8w3pOr.s:2541   .debug_str:0000000000000654 .LASF87
     /tmp/cc8w3pOr.s:2483   .debug_str:000000000000042a .LASF111
     /tmp/cc8w3pOr.s:2226   .debug_loc:0000000000000036 .LLST8
     /tmp/cc8w3pOr.s:2429   .debug_str:00000000000002a2 .LASF88
     /tmp/cc8w3pOr.s:291    .text:00000000000001bc .LVL30
     /tmp/cc8w3pOr.s:294    .text:00000000000001c8 .LVL31
     /tmp/cc8w3pOr.s:197    .text:0000000000000128 .LBB11
     /tmp/cc8w3pOr.s:210    .text:0000000000000130 .LBE11
     /tmp/cc8w3pOr.s:2233   .debug_loc:0000000000000059 .LLST4
     /tmp/cc8w3pOr.s:246    .text:0000000000000180 .LBB13
     /tmp/cc8w3pOr.s:254    .text:0000000000000184 .LBE13
     /tmp/cc8w3pOr.s:2241   .debug_loc:000000000000007d .LLST5
     /tmp/cc8w3pOr.s:260    .text:000000000000018c .LBB15
     /tmp/cc8w3pOr.s:267    .text:0000000000000190 .LBE15
     /tmp/cc8w3pOr.s:2248   .debug_loc:00000000000000a0 .LLST6
     /tmp/cc8w3pOr.s:188    .text:0000000000000118 .LVL17
     /tmp/cc8w3pOr.s:226    .text:0000000000000158 .LVL20
     /tmp/cc8w3pOr.s:233    .text:0000000000000170 .LVL21
     /tmp/cc8w3pOr.s:239    .text:000000000000017c .LVL22
     /tmp/cc8w3pOr.s:2473   .debug_str:00000000000003ee .LASF89
     /tmp/cc8w3pOr.s:2335   .debug_str:0000000000000019 .LASF90
     /tmp/cc8w3pOr.s:2535   .debug_str:0000000000000636 .LASF92
     /tmp/cc8w3pOr.s:109    .text:0000000000000090 .LFB29
     /tmp/cc8w3pOr.s:153    .text:00000000000000e4 .LFE29
     /tmp/cc8w3pOr.s:2255   .debug_loc:00000000000000c3 .LLST3
     /tmp/cc8w3pOr.s:129    .text:00000000000000b8 .LVL13
     /tmp/cc8w3pOr.s:134    .text:00000000000000c4 .LVL14
     /tmp/cc8w3pOr.s:139    .text:00000000000000d0 .LVL15
     /tmp/cc8w3pOr.s:2385   .debug_str:0000000000000166 .LASF93
     /tmp/cc8w3pOr.s:2461   .debug_str:0000000000000380 .LASF94
     /tmp/cc8w3pOr.s:18     .text:0000000000000000 .LFB28
     /tmp/cc8w3pOr.s:98     .text:0000000000000090 .LFE28
     /tmp/cc8w3pOr.s:2273   .debug_loc:000000000000010f .LLST0
     /tmp/cc8w3pOr.s:45     .text:0000000000000030 .LBB9
     /tmp/cc8w3pOr.s:74     .text:0000000000000060 .LBE9
     /tmp/cc8w3pOr.s:2291   .debug_loc:000000000000015b .LLST1
     /tmp/cc8w3pOr.s:59     .text:0000000000000048 .LBB10
     /tmp/cc8w3pOr.s:73     .text:0000000000000060 .LBE10
     /tmp/cc8w3pOr.s:2303   .debug_loc:0000000000000192 .LLST2
     /tmp/cc8w3pOr.s:39     .text:0000000000000028 .LVL2
     /tmp/cc8w3pOr.s:43     .text:0000000000000030 .LVL3
     /tmp/cc8w3pOr.s:79     .text:000000000000006c .LVL8
     /tmp/cc8w3pOr.s:84     .text:000000000000007c .LVL9
     /tmp/cc8w3pOr.s:2517   .debug_str:0000000000000505 .LASF112
     /tmp/cc8w3pOr.s:2543   .debug_str:0000000000000660 .LASF113
     /tmp/cc8w3pOr.s:2555   .debug_str:00000000000006b5 .LASF95
     /tmp/cc8w3pOr.s:2383   .debug_str:0000000000000158 .LASF97
     /tmp/cc8w3pOr.s:2547   .debug_str:0000000000000685 .LASF96
     /tmp/cc8w3pOr.s:2341   .debug_str:0000000000000037 .LASF98
     /tmp/cc8w3pOr.s:2513   .debug_str:00000000000004f7 .LASF99
GAS LISTING /tmp/cc8w3pOr.s 			page 16


     /tmp/cc8w3pOr.s:2523   .debug_str:0000000000000537 .LASF100
     /tmp/cc8w3pOr.s:2445   .debug_str:0000000000000313 .LASF101
     /tmp/cc8w3pOr.s:272    .text:000000000000019c .LVL27
     /tmp/cc8w3pOr.s:277    .text:00000000000001a0 .LVL28
     /tmp/cc8w3pOr.s:282    .text:00000000000001a8 .LVL29
     /tmp/cc8w3pOr.s:296    .text:00000000000001cc .LVL32
     /tmp/cc8w3pOr.s:309    .text:00000000000001dc .LVL33
     /tmp/cc8w3pOr.s:196    .text:0000000000000128 .LVL18
     /tmp/cc8w3pOr.s:207    .text:0000000000000130 .LVL19
     /tmp/cc8w3pOr.s:245    .text:0000000000000180 .LVL23
     /tmp/cc8w3pOr.s:252    .text:0000000000000184 .LVL24
     /tmp/cc8w3pOr.s:259    .text:000000000000018c .LVL25
     /tmp/cc8w3pOr.s:265    .text:0000000000000190 .LVL26
     /tmp/cc8w3pOr.s:112    .text:0000000000000090 .LVL11
     /tmp/cc8w3pOr.s:127    .text:00000000000000b0 .LVL12
     /tmp/cc8w3pOr.s:148    .text:00000000000000dc .LVL16
     /tmp/cc8w3pOr.s:22     .text:0000000000000000 .LVL0
     /tmp/cc8w3pOr.s:37     .text:0000000000000020 .LVL1
     /tmp/cc8w3pOr.s:93     .text:0000000000000088 .LVL10
     /tmp/cc8w3pOr.s:49     .text:0000000000000038 .LVL4
     /tmp/cc8w3pOr.s:53     .text:000000000000003c .LVL5
     /tmp/cc8w3pOr.s:63     .text:000000000000004c .LVL6
     /tmp/cc8w3pOr.s:70     .text:000000000000005c .LVL7
     /tmp/cc8w3pOr.s:324    .debug_info:0000000000000000 .Ldebug_info0

UNDEFINED SYMBOLS
_Z11printStringPKc
_ZN3PCB5yieldEv
_Z12printIntegerm
__putc
interrupt
_ZN3PCB14createProccessEPFvvEPv
_ZN3PCB7runningE
_Z13thread_createPP3PCBPFvPvES2_
_ZN3PCBD1Ev
_ZN3PCBdlEPv
