GAS LISTING /tmp/cc0x7AO2.s 			page 1


   1              		.file	"main.cpp"
   2              		.option pic
   3              		.option norelax
   4              		.text
   5              	.Ltext0:
   6              		.section	.rodata.str1.8,"aMS",@progbits,1
   7              		.align	3
   8              	.LC0:
   9 0000 413A2069 		.string	"A: i="
   9      3D00
  10 0006 0000     		.align	3
  11              	.LC1:
  12 0008 0A00     		.string	"\n"
  13              		.text
  14              		.align	2
  15              		.globl	_Z11workerBodyAv
  17              	_Z11workerBodyAv:
  18              	.LFB28:
  19              		.file 1 "src/main.cpp"
   1:src/main.cpp  **** #include "../h/hw.h"
   2:src/main.cpp  **** #include "../h/console.h"
   3:src/main.cpp  **** #include "../h/MemoryAllocator.h"
   4:src/main.cpp  **** #include "../h/syscall_c.h"
   5:src/main.cpp  **** #include "../h/print.h"
   6:src/main.cpp  **** #include "../h/PCB.h"
   7:src/main.cpp  **** #include "../h/kernel.h"
   8:src/main.cpp  **** 
   9:src/main.cpp  **** 
  10:src/main.cpp  **** void workerBodyA()
  11:src/main.cpp  **** {
  20              		.loc 1 11 1
  21              		.cfi_startproc
  22 0000 130101FE 		addi	sp,sp,-32
  23              		.cfi_def_cfa_offset 32
  24 0004 233C1100 		sd	ra,24(sp)
  25 0008 23388100 		sd	s0,16(sp)
  26 000c 23349100 		sd	s1,8(sp)
  27              		.cfi_offset 1, -8
  28              		.cfi_offset 8, -16
  29              		.cfi_offset 9, -24
  30 0010 13040102 		addi	s0,sp,32
  31              		.cfi_def_cfa 8, 0
  12:src/main.cpp  ****     for (size_t i = 0; i < 10; i++)
  32              		.loc 1 12 5
  33              	.LVL0:
  34              	.LBB13:
  35              		.loc 1 12 17 is_stmt 0
  36 0014 93040000 		li	s1,0
  37 0018 6F00C003 		j	.L8
  38              	.LVL1:
  39              	.L10:
  40              	.LBB14:
  13:src/main.cpp  ****     {
  14:src/main.cpp  ****         if(i==5)thread_exit();
  41              		.loc 1 14 17 is_stmt 1 discriminator 1
  42              		.loc 1 14 28 is_stmt 0 discriminator 1
  43 001c 97000000 		call	_Z11thread_exitv@plt
GAS LISTING /tmp/cc0x7AO2.s 			page 2


  43      E7800000 
  44              	.LVL2:
  45 0024 6F000004 		j	.L3
  46              	.LVL3:
  47              	.L5:
  48              	.LBB15:
  15:src/main.cpp  ****         printString("A: i=");
  16:src/main.cpp  ****         printInteger(i);
  17:src/main.cpp  ****         printString("\n");
  18:src/main.cpp  ****         for (size_t j = 0; j < 10000; j++)
  49              		.loc 1 18 9 is_stmt 1 discriminator 2
  50 0028 93861600 		addi	a3,a3,1
  51              	.LVL4:
  52              	.L7:
  53              		.loc 1 18 30 discriminator 1
  54 002c B7270000 		li	a5,8192
  55 0030 9387F770 		addi	a5,a5,1807
  56 0034 63EED700 		bgtu	a3,a5,.L4
  57              	.LBB16:
  19:src/main.cpp  ****         {
  20:src/main.cpp  ****             for (size_t k = 0; k < 30000; k++)
  58              		.loc 1 20 25 is_stmt 0
  59 0038 13070000 		li	a4,0
  60              	.L6:
  61              	.LVL5:
  62              		.loc 1 20 34 is_stmt 1 discriminator 3
  63 003c B7770000 		li	a5,28672
  64 0040 9387F752 		addi	a5,a5,1327
  65 0044 E3E2E7FE 		bgtu	a4,a5,.L5
  66              		.loc 1 20 13 discriminator 2
  67 0048 13071700 		addi	a4,a4,1
  68              	.LVL6:
  69 004c 6FF01FFF 		j	.L6
  70              	.LVL7:
  71              	.L4:
  72              	.LBE16:
  73              	.LBE15:
  74              	.LBE14:
  12:src/main.cpp  ****     {
  75              		.loc 1 12 5 discriminator 2
  76 0050 93841400 		addi	s1,s1,1
  77              	.LVL8:
  78              	.L8:
  12:src/main.cpp  ****     {
  79              		.loc 1 12 26 discriminator 1
  80 0054 93079000 		li	a5,9
  81 0058 63E09704 		bgtu	s1,a5,.L1
  82              	.LBB18:
  14:src/main.cpp  ****         printString("A: i=");
  83              		.loc 1 14 9
  84 005c 93075000 		li	a5,5
  85 0060 E38EF4FA 		beq	s1,a5,.L10
  86              	.L3:
  15:src/main.cpp  ****         printInteger(i);
  87              		.loc 1 15 9
  15:src/main.cpp  ****         printInteger(i);
  88              		.loc 1 15 20 is_stmt 0
GAS LISTING /tmp/cc0x7AO2.s 			page 3


  89 0064 17050000 		lla	a0,.LC0
  89      13050500 
  90 006c 97000000 		call	_Z11printStringPKc@plt
  90      E7800000 
  91              	.LVL9:
  16:src/main.cpp  ****         printString("\n");
  92              		.loc 1 16 9 is_stmt 1
  16:src/main.cpp  ****         printString("\n");
  93              		.loc 1 16 21 is_stmt 0
  94 0074 13850400 		mv	a0,s1
  95 0078 97000000 		call	_Z12printIntegerm@plt
  95      E7800000 
  96              	.LVL10:
  17:src/main.cpp  ****         for (size_t j = 0; j < 10000; j++)
  97              		.loc 1 17 9 is_stmt 1
  17:src/main.cpp  ****         for (size_t j = 0; j < 10000; j++)
  98              		.loc 1 17 20 is_stmt 0
  99 0080 17050000 		lla	a0,.LC1
  99      13050500 
 100 0088 97000000 		call	_Z11printStringPKc@plt
 100      E7800000 
 101              	.LVL11:
  18:src/main.cpp  ****         {
 102              		.loc 1 18 9 is_stmt 1
 103              	.LBB17:
  18:src/main.cpp  ****         {
 104              		.loc 1 18 21 is_stmt 0
 105 0090 93060000 		li	a3,0
 106 0094 6FF09FF9 		j	.L7
 107              	.LVL12:
 108              	.L1:
 109              	.LBE17:
 110              	.LBE18:
 111              	.LBE13:
  21:src/main.cpp  ****             {
  22:src/main.cpp  ****                 // busy wait
  23:src/main.cpp  ****             }
  24:src/main.cpp  **** //            TCB::yield();
  25:src/main.cpp  ****         }
  26:src/main.cpp  ****     }
  27:src/main.cpp  **** }
 112              		.loc 1 27 1
 113 0098 83308101 		ld	ra,24(sp)
 114              		.cfi_restore 1
 115 009c 03340101 		ld	s0,16(sp)
 116              		.cfi_restore 8
 117              		.cfi_def_cfa 2, 32
 118 00a0 83348100 		ld	s1,8(sp)
 119              		.cfi_restore 9
 120              	.LVL13:
 121 00a4 13010102 		addi	sp,sp,32
 122              		.cfi_def_cfa_offset 0
 123 00a8 67800000 		jr	ra
 124              		.cfi_endproc
 125              	.LFE28:
 127              		.section	.rodata.str1.8
 128 000a 00000000 		.align	3
GAS LISTING /tmp/cc0x7AO2.s 			page 4


 128      0000
 129              	.LC2:
 130 0010 423A2069 		.string	"B: i="
 130      3D00
 131              		.text
 132              		.align	2
 133              		.globl	_Z11workerBodyBv
 135              	_Z11workerBodyBv:
 136              	.LFB29:
  28:src/main.cpp  **** 
  29:src/main.cpp  **** void workerBodyB()
  30:src/main.cpp  **** {
 137              		.loc 1 30 1 is_stmt 1
 138              		.cfi_startproc
 139 00ac 130101FE 		addi	sp,sp,-32
 140              		.cfi_def_cfa_offset 32
 141 00b0 233C1100 		sd	ra,24(sp)
 142 00b4 23388100 		sd	s0,16(sp)
 143 00b8 23349100 		sd	s1,8(sp)
 144              		.cfi_offset 1, -8
 145              		.cfi_offset 8, -16
 146              		.cfi_offset 9, -24
 147 00bc 13040102 		addi	s0,sp,32
 148              		.cfi_def_cfa 8, 0
  31:src/main.cpp  ****     for (size_t i = 0; i < 16; i++)
 149              		.loc 1 31 5
 150              	.LVL14:
 151              	.LBB19:
 152              		.loc 1 31 17 is_stmt 0
 153 00c0 93040000 		li	s1,0
 154 00c4 6F000003 		j	.L17
 155              	.LVL15:
 156              	.L14:
 157              	.LBB20:
 158              	.LBB21:
  32:src/main.cpp  ****     {
  33:src/main.cpp  ****         printString("B: i=");
  34:src/main.cpp  ****         printInteger(i);
  35:src/main.cpp  ****         printString("\n");
  36:src/main.cpp  ****         for (size_t j = 0; j < 10000; j++)
 159              		.loc 1 36 9 is_stmt 1 discriminator 2
 160 00c8 93861600 		addi	a3,a3,1
 161              	.LVL16:
 162              	.L16:
 163              		.loc 1 36 30 discriminator 1
 164 00cc B7270000 		li	a5,8192
 165 00d0 9387F770 		addi	a5,a5,1807
 166 00d4 63EED700 		bgtu	a3,a5,.L13
 167              	.LBB22:
  37:src/main.cpp  ****         {
  38:src/main.cpp  ****             for (size_t k = 0; k < 30000; k++)
 168              		.loc 1 38 25 is_stmt 0
 169 00d8 13070000 		li	a4,0
 170              	.L15:
 171              	.LVL17:
 172              		.loc 1 38 34 is_stmt 1 discriminator 3
 173 00dc B7770000 		li	a5,28672
GAS LISTING /tmp/cc0x7AO2.s 			page 5


 174 00e0 9387F752 		addi	a5,a5,1327
 175 00e4 E3E2E7FE 		bgtu	a4,a5,.L14
 176              		.loc 1 38 13 discriminator 2
 177 00e8 13071700 		addi	a4,a4,1
 178              	.LVL18:
 179 00ec 6FF01FFF 		j	.L15
 180              	.LVL19:
 181              	.L13:
 182              	.LBE22:
 183              	.LBE21:
 184              	.LBE20:
  31:src/main.cpp  ****     {
 185              		.loc 1 31 5 discriminator 2
 186 00f0 93841400 		addi	s1,s1,1
 187              	.LVL20:
 188              	.L17:
  31:src/main.cpp  ****     {
 189              		.loc 1 31 26 discriminator 1
 190 00f4 9307F000 		li	a5,15
 191 00f8 63EC9702 		bgtu	s1,a5,.L11
 192              	.LBB24:
  33:src/main.cpp  ****         printInteger(i);
 193              		.loc 1 33 9
  33:src/main.cpp  ****         printInteger(i);
 194              		.loc 1 33 20 is_stmt 0
 195 00fc 17050000 		lla	a0,.LC2
 195      13050500 
 196 0104 97000000 		call	_Z11printStringPKc@plt
 196      E7800000 
 197              	.LVL21:
  34:src/main.cpp  ****         printString("\n");
 198              		.loc 1 34 9 is_stmt 1
  34:src/main.cpp  ****         printString("\n");
 199              		.loc 1 34 21 is_stmt 0
 200 010c 13850400 		mv	a0,s1
 201 0110 97000000 		call	_Z12printIntegerm@plt
 201      E7800000 
 202              	.LVL22:
  35:src/main.cpp  ****         for (size_t j = 0; j < 10000; j++)
 203              		.loc 1 35 9 is_stmt 1
  35:src/main.cpp  ****         for (size_t j = 0; j < 10000; j++)
 204              		.loc 1 35 20 is_stmt 0
 205 0118 17050000 		lla	a0,.LC1
 205      13050500 
 206 0120 97000000 		call	_Z11printStringPKc@plt
 206      E7800000 
 207              	.LVL23:
  36:src/main.cpp  ****         {
 208              		.loc 1 36 9 is_stmt 1
 209              	.LBB23:
  36:src/main.cpp  ****         {
 210              		.loc 1 36 21 is_stmt 0
 211 0128 93060000 		li	a3,0
 212 012c 6FF01FFA 		j	.L16
 213              	.LVL24:
 214              	.L11:
 215              	.LBE23:
GAS LISTING /tmp/cc0x7AO2.s 			page 6


 216              	.LBE24:
 217              	.LBE19:
  39:src/main.cpp  ****             {
  40:src/main.cpp  ****                 // busy wait
  41:src/main.cpp  ****             }
  42:src/main.cpp  ****         }
  43:src/main.cpp  ****     }
  44:src/main.cpp  **** }
 218              		.loc 1 44 1
 219 0130 83308101 		ld	ra,24(sp)
 220              		.cfi_restore 1
 221 0134 03340101 		ld	s0,16(sp)
 222              		.cfi_restore 8
 223              		.cfi_def_cfa 2, 32
 224 0138 83348100 		ld	s1,8(sp)
 225              		.cfi_restore 9
 226              	.LVL25:
 227 013c 13010102 		addi	sp,sp,32
 228              		.cfi_def_cfa_offset 0
 229 0140 67800000 		jr	ra
 230              		.cfi_endproc
 231              	.LFE29:
 233              		.align	2
 235              	_ZL9fibonaccim:
 236              	.LFB30:
  45:src/main.cpp  **** 
  46:src/main.cpp  **** static size_t fibonacci(size_t n)
  47:src/main.cpp  **** {
 237              		.loc 1 47 1 is_stmt 1
 238              		.cfi_startproc
 239              	.LVL26:
 240 0144 130101FE 		addi	sp,sp,-32
 241              		.cfi_def_cfa_offset 32
 242 0148 233C1100 		sd	ra,24(sp)
 243 014c 23388100 		sd	s0,16(sp)
 244 0150 23349100 		sd	s1,8(sp)
 245 0154 23302101 		sd	s2,0(sp)
 246              		.cfi_offset 1, -8
 247              		.cfi_offset 8, -16
 248              		.cfi_offset 9, -24
 249              		.cfi_offset 18, -32
 250 0158 13040102 		addi	s0,sp,32
 251              		.cfi_def_cfa 8, 0
 252 015c 93040500 		mv	s1,a0
  48:src/main.cpp  ****     if (n == 0 || n == 1) { return n; }
 253              		.loc 1 48 5
 254 0160 93071000 		li	a5,1
 255 0164 63F8A702 		bleu	a0,a5,.L19
  49:src/main.cpp  ****     if (n % 10 == 0) { PCB::yield(); }
 256              		.loc 1 49 5
 257              		.loc 1 49 11 is_stmt 0
 258 0168 9307A000 		li	a5,10
 259 016c B377F502 		remu	a5,a0,a5
 260              		.loc 1 49 5
 261 0170 638E0702 		beqz	a5,.L24
 262              	.LVL27:
 263              	.L21:
GAS LISTING /tmp/cc0x7AO2.s 			page 7


  50:src/main.cpp  ****     return fibonacci(n - 1) + fibonacci(n - 2);
 264              		.loc 1 50 5 is_stmt 1
 265              		.loc 1 50 21 is_stmt 0
 266 0174 1385F4FF 		addi	a0,s1,-1
 267 0178 97000000 		call	_ZL9fibonaccim
 267      E7800000 
 268              	.LVL28:
 269 0180 13090500 		mv	s2,a0
 270              		.loc 1 50 40
 271 0184 1385E4FF 		addi	a0,s1,-2
 272 0188 97000000 		call	_ZL9fibonaccim
 272      E7800000 
 273              	.LVL29:
 274              		.loc 1 50 46
 275 0190 3305A900 		add	a0,s2,a0
 276              	.L19:
  51:src/main.cpp  **** }
 277              		.loc 1 51 1
 278 0194 83308101 		ld	ra,24(sp)
 279              		.cfi_remember_state
 280              		.cfi_restore 1
 281 0198 03340101 		ld	s0,16(sp)
 282              		.cfi_restore 8
 283              		.cfi_def_cfa 2, 32
 284 019c 83348100 		ld	s1,8(sp)
 285              		.cfi_restore 9
 286              	.LVL30:
 287 01a0 03390100 		ld	s2,0(sp)
 288              		.cfi_restore 18
 289 01a4 13010102 		addi	sp,sp,32
 290              		.cfi_def_cfa_offset 0
 291 01a8 67800000 		jr	ra
 292              	.LVL31:
 293              	.L24:
 294              		.cfi_restore_state
  49:src/main.cpp  ****     if (n % 10 == 0) { PCB::yield(); }
 295              		.loc 1 49 24 is_stmt 1 discriminator 1
  49:src/main.cpp  ****     if (n % 10 == 0) { PCB::yield(); }
 296              		.loc 1 49 34 is_stmt 0 discriminator 1
 297 01ac 97000000 		call	_ZN3PCB5yieldEv@plt
 297      E7800000 
 298              	.LVL32:
 299 01b4 6FF01FFC 		j	.L21
 300              		.cfi_endproc
 301              	.LFE30:
 303              		.section	.rodata.str1.8
 304 0016 0000     		.align	3
 305              	.LC3:
 306 0018 433A2069 		.string	"C: i="
 306      3D00
 307 001e 0000     		.align	3
 308              	.LC4:
 309 0020 433A2079 		.string	"C: yield\n"
 309      69656C64 
 309      0A00
 310 002a 00000000 		.align	3
 310      0000
GAS LISTING /tmp/cc0x7AO2.s 			page 8


 311              	.LC5:
 312 0030 433A2074 		.string	"C: t1="
 312      313D00
 313 0037 00       		.align	3
 314              	.LC6:
 315 0038 433A2066 		.string	"C: fibonaci="
 315      69626F6E 
 315      6163693D 
 315      00
 316              		.text
 317              		.align	2
 318              		.globl	_Z11workerBodyCv
 320              	_Z11workerBodyCv:
 321              	.LFB31:
  52:src/main.cpp  **** 
  53:src/main.cpp  **** void workerBodyC()
  54:src/main.cpp  **** {
 322              		.loc 1 54 1 is_stmt 1
 323              		.cfi_startproc
 324 01b8 130101FE 		addi	sp,sp,-32
 325              		.cfi_def_cfa_offset 32
 326 01bc 233C1100 		sd	ra,24(sp)
 327 01c0 23388100 		sd	s0,16(sp)
 328 01c4 23349100 		sd	s1,8(sp)
 329 01c8 23302101 		sd	s2,0(sp)
 330              		.cfi_offset 1, -8
 331              		.cfi_offset 8, -16
 332              		.cfi_offset 9, -24
 333              		.cfi_offset 18, -32
 334 01cc 13040102 		addi	s0,sp,32
 335              		.cfi_def_cfa 8, 0
  55:src/main.cpp  ****     uint8 i = 0;
 336              		.loc 1 55 5
 337              	.LVL33:
 338              		.loc 1 55 11 is_stmt 0
 339 01d0 93040000 		li	s1,0
 340 01d4 6F008003 		j	.L27
 341              	.LVL34:
 342              	.L31:
  56:src/main.cpp  ****     for (; i < 3; i++)
  57:src/main.cpp  ****     {
  58:src/main.cpp  ****         printString("C: i=");
 343              		.loc 1 58 9 is_stmt 1 discriminator 1
 344              		.loc 1 58 20 is_stmt 0 discriminator 1
 345 01d8 17050000 		lla	a0,.LC3
 345      13050500 
 346 01e0 97000000 		call	_Z11printStringPKc@plt
 346      E7800000 
 347              	.LVL35:
  59:src/main.cpp  ****         printInteger(i);
 348              		.loc 1 59 9 is_stmt 1 discriminator 1
 349              		.loc 1 59 21 is_stmt 0 discriminator 1
 350 01e8 13850400 		mv	a0,s1
 351 01ec 97000000 		call	_Z12printIntegerm@plt
 351      E7800000 
 352              	.LVL36:
  60:src/main.cpp  ****         printString("\n");
GAS LISTING /tmp/cc0x7AO2.s 			page 9


 353              		.loc 1 60 9 is_stmt 1 discriminator 1
 354              		.loc 1 60 20 is_stmt 0 discriminator 1
 355 01f4 17050000 		lla	a0,.LC1
 355      13050500 
 356 01fc 97000000 		call	_Z11printStringPKc@plt
 356      E7800000 
 357              	.LVL37:
  56:src/main.cpp  ****     for (; i < 3; i++)
 358              		.loc 1 56 5 is_stmt 1 discriminator 1
 359 0204 9B841400 		addiw	s1,s1,1
 360              	.LVL38:
 361 0208 93F4F40F 		andi	s1,s1,0xff
 362              	.LVL39:
 363              	.L27:
  56:src/main.cpp  ****     for (; i < 3; i++)
 364              		.loc 1 56 5 discriminator 2
  56:src/main.cpp  ****     for (; i < 3; i++)
 365              		.loc 1 56 14 discriminator 2
 366 020c 93072000 		li	a5,2
 367 0210 E3F497FC 		bleu	s1,a5,.L31
  61:src/main.cpp  ****     }
  62:src/main.cpp  **** 
  63:src/main.cpp  ****     printString("C: yield\n");
 368              		.loc 1 63 5
 369              		.loc 1 63 16 is_stmt 0
 370 0214 17050000 		lla	a0,.LC4
 370      13050500 
 371 021c 97000000 		call	_Z11printStringPKc@plt
 371      E7800000 
 372              	.LVL40:
  64:src/main.cpp  ****     __asm__ ("li t1, 7");
 373              		.loc 1 64 5 is_stmt 1
 374              		.loc 1 64 25 is_stmt 0
 375              	#APP
 376              	# 64 "src/main.cpp" 1
  65              	    PCB::yield();
 377              		li t1, 7
 378              	# 0 "" 2
 379              		.loc 1 65 5 is_stmt 1
 380              		.loc 1 65 15 is_stmt 0
 381              	#NO_APP
 382 0228 97000000 		call	_ZN3PCB5yieldEv@plt
 382      E7800000 
 383              	.LVL41:
  66:src/main.cpp  **** 
  67:src/main.cpp  ****     size_t t1 = 0;
 384              		.loc 1 67 5 is_stmt 1
  68:src/main.cpp  ****     __asm__ ("mv %[t1], t1" : [t1] "=r"(t1));
 385              		.loc 1 68 5
 386              		.loc 1 68 45 is_stmt 0
 387              	#APP
 388              	# 68 "src/main.cpp" 1
  69              	
 389              		mv s2, t1
 390              	# 0 "" 2
 391              	.LVL42:
  70:src/main.cpp  ****     printString("C: t1=");
GAS LISTING /tmp/cc0x7AO2.s 			page 10


 392              		.loc 1 70 5 is_stmt 1
 393              		.loc 1 70 16 is_stmt 0
 394              	#NO_APP
 395 0234 17050000 		lla	a0,.LC5
 395      13050500 
 396 023c 97000000 		call	_Z11printStringPKc@plt
 396      E7800000 
 397              	.LVL43:
  71:src/main.cpp  ****     printInteger(t1);
 398              		.loc 1 71 5 is_stmt 1
 399              		.loc 1 71 17 is_stmt 0
 400 0244 13050900 		mv	a0,s2
 401 0248 97000000 		call	_Z12printIntegerm@plt
 401      E7800000 
 402              	.LVL44:
  72:src/main.cpp  ****     printString("\n");
 403              		.loc 1 72 5 is_stmt 1
 404              		.loc 1 72 16 is_stmt 0
 405 0250 17050000 		lla	a0,.LC1
 405      13050500 
 406 0258 97000000 		call	_Z11printStringPKc@plt
 406      E7800000 
 407              	.LVL45:
  73:src/main.cpp  **** 
  74:src/main.cpp  ****     size_t result = fibonacci(12);
 408              		.loc 1 74 5 is_stmt 1
 409              		.loc 1 74 30 is_stmt 0
 410 0260 1305C000 		li	a0,12
 411 0264 97000000 		call	_ZL9fibonaccim
 411      E7800000 
 412              	.LVL46:
 413 026c 13090500 		mv	s2,a0
 414              	.LVL47:
  75:src/main.cpp  ****     printString("C: fibonaci=");
 415              		.loc 1 75 5 is_stmt 1
 416              		.loc 1 75 16 is_stmt 0
 417 0270 17050000 		lla	a0,.LC6
 417      13050500 
 418              	.LVL48:
 419 0278 97000000 		call	_Z11printStringPKc@plt
 419      E7800000 
 420              	.LVL49:
  76:src/main.cpp  ****     printInteger(result);
 421              		.loc 1 76 5 is_stmt 1
 422              		.loc 1 76 17 is_stmt 0
 423 0280 13050900 		mv	a0,s2
 424 0284 97000000 		call	_Z12printIntegerm@plt
 424      E7800000 
 425              	.LVL50:
  77:src/main.cpp  ****     printString("\n");
 426              		.loc 1 77 5 is_stmt 1
 427              		.loc 1 77 16 is_stmt 0
 428 028c 17050000 		lla	a0,.LC1
 428      13050500 
 429 0294 97000000 		call	_Z11printStringPKc@plt
 429      E7800000 
 430              	.LVL51:
GAS LISTING /tmp/cc0x7AO2.s 			page 11


 431 029c 6F008003 		j	.L29
 432              	.L32:
  78:src/main.cpp  **** 
  79:src/main.cpp  ****     for (; i < 6; i++)
  80:src/main.cpp  ****     {
  81:src/main.cpp  ****         printString("C: i=");
 433              		.loc 1 81 9 is_stmt 1 discriminator 1
 434              		.loc 1 81 20 is_stmt 0 discriminator 1
 435 02a0 17050000 		lla	a0,.LC3
 435      13050500 
 436 02a8 97000000 		call	_Z11printStringPKc@plt
 436      E7800000 
 437              	.LVL52:
  82:src/main.cpp  ****         printInteger(i);
 438              		.loc 1 82 9 is_stmt 1 discriminator 1
 439              		.loc 1 82 21 is_stmt 0 discriminator 1
 440 02b0 13850400 		mv	a0,s1
 441 02b4 97000000 		call	_Z12printIntegerm@plt
 441      E7800000 
 442              	.LVL53:
  83:src/main.cpp  ****         printString("\n");
 443              		.loc 1 83 9 is_stmt 1 discriminator 1
 444              		.loc 1 83 20 is_stmt 0 discriminator 1
 445 02bc 17050000 		lla	a0,.LC1
 445      13050500 
 446 02c4 97000000 		call	_Z11printStringPKc@plt
 446      E7800000 
 447              	.LVL54:
  79:src/main.cpp  ****     {
 448              		.loc 1 79 5 is_stmt 1 discriminator 1
 449 02cc 9B841400 		addiw	s1,s1,1
 450              	.LVL55:
 451 02d0 93F4F40F 		andi	s1,s1,0xff
 452              	.LVL56:
 453              	.L29:
  79:src/main.cpp  ****     {
 454              		.loc 1 79 5 discriminator 2
  79:src/main.cpp  ****     {
 455              		.loc 1 79 14 discriminator 2
 456 02d4 93075000 		li	a5,5
 457 02d8 E3F497FC 		bleu	s1,a5,.L32
  84:src/main.cpp  ****     }
  85:src/main.cpp  **** //    TCB::yield();
  86:src/main.cpp  **** }
 458              		.loc 1 86 1 is_stmt 0
 459 02dc 83308101 		ld	ra,24(sp)
 460              		.cfi_restore 1
 461 02e0 03340101 		ld	s0,16(sp)
 462              		.cfi_restore 8
 463              		.cfi_def_cfa 2, 32
 464 02e4 83348100 		ld	s1,8(sp)
 465              		.cfi_restore 9
 466              	.LVL57:
 467 02e8 03390100 		ld	s2,0(sp)
 468              		.cfi_restore 18
 469              	.LVL58:
 470 02ec 13010102 		addi	sp,sp,32
GAS LISTING /tmp/cc0x7AO2.s 			page 12


 471              		.cfi_def_cfa_offset 0
 472 02f0 67800000 		jr	ra
 473              		.cfi_endproc
 474              	.LFE31:
 476              		.section	.rodata.str1.8
 477 0045 000000   		.align	3
 478              	.LC7:
 479 0048 443A2069 		.string	"D: i="
 479      3D00
 480 004e 0000     		.align	3
 481              	.LC8:
 482 0050 443A2079 		.string	"D: yield\n"
 482      69656C64 
 482      0A00
 483 005a 00000000 		.align	3
 483      0000
 484              	.LC9:
 485 0060 443A2066 		.string	"D: fibonaci="
 485      69626F6E 
 485      6163693D 
 485      00
 486              		.text
 487              		.align	2
 488              		.globl	_Z11workerBodyDv
 490              	_Z11workerBodyDv:
 491              	.LFB32:
  87:src/main.cpp  **** 
  88:src/main.cpp  **** void workerBodyD()
  89:src/main.cpp  **** {
 492              		.loc 1 89 1 is_stmt 1
 493              		.cfi_startproc
 494 02f4 130101FE 		addi	sp,sp,-32
 495              		.cfi_def_cfa_offset 32
 496 02f8 233C1100 		sd	ra,24(sp)
 497 02fc 23388100 		sd	s0,16(sp)
 498 0300 23349100 		sd	s1,8(sp)
 499 0304 23302101 		sd	s2,0(sp)
 500              		.cfi_offset 1, -8
 501              		.cfi_offset 8, -16
 502              		.cfi_offset 9, -24
 503              		.cfi_offset 18, -32
 504 0308 13040102 		addi	s0,sp,32
 505              		.cfi_def_cfa 8, 0
  90:src/main.cpp  ****     uint8 i = 10;
 506              		.loc 1 90 5
 507              	.LVL59:
 508              		.loc 1 90 11 is_stmt 0
 509 030c 9304A000 		li	s1,10
 510 0310 6F008003 		j	.L35
 511              	.LVL60:
 512              	.L39:
  91:src/main.cpp  ****     for (; i < 13; i++)
  92:src/main.cpp  ****     {
  93:src/main.cpp  ****         printString("D: i=");
 513              		.loc 1 93 9 is_stmt 1 discriminator 1
 514              		.loc 1 93 20 is_stmt 0 discriminator 1
 515 0314 17050000 		lla	a0,.LC7
GAS LISTING /tmp/cc0x7AO2.s 			page 13


 515      13050500 
 516 031c 97000000 		call	_Z11printStringPKc@plt
 516      E7800000 
 517              	.LVL61:
  94:src/main.cpp  ****         printInteger(i);
 518              		.loc 1 94 9 is_stmt 1 discriminator 1
 519              		.loc 1 94 21 is_stmt 0 discriminator 1
 520 0324 13850400 		mv	a0,s1
 521 0328 97000000 		call	_Z12printIntegerm@plt
 521      E7800000 
 522              	.LVL62:
  95:src/main.cpp  ****         printString("\n");
 523              		.loc 1 95 9 is_stmt 1 discriminator 1
 524              		.loc 1 95 20 is_stmt 0 discriminator 1
 525 0330 17050000 		lla	a0,.LC1
 525      13050500 
 526 0338 97000000 		call	_Z11printStringPKc@plt
 526      E7800000 
 527              	.LVL63:
  91:src/main.cpp  ****     for (; i < 13; i++)
 528              		.loc 1 91 5 is_stmt 1 discriminator 1
 529 0340 9B841400 		addiw	s1,s1,1
 530              	.LVL64:
 531 0344 93F4F40F 		andi	s1,s1,0xff
 532              	.LVL65:
 533              	.L35:
  91:src/main.cpp  ****     for (; i < 13; i++)
 534              		.loc 1 91 5 discriminator 2
  91:src/main.cpp  ****     for (; i < 13; i++)
 535              		.loc 1 91 14 discriminator 2
 536 0348 9307C000 		li	a5,12
 537 034c E3F497FC 		bleu	s1,a5,.L39
  96:src/main.cpp  ****     }
  97:src/main.cpp  **** 
  98:src/main.cpp  ****     printString("D: yield\n");
 538              		.loc 1 98 5
 539              		.loc 1 98 16 is_stmt 0
 540 0350 17050000 		lla	a0,.LC8
 540      13050500 
 541 0358 97000000 		call	_Z11printStringPKc@plt
 541      E7800000 
 542              	.LVL66:
  99:src/main.cpp  ****     __asm__ ("li t1, 5");
 543              		.loc 1 99 5 is_stmt 1
 544              		.loc 1 99 25 is_stmt 0
 545              	#APP
 546              	# 99 "src/main.cpp" 1
 100              	    thread_dispatch();
 547              		li t1, 5
 548              	# 0 "" 2
 549              		.loc 1 100 5 is_stmt 1
 550              		.loc 1 100 20 is_stmt 0
 551              	#NO_APP
 552 0364 97000000 		call	_Z15thread_dispatchv@plt
 552      E7800000 
 553              	.LVL67:
 101:src/main.cpp  **** 
GAS LISTING /tmp/cc0x7AO2.s 			page 14


 102:src/main.cpp  ****     size_t result = fibonacci(16);
 554              		.loc 1 102 5 is_stmt 1
 555              		.loc 1 102 30 is_stmt 0
 556 036c 13050001 		li	a0,16
 557 0370 97000000 		call	_ZL9fibonaccim
 557      E7800000 
 558              	.LVL68:
 559 0378 13090500 		mv	s2,a0
 560              	.LVL69:
 103:src/main.cpp  ****     printString("D: fibonaci=");
 561              		.loc 1 103 5 is_stmt 1
 562              		.loc 1 103 16 is_stmt 0
 563 037c 17050000 		lla	a0,.LC9
 563      13050500 
 564              	.LVL70:
 565 0384 97000000 		call	_Z11printStringPKc@plt
 565      E7800000 
 566              	.LVL71:
 104:src/main.cpp  ****     printInteger(result);
 567              		.loc 1 104 5 is_stmt 1
 568              		.loc 1 104 17 is_stmt 0
 569 038c 13050900 		mv	a0,s2
 570 0390 97000000 		call	_Z12printIntegerm@plt
 570      E7800000 
 571              	.LVL72:
 105:src/main.cpp  ****     printString("\n");
 572              		.loc 1 105 5 is_stmt 1
 573              		.loc 1 105 16 is_stmt 0
 574 0398 17050000 		lla	a0,.LC1
 574      13050500 
 575 03a0 97000000 		call	_Z11printStringPKc@plt
 575      E7800000 
 576              	.LVL73:
 577 03a8 6F008003 		j	.L37
 578              	.L40:
 106:src/main.cpp  **** 
 107:src/main.cpp  ****     for (; i < 16; i++)
 108:src/main.cpp  ****     {
 109:src/main.cpp  ****         printString("D: i=");
 579              		.loc 1 109 9 is_stmt 1 discriminator 1
 580              		.loc 1 109 20 is_stmt 0 discriminator 1
 581 03ac 17050000 		lla	a0,.LC7
 581      13050500 
 582 03b4 97000000 		call	_Z11printStringPKc@plt
 582      E7800000 
 583              	.LVL74:
 110:src/main.cpp  ****         printInteger(i);
 584              		.loc 1 110 9 is_stmt 1 discriminator 1
 585              		.loc 1 110 21 is_stmt 0 discriminator 1
 586 03bc 13850400 		mv	a0,s1
 587 03c0 97000000 		call	_Z12printIntegerm@plt
 587      E7800000 
 588              	.LVL75:
 111:src/main.cpp  ****         printString("\n");
 589              		.loc 1 111 9 is_stmt 1 discriminator 1
 590              		.loc 1 111 20 is_stmt 0 discriminator 1
 591 03c8 17050000 		lla	a0,.LC1
GAS LISTING /tmp/cc0x7AO2.s 			page 15


 591      13050500 
 592 03d0 97000000 		call	_Z11printStringPKc@plt
 592      E7800000 
 593              	.LVL76:
 107:src/main.cpp  ****     {
 594              		.loc 1 107 5 is_stmt 1 discriminator 1
 595 03d8 9B841400 		addiw	s1,s1,1
 596              	.LVL77:
 597 03dc 93F4F40F 		andi	s1,s1,0xff
 598              	.LVL78:
 599              	.L37:
 107:src/main.cpp  ****     {
 600              		.loc 1 107 5 discriminator 2
 107:src/main.cpp  ****     {
 601              		.loc 1 107 14 discriminator 2
 602 03e0 9307F000 		li	a5,15
 603 03e4 E3F497FC 		bleu	s1,a5,.L40
 112:src/main.cpp  ****     }
 113:src/main.cpp  **** //    TCB::yield();
 114:src/main.cpp  **** }
 604              		.loc 1 114 1 is_stmt 0
 605 03e8 83308101 		ld	ra,24(sp)
 606              		.cfi_restore 1
 607 03ec 03340101 		ld	s0,16(sp)
 608              		.cfi_restore 8
 609              		.cfi_def_cfa 2, 32
 610 03f0 83348100 		ld	s1,8(sp)
 611              		.cfi_restore 9
 612              	.LVL79:
 613 03f4 03390100 		ld	s2,0(sp)
 614              		.cfi_restore 18
 615              	.LVL80:
 616 03f8 13010102 		addi	sp,sp,32
 617              		.cfi_def_cfa_offset 0
 618 03fc 67800000 		jr	ra
 619              		.cfi_endproc
 620              	.LFE32:
 622              		.align	2
 623              		.globl	main
 625              	main:
 626              	.LFB33:
 115:src/main.cpp  **** 
 116:src/main.cpp  **** extern "C" void interrupt();
 117:src/main.cpp  **** int main() {
 627              		.loc 1 117 12 is_stmt 1
 628              		.cfi_startproc
 629 0400 130101FC 		addi	sp,sp,-64
 630              		.cfi_def_cfa_offset 64
 631 0404 233C1102 		sd	ra,56(sp)
 632 0408 23388102 		sd	s0,48(sp)
 633 040c 23349102 		sd	s1,40(sp)
 634 0410 23302103 		sd	s2,32(sp)
 635              		.cfi_offset 1, -8
 636              		.cfi_offset 8, -16
 637              		.cfi_offset 9, -24
 638              		.cfi_offset 18, -32
 639 0414 13040104 		addi	s0,sp,64
GAS LISTING /tmp/cc0x7AO2.s 			page 16


 640              		.cfi_def_cfa 8, 0
 118:src/main.cpp  ****     asm volatile("csrw stvec, %0" : : "r" (&interrupt));
 641              		.loc 1 118 5
 642              		.loc 1 118 56 is_stmt 0
 643 0418 97070000 		la	a5,interrupt
 643      83B70700 
 644              	#APP
 645              	# 118 "src/main.cpp" 1
 119              	    PCB* main = PCB::createProccess(nullptr, nullptr); // main
 646              		csrw stvec, a5
 647              	# 0 "" 2
 648              		.loc 1 119 5 is_stmt 1
 649              		.loc 1 119 36 is_stmt 0
 650              	#NO_APP
 651 0424 93050000 		li	a1,0
 652 0428 13050000 		li	a0,0
 653 042c 97000000 		call	_ZN3PCB14createProccessEPFvvEPv@plt
 653      E7800000 
 654              	.LVL81:
 120:src/main.cpp  ****     PCB::running = main;
 655              		.loc 1 120 5 is_stmt 1
 656              		.loc 1 120 18 is_stmt 0
 657 0434 97070000 		la	a5,_ZN3PCB7runningE
 657      83B70700 
 658 043c 23B0A700 		sd	a0,0(a5)
 121:src/main.cpp  ****     Kernel::ms_sstatus(Kernel::SSTATUS_SIE); // dozvoljavaju se prekidi
 659              		.loc 1 121 5 is_stmt 1
 660              	.LVL82:
 661              	.LBB25:
 662              	.LBB26:
 663              		.file 2 "src/../h/kernel.h"
   1:src/../h/kernel.h **** #ifndef KERNEL_H
   2:src/../h/kernel.h **** #define KERNEL_H
   3:src/../h/kernel.h **** 
   4:src/../h/kernel.h **** #include "hw.h"
   5:src/../h/kernel.h **** 
   6:src/../h/kernel.h **** class Kernel {
   7:src/../h/kernel.h **** public:
   8:src/../h/kernel.h **** 
   9:src/../h/kernel.h ****     // postavlja code u registar a0
  10:src/../h/kernel.h ****     static size_t setCode(size_t code) {
  11:src/../h/kernel.h ****         return code;
  12:src/../h/kernel.h ****     }
  13:src/../h/kernel.h **** 
  14:src/../h/kernel.h ****     // kodovi po kojima se prepoznaju sistemski pozivi
  15:src/../h/kernel.h ****     enum sysCallCodes {
  16:src/../h/kernel.h ****         mem_alloc = 0x01,
  17:src/../h/kernel.h ****         mem_free = 0x02,
  18:src/../h/kernel.h ****         thread_create = 0x11,
  19:src/../h/kernel.h ****         thread_exit = 0x12,
  20:src/../h/kernel.h ****         thread_dispatch = 0x13,
  21:src/../h/kernel.h ****         thread_start = 0x14,
  22:src/../h/kernel.h ****         sem_open = 0x21,
  23:src/../h/kernel.h ****         sem_close = 0x22,
  24:src/../h/kernel.h ****         sem_wait = 0x23,
  25:src/../h/kernel.h ****         sem_signal = 0x24,
  26:src/../h/kernel.h ****         tim_sleep = 0x31,
GAS LISTING /tmp/cc0x7AO2.s 			page 17


  27:src/../h/kernel.h ****         getc = 0x41,
  28:src/../h/kernel.h ****         putc = 0x42
  29:src/../h/kernel.h ****     };
  30:src/../h/kernel.h **** 
  31:src/../h/kernel.h ****     // pop sstatus.spp and sstatus.spie bits (has to be a non inline function)
  32:src/../h/kernel.h ****     static void popSppSpie();
  33:src/../h/kernel.h **** 
  34:src/../h/kernel.h ****     // cita registar scause (uzrok nastanka prekida)
  35:src/../h/kernel.h ****     static size_t r_scause() {
  36:src/../h/kernel.h ****         size_t volatile scause;
  37:src/../h/kernel.h ****         __asm__ volatile ("csrr %[scause], scause" : [scause] "=r"(scause));
  38:src/../h/kernel.h ****         return scause;
  39:src/../h/kernel.h ****     }
  40:src/../h/kernel.h **** 
  41:src/../h/kernel.h ****     // upisuje u registar scause (uzrok nastanka prekida)
  42:src/../h/kernel.h ****     static void w_scause(size_t scause) {
  43:src/../h/kernel.h ****         __asm__ volatile ("csrw scause, %[scause]" : : [scause] "r"(scause));
  44:src/../h/kernel.h ****     }
  45:src/../h/kernel.h **** 
  46:src/../h/kernel.h ****     // cita registar sepc
  47:src/../h/kernel.h ****     static size_t r_sepc() {
  48:src/../h/kernel.h ****         size_t volatile sepc;
  49:src/../h/kernel.h ****         __asm__ volatile ("csrr %[sepc], sepc" : [sepc] "=r"(sepc));
  50:src/../h/kernel.h ****         return sepc;
  51:src/../h/kernel.h ****     }
  52:src/../h/kernel.h **** 
  53:src/../h/kernel.h ****     // upisuje u registar sepc
  54:src/../h/kernel.h ****     static void w_sepc(size_t sepc) {
  55:src/../h/kernel.h ****         __asm__ volatile ("csrw sepc, %[sepc]" : : [sepc] "r"(sepc));
  56:src/../h/kernel.h ****     }
  57:src/../h/kernel.h **** 
  58:src/../h/kernel.h ****     // read register stvec
  59:src/../h/kernel.h ****     static size_t r_stvec() {
  60:src/../h/kernel.h ****         size_t volatile stvec;
  61:src/../h/kernel.h ****         __asm__ volatile ("csrr %[stvec], stvec" : [stvec] "=r"(stvec));
  62:src/../h/kernel.h ****         return stvec;
  63:src/../h/kernel.h ****     }
  64:src/../h/kernel.h **** 
  65:src/../h/kernel.h ****     // write register stvec
  66:src/../h/kernel.h ****     static void w_stvec(size_t stvec) {
  67:src/../h/kernel.h ****         __asm__ volatile ("csrw stvec, %[stvec]" : : [stvec] "r"(stvec));
  68:src/../h/kernel.h ****     }
  69:src/../h/kernel.h **** 
  70:src/../h/kernel.h ****     // read register stval
  71:src/../h/kernel.h ****     static size_t r_stval() {
  72:src/../h/kernel.h ****         size_t volatile stval;
  73:src/../h/kernel.h ****         __asm__ volatile ("csrr %[stval], stval" : [stval] "=r"(stval));
  74:src/../h/kernel.h ****         return stval;
  75:src/../h/kernel.h ****     }
  76:src/../h/kernel.h **** 
  77:src/../h/kernel.h ****     // write register stval
  78:src/../h/kernel.h ****     static void w_stval(size_t stval) {
  79:src/../h/kernel.h ****         __asm__ volatile ("csrw stval, %[stval]" : : [stval] "r"(stval));
  80:src/../h/kernel.h ****     }
  81:src/../h/kernel.h **** 
  82:src/../h/kernel.h ****     enum BitMaskSip
  83:src/../h/kernel.h ****     {
GAS LISTING /tmp/cc0x7AO2.s 			page 18


  84:src/../h/kernel.h ****         SIP_SSIE = (1 << 1), // da li su dozvoljeni softverski prekidi
  85:src/../h/kernel.h ****         SIP_SEIE = (1 << 9), // da li su dozvoljeni spoljasnji hardverski prekidi
  86:src/../h/kernel.h ****     };
  87:src/../h/kernel.h **** 
  88:src/../h/kernel.h ****     // postavljanje odredjenih bitova (BitMaskSip) u registar sip
  89:src/../h/kernel.h ****     static void ms_sip(size_t mask) {
  90:src/../h/kernel.h ****         __asm__ volatile ("csrs sip, %[mask]" : : [mask] "r"(mask));
  91:src/../h/kernel.h ****     }
  92:src/../h/kernel.h **** 
  93:src/../h/kernel.h ****     // brisanje odredjenih bitova (BitMaskSip) iz registra sip
  94:src/../h/kernel.h ****     static void mc_sip(size_t mask) {
  95:src/../h/kernel.h ****         __asm__ volatile ("csrc sip, %[mask]" : : [mask] "r"(mask));
  96:src/../h/kernel.h ****     }
  97:src/../h/kernel.h **** 
  98:src/../h/kernel.h ****     // citanje iz registra sip
  99:src/../h/kernel.h ****     static size_t r_sip() {
 100:src/../h/kernel.h ****         size_t volatile sip;
 101:src/../h/kernel.h ****         __asm__ volatile ("csrr %[sip], sip" : [sip] "=r"(sip));
 102:src/../h/kernel.h ****         return sip;
 103:src/../h/kernel.h ****     }
 104:src/../h/kernel.h **** 
 105:src/../h/kernel.h ****     // upis u registar sip
 106:src/../h/kernel.h ****     static void w_sip(size_t sip) {
 107:src/../h/kernel.h ****         __asm__ volatile ("csrw sip, %[sip]" : : [sip] "r"(sip));
 108:src/../h/kernel.h ****     }
 109:src/../h/kernel.h **** 
 110:src/../h/kernel.h ****     enum BitMaskSstatus
 111:src/../h/kernel.h ****     {
 112:src/../h/kernel.h ****         SSTATUS_SIE = (1 << 1),
 113:src/../h/kernel.h ****         SSTATUS_SPIE = (1 << 5),
 114:src/../h/kernel.h ****         SSTATUS_SPP = (1 << 8),
 115:src/../h/kernel.h ****     };
 116:src/../h/kernel.h **** 
 117:src/../h/kernel.h ****     // mask set register sstatus
 118:src/../h/kernel.h ****     static void ms_sstatus(size_t mask) {
 119:src/../h/kernel.h ****         __asm__ volatile ("csrs sstatus, %[mask]" : : [mask] "r"(mask));
 664              		.loc 2 119 9
 665              		.loc 2 119 72 is_stmt 0
 666 0440 93072000 		li	a5,2
 667              	#APP
 668              	# 119 "src/../h/kernel.h" 1
 120              	    }
 669              		csrs sstatus, a5
 670              	# 0 "" 2
 671              	.LVL83:
 672              	#NO_APP
 673              	.LBE26:
 674              	.LBE25:
 122:src/main.cpp  **** 
 123:src/main.cpp  ****     PCB* procesi[4];
 675              		.loc 1 123 5 is_stmt 1
 124:src/main.cpp  ****     using pf = void(*)(void*);
 676              		.loc 1 124 5
 125:src/main.cpp  ****     thread_create(&procesi[0], (pf)workerBodyA, nullptr);
 677              		.loc 1 125 5
 678              		.loc 1 125 18 is_stmt 0
 679 0448 13060000 		li	a2,0
GAS LISTING /tmp/cc0x7AO2.s 			page 19


 680 044c 97050000 		lla	a1,_Z11workerBodyAv
 680      93850500 
 681 0454 130504FC 		addi	a0,s0,-64
 682              	.LVL84:
 683 0458 97000000 		call	_Z13thread_createPP3PCBPFvPvES2_@plt
 683      E7800000 
 684              	.LVL85:
 126:src/main.cpp  ****     thread_create(&procesi[1], (pf)workerBodyB, nullptr);
 685              		.loc 1 126 5 is_stmt 1
 686              		.loc 1 126 18 is_stmt 0
 687 0460 13060000 		li	a2,0
 688 0464 97050000 		lla	a1,_Z11workerBodyBv
 688      93850500 
 689 046c 130584FC 		addi	a0,s0,-56
 690 0470 97000000 		call	_Z13thread_createPP3PCBPFvPvES2_@plt
 690      E7800000 
 691              	.LVL86:
 127:src/main.cpp  ****     thread_create(&procesi[2], (pf)workerBodyC, nullptr);
 692              		.loc 1 127 5 is_stmt 1
 693              		.loc 1 127 18 is_stmt 0
 694 0478 13060000 		li	a2,0
 695 047c 97050000 		lla	a1,_Z11workerBodyCv
 695      93850500 
 696 0484 130504FD 		addi	a0,s0,-48
 697 0488 97000000 		call	_Z13thread_createPP3PCBPFvPvES2_@plt
 697      E7800000 
 698              	.LVL87:
 128:src/main.cpp  ****     thread_create(&procesi[3], (pf)workerBodyD, nullptr);
 699              		.loc 1 128 5 is_stmt 1
 700              		.loc 1 128 18 is_stmt 0
 701 0490 13060000 		li	a2,0
 702 0494 97050000 		lla	a1,_Z11workerBodyDv
 702      93850500 
 703 049c 130584FD 		addi	a0,s0,-40
 704 04a0 97000000 		call	_Z13thread_createPP3PCBPFvPvES2_@plt
 704      E7800000 
 705              	.LVL88:
 706 04a8 6F00C000 		j	.L44
 707              	.L42:
 129:src/main.cpp  **** 
 130:src/main.cpp  **** 
 131:src/main.cpp  ****     while(!procesi[0]->isFinished() || !procesi[1]->isFinished() || !procesi[2]->isFinished() || !p
 132:src/main.cpp  ****         thread_dispatch();
 708              		.loc 1 132 9 is_stmt 1 discriminator 7
 709              		.loc 1 132 24 is_stmt 0 discriminator 7
 710 04ac 97000000 		call	_Z15thread_dispatchv@plt
 710      E7800000 
 711              	.LVL89:
 712              	.L44:
 131:src/main.cpp  ****         thread_dispatch();
 713              		.loc 1 131 5 is_stmt 1
 131:src/main.cpp  ****         thread_dispatch();
 714              		.loc 1 131 95
 131:src/main.cpp  ****         thread_dispatch();
 715              		.loc 1 131 21 is_stmt 0
 716 04b4 833704FC 		ld	a5,-64(s0)
 717              	.LVL90:
GAS LISTING /tmp/cc0x7AO2.s 			page 20


 718              	.LBB27:
 719              	.LBB28:
 720              		.file 3 "src/../h/PCB.h"
   1:src/../h/PCB.h **** #ifndef PCB_H
   2:src/../h/PCB.h **** #define PCB_H
   3:src/../h/PCB.h **** 
   4:src/../h/PCB.h **** #include "hw.h"
   5:src/../h/PCB.h **** 
   6:src/../h/PCB.h **** extern "C" void interruptHandler();
   7:src/../h/PCB.h **** 
   8:src/../h/PCB.h **** class PCB {
   9:src/../h/PCB.h **** friend class Scheduler;
  10:src/../h/PCB.h **** friend void interruptHandler();
  11:src/../h/PCB.h **** friend class Kernel;
  12:src/../h/PCB.h **** public:
  13:src/../h/PCB.h ****     // vraca true ako se proces zavrsio, false ako nije
  14:src/../h/PCB.h ****     bool isFinished() const {
  15:src/../h/PCB.h ****         return finished;
 721              		.loc 3 15 9 is_stmt 1
 722              		.loc 3 15 16 is_stmt 0
 723 04b8 83C78702 		lbu	a5,40(a5)
 724              	.LVL91:
 725              	.LBE28:
 726              	.LBE27:
 131:src/main.cpp  ****         thread_dispatch();
 727              		.loc 1 131 95
 728 04bc E38807FE 		beqz	a5,.L42
 131:src/main.cpp  ****         thread_dispatch();
 729              		.loc 1 131 50 discriminator 2
 730 04c0 833784FC 		ld	a5,-56(s0)
 731              	.LVL92:
 732              	.LBB29:
 733              	.LBB30:
 734              		.loc 3 15 9 is_stmt 1 discriminator 2
 735              		.loc 3 15 16 is_stmt 0 discriminator 2
 736 04c4 83C78702 		lbu	a5,40(a5)
 737              	.LVL93:
 738              	.LBE30:
 739              	.LBE29:
 131:src/main.cpp  ****         thread_dispatch();
 740              		.loc 1 131 37 discriminator 2
 741 04c8 E38207FE 		beqz	a5,.L42
 131:src/main.cpp  ****         thread_dispatch();
 742              		.loc 1 131 79 discriminator 4
 743 04cc 833704FD 		ld	a5,-48(s0)
 744              	.LVL94:
 745              	.LBB31:
 746              	.LBB32:
 747              		.loc 3 15 9 is_stmt 1 discriminator 4
 748              		.loc 3 15 16 is_stmt 0 discriminator 4
 749 04d0 83C78702 		lbu	a5,40(a5)
 750              	.LVL95:
 751              	.LBE32:
 752              	.LBE31:
 131:src/main.cpp  ****         thread_dispatch();
 753              		.loc 1 131 66 discriminator 4
 754 04d4 E38C07FC 		beqz	a5,.L42
GAS LISTING /tmp/cc0x7AO2.s 			page 21


 131:src/main.cpp  ****         thread_dispatch();
 755              		.loc 1 131 108 discriminator 6
 756 04d8 833784FD 		ld	a5,-40(s0)
 757              	.LVL96:
 758              	.LBB33:
 759              	.LBB34:
 760              		.loc 3 15 9 is_stmt 1 discriminator 6
 761              		.loc 3 15 16 is_stmt 0 discriminator 6
 762 04dc 83C78702 		lbu	a5,40(a5)
 763              	.LVL97:
 764              	.LBE34:
 765              	.LBE33:
 131:src/main.cpp  ****         thread_dispatch();
 766              		.loc 1 131 95 discriminator 6
 767 04e0 E38607FC 		beqz	a5,.L42
 768 04e4 930404FC 		addi	s1,s0,-64
 769 04e8 6F008000 		j	.L43
 770              	.LVL98:
 771              	.L46:
 772              	.LBB35:
 133:src/main.cpp  ****     }
 134:src/main.cpp  **** 
 135:src/main.cpp  ****     for(auto& proces : procesi) {
 773              		.loc 1 135 5 is_stmt 1 discriminator 3
 774 04ec 93848400 		addi	s1,s1,8
 775              	.LVL99:
 776              	.L43:
 777              		.loc 1 135 24 discriminator 1
 778 04f0 930704FE 		addi	a5,s0,-32
 779 04f4 6384F402 		beq	s1,a5,.L45
 780              	.LVL100:
 136:src/main.cpp  ****         delete proces;
 781              		.loc 1 136 9 discriminator 2
 782              		.loc 1 136 16 is_stmt 0 discriminator 2
 783 04f8 03B90400 		ld	s2,0(s1)
 784              		.loc 1 136 22 discriminator 2
 785 04fc E30809FE 		beqz	s2,.L46
 786              		.loc 1 136 16 discriminator 1
 787 0500 13050900 		mv	a0,s2
 788 0504 97000000 		call	_ZN3PCBD1Ev@plt
 788      E7800000 
 789              	.LVL101:
 790 050c 13050900 		mv	a0,s2
 791 0510 97000000 		call	_ZN3PCBdlEPv@plt
 791      E7800000 
 792              	.LVL102:
 793 0518 6FF05FFD 		j	.L46
 794              	.LVL103:
 795              	.L45:
 796              	.LBE35:
 137:src/main.cpp  ****     }
 138:src/main.cpp  **** 
 139:src/main.cpp  ****     return 0;
 797              		.loc 1 139 5 is_stmt 1
 140:src/main.cpp  **** }
 798              		.loc 1 140 1 is_stmt 0
 799 051c 13050000 		li	a0,0
GAS LISTING /tmp/cc0x7AO2.s 			page 22


 800 0520 83308103 		ld	ra,56(sp)
 801              		.cfi_restore 1
 802 0524 03340103 		ld	s0,48(sp)
 803              		.cfi_restore 8
 804              		.cfi_def_cfa 2, 64
 805 0528 83348102 		ld	s1,40(sp)
 806              		.cfi_restore 9
 807              	.LVL104:
 808 052c 03390102 		ld	s2,32(sp)
 809              		.cfi_restore 18
 810 0530 13010104 		addi	sp,sp,64
 811              		.cfi_def_cfa_offset 0
 812 0534 67800000 		jr	ra
 813              		.cfi_endproc
 814              	.LFE33:
 816              	.Letext0:
 817              		.file 4 "src/../h/hw.h"
 818              		.file 5 "src/../h/syscall_c.h"
 819              		.file 6 "src/../h/print.h"
GAS LISTING /tmp/cc0x7AO2.s 			page 23


DEFINED SYMBOLS
                            *ABS*:0000000000000000 main.cpp
     /tmp/cc0x7AO2.s:17     .text:0000000000000000 _Z11workerBodyAv
     /tmp/cc0x7AO2.s:21     .text:0000000000000000 .L0 
     /tmp/cc0x7AO2.s:22     .text:0000000000000000 .L0 
     /tmp/cc0x7AO2.s:23     .text:0000000000000004 .L0 
     /tmp/cc0x7AO2.s:27     .text:0000000000000010 .L0 
     /tmp/cc0x7AO2.s:28     .text:0000000000000010 .L0 
     /tmp/cc0x7AO2.s:29     .text:0000000000000010 .L0 
     /tmp/cc0x7AO2.s:31     .text:0000000000000014 .L0 
     /tmp/cc0x7AO2.s:35     .text:0000000000000014 .L0 
     /tmp/cc0x7AO2.s:36     .text:0000000000000014 .L0 
     /tmp/cc0x7AO2.s:42     .text:000000000000001c .L0 
     /tmp/cc0x7AO2.s:43     .text:000000000000001c .L0 
     /tmp/cc0x7AO2.s:50     .text:0000000000000028 .L0 
     /tmp/cc0x7AO2.s:54     .text:000000000000002c .L0 
     /tmp/cc0x7AO2.s:59     .text:0000000000000038 .L0 
     /tmp/cc0x7AO2.s:63     .text:000000000000003c .L0 
     /tmp/cc0x7AO2.s:67     .text:0000000000000048 .L0 
     /tmp/cc0x7AO2.s:76     .text:0000000000000050 .L0 
     /tmp/cc0x7AO2.s:80     .text:0000000000000054 .L0 
     /tmp/cc0x7AO2.s:84     .text:000000000000005c .L0 
     /tmp/cc0x7AO2.s:88     .text:0000000000000064 .L0 
     /tmp/cc0x7AO2.s:89     .text:0000000000000064 .L0 
     /tmp/cc0x7AO2.s:93     .text:0000000000000074 .L0 
     /tmp/cc0x7AO2.s:94     .text:0000000000000074 .L0 
     /tmp/cc0x7AO2.s:98     .text:0000000000000080 .L0 
     /tmp/cc0x7AO2.s:99     .text:0000000000000080 .L0 
     /tmp/cc0x7AO2.s:104    .text:0000000000000090 .L0 
     /tmp/cc0x7AO2.s:105    .text:0000000000000090 .L0 
     /tmp/cc0x7AO2.s:113    .text:0000000000000098 .L0 
     /tmp/cc0x7AO2.s:114    .text:000000000000009c .L0 
     /tmp/cc0x7AO2.s:116    .text:00000000000000a0 .L0 
     /tmp/cc0x7AO2.s:117    .text:00000000000000a0 .L0 
     /tmp/cc0x7AO2.s:119    .text:00000000000000a4 .L0 
     /tmp/cc0x7AO2.s:122    .text:00000000000000a8 .L0 
     /tmp/cc0x7AO2.s:124    .text:00000000000000ac .L0 
     /tmp/cc0x7AO2.s:135    .text:00000000000000ac _Z11workerBodyBv
     /tmp/cc0x7AO2.s:138    .text:00000000000000ac .L0 
     /tmp/cc0x7AO2.s:139    .text:00000000000000ac .L0 
     /tmp/cc0x7AO2.s:140    .text:00000000000000b0 .L0 
     /tmp/cc0x7AO2.s:144    .text:00000000000000bc .L0 
     /tmp/cc0x7AO2.s:145    .text:00000000000000bc .L0 
     /tmp/cc0x7AO2.s:146    .text:00000000000000bc .L0 
     /tmp/cc0x7AO2.s:148    .text:00000000000000c0 .L0 
     /tmp/cc0x7AO2.s:152    .text:00000000000000c0 .L0 
     /tmp/cc0x7AO2.s:153    .text:00000000000000c0 .L0 
     /tmp/cc0x7AO2.s:160    .text:00000000000000c8 .L0 
     /tmp/cc0x7AO2.s:164    .text:00000000000000cc .L0 
     /tmp/cc0x7AO2.s:169    .text:00000000000000d8 .L0 
     /tmp/cc0x7AO2.s:173    .text:00000000000000dc .L0 
     /tmp/cc0x7AO2.s:177    .text:00000000000000e8 .L0 
     /tmp/cc0x7AO2.s:186    .text:00000000000000f0 .L0 
     /tmp/cc0x7AO2.s:190    .text:00000000000000f4 .L0 
     /tmp/cc0x7AO2.s:194    .text:00000000000000fc .L0 
     /tmp/cc0x7AO2.s:195    .text:00000000000000fc .L0 
     /tmp/cc0x7AO2.s:199    .text:000000000000010c .L0 
GAS LISTING /tmp/cc0x7AO2.s 			page 24


     /tmp/cc0x7AO2.s:200    .text:000000000000010c .L0 
     /tmp/cc0x7AO2.s:204    .text:0000000000000118 .L0 
     /tmp/cc0x7AO2.s:205    .text:0000000000000118 .L0 
     /tmp/cc0x7AO2.s:210    .text:0000000000000128 .L0 
     /tmp/cc0x7AO2.s:211    .text:0000000000000128 .L0 
     /tmp/cc0x7AO2.s:219    .text:0000000000000130 .L0 
     /tmp/cc0x7AO2.s:220    .text:0000000000000134 .L0 
     /tmp/cc0x7AO2.s:222    .text:0000000000000138 .L0 
     /tmp/cc0x7AO2.s:223    .text:0000000000000138 .L0 
     /tmp/cc0x7AO2.s:225    .text:000000000000013c .L0 
     /tmp/cc0x7AO2.s:228    .text:0000000000000140 .L0 
     /tmp/cc0x7AO2.s:230    .text:0000000000000144 .L0 
     /tmp/cc0x7AO2.s:235    .text:0000000000000144 _ZL9fibonaccim
     /tmp/cc0x7AO2.s:238    .text:0000000000000144 .L0 
     /tmp/cc0x7AO2.s:240    .text:0000000000000144 .L0 
     /tmp/cc0x7AO2.s:241    .text:0000000000000148 .L0 
     /tmp/cc0x7AO2.s:246    .text:0000000000000158 .L0 
     /tmp/cc0x7AO2.s:247    .text:0000000000000158 .L0 
     /tmp/cc0x7AO2.s:248    .text:0000000000000158 .L0 
     /tmp/cc0x7AO2.s:249    .text:0000000000000158 .L0 
     /tmp/cc0x7AO2.s:251    .text:000000000000015c .L0 
     /tmp/cc0x7AO2.s:254    .text:0000000000000160 .L0 
     /tmp/cc0x7AO2.s:257    .text:0000000000000168 .L0 
     /tmp/cc0x7AO2.s:258    .text:0000000000000168 .L0 
     /tmp/cc0x7AO2.s:261    .text:0000000000000170 .L0 
     /tmp/cc0x7AO2.s:265    .text:0000000000000174 .L0 
     /tmp/cc0x7AO2.s:266    .text:0000000000000174 .L0 
     /tmp/cc0x7AO2.s:271    .text:0000000000000184 .L0 
     /tmp/cc0x7AO2.s:275    .text:0000000000000190 .L0 
     /tmp/cc0x7AO2.s:278    .text:0000000000000194 .L0 
     /tmp/cc0x7AO2.s:279    .text:0000000000000198 .L0 
     /tmp/cc0x7AO2.s:280    .text:0000000000000198 .L0 
     /tmp/cc0x7AO2.s:282    .text:000000000000019c .L0 
     /tmp/cc0x7AO2.s:283    .text:000000000000019c .L0 
     /tmp/cc0x7AO2.s:285    .text:00000000000001a0 .L0 
     /tmp/cc0x7AO2.s:288    .text:00000000000001a4 .L0 
     /tmp/cc0x7AO2.s:290    .text:00000000000001a8 .L0 
     /tmp/cc0x7AO2.s:294    .text:00000000000001ac .L0 
     /tmp/cc0x7AO2.s:296    .text:00000000000001ac .L0 
     /tmp/cc0x7AO2.s:297    .text:00000000000001ac .L0 
     /tmp/cc0x7AO2.s:300    .text:00000000000001b8 .L0 
     /tmp/cc0x7AO2.s:320    .text:00000000000001b8 _Z11workerBodyCv
     /tmp/cc0x7AO2.s:323    .text:00000000000001b8 .L0 
     /tmp/cc0x7AO2.s:324    .text:00000000000001b8 .L0 
     /tmp/cc0x7AO2.s:325    .text:00000000000001bc .L0 
     /tmp/cc0x7AO2.s:330    .text:00000000000001cc .L0 
     /tmp/cc0x7AO2.s:331    .text:00000000000001cc .L0 
     /tmp/cc0x7AO2.s:332    .text:00000000000001cc .L0 
     /tmp/cc0x7AO2.s:333    .text:00000000000001cc .L0 
     /tmp/cc0x7AO2.s:335    .text:00000000000001d0 .L0 
     /tmp/cc0x7AO2.s:338    .text:00000000000001d0 .L0 
     /tmp/cc0x7AO2.s:339    .text:00000000000001d0 .L0 
     /tmp/cc0x7AO2.s:344    .text:00000000000001d8 .L0 
     /tmp/cc0x7AO2.s:345    .text:00000000000001d8 .L0 
     /tmp/cc0x7AO2.s:349    .text:00000000000001e8 .L0 
     /tmp/cc0x7AO2.s:350    .text:00000000000001e8 .L0 
     /tmp/cc0x7AO2.s:354    .text:00000000000001f4 .L0 
GAS LISTING /tmp/cc0x7AO2.s 			page 25


     /tmp/cc0x7AO2.s:355    .text:00000000000001f4 .L0 
     /tmp/cc0x7AO2.s:359    .text:0000000000000204 .L0 
     /tmp/cc0x7AO2.s:365    .text:000000000000020c .L0 
     /tmp/cc0x7AO2.s:366    .text:000000000000020c .L0 
     /tmp/cc0x7AO2.s:369    .text:0000000000000214 .L0 
     /tmp/cc0x7AO2.s:370    .text:0000000000000214 .L0 
     /tmp/cc0x7AO2.s:374    .text:0000000000000224 .L0 
        src/main.cpp:64     .text:0000000000000224 .L0 
     /tmp/cc0x7AO2.s:380    .text:0000000000000228 .L0 
     /tmp/cc0x7AO2.s:382    .text:0000000000000228 .L0 
     /tmp/cc0x7AO2.s:385    .text:0000000000000230 .L0 
     /tmp/cc0x7AO2.s:386    .text:0000000000000230 .L0 
        src/main.cpp:68     .text:0000000000000230 .L0 
     /tmp/cc0x7AO2.s:393    .text:0000000000000234 .L0 
     /tmp/cc0x7AO2.s:395    .text:0000000000000234 .L0 
     /tmp/cc0x7AO2.s:399    .text:0000000000000244 .L0 
     /tmp/cc0x7AO2.s:400    .text:0000000000000244 .L0 
     /tmp/cc0x7AO2.s:404    .text:0000000000000250 .L0 
     /tmp/cc0x7AO2.s:405    .text:0000000000000250 .L0 
     /tmp/cc0x7AO2.s:409    .text:0000000000000260 .L0 
     /tmp/cc0x7AO2.s:410    .text:0000000000000260 .L0 
     /tmp/cc0x7AO2.s:416    .text:0000000000000270 .L0 
     /tmp/cc0x7AO2.s:417    .text:0000000000000270 .L0 
     /tmp/cc0x7AO2.s:422    .text:0000000000000280 .L0 
     /tmp/cc0x7AO2.s:423    .text:0000000000000280 .L0 
     /tmp/cc0x7AO2.s:427    .text:000000000000028c .L0 
     /tmp/cc0x7AO2.s:428    .text:000000000000028c .L0 
     /tmp/cc0x7AO2.s:434    .text:00000000000002a0 .L0 
     /tmp/cc0x7AO2.s:435    .text:00000000000002a0 .L0 
     /tmp/cc0x7AO2.s:439    .text:00000000000002b0 .L0 
     /tmp/cc0x7AO2.s:440    .text:00000000000002b0 .L0 
     /tmp/cc0x7AO2.s:444    .text:00000000000002bc .L0 
     /tmp/cc0x7AO2.s:445    .text:00000000000002bc .L0 
     /tmp/cc0x7AO2.s:449    .text:00000000000002cc .L0 
     /tmp/cc0x7AO2.s:455    .text:00000000000002d4 .L0 
     /tmp/cc0x7AO2.s:456    .text:00000000000002d4 .L0 
     /tmp/cc0x7AO2.s:459    .text:00000000000002dc .L0 
     /tmp/cc0x7AO2.s:460    .text:00000000000002e0 .L0 
     /tmp/cc0x7AO2.s:462    .text:00000000000002e4 .L0 
     /tmp/cc0x7AO2.s:463    .text:00000000000002e4 .L0 
     /tmp/cc0x7AO2.s:465    .text:00000000000002e8 .L0 
     /tmp/cc0x7AO2.s:468    .text:00000000000002ec .L0 
     /tmp/cc0x7AO2.s:471    .text:00000000000002f0 .L0 
     /tmp/cc0x7AO2.s:473    .text:00000000000002f4 .L0 
     /tmp/cc0x7AO2.s:490    .text:00000000000002f4 _Z11workerBodyDv
     /tmp/cc0x7AO2.s:493    .text:00000000000002f4 .L0 
     /tmp/cc0x7AO2.s:494    .text:00000000000002f4 .L0 
     /tmp/cc0x7AO2.s:495    .text:00000000000002f8 .L0 
     /tmp/cc0x7AO2.s:500    .text:0000000000000308 .L0 
     /tmp/cc0x7AO2.s:501    .text:0000000000000308 .L0 
     /tmp/cc0x7AO2.s:502    .text:0000000000000308 .L0 
     /tmp/cc0x7AO2.s:503    .text:0000000000000308 .L0 
     /tmp/cc0x7AO2.s:505    .text:000000000000030c .L0 
     /tmp/cc0x7AO2.s:508    .text:000000000000030c .L0 
     /tmp/cc0x7AO2.s:509    .text:000000000000030c .L0 
     /tmp/cc0x7AO2.s:514    .text:0000000000000314 .L0 
     /tmp/cc0x7AO2.s:515    .text:0000000000000314 .L0 
GAS LISTING /tmp/cc0x7AO2.s 			page 26


     /tmp/cc0x7AO2.s:519    .text:0000000000000324 .L0 
     /tmp/cc0x7AO2.s:520    .text:0000000000000324 .L0 
     /tmp/cc0x7AO2.s:524    .text:0000000000000330 .L0 
     /tmp/cc0x7AO2.s:525    .text:0000000000000330 .L0 
     /tmp/cc0x7AO2.s:529    .text:0000000000000340 .L0 
     /tmp/cc0x7AO2.s:535    .text:0000000000000348 .L0 
     /tmp/cc0x7AO2.s:536    .text:0000000000000348 .L0 
     /tmp/cc0x7AO2.s:539    .text:0000000000000350 .L0 
     /tmp/cc0x7AO2.s:540    .text:0000000000000350 .L0 
     /tmp/cc0x7AO2.s:544    .text:0000000000000360 .L0 
        src/main.cpp:99     .text:0000000000000360 .L0 
     /tmp/cc0x7AO2.s:550    .text:0000000000000364 .L0 
     /tmp/cc0x7AO2.s:552    .text:0000000000000364 .L0 
     /tmp/cc0x7AO2.s:555    .text:000000000000036c .L0 
     /tmp/cc0x7AO2.s:556    .text:000000000000036c .L0 
     /tmp/cc0x7AO2.s:562    .text:000000000000037c .L0 
     /tmp/cc0x7AO2.s:563    .text:000000000000037c .L0 
     /tmp/cc0x7AO2.s:568    .text:000000000000038c .L0 
     /tmp/cc0x7AO2.s:569    .text:000000000000038c .L0 
     /tmp/cc0x7AO2.s:573    .text:0000000000000398 .L0 
     /tmp/cc0x7AO2.s:574    .text:0000000000000398 .L0 
     /tmp/cc0x7AO2.s:580    .text:00000000000003ac .L0 
     /tmp/cc0x7AO2.s:581    .text:00000000000003ac .L0 
     /tmp/cc0x7AO2.s:585    .text:00000000000003bc .L0 
     /tmp/cc0x7AO2.s:586    .text:00000000000003bc .L0 
     /tmp/cc0x7AO2.s:590    .text:00000000000003c8 .L0 
     /tmp/cc0x7AO2.s:591    .text:00000000000003c8 .L0 
     /tmp/cc0x7AO2.s:595    .text:00000000000003d8 .L0 
     /tmp/cc0x7AO2.s:601    .text:00000000000003e0 .L0 
     /tmp/cc0x7AO2.s:602    .text:00000000000003e0 .L0 
     /tmp/cc0x7AO2.s:605    .text:00000000000003e8 .L0 
     /tmp/cc0x7AO2.s:606    .text:00000000000003ec .L0 
     /tmp/cc0x7AO2.s:608    .text:00000000000003f0 .L0 
     /tmp/cc0x7AO2.s:609    .text:00000000000003f0 .L0 
     /tmp/cc0x7AO2.s:611    .text:00000000000003f4 .L0 
     /tmp/cc0x7AO2.s:614    .text:00000000000003f8 .L0 
     /tmp/cc0x7AO2.s:617    .text:00000000000003fc .L0 
     /tmp/cc0x7AO2.s:619    .text:0000000000000400 .L0 
     /tmp/cc0x7AO2.s:625    .text:0000000000000400 main
     /tmp/cc0x7AO2.s:628    .text:0000000000000400 .L0 
     /tmp/cc0x7AO2.s:629    .text:0000000000000400 .L0 
     /tmp/cc0x7AO2.s:630    .text:0000000000000404 .L0 
     /tmp/cc0x7AO2.s:635    .text:0000000000000414 .L0 
     /tmp/cc0x7AO2.s:636    .text:0000000000000414 .L0 
     /tmp/cc0x7AO2.s:637    .text:0000000000000414 .L0 
     /tmp/cc0x7AO2.s:638    .text:0000000000000414 .L0 
     /tmp/cc0x7AO2.s:640    .text:0000000000000418 .L0 
     /tmp/cc0x7AO2.s:642    .text:0000000000000418 .L0 
     /tmp/cc0x7AO2.s:643    .text:0000000000000418 .L0 
     /tmp/cc0x7AO2.s:649    .text:0000000000000424 .L0 
     /tmp/cc0x7AO2.s:651    .text:0000000000000424 .L0 
     /tmp/cc0x7AO2.s:656    .text:0000000000000434 .L0 
     /tmp/cc0x7AO2.s:657    .text:0000000000000434 .L0 
     /tmp/cc0x7AO2.s:664    .text:0000000000000440 .L0 
     /tmp/cc0x7AO2.s:665    .text:0000000000000440 .L0 
     /tmp/cc0x7AO2.s:666    .text:0000000000000440 .L0 
     /tmp/cc0x7AO2.s:676    .text:0000000000000448 .L0 
GAS LISTING /tmp/cc0x7AO2.s 			page 27


     /tmp/cc0x7AO2.s:677    .text:0000000000000448 .L0 
     /tmp/cc0x7AO2.s:678    .text:0000000000000448 .L0 
     /tmp/cc0x7AO2.s:679    .text:0000000000000448 .L0 
     /tmp/cc0x7AO2.s:686    .text:0000000000000460 .L0 
     /tmp/cc0x7AO2.s:687    .text:0000000000000460 .L0 
     /tmp/cc0x7AO2.s:693    .text:0000000000000478 .L0 
     /tmp/cc0x7AO2.s:694    .text:0000000000000478 .L0 
     /tmp/cc0x7AO2.s:700    .text:0000000000000490 .L0 
     /tmp/cc0x7AO2.s:701    .text:0000000000000490 .L0 
     /tmp/cc0x7AO2.s:709    .text:00000000000004ac .L0 
     /tmp/cc0x7AO2.s:710    .text:00000000000004ac .L0 
     /tmp/cc0x7AO2.s:714    .text:00000000000004b4 .L0 
     /tmp/cc0x7AO2.s:715    .text:00000000000004b4 .L0 
     /tmp/cc0x7AO2.s:716    .text:00000000000004b4 .L0 
     /tmp/cc0x7AO2.s:722    .text:00000000000004b8 .L0 
     /tmp/cc0x7AO2.s:723    .text:00000000000004b8 .L0 
     /tmp/cc0x7AO2.s:728    .text:00000000000004bc .L0 
     /tmp/cc0x7AO2.s:730    .text:00000000000004c0 .L0 
     /tmp/cc0x7AO2.s:735    .text:00000000000004c4 .L0 
     /tmp/cc0x7AO2.s:736    .text:00000000000004c4 .L0 
     /tmp/cc0x7AO2.s:741    .text:00000000000004c8 .L0 
     /tmp/cc0x7AO2.s:743    .text:00000000000004cc .L0 
     /tmp/cc0x7AO2.s:748    .text:00000000000004d0 .L0 
     /tmp/cc0x7AO2.s:749    .text:00000000000004d0 .L0 
     /tmp/cc0x7AO2.s:754    .text:00000000000004d4 .L0 
     /tmp/cc0x7AO2.s:756    .text:00000000000004d8 .L0 
     /tmp/cc0x7AO2.s:761    .text:00000000000004dc .L0 
     /tmp/cc0x7AO2.s:762    .text:00000000000004dc .L0 
     /tmp/cc0x7AO2.s:767    .text:00000000000004e0 .L0 
     /tmp/cc0x7AO2.s:774    .text:00000000000004ec .L0 
     /tmp/cc0x7AO2.s:778    .text:00000000000004f0 .L0 
     /tmp/cc0x7AO2.s:782    .text:00000000000004f8 .L0 
     /tmp/cc0x7AO2.s:783    .text:00000000000004f8 .L0 
     /tmp/cc0x7AO2.s:785    .text:00000000000004fc .L0 
     /tmp/cc0x7AO2.s:787    .text:0000000000000500 .L0 
     /tmp/cc0x7AO2.s:798    .text:000000000000051c .L0 
     /tmp/cc0x7AO2.s:799    .text:000000000000051c .L0 
     /tmp/cc0x7AO2.s:801    .text:0000000000000524 .L0 
     /tmp/cc0x7AO2.s:803    .text:0000000000000528 .L0 
     /tmp/cc0x7AO2.s:804    .text:0000000000000528 .L0 
     /tmp/cc0x7AO2.s:806    .text:000000000000052c .L0 
     /tmp/cc0x7AO2.s:809    .text:0000000000000530 .L0 
     /tmp/cc0x7AO2.s:811    .text:0000000000000534 .L0 
     /tmp/cc0x7AO2.s:813    .text:0000000000000538 .L0 
     /tmp/cc0x7AO2.s:820    .text:0000000000000538 .L0 
     /tmp/cc0x7AO2.s:8      .rodata.str1.8:0000000000000000 .LC0
     /tmp/cc0x7AO2.s:89     .text:0000000000000064 .L0 
     /tmp/cc0x7AO2.s:11     .rodata.str1.8:0000000000000008 .LC1
     /tmp/cc0x7AO2.s:99     .text:0000000000000080 .L0 
     /tmp/cc0x7AO2.s:129    .rodata.str1.8:0000000000000010 .LC2
     /tmp/cc0x7AO2.s:195    .text:00000000000000fc .L0 
     /tmp/cc0x7AO2.s:205    .text:0000000000000118 .L0 
     /tmp/cc0x7AO2.s:305    .rodata.str1.8:0000000000000018 .LC3
     /tmp/cc0x7AO2.s:345    .text:00000000000001d8 .L0 
     /tmp/cc0x7AO2.s:355    .text:00000000000001f4 .L0 
     /tmp/cc0x7AO2.s:308    .rodata.str1.8:0000000000000020 .LC4
     /tmp/cc0x7AO2.s:370    .text:0000000000000214 .L0 
GAS LISTING /tmp/cc0x7AO2.s 			page 28


     /tmp/cc0x7AO2.s:311    .rodata.str1.8:0000000000000030 .LC5
     /tmp/cc0x7AO2.s:395    .text:0000000000000234 .L0 
     /tmp/cc0x7AO2.s:405    .text:0000000000000250 .L0 
     /tmp/cc0x7AO2.s:314    .rodata.str1.8:0000000000000038 .LC6
     /tmp/cc0x7AO2.s:417    .text:0000000000000270 .L0 
     /tmp/cc0x7AO2.s:428    .text:000000000000028c .L0 
     /tmp/cc0x7AO2.s:435    .text:00000000000002a0 .L0 
     /tmp/cc0x7AO2.s:445    .text:00000000000002bc .L0 
     /tmp/cc0x7AO2.s:478    .rodata.str1.8:0000000000000048 .LC7
     /tmp/cc0x7AO2.s:515    .text:0000000000000314 .L0 
     /tmp/cc0x7AO2.s:525    .text:0000000000000330 .L0 
     /tmp/cc0x7AO2.s:481    .rodata.str1.8:0000000000000050 .LC8
     /tmp/cc0x7AO2.s:540    .text:0000000000000350 .L0 
     /tmp/cc0x7AO2.s:484    .rodata.str1.8:0000000000000060 .LC9
     /tmp/cc0x7AO2.s:563    .text:000000000000037c .L0 
     /tmp/cc0x7AO2.s:574    .text:0000000000000398 .L0 
     /tmp/cc0x7AO2.s:581    .text:00000000000003ac .L0 
     /tmp/cc0x7AO2.s:591    .text:00000000000003c8 .L0 
     /tmp/cc0x7AO2.s:643    .text:0000000000000418 .L0 
     /tmp/cc0x7AO2.s:657    .text:0000000000000434 .L0 
     /tmp/cc0x7AO2.s:680    .text:000000000000044c .L0 
     /tmp/cc0x7AO2.s:688    .text:0000000000000464 .L0 
     /tmp/cc0x7AO2.s:695    .text:000000000000047c .L0 
     /tmp/cc0x7AO2.s:702    .text:0000000000000494 .L0 
     /tmp/cc0x7AO2.s:78     .text:0000000000000054 .L8
     /tmp/cc0x7AO2.s:86     .text:0000000000000064 .L3
     /tmp/cc0x7AO2.s:71     .text:0000000000000050 .L4
     /tmp/cc0x7AO2.s:47     .text:0000000000000028 .L5
     /tmp/cc0x7AO2.s:60     .text:000000000000003c .L6
     /tmp/cc0x7AO2.s:108    .text:0000000000000098 .L1
     /tmp/cc0x7AO2.s:39     .text:000000000000001c .L10
     /tmp/cc0x7AO2.s:52     .text:000000000000002c .L7
     /tmp/cc0x7AO2.s:188    .text:00000000000000f4 .L17
     /tmp/cc0x7AO2.s:181    .text:00000000000000f0 .L13
     /tmp/cc0x7AO2.s:156    .text:00000000000000c8 .L14
     /tmp/cc0x7AO2.s:170    .text:00000000000000dc .L15
     /tmp/cc0x7AO2.s:214    .text:0000000000000130 .L11
     /tmp/cc0x7AO2.s:162    .text:00000000000000cc .L16
     /tmp/cc0x7AO2.s:276    .text:0000000000000194 .L19
     /tmp/cc0x7AO2.s:293    .text:00000000000001ac .L24
     /tmp/cc0x7AO2.s:263    .text:0000000000000174 .L21
     /tmp/cc0x7AO2.s:363    .text:000000000000020c .L27
     /tmp/cc0x7AO2.s:342    .text:00000000000001d8 .L31
     /tmp/cc0x7AO2.s:453    .text:00000000000002d4 .L29
     /tmp/cc0x7AO2.s:432    .text:00000000000002a0 .L32
     /tmp/cc0x7AO2.s:533    .text:0000000000000348 .L35
     /tmp/cc0x7AO2.s:512    .text:0000000000000314 .L39
     /tmp/cc0x7AO2.s:599    .text:00000000000003e0 .L37
     /tmp/cc0x7AO2.s:578    .text:00000000000003ac .L40
     /tmp/cc0x7AO2.s:712    .text:00000000000004b4 .L44
     /tmp/cc0x7AO2.s:707    .text:00000000000004ac .L42
     /tmp/cc0x7AO2.s:776    .text:00000000000004f0 .L43
     /tmp/cc0x7AO2.s:795    .text:000000000000051c .L45
     /tmp/cc0x7AO2.s:771    .text:00000000000004ec .L46
     /tmp/cc0x7AO2.s:2263   .debug_abbrev:0000000000000000 .Ldebug_abbrev0
     /tmp/cc0x7AO2.s:3675   .debug_str:0000000000000666 .LASF114
     /tmp/cc0x7AO2.s:3557   .debug_str:00000000000002f9 .LASF115
GAS LISTING /tmp/cc0x7AO2.s 			page 29


     /tmp/cc0x7AO2.s:3657   .debug_str:00000000000005c9 .LASF116
     /tmp/cc0x7AO2.s:5      .text:0000000000000000 .Ltext0
     /tmp/cc0x7AO2.s:816    .text:0000000000000538 .Letext0
     /tmp/cc0x7AO2.s:3445   .debug_line:0000000000000000 .Ldebug_line0
     /tmp/cc0x7AO2.s:3587   .debug_str:00000000000003e3 .LASF0
     /tmp/cc0x7AO2.s:3603   .debug_str:000000000000044f .LASF1
     /tmp/cc0x7AO2.s:3569   .debug_str:0000000000000369 .LASF2
     /tmp/cc0x7AO2.s:3511   .debug_str:00000000000001b8 .LASF3
     /tmp/cc0x7AO2.s:3473   .debug_str:00000000000000a4 .LASF4
     /tmp/cc0x7AO2.s:3639   .debug_str:0000000000000568 .LASF5
     /tmp/cc0x7AO2.s:3607   .debug_str:0000000000000473 .LASF6
     /tmp/cc0x7AO2.s:3585   .debug_str:00000000000003d0 .LASF7
     /tmp/cc0x7AO2.s:3667   .debug_str:0000000000000625 .LASF8
     /tmp/cc0x7AO2.s:3533   .debug_str:0000000000000241 .LASF9
     /tmp/cc0x7AO2.s:3617   .debug_str:00000000000004b9 .LASF10
     /tmp/cc0x7AO2.s:3659   .debug_str:00000000000005e7 .LASF11
     /tmp/cc0x7AO2.s:3477   .debug_str:00000000000000b7 .LASF12
     /tmp/cc0x7AO2.s:3455   .debug_str:0000000000000028 .LASF13
     /tmp/cc0x7AO2.s:3485   .debug_str:00000000000000eb .LASF14
     /tmp/cc0x7AO2.s:3635   .debug_str:000000000000054c .LASF15
     /tmp/cc0x7AO2.s:3497   .debug_str:0000000000000143 .LASF16
     /tmp/cc0x7AO2.s:3521   .debug_str:00000000000001f9 .LASF17
     /tmp/cc0x7AO2.s:3609   .debug_str:0000000000000486 .LASF89
     /tmp/cc0x7AO2.s:3611   .debug_str:0000000000000491 .LASF95
     /tmp/cc0x7AO2.s:3571   .debug_str:0000000000000377 .LASF18
     /tmp/cc0x7AO2.s:3459   .debug_str:0000000000000041 .LASF20
     /tmp/cc0x7AO2.s:3527   .debug_str:000000000000021b .LASF19
     /tmp/cc0x7AO2.s:3687   .debug_str:000000000000074b .LASF21
     /tmp/cc0x7AO2.s:3615   .debug_str:00000000000004ad .LASF117
     /tmp/cc0x7AO2.s:3637   .debug_str:0000000000000562 .LASF50
     /tmp/cc0x7AO2.s:3671   .debug_str:000000000000063f .LASF52
     /tmp/cc0x7AO2.s:3515   .debug_str:00000000000001c7 .LASF118
     /tmp/cc0x7AO2.s:3631   .debug_str:000000000000053c .LASF22
     /tmp/cc0x7AO2.s:3579   .debug_str:00000000000003a4 .LASF23
     /tmp/cc0x7AO2.s:3679   .debug_str:0000000000000726 .LASF24
     /tmp/cc0x7AO2.s:3545   .debug_str:000000000000029c .LASF25
     /tmp/cc0x7AO2.s:3645   .debug_str:0000000000000588 .LASF26
     /tmp/cc0x7AO2.s:3649   .debug_str:000000000000059f .LASF59
     /tmp/cc0x7AO2.s:3481   .debug_str:00000000000000d6 .LASF54
     /tmp/cc0x7AO2.s:3505   .debug_str:0000000000000186 .LASF56
     /tmp/cc0x7AO2.s:3461   .debug_str:0000000000000058 .LASF119
     /tmp/cc0x7AO2.s:3691   .debug_str:000000000000077e .LASF27
     /tmp/cc0x7AO2.s:3591   .debug_str:00000000000003f9 .LASF28
     /tmp/cc0x7AO2.s:3663   .debug_str:0000000000000608 .LASF29
     /tmp/cc0x7AO2.s:3489   .debug_str:0000000000000107 .LASF30
     /tmp/cc0x7AO2.s:3613   .debug_str:00000000000004a8 .LASF31
     /tmp/cc0x7AO2.s:3549   .debug_str:00000000000002bc .LASF32
     /tmp/cc0x7AO2.s:3507   .debug_str:000000000000019c .LASF33
     /tmp/cc0x7AO2.s:3597   .debug_str:0000000000000429 .LASF34
     /tmp/cc0x7AO2.s:3543   .debug_str:000000000000028b .LASF120
     /tmp/cc0x7AO2.s:3589   .debug_str:00000000000003f0 .LASF40
     /tmp/cc0x7AO2.s:3537   .debug_str:0000000000000264 .LASF42
     /tmp/cc0x7AO2.s:3471   .debug_str:0000000000000095 .LASF35
     /tmp/cc0x7AO2.s:3677   .debug_str:0000000000000708 .LASF37
     /tmp/cc0x7AO2.s:3479   .debug_str:00000000000000c7 .LASF36
     /tmp/cc0x7AO2.s:3563   .debug_str:000000000000031d .LASF38
     /tmp/cc0x7AO2.s:3575   .debug_str:000000000000038d .LASF39
GAS LISTING /tmp/cc0x7AO2.s 			page 30


     /tmp/cc0x7AO2.s:3491   .debug_str:0000000000000111 .LASF41
     /tmp/cc0x7AO2.s:3625   .debug_str:00000000000004f4 .LASF43
     /tmp/cc0x7AO2.s:3681   .debug_str:0000000000000733 .LASF44
     /tmp/cc0x7AO2.s:3499   .debug_str:0000000000000159 .LASF121
     /tmp/cc0x7AO2.s:3493   .debug_str:0000000000000121 .LASF45
     /tmp/cc0x7AO2.s:3561   .debug_str:0000000000000310 .LASF46
     /tmp/cc0x7AO2.s:3475   .debug_str:00000000000000ab .LASF47
     /tmp/cc0x7AO2.s:3449   .debug_str:0000000000000008 .LASF48
     /tmp/cc0x7AO2.s:3517   .debug_str:00000000000001cf .LASF49
     /tmp/cc0x7AO2.s:3633   .debug_str:0000000000000541 .LASF51
     /tmp/cc0x7AO2.s:3621   .debug_str:00000000000004d4 .LASF53
     /tmp/cc0x7AO2.s:3457   .debug_str:0000000000000038 .LASF55
     /tmp/cc0x7AO2.s:3503   .debug_str:0000000000000170 .LASF57
     /tmp/cc0x7AO2.s:3513   .debug_str:00000000000001be .LASF58
     /tmp/cc0x7AO2.s:3495   .debug_str:000000000000012d .LASF60
     /tmp/cc0x7AO2.s:3643   .debug_str:0000000000000581 .LASF61
     /tmp/cc0x7AO2.s:3583   .debug_str:00000000000003bc .LASF62
     /tmp/cc0x7AO2.s:3647   .debug_str:0000000000000598 .LASF63
     /tmp/cc0x7AO2.s:3547   .debug_str:00000000000002a8 .LASF64
     /tmp/cc0x7AO2.s:3525   .debug_str:0000000000000213 .LASF65
     /tmp/cc0x7AO2.s:3519   .debug_str:00000000000001e4 .LASF66
     /tmp/cc0x7AO2.s:3447   .debug_str:0000000000000000 .LASF67
     /tmp/cc0x7AO2.s:3555   .debug_str:00000000000002e4 .LASF68
     /tmp/cc0x7AO2.s:3541   .debug_str:0000000000000283 .LASF69
     /tmp/cc0x7AO2.s:3565   .debug_str:000000000000033b .LASF70
     /tmp/cc0x7AO2.s:3695   .debug_str:0000000000000793 .LASF71
     /tmp/cc0x7AO2.s:3535   .debug_str:000000000000024f .LASF72
     /tmp/cc0x7AO2.s:3623   .debug_str:00000000000004ed .LASF73
     /tmp/cc0x7AO2.s:3665   .debug_str:0000000000000611 .LASF74
     /tmp/cc0x7AO2.s:3465   .debug_str:0000000000000071 .LASF75
     /tmp/cc0x7AO2.s:3629   .debug_str:0000000000000528 .LASF76
     /tmp/cc0x7AO2.s:3529   .debug_str:000000000000022a .LASF77
     /tmp/cc0x7AO2.s:3593   .debug_str:00000000000003ff .LASF78
     /tmp/cc0x7AO2.s:3463   .debug_str:000000000000006b .LASF79
     /tmp/cc0x7AO2.s:3551   .debug_str:00000000000002c5 .LASF80
     /tmp/cc0x7AO2.s:3693   .debug_str:0000000000000788 .LASF81
     /tmp/cc0x7AO2.s:3567   .debug_str:0000000000000350 .LASF82
     /tmp/cc0x7AO2.s:3601   .debug_str:0000000000000444 .LASF83
     /tmp/cc0x7AO2.s:3627   .debug_str:000000000000050f .LASF84
     /tmp/cc0x7AO2.s:3483   .debug_str:00000000000000e1 .LASF85
     /tmp/cc0x7AO2.s:3673   .debug_str:000000000000064f .LASF86
     /tmp/cc0x7AO2.s:3573   .debug_str:0000000000000383 .LASF87
     /tmp/cc0x7AO2.s:3595   .debug_str:0000000000000412 .LASF88
     /tmp/cc0x7AO2.s:626    .text:0000000000000400 .LFB33
     /tmp/cc0x7AO2.s:814    .text:0000000000000538 .LFE33
     /tmp/cc0x7AO2.s:3195   .debug_loc:0000000000000000 .LLST12
     /tmp/cc0x7AO2.s:3501   .debug_str:0000000000000168 .LASF90
     /tmp/cc0x7AO2.s:772    .text:00000000000004ec .LBB35
     /tmp/cc0x7AO2.s:796    .text:000000000000051c .LBE35
     /tmp/cc0x7AO2.s:3653   .debug_str:00000000000005bd .LASF91
     /tmp/cc0x7AO2.s:3202   .debug_loc:0000000000000023 .LLST18
     /tmp/cc0x7AO2.s:3683   .debug_str:000000000000073a .LASF92
     /tmp/cc0x7AO2.s:3619   .debug_str:00000000000004c8 .LASF122
     /tmp/cc0x7AO2.s:3213   .debug_loc:0000000000000059 .LLST19
     /tmp/cc0x7AO2.s:3559   .debug_str:0000000000000306 .LASF93
     /tmp/cc0x7AO2.s:789    .text:000000000000050c .LVL101
     /tmp/cc0x7AO2.s:792    .text:0000000000000518 .LVL102
GAS LISTING /tmp/cc0x7AO2.s 			page 31


     /tmp/cc0x7AO2.s:661    .text:0000000000000440 .LBB25
     /tmp/cc0x7AO2.s:674    .text:0000000000000448 .LBE25
     /tmp/cc0x7AO2.s:3220   .debug_loc:000000000000007c .LLST13
     /tmp/cc0x7AO2.s:718    .text:00000000000004b8 .LBB27
     /tmp/cc0x7AO2.s:726    .text:00000000000004bc .LBE27
     /tmp/cc0x7AO2.s:3228   .debug_loc:00000000000000a0 .LLST14
     /tmp/cc0x7AO2.s:732    .text:00000000000004c4 .LBB29
     /tmp/cc0x7AO2.s:739    .text:00000000000004c8 .LBE29
     /tmp/cc0x7AO2.s:3235   .debug_loc:00000000000000c3 .LLST15
     /tmp/cc0x7AO2.s:745    .text:00000000000004d0 .LBB31
     /tmp/cc0x7AO2.s:752    .text:00000000000004d4 .LBE31
     /tmp/cc0x7AO2.s:3242   .debug_loc:00000000000000e6 .LLST16
     /tmp/cc0x7AO2.s:758    .text:00000000000004dc .LBB33
     /tmp/cc0x7AO2.s:765    .text:00000000000004e0 .LBE33
     /tmp/cc0x7AO2.s:3249   .debug_loc:0000000000000109 .LLST17
     /tmp/cc0x7AO2.s:654    .text:0000000000000434 .LVL81
     /tmp/cc0x7AO2.s:684    .text:0000000000000460 .LVL85
     /tmp/cc0x7AO2.s:691    .text:0000000000000478 .LVL86
     /tmp/cc0x7AO2.s:698    .text:0000000000000490 .LVL87
     /tmp/cc0x7AO2.s:705    .text:00000000000004a8 .LVL88
     /tmp/cc0x7AO2.s:711    .text:00000000000004b4 .LVL89
     /tmp/cc0x7AO2.s:3469   .debug_str:0000000000000089 .LASF94
     /tmp/cc0x7AO2.s:3599   .debug_str:0000000000000433 .LASF96
     /tmp/cc0x7AO2.s:491    .text:00000000000002f4 .LFB32
     /tmp/cc0x7AO2.s:620    .text:0000000000000400 .LFE32
     /tmp/cc0x7AO2.s:3256   .debug_loc:000000000000012c .LLST10
     /tmp/cc0x7AO2.s:3641   .debug_str:000000000000057a .LASF97
     /tmp/cc0x7AO2.s:3276   .debug_loc:0000000000000189 .LLST11
     /tmp/cc0x7AO2.s:517    .text:0000000000000324 .LVL61
     /tmp/cc0x7AO2.s:522    .text:0000000000000330 .LVL62
     /tmp/cc0x7AO2.s:527    .text:0000000000000340 .LVL63
     /tmp/cc0x7AO2.s:542    .text:0000000000000360 .LVL66
     /tmp/cc0x7AO2.s:553    .text:000000000000036c .LVL67
     /tmp/cc0x7AO2.s:558    .text:0000000000000378 .LVL68
     /tmp/cc0x7AO2.s:566    .text:000000000000038c .LVL71
     /tmp/cc0x7AO2.s:571    .text:0000000000000398 .LVL72
     /tmp/cc0x7AO2.s:576    .text:00000000000003a8 .LVL73
     /tmp/cc0x7AO2.s:583    .text:00000000000003bc .LVL74
     /tmp/cc0x7AO2.s:588    .text:00000000000003c8 .LVL75
     /tmp/cc0x7AO2.s:593    .text:00000000000003d8 .LVL76
     /tmp/cc0x7AO2.s:3453   .debug_str:000000000000001c .LASF98
     /tmp/cc0x7AO2.s:3531   .debug_str:0000000000000230 .LASF99
     /tmp/cc0x7AO2.s:321    .text:00000000000001b8 .LFB31
     /tmp/cc0x7AO2.s:474    .text:00000000000002f4 .LFE31
     /tmp/cc0x7AO2.s:3287   .debug_loc:00000000000001bf .LLST7
     /tmp/cc0x7AO2.s:3307   .debug_loc:000000000000021c .LLST8
     /tmp/cc0x7AO2.s:3315   .debug_loc:0000000000000240 .LLST9
     /tmp/cc0x7AO2.s:347    .text:00000000000001e8 .LVL35
     /tmp/cc0x7AO2.s:352    .text:00000000000001f4 .LVL36
     /tmp/cc0x7AO2.s:357    .text:0000000000000204 .LVL37
     /tmp/cc0x7AO2.s:372    .text:0000000000000224 .LVL40
     /tmp/cc0x7AO2.s:383    .text:0000000000000230 .LVL41
     /tmp/cc0x7AO2.s:397    .text:0000000000000244 .LVL43
     /tmp/cc0x7AO2.s:402    .text:0000000000000250 .LVL44
     /tmp/cc0x7AO2.s:407    .text:0000000000000260 .LVL45
     /tmp/cc0x7AO2.s:412    .text:000000000000026c .LVL46
     /tmp/cc0x7AO2.s:420    .text:0000000000000280 .LVL49
GAS LISTING /tmp/cc0x7AO2.s 			page 32


     /tmp/cc0x7AO2.s:425    .text:000000000000028c .LVL50
     /tmp/cc0x7AO2.s:430    .text:000000000000029c .LVL51
     /tmp/cc0x7AO2.s:437    .text:00000000000002b0 .LVL52
     /tmp/cc0x7AO2.s:442    .text:00000000000002bc .LVL53
     /tmp/cc0x7AO2.s:447    .text:00000000000002cc .LVL54
     /tmp/cc0x7AO2.s:3669   .debug_str:0000000000000635 .LASF123
     /tmp/cc0x7AO2.s:236    .text:0000000000000144 .LFB30
     /tmp/cc0x7AO2.s:301    .text:00000000000001b8 .LFE30
     /tmp/cc0x7AO2.s:3326   .debug_loc:0000000000000276 .LLST6
     /tmp/cc0x7AO2.s:268    .text:0000000000000180 .LVL28
     /tmp/cc0x7AO2.s:273    .text:0000000000000190 .LVL29
     /tmp/cc0x7AO2.s:298    .text:00000000000001b4 .LVL32
     /tmp/cc0x7AO2.s:3451   .debug_str:0000000000000010 .LASF100
     /tmp/cc0x7AO2.s:3467   .debug_str:0000000000000078 .LASF101
     /tmp/cc0x7AO2.s:136    .text:00000000000000ac .LFB29
     /tmp/cc0x7AO2.s:231    .text:0000000000000144 .LFE29
     /tmp/cc0x7AO2.s:151    .text:00000000000000c0 .LBB19
     /tmp/cc0x7AO2.s:217    .text:0000000000000130 .LBE19
     /tmp/cc0x7AO2.s:3348   .debug_loc:00000000000002d5 .LLST3
     /tmp/cc0x7AO2.s:3431   .debug_ranges:0000000000000000 .Ldebug_ranges0
     /tmp/cc0x7AO2.s:3360   .debug_loc:000000000000030c .LLST4
     /tmp/cc0x7AO2.s:167    .text:00000000000000d8 .LBB22
     /tmp/cc0x7AO2.s:182    .text:00000000000000f0 .LBE22
     /tmp/cc0x7AO2.s:3372   .debug_loc:0000000000000343 .LLST5
     /tmp/cc0x7AO2.s:197    .text:000000000000010c .LVL21
     /tmp/cc0x7AO2.s:202    .text:0000000000000118 .LVL22
     /tmp/cc0x7AO2.s:207    .text:0000000000000128 .LVL23
     /tmp/cc0x7AO2.s:3581   .debug_str:00000000000003b0 .LASF102
     /tmp/cc0x7AO2.s:3651   .debug_str:00000000000005ac .LASF103
     /tmp/cc0x7AO2.s:18     .text:0000000000000000 .LFB28
     /tmp/cc0x7AO2.s:125    .text:00000000000000ac .LFE28
     /tmp/cc0x7AO2.s:34     .text:0000000000000014 .LBB13
     /tmp/cc0x7AO2.s:111    .text:0000000000000098 .LBE13
     /tmp/cc0x7AO2.s:3383   .debug_loc:0000000000000379 .LLST0
     /tmp/cc0x7AO2.s:3395   .debug_loc:00000000000003b0 .LLST1
     /tmp/cc0x7AO2.s:57     .text:0000000000000038 .LBB16
     /tmp/cc0x7AO2.s:72     .text:0000000000000050 .LBE16
     /tmp/cc0x7AO2.s:3407   .debug_loc:00000000000003e7 .LLST2
     /tmp/cc0x7AO2.s:44     .text:0000000000000024 .LVL2
     /tmp/cc0x7AO2.s:91     .text:0000000000000074 .LVL9
     /tmp/cc0x7AO2.s:96     .text:0000000000000080 .LVL10
     /tmp/cc0x7AO2.s:101    .text:0000000000000090 .LVL11
     /tmp/cc0x7AO2.s:3655   .debug_str:00000000000005c4 .LASF124
     /tmp/cc0x7AO2.s:3685   .debug_str:0000000000000746 .LASF125
     /tmp/cc0x7AO2.s:3697   .debug_str:000000000000079b .LASF104
     /tmp/cc0x7AO2.s:3509   .debug_str:00000000000001aa .LASF106
     /tmp/cc0x7AO2.s:3523   .debug_str:00000000000001fe .LASF105
     /tmp/cc0x7AO2.s:3487   .debug_str:00000000000000f7 .LASF107
     /tmp/cc0x7AO2.s:3689   .debug_str:000000000000076b .LASF108
     /tmp/cc0x7AO2.s:3553   .debug_str:00000000000002d8 .LASF109
     /tmp/cc0x7AO2.s:3661   .debug_str:00000000000005f6 .LASF110
     /tmp/cc0x7AO2.s:3577   .debug_str:0000000000000397 .LASF111
     /tmp/cc0x7AO2.s:3605   .debug_str:0000000000000462 .LASF112
     /tmp/cc0x7AO2.s:3539   .debug_str:0000000000000277 .LASF113
     /tmp/cc0x7AO2.s:682    .text:0000000000000458 .LVL84
     /tmp/cc0x7AO2.s:770    .text:00000000000004ec .LVL98
     /tmp/cc0x7AO2.s:775    .text:00000000000004f0 .LVL99
GAS LISTING /tmp/cc0x7AO2.s 			page 33


     /tmp/cc0x7AO2.s:780    .text:00000000000004f8 .LVL100
     /tmp/cc0x7AO2.s:794    .text:000000000000051c .LVL103
     /tmp/cc0x7AO2.s:807    .text:000000000000052c .LVL104
     /tmp/cc0x7AO2.s:660    .text:0000000000000440 .LVL82
     /tmp/cc0x7AO2.s:671    .text:0000000000000448 .LVL83
     /tmp/cc0x7AO2.s:717    .text:00000000000004b8 .LVL90
     /tmp/cc0x7AO2.s:724    .text:00000000000004bc .LVL91
     /tmp/cc0x7AO2.s:731    .text:00000000000004c4 .LVL92
     /tmp/cc0x7AO2.s:737    .text:00000000000004c8 .LVL93
     /tmp/cc0x7AO2.s:744    .text:00000000000004d0 .LVL94
     /tmp/cc0x7AO2.s:750    .text:00000000000004d4 .LVL95
     /tmp/cc0x7AO2.s:757    .text:00000000000004dc .LVL96
     /tmp/cc0x7AO2.s:763    .text:00000000000004e0 .LVL97
     /tmp/cc0x7AO2.s:507    .text:000000000000030c .LVL59
     /tmp/cc0x7AO2.s:511    .text:0000000000000314 .LVL60
     /tmp/cc0x7AO2.s:530    .text:0000000000000344 .LVL64
     /tmp/cc0x7AO2.s:532    .text:0000000000000348 .LVL65
     /tmp/cc0x7AO2.s:596    .text:00000000000003dc .LVL77
     /tmp/cc0x7AO2.s:598    .text:00000000000003e0 .LVL78
     /tmp/cc0x7AO2.s:612    .text:00000000000003f4 .LVL79
     /tmp/cc0x7AO2.s:560    .text:000000000000037c .LVL69
     /tmp/cc0x7AO2.s:564    .text:0000000000000384 .LVL70
     /tmp/cc0x7AO2.s:615    .text:00000000000003f8 .LVL80
     /tmp/cc0x7AO2.s:337    .text:00000000000001d0 .LVL33
     /tmp/cc0x7AO2.s:341    .text:00000000000001d8 .LVL34
     /tmp/cc0x7AO2.s:360    .text:0000000000000208 .LVL38
     /tmp/cc0x7AO2.s:362    .text:000000000000020c .LVL39
     /tmp/cc0x7AO2.s:450    .text:00000000000002d0 .LVL55
     /tmp/cc0x7AO2.s:452    .text:00000000000002d4 .LVL56
     /tmp/cc0x7AO2.s:466    .text:00000000000002e8 .LVL57
     /tmp/cc0x7AO2.s:391    .text:0000000000000234 .LVL42
     /tmp/cc0x7AO2.s:414    .text:0000000000000270 .LVL47
     /tmp/cc0x7AO2.s:418    .text:0000000000000278 .LVL48
     /tmp/cc0x7AO2.s:469    .text:00000000000002ec .LVL58
     /tmp/cc0x7AO2.s:239    .text:0000000000000144 .LVL26
     /tmp/cc0x7AO2.s:262    .text:0000000000000174 .LVL27
     /tmp/cc0x7AO2.s:286    .text:00000000000001a0 .LVL30
     /tmp/cc0x7AO2.s:292    .text:00000000000001ac .LVL31
     /tmp/cc0x7AO2.s:150    .text:00000000000000c0 .LVL14
     /tmp/cc0x7AO2.s:155    .text:00000000000000c8 .LVL15
     /tmp/cc0x7AO2.s:226    .text:000000000000013c .LVL25
     /tmp/cc0x7AO2.s:187    .text:00000000000000f4 .LVL20
     /tmp/cc0x7AO2.s:213    .text:0000000000000130 .LVL24
     /tmp/cc0x7AO2.s:161    .text:00000000000000cc .LVL16
     /tmp/cc0x7AO2.s:171    .text:00000000000000dc .LVL17
     /tmp/cc0x7AO2.s:180    .text:00000000000000f0 .LVL19
     /tmp/cc0x7AO2.s:33     .text:0000000000000014 .LVL0
     /tmp/cc0x7AO2.s:38     .text:000000000000001c .LVL1
     /tmp/cc0x7AO2.s:120    .text:00000000000000a4 .LVL13
     /tmp/cc0x7AO2.s:46     .text:0000000000000028 .LVL3
     /tmp/cc0x7AO2.s:77     .text:0000000000000054 .LVL8
     /tmp/cc0x7AO2.s:107    .text:0000000000000098 .LVL12
     /tmp/cc0x7AO2.s:51     .text:000000000000002c .LVL4
     /tmp/cc0x7AO2.s:61     .text:000000000000003c .LVL5
     /tmp/cc0x7AO2.s:70     .text:0000000000000050 .LVL7
     /tmp/cc0x7AO2.s:821    .debug_info:0000000000000000 .Ldebug_info0
     /tmp/cc0x7AO2.s:48     .text:0000000000000028 .LBB15
GAS LISTING /tmp/cc0x7AO2.s 			page 34


     /tmp/cc0x7AO2.s:73     .text:0000000000000050 .LBE15
     /tmp/cc0x7AO2.s:103    .text:0000000000000090 .LBB17
     /tmp/cc0x7AO2.s:109    .text:0000000000000098 .LBE17
     /tmp/cc0x7AO2.s:158    .text:00000000000000c8 .LBB21
     /tmp/cc0x7AO2.s:183    .text:00000000000000f0 .LBE21
     /tmp/cc0x7AO2.s:209    .text:0000000000000128 .LBB23
     /tmp/cc0x7AO2.s:215    .text:0000000000000130 .LBE23

UNDEFINED SYMBOLS
_Z11thread_exitv
_Z11printStringPKc
_Z12printIntegerm
_ZN3PCB5yieldEv
_Z15thread_dispatchv
interrupt
_ZN3PCB14createProccessEPFvvEPv
_ZN3PCB7runningE
_Z13thread_createPP3PCBPFvPvES2_
_ZN3PCBD1Ev
_ZN3PCBdlEPv
