GAS LISTING /tmp/ccapKbIY.s 			page 1


   1              		.file	"main.cpp"
   2              		.option pic
   3              		.option norelax
   4              		.text
   5              	.Ltext0:
   6              		.align	2
   7              		.globl	main
   9              	main:
  10              	.LFB9:
  11              		.file 1 "src/main.cpp"
   1:src/main.cpp  **** #include "../lib/hw.h"
   2:src/main.cpp  **** #include "../lib/console.h"
   3:src/main.cpp  **** #include "../h/MemoryAllocator.h"
   4:src/main.cpp  **** 
   5:src/main.cpp  **** int main() {
  12              		.loc 1 5 12
  13              		.cfi_startproc
  14 0000 130101FE 		addi	sp,sp,-32
  15              		.cfi_def_cfa_offset 32
  16 0004 233C1100 		sd	ra,24(sp)
  17 0008 23388100 		sd	s0,16(sp)
  18 000c 23349100 		sd	s1,8(sp)
  19              		.cfi_offset 1, -8
  20              		.cfi_offset 8, -16
  21              		.cfi_offset 9, -24
  22 0010 13040102 		addi	s0,sp,32
  23              		.cfi_def_cfa 8, 0
   6:src/main.cpp  ****     int velicinaZaglavlja = sizeof(size_t); // meni je ovoliko
  24              		.loc 1 6 5
  25              	.LVL0:
   7:src/main.cpp  **** 
   8:src/main.cpp  ****     char* niz = (char*)MemoryAllocator::mem_alloc((size_t)HEAP_END_ADDR - (size_t)HEAP_START_ADDR +
  26              		.loc 1 8 5
  27              		.loc 1 8 73 is_stmt 0
  28 0014 97070000 		la	a5,HEAP_END_ADDR
  28      83B70700 
  29 001c 03B50700 		ld	a0,0(a5)
  30 0020 97070000 		la	a5,HEAP_START_ADDR
  30      83B70700 
  31 0028 83B70700 		ld	a5,0(a5)
  32 002c 3305F540 		sub	a0,a0,a5
  33              		.loc 1 8 50
  34 0030 1305A5FF 		addi	a0,a0,-6
  35 0034 97000000 		call	_ZN15MemoryAllocator9mem_allocEm@plt
  35      E7800000 
  36              	.LVL1:
  37 003c 93040500 		mv	s1,a0
  38              	.LVL2:
   9:src/main.cpp  ****     if(niz == nullptr) {
  39              		.loc 1 9 5 is_stmt 1
  40 0040 63060504 		beqz	a0,.L7
  41              	.L2:
  10:src/main.cpp  ****         __putc('?');
  11:src/main.cpp  ****     }
  12:src/main.cpp  **** 
  13:src/main.cpp  ****     int n = 10;
  42              		.loc 1 13 5
GAS LISTING /tmp/ccapKbIY.s 			page 2


  43              	.LVL3:
  14:src/main.cpp  ****     char* niz2 = (char*)MemoryAllocator::mem_alloc(n*sizeof(char));
  44              		.loc 1 14 5
  45              		.loc 1 14 51 is_stmt 0
  46 0044 1305A000 		li	a0,10
  47 0048 97000000 		call	_ZN15MemoryAllocator9mem_allocEm@plt
  47      E7800000 
  48              	.LVL4:
  15:src/main.cpp  ****     if(niz2 == nullptr) {
  49              		.loc 1 15 5 is_stmt 1
  50 0050 63060504 		beqz	a0,.L8
  51              	.LVL5:
  52              	.L3:
  16:src/main.cpp  ****         __putc('k');
  17:src/main.cpp  ****     }
  18:src/main.cpp  **** 
  19:src/main.cpp  ****     int status = MemoryAllocator::mem_free(niz);
  53              		.loc 1 19 5
  54              		.loc 1 19 43 is_stmt 0
  55 0054 13850400 		mv	a0,s1
  56 0058 97000000 		call	_ZN15MemoryAllocator8mem_freeEPv@plt
  56      E7800000 
  57              	.LVL6:
  20:src/main.cpp  ****     if(status) {
  58              		.loc 1 20 5 is_stmt 1
  59 0060 63160504 		bnez	a0,.L9
  60              	.LVL7:
  61              	.L4:
  21:src/main.cpp  ****         __putc('?');
  22:src/main.cpp  ****     }
  23:src/main.cpp  ****     niz2 = (char*)MemoryAllocator::mem_alloc(n*sizeof(char));
  62              		.loc 1 23 5
  63              		.loc 1 23 45 is_stmt 0
  64 0064 1305A000 		li	a0,10
  65 0068 97000000 		call	_ZN15MemoryAllocator9mem_allocEm@plt
  65      E7800000 
  66              	.LVL8:
  24:src/main.cpp  ****     if(niz2 == nullptr) {
  67              		.loc 1 24 5 is_stmt 1
  68 0070 63060504 		beqz	a0,.L10
  69              	.LVL9:
  70              	.L5:
  25:src/main.cpp  ****         __putc('?');
  26:src/main.cpp  ****     }
  27:src/main.cpp  **** 
  28:src/main.cpp  ****     return 0;
  71              		.loc 1 28 5
  29:src/main.cpp  **** }...
  72              		.loc 1 29 1 is_stmt 0
  73 0074 13050000 		li	a0,0
  74 0078 83308101 		ld	ra,24(sp)
  75              		.cfi_remember_state
  76              		.cfi_restore 1
  77 007c 03340101 		ld	s0,16(sp)
  78              		.cfi_restore 8
  79              		.cfi_def_cfa 2, 32
  80 0080 83348100 		ld	s1,8(sp)
GAS LISTING /tmp/ccapKbIY.s 			page 3


  81              		.cfi_restore 9
  82              	.LVL10:
  83 0084 13010102 		addi	sp,sp,32
  84              		.cfi_def_cfa_offset 0
  85 0088 67800000 		jr	ra
  86              	.LVL11:
  87              	.L7:
  88              		.cfi_restore_state
  10:src/main.cpp  ****         __putc('?');
  89              		.loc 1 10 9 is_stmt 1
  10:src/main.cpp  ****         __putc('?');
  90              		.loc 1 10 15 is_stmt 0
  91 008c 1305F003 		li	a0,63
  92 0090 97000000 		call	__putc@plt
  92      E7800000 
  93              	.LVL12:
  94 0098 6FF0DFFA 		j	.L2
  95              	.LVL13:
  96              	.L8:
  16:src/main.cpp  ****         __putc('k');
  97              		.loc 1 16 9 is_stmt 1
  16:src/main.cpp  ****         __putc('k');
  98              		.loc 1 16 15 is_stmt 0
  99 009c 1305B006 		li	a0,107
 100              	.LVL14:
 101 00a0 97000000 		call	__putc@plt
 101      E7800000 
 102              	.LVL15:
 103 00a8 6FF0DFFA 		j	.L3
 104              	.LVL16:
 105              	.L9:
  21:src/main.cpp  ****         __putc('?');
 106              		.loc 1 21 9 is_stmt 1
  21:src/main.cpp  ****         __putc('?');
 107              		.loc 1 21 15 is_stmt 0
 108 00ac 1305F003 		li	a0,63
 109              	.LVL17:
 110 00b0 97000000 		call	__putc@plt
 110      E7800000 
 111              	.LVL18:
 112 00b8 6FF0DFFA 		j	.L4
 113              	.LVL19:
 114              	.L10:
  25:src/main.cpp  ****         __putc('?');
 115              		.loc 1 25 9 is_stmt 1
  25:src/main.cpp  ****         __putc('?');
 116              		.loc 1 25 15 is_stmt 0
 117 00bc 1305F003 		li	a0,63
 118              	.LVL20:
 119 00c0 97000000 		call	__putc@plt
 119      E7800000 
 120              	.LVL21:
 121 00c8 6FF0DFFA 		j	.L5
 122              		.cfi_endproc
 123              	.LFE9:
 125              	.Letext0:
 126              		.file 2 "src/../lib/hw.h"
GAS LISTING /tmp/ccapKbIY.s 			page 4


 127              		.file 3 "src/../h/MemoryAllocator.h"
 128              		.file 4 "src/../lib/console.h"
GAS LISTING /tmp/ccapKbIY.s 			page 5

