GAS LISTING /tmp/cc1CXh6x.s 			page 1


   1              		.file	"main.cpp"
   2              		.option pic
   3              		.option norelax
   4              		.text
   5              	.Ltext0:
   6              		.section	.text._ZN7WorkerAD2Ev,"axG",@progbits,_ZN7WorkerAD5Ev,comdat
   7              		.align	2
   8              		.weak	_ZN7WorkerAD2Ev
  10              	_ZN7WorkerAD2Ev:
  11              	.LFB64:
  12              		.file 1 "src/main.cpp"
   1:src/main.cpp  **** #include "../h/hw.h"
   2:src/main.cpp  **** #include "../h/console.h"
   3:src/main.cpp  **** #include "../h/MemoryAllocator.h"
   4:src/main.cpp  **** #include "../h/syscall_c.h"
   5:src/main.cpp  **** #include "../h/print.h"
   6:src/main.cpp  **** #include "../h/PCB.h"
   7:src/main.cpp  **** #include "../h/kernel.h"
   8:src/main.cpp  **** #include "../h/syscall_cpp.h"
   9:src/main.cpp  **** 
  10:src/main.cpp  **** 
  11:src/main.cpp  **** bool finishedA = false;
  12:src/main.cpp  **** bool finishedB = false;
  13:src/main.cpp  **** bool finishedC = false;
  14:src/main.cpp  **** bool finishedD = false;
  15:src/main.cpp  **** 
  16:src/main.cpp  **** uint64 fibonacci(uint64 n) {
  17:src/main.cpp  ****     if (n == 0 || n == 1) { return n; }
  18:src/main.cpp  ****     if (n % 10 == 0) { thread_dispatch(); }
  19:src/main.cpp  ****     return fibonacci(n - 1) + fibonacci(n - 2);
  20:src/main.cpp  **** }
  21:src/main.cpp  **** 
  22:src/main.cpp  **** class WorkerA: public Thread {
  13              		.loc 1 22 7
  14              		.cfi_startproc
  15              	.LVL0:
  16 0000 130101FF 		addi	sp,sp,-16
  17              		.cfi_def_cfa_offset 16
  18 0004 23341100 		sd	ra,8(sp)
  19 0008 23308100 		sd	s0,0(sp)
  20              		.cfi_offset 1, -8
  21              		.cfi_offset 8, -16
  22 000c 13040101 		addi	s0,sp,16
  23              		.cfi_def_cfa 8, 0
  24              	.LBB30:
  25              		.loc 1 22 7 is_stmt 0
  26 0010 97070000 		lla	a5,_ZTV7WorkerA+16
  26      93870700 
  27 0018 2330F500 		sd	a5,0(a0)
  28 001c 97000000 		call	_ZN6ThreadD2Ev@plt
  28      E7800000 
  29              	.LVL1:
  30              	.LBE30:
  31 0024 83308100 		ld	ra,8(sp)
  32              		.cfi_restore 1
  33 0028 03340100 		ld	s0,0(sp)
  34              		.cfi_restore 8
GAS LISTING /tmp/cc1CXh6x.s 			page 2


  35              		.cfi_def_cfa 2, 16
  36 002c 13010101 		addi	sp,sp,16
  37              		.cfi_def_cfa_offset 0
  38 0030 67800000 		jr	ra
  39              		.cfi_endproc
  40              	.LFE64:
  42              		.weak	_ZN7WorkerAD1Ev
  43              		.set	_ZN7WorkerAD1Ev,_ZN7WorkerAD2Ev
  44              		.section	.text._ZN7WorkerAD0Ev,"axG",@progbits,_ZN7WorkerAD5Ev,comdat
  45              		.align	2
  46              		.weak	_ZN7WorkerAD0Ev
  48              	_ZN7WorkerAD0Ev:
  49              	.LFB66:
  50              		.loc 1 22 7 is_stmt 1
  51              		.cfi_startproc
  52              	.LVL2:
  53 0000 130101FE 		addi	sp,sp,-32
  54              		.cfi_def_cfa_offset 32
  55 0004 233C1100 		sd	ra,24(sp)
  56 0008 23388100 		sd	s0,16(sp)
  57 000c 23349100 		sd	s1,8(sp)
  58              		.cfi_offset 1, -8
  59              		.cfi_offset 8, -16
  60              		.cfi_offset 9, -24
  61 0010 13040102 		addi	s0,sp,32
  62              		.cfi_def_cfa 8, 0
  63 0014 93040500 		mv	s1,a0
  64              	.LVL3:
  65              	.LBB31:
  66              	.LBB32:
  67              		.loc 1 22 7 is_stmt 0
  68 0018 97070000 		lla	a5,_ZTV7WorkerA+16
  68      93870700 
  69 0020 2330F500 		sd	a5,0(a0)
  70 0024 97000000 		call	_ZN6ThreadD2Ev@plt
  70      E7800000 
  71              	.LVL4:
  72              	.LBE32:
  73              	.LBE31:
  74 002c 13850400 		mv	a0,s1
  75 0030 97000000 		call	_ZN6ThreaddlEPv@plt
  75      E7800000 
  76              	.LVL5:
  77 0038 83308101 		ld	ra,24(sp)
  78              		.cfi_restore 1
  79 003c 03340101 		ld	s0,16(sp)
  80              		.cfi_restore 8
  81              		.cfi_def_cfa 2, 32
  82 0040 83348100 		ld	s1,8(sp)
  83              		.cfi_restore 9
  84              	.LVL6:
  85 0044 13010102 		addi	sp,sp,32
  86              		.cfi_def_cfa_offset 0
  87 0048 67800000 		jr	ra
  88              		.cfi_endproc
  89              	.LFE66:
  91              		.section	.text._ZN7WorkerBD2Ev,"axG",@progbits,_ZN7WorkerBD5Ev,comdat
GAS LISTING /tmp/cc1CXh6x.s 			page 3


  92              		.align	2
  93              		.weak	_ZN7WorkerBD2Ev
  95              	_ZN7WorkerBD2Ev:
  96              	.LFB60:
  23:src/main.cpp  ****     void workerBodyA(void* arg);
  24:src/main.cpp  **** public:
  25:src/main.cpp  ****     WorkerA():Thread() {}
  26:src/main.cpp  **** 
  27:src/main.cpp  ****     void run() override {
  28:src/main.cpp  ****         workerBodyA(nullptr);
  29:src/main.cpp  ****     }
  30:src/main.cpp  **** };
  31:src/main.cpp  **** 
  32:src/main.cpp  **** class WorkerB: public Thread {
  97              		.loc 1 32 7 is_stmt 1
  98              		.cfi_startproc
  99              	.LVL7:
 100 0000 130101FF 		addi	sp,sp,-16
 101              		.cfi_def_cfa_offset 16
 102 0004 23341100 		sd	ra,8(sp)
 103 0008 23308100 		sd	s0,0(sp)
 104              		.cfi_offset 1, -8
 105              		.cfi_offset 8, -16
 106 000c 13040101 		addi	s0,sp,16
 107              		.cfi_def_cfa 8, 0
 108              	.LBB33:
 109              		.loc 1 32 7 is_stmt 0
 110 0010 97070000 		lla	a5,_ZTV7WorkerB+16
 110      93870700 
 111 0018 2330F500 		sd	a5,0(a0)
 112 001c 97000000 		call	_ZN6ThreadD2Ev@plt
 112      E7800000 
 113              	.LVL8:
 114              	.LBE33:
 115 0024 83308100 		ld	ra,8(sp)
 116              		.cfi_restore 1
 117 0028 03340100 		ld	s0,0(sp)
 118              		.cfi_restore 8
 119              		.cfi_def_cfa 2, 16
 120 002c 13010101 		addi	sp,sp,16
 121              		.cfi_def_cfa_offset 0
 122 0030 67800000 		jr	ra
 123              		.cfi_endproc
 124              	.LFE60:
 126              		.weak	_ZN7WorkerBD1Ev
 127              		.set	_ZN7WorkerBD1Ev,_ZN7WorkerBD2Ev
 128              		.section	.text._ZN7WorkerBD0Ev,"axG",@progbits,_ZN7WorkerBD5Ev,comdat
 129              		.align	2
 130              		.weak	_ZN7WorkerBD0Ev
 132              	_ZN7WorkerBD0Ev:
 133              	.LFB62:
 134              		.loc 1 32 7 is_stmt 1
 135              		.cfi_startproc
 136              	.LVL9:
 137 0000 130101FE 		addi	sp,sp,-32
 138              		.cfi_def_cfa_offset 32
 139 0004 233C1100 		sd	ra,24(sp)
GAS LISTING /tmp/cc1CXh6x.s 			page 4


 140 0008 23388100 		sd	s0,16(sp)
 141 000c 23349100 		sd	s1,8(sp)
 142              		.cfi_offset 1, -8
 143              		.cfi_offset 8, -16
 144              		.cfi_offset 9, -24
 145 0010 13040102 		addi	s0,sp,32
 146              		.cfi_def_cfa 8, 0
 147 0014 93040500 		mv	s1,a0
 148              	.LVL10:
 149              	.LBB34:
 150              	.LBB35:
 151              		.loc 1 32 7 is_stmt 0
 152 0018 97070000 		lla	a5,_ZTV7WorkerB+16
 152      93870700 
 153 0020 2330F500 		sd	a5,0(a0)
 154 0024 97000000 		call	_ZN6ThreadD2Ev@plt
 154      E7800000 
 155              	.LVL11:
 156              	.LBE35:
 157              	.LBE34:
 158 002c 13850400 		mv	a0,s1
 159 0030 97000000 		call	_ZN6ThreaddlEPv@plt
 159      E7800000 
 160              	.LVL12:
 161 0038 83308101 		ld	ra,24(sp)
 162              		.cfi_restore 1
 163 003c 03340101 		ld	s0,16(sp)
 164              		.cfi_restore 8
 165              		.cfi_def_cfa 2, 32
 166 0040 83348100 		ld	s1,8(sp)
 167              		.cfi_restore 9
 168              	.LVL13:
 169 0044 13010102 		addi	sp,sp,32
 170              		.cfi_def_cfa_offset 0
 171 0048 67800000 		jr	ra
 172              		.cfi_endproc
 173              	.LFE62:
 175              		.section	.text._ZN7WorkerCD2Ev,"axG",@progbits,_ZN7WorkerCD5Ev,comdat
 176              		.align	2
 177              		.weak	_ZN7WorkerCD2Ev
 179              	_ZN7WorkerCD2Ev:
 180              	.LFB56:
  33:src/main.cpp  ****     void workerBodyB(void* arg);
  34:src/main.cpp  **** public:
  35:src/main.cpp  ****     WorkerB():Thread() {}
  36:src/main.cpp  **** 
  37:src/main.cpp  ****     void run() override {
  38:src/main.cpp  ****         workerBodyB(nullptr);
  39:src/main.cpp  ****     }
  40:src/main.cpp  **** };
  41:src/main.cpp  **** 
  42:src/main.cpp  **** class WorkerC: public Thread {
 181              		.loc 1 42 7 is_stmt 1
 182              		.cfi_startproc
 183              	.LVL14:
 184 0000 130101FF 		addi	sp,sp,-16
 185              		.cfi_def_cfa_offset 16
GAS LISTING /tmp/cc1CXh6x.s 			page 5


 186 0004 23341100 		sd	ra,8(sp)
 187 0008 23308100 		sd	s0,0(sp)
 188              		.cfi_offset 1, -8
 189              		.cfi_offset 8, -16
 190 000c 13040101 		addi	s0,sp,16
 191              		.cfi_def_cfa 8, 0
 192              	.LBB36:
 193              		.loc 1 42 7 is_stmt 0
 194 0010 97070000 		lla	a5,_ZTV7WorkerC+16
 194      93870700 
 195 0018 2330F500 		sd	a5,0(a0)
 196 001c 97000000 		call	_ZN6ThreadD2Ev@plt
 196      E7800000 
 197              	.LVL15:
 198              	.LBE36:
 199 0024 83308100 		ld	ra,8(sp)
 200              		.cfi_restore 1
 201 0028 03340100 		ld	s0,0(sp)
 202              		.cfi_restore 8
 203              		.cfi_def_cfa 2, 16
 204 002c 13010101 		addi	sp,sp,16
 205              		.cfi_def_cfa_offset 0
 206 0030 67800000 		jr	ra
 207              		.cfi_endproc
 208              	.LFE56:
 210              		.weak	_ZN7WorkerCD1Ev
 211              		.set	_ZN7WorkerCD1Ev,_ZN7WorkerCD2Ev
 212              		.section	.text._ZN7WorkerCD0Ev,"axG",@progbits,_ZN7WorkerCD5Ev,comdat
 213              		.align	2
 214              		.weak	_ZN7WorkerCD0Ev
 216              	_ZN7WorkerCD0Ev:
 217              	.LFB58:
 218              		.loc 1 42 7 is_stmt 1
 219              		.cfi_startproc
 220              	.LVL16:
 221 0000 130101FE 		addi	sp,sp,-32
 222              		.cfi_def_cfa_offset 32
 223 0004 233C1100 		sd	ra,24(sp)
 224 0008 23388100 		sd	s0,16(sp)
 225 000c 23349100 		sd	s1,8(sp)
 226              		.cfi_offset 1, -8
 227              		.cfi_offset 8, -16
 228              		.cfi_offset 9, -24
 229 0010 13040102 		addi	s0,sp,32
 230              		.cfi_def_cfa 8, 0
 231 0014 93040500 		mv	s1,a0
 232              	.LVL17:
 233              	.LBB37:
 234              	.LBB38:
 235              		.loc 1 42 7 is_stmt 0
 236 0018 97070000 		lla	a5,_ZTV7WorkerC+16
 236      93870700 
 237 0020 2330F500 		sd	a5,0(a0)
 238 0024 97000000 		call	_ZN6ThreadD2Ev@plt
 238      E7800000 
 239              	.LVL18:
 240              	.LBE38:
GAS LISTING /tmp/cc1CXh6x.s 			page 6


 241              	.LBE37:
 242 002c 13850400 		mv	a0,s1
 243 0030 97000000 		call	_ZN6ThreaddlEPv@plt
 243      E7800000 
 244              	.LVL19:
 245 0038 83308101 		ld	ra,24(sp)
 246              		.cfi_restore 1
 247 003c 03340101 		ld	s0,16(sp)
 248              		.cfi_restore 8
 249              		.cfi_def_cfa 2, 32
 250 0040 83348100 		ld	s1,8(sp)
 251              		.cfi_restore 9
 252              	.LVL20:
 253 0044 13010102 		addi	sp,sp,32
 254              		.cfi_def_cfa_offset 0
 255 0048 67800000 		jr	ra
 256              		.cfi_endproc
 257              	.LFE58:
 259              		.section	.text._ZN7WorkerDD2Ev,"axG",@progbits,_ZN7WorkerDD5Ev,comdat
 260              		.align	2
 261              		.weak	_ZN7WorkerDD2Ev
 263              	_ZN7WorkerDD2Ev:
 264              	.LFB52:
  43:src/main.cpp  ****     void workerBodyC(void* arg);
  44:src/main.cpp  **** public:
  45:src/main.cpp  ****     WorkerC():Thread() {}
  46:src/main.cpp  **** 
  47:src/main.cpp  ****     void run() override {
  48:src/main.cpp  ****         workerBodyC(nullptr);
  49:src/main.cpp  ****     }
  50:src/main.cpp  **** };
  51:src/main.cpp  **** 
  52:src/main.cpp  **** class WorkerD: public Thread {
 265              		.loc 1 52 7 is_stmt 1
 266              		.cfi_startproc
 267              	.LVL21:
 268 0000 130101FF 		addi	sp,sp,-16
 269              		.cfi_def_cfa_offset 16
 270 0004 23341100 		sd	ra,8(sp)
 271 0008 23308100 		sd	s0,0(sp)
 272              		.cfi_offset 1, -8
 273              		.cfi_offset 8, -16
 274 000c 13040101 		addi	s0,sp,16
 275              		.cfi_def_cfa 8, 0
 276              	.LBB39:
 277              		.loc 1 52 7 is_stmt 0
 278 0010 97070000 		lla	a5,_ZTV7WorkerD+16
 278      93870700 
 279 0018 2330F500 		sd	a5,0(a0)
 280 001c 97000000 		call	_ZN6ThreadD2Ev@plt
 280      E7800000 
 281              	.LVL22:
 282              	.LBE39:
 283 0024 83308100 		ld	ra,8(sp)
 284              		.cfi_restore 1
 285 0028 03340100 		ld	s0,0(sp)
 286              		.cfi_restore 8
GAS LISTING /tmp/cc1CXh6x.s 			page 7


 287              		.cfi_def_cfa 2, 16
 288 002c 13010101 		addi	sp,sp,16
 289              		.cfi_def_cfa_offset 0
 290 0030 67800000 		jr	ra
 291              		.cfi_endproc
 292              	.LFE52:
 294              		.weak	_ZN7WorkerDD1Ev
 295              		.set	_ZN7WorkerDD1Ev,_ZN7WorkerDD2Ev
 296              		.section	.text._ZN7WorkerDD0Ev,"axG",@progbits,_ZN7WorkerDD5Ev,comdat
 297              		.align	2
 298              		.weak	_ZN7WorkerDD0Ev
 300              	_ZN7WorkerDD0Ev:
 301              	.LFB54:
 302              		.loc 1 52 7 is_stmt 1
 303              		.cfi_startproc
 304              	.LVL23:
 305 0000 130101FE 		addi	sp,sp,-32
 306              		.cfi_def_cfa_offset 32
 307 0004 233C1100 		sd	ra,24(sp)
 308 0008 23388100 		sd	s0,16(sp)
 309 000c 23349100 		sd	s1,8(sp)
 310              		.cfi_offset 1, -8
 311              		.cfi_offset 8, -16
 312              		.cfi_offset 9, -24
 313 0010 13040102 		addi	s0,sp,32
 314              		.cfi_def_cfa 8, 0
 315 0014 93040500 		mv	s1,a0
 316              	.LVL24:
 317              	.LBB40:
 318              	.LBB41:
 319              		.loc 1 52 7 is_stmt 0
 320 0018 97070000 		lla	a5,_ZTV7WorkerD+16
 320      93870700 
 321 0020 2330F500 		sd	a5,0(a0)
 322 0024 97000000 		call	_ZN6ThreadD2Ev@plt
 322      E7800000 
 323              	.LVL25:
 324              	.LBE41:
 325              	.LBE40:
 326 002c 13850400 		mv	a0,s1
 327 0030 97000000 		call	_ZN6ThreaddlEPv@plt
 327      E7800000 
 328              	.LVL26:
 329 0038 83308101 		ld	ra,24(sp)
 330              		.cfi_restore 1
 331 003c 03340101 		ld	s0,16(sp)
 332              		.cfi_restore 8
 333              		.cfi_def_cfa 2, 32
 334 0040 83348100 		ld	s1,8(sp)
 335              		.cfi_restore 9
 336              	.LVL27:
 337 0044 13010102 		addi	sp,sp,32
 338              		.cfi_def_cfa_offset 0
 339 0048 67800000 		jr	ra
 340              		.cfi_endproc
 341              	.LFE54:
 343              		.text
GAS LISTING /tmp/cc1CXh6x.s 			page 8


 344              		.align	2
 345              		.globl	_Z9fibonaccim
 347              	_Z9fibonaccim:
 348              	.LFB29:
  16:src/main.cpp  ****     if (n == 0 || n == 1) { return n; }
 349              		.loc 1 16 28 is_stmt 1
 350              		.cfi_startproc
 351              	.LVL28:
 352 0000 130101FE 		addi	sp,sp,-32
 353              		.cfi_def_cfa_offset 32
 354 0004 233C1100 		sd	ra,24(sp)
 355 0008 23388100 		sd	s0,16(sp)
 356 000c 23349100 		sd	s1,8(sp)
 357 0010 23302101 		sd	s2,0(sp)
 358              		.cfi_offset 1, -8
 359              		.cfi_offset 8, -16
 360              		.cfi_offset 9, -24
 361              		.cfi_offset 18, -32
 362 0014 13040102 		addi	s0,sp,32
 363              		.cfi_def_cfa 8, 0
 364 0018 93040500 		mv	s1,a0
  17:src/main.cpp  ****     if (n % 10 == 0) { thread_dispatch(); }
 365              		.loc 1 17 5
 366 001c 93071000 		li	a5,1
 367 0020 63F8A702 		bleu	a0,a5,.L17
  18:src/main.cpp  ****     return fibonacci(n - 1) + fibonacci(n - 2);
 368              		.loc 1 18 5
  18:src/main.cpp  ****     return fibonacci(n - 1) + fibonacci(n - 2);
 369              		.loc 1 18 11 is_stmt 0
 370 0024 9307A000 		li	a5,10
 371 0028 B377F502 		remu	a5,a0,a5
  18:src/main.cpp  ****     return fibonacci(n - 1) + fibonacci(n - 2);
 372              		.loc 1 18 5
 373 002c 638E0702 		beqz	a5,.L22
 374              	.LVL29:
 375              	.L19:
  19:src/main.cpp  **** }
 376              		.loc 1 19 5 is_stmt 1
  19:src/main.cpp  **** }
 377              		.loc 1 19 21 is_stmt 0
 378 0030 1385F4FF 		addi	a0,s1,-1
 379 0034 97000000 		call	_Z9fibonaccim
 379      E7800000 
 380              	.LVL30:
 381 003c 13090500 		mv	s2,a0
  19:src/main.cpp  **** }
 382              		.loc 1 19 40
 383 0040 1385E4FF 		addi	a0,s1,-2
 384 0044 97000000 		call	_Z9fibonaccim
 384      E7800000 
 385              	.LVL31:
  19:src/main.cpp  **** }
 386              		.loc 1 19 46
 387 004c 3305A900 		add	a0,s2,a0
 388              	.L17:
  20:src/main.cpp  **** 
 389              		.loc 1 20 1
GAS LISTING /tmp/cc1CXh6x.s 			page 9


 390 0050 83308101 		ld	ra,24(sp)
 391              		.cfi_remember_state
 392              		.cfi_restore 1
 393 0054 03340101 		ld	s0,16(sp)
 394              		.cfi_restore 8
 395              		.cfi_def_cfa 2, 32
 396 0058 83348100 		ld	s1,8(sp)
 397              		.cfi_restore 9
 398              	.LVL32:
 399 005c 03390100 		ld	s2,0(sp)
 400              		.cfi_restore 18
 401 0060 13010102 		addi	sp,sp,32
 402              		.cfi_def_cfa_offset 0
 403 0064 67800000 		jr	ra
 404              	.LVL33:
 405              	.L22:
 406              		.cfi_restore_state
  18:src/main.cpp  ****     return fibonacci(n - 1) + fibonacci(n - 2);
 407              		.loc 1 18 24 is_stmt 1 discriminator 1
  18:src/main.cpp  ****     return fibonacci(n - 1) + fibonacci(n - 2);
 408              		.loc 1 18 39 is_stmt 0 discriminator 1
 409 0068 97000000 		call	_Z15thread_dispatchv@plt
 409      E7800000 
 410              	.LVL34:
 411 0070 6FF01FFC 		j	.L19
 412              		.cfi_endproc
 413              	.LFE29:
 415              		.section	.rodata.str1.8,"aMS",@progbits,1
 416              		.align	3
 417              	.LC0:
 418 0000 413A2069 		.string	"A: i="
 418      3D00
 419 0006 0000     		.align	3
 420              	.LC1:
 421 0008 0A00     		.string	"\n"
 422 000a 00000000 		.align	3
 422      0000
 423              	.LC2:
 424 0010 41206669 		.string	"A finished!\n"
 424      6E697368 
 424      6564210A 
 424      00
 425              		.text
 426              		.align	2
 427              		.globl	_ZN7WorkerA11workerBodyAEPv
 429              	_ZN7WorkerA11workerBodyAEPv:
 430              	.LFB46:
  53:src/main.cpp  ****     void workerBodyD(void* arg);
  54:src/main.cpp  **** public:
  55:src/main.cpp  ****     WorkerD():Thread() {}
  56:src/main.cpp  **** 
  57:src/main.cpp  ****     void run() override {
  58:src/main.cpp  ****         workerBodyD(nullptr);
  59:src/main.cpp  ****     }
  60:src/main.cpp  **** };
  61:src/main.cpp  **** 
  62:src/main.cpp  **** void WorkerA::workerBodyA(void *arg) {
GAS LISTING /tmp/cc1CXh6x.s 			page 10


 431              		.loc 1 62 38 is_stmt 1
 432              		.cfi_startproc
 433              	.LVL35:
 434 0074 130101FE 		addi	sp,sp,-32
 435              		.cfi_def_cfa_offset 32
 436 0078 233C1100 		sd	ra,24(sp)
 437 007c 23388100 		sd	s0,16(sp)
 438 0080 23349100 		sd	s1,8(sp)
 439 0084 23302101 		sd	s2,0(sp)
 440              		.cfi_offset 1, -8
 441              		.cfi_offset 8, -16
 442              		.cfi_offset 9, -24
 443              		.cfi_offset 18, -32
 444 0088 13040102 		addi	s0,sp,32
 445              		.cfi_def_cfa 8, 0
  63:src/main.cpp  ****     for (uint64 i = 0; i < 10; i++) {
 446              		.loc 1 63 5
 447              	.LVL36:
 448              	.LBB42:
 449              		.loc 1 63 17 is_stmt 0
 450 008c 13090000 		li	s2,0
 451 0090 6F008003 		j	.L29
 452              	.LVL37:
 453              	.L26:
 454              	.LBB43:
 455              	.LBB44:
 456              	.LBB45:
  64:src/main.cpp  ****         printString("A: i="); printInteger(i); printString("\n");
  65:src/main.cpp  ****         for (uint64 j = 0; j < 10000; j++) {
  66:src/main.cpp  ****             for (uint64 k = 0; k < 30000; k++) { /* busy wait */ }
  67:src/main.cpp  ****             thread_dispatch();
 457              		.loc 1 67 13 is_stmt 1 discriminator 2
 458              		.loc 1 67 28 is_stmt 0 discriminator 2
 459 0094 97000000 		call	_Z15thread_dispatchv@plt
 459      E7800000 
 460              	.LVL38:
 461              	.LBE45:
  65:src/main.cpp  ****             for (uint64 k = 0; k < 30000; k++) { /* busy wait */ }
 462              		.loc 1 65 9 is_stmt 1 discriminator 2
 463 009c 93841400 		addi	s1,s1,1
 464              	.LVL39:
 465              	.L28:
  65:src/main.cpp  ****             for (uint64 k = 0; k < 30000; k++) { /* busy wait */ }
 466              		.loc 1 65 30 discriminator 1
 467 00a0 B7270000 		li	a5,8192
 468 00a4 9387F770 		addi	a5,a5,1807
 469 00a8 63EE9700 		bgtu	s1,a5,.L25
 470              	.LBB47:
 471              	.LBB46:
  66:src/main.cpp  ****             thread_dispatch();
 472              		.loc 1 66 25 is_stmt 0
 473 00ac 13070000 		li	a4,0
 474              	.L27:
 475              	.LVL40:
  66:src/main.cpp  ****             thread_dispatch();
 476              		.loc 1 66 34 is_stmt 1 discriminator 3
 477 00b0 B7770000 		li	a5,28672
GAS LISTING /tmp/cc1CXh6x.s 			page 11


 478 00b4 9387F752 		addi	a5,a5,1327
 479 00b8 E3EEE7FC 		bgtu	a4,a5,.L26
  66:src/main.cpp  ****             thread_dispatch();
 480              		.loc 1 66 13 discriminator 2
 481 00bc 13071700 		addi	a4,a4,1
 482              	.LVL41:
 483 00c0 6FF01FFF 		j	.L27
 484              	.LVL42:
 485              	.L25:
 486              	.LBE46:
 487              	.LBE47:
 488              	.LBE44:
 489              	.LBE43:
  63:src/main.cpp  ****         printString("A: i="); printInteger(i); printString("\n");
 490              		.loc 1 63 5 discriminator 2
 491 00c4 13091900 		addi	s2,s2,1
 492              	.LVL43:
 493              	.L29:
  63:src/main.cpp  ****         printString("A: i="); printInteger(i); printString("\n");
 494              		.loc 1 63 26 discriminator 1
 495 00c8 93079000 		li	a5,9
 496 00cc 63EC2703 		bgtu	s2,a5,.L24
 497              	.LBB49:
  64:src/main.cpp  ****         for (uint64 j = 0; j < 10000; j++) {
 498              		.loc 1 64 9
  64:src/main.cpp  ****         for (uint64 j = 0; j < 10000; j++) {
 499              		.loc 1 64 20 is_stmt 0
 500 00d0 17050000 		lla	a0,.LC0
 500      13050500 
 501 00d8 97000000 		call	_Z11printStringPKc@plt
 501      E7800000 
 502              	.LVL44:
  64:src/main.cpp  ****         for (uint64 j = 0; j < 10000; j++) {
 503              		.loc 1 64 31 is_stmt 1
  64:src/main.cpp  ****         for (uint64 j = 0; j < 10000; j++) {
 504              		.loc 1 64 43 is_stmt 0
 505 00e0 13050900 		mv	a0,s2
 506 00e4 97000000 		call	_Z12printIntegerm@plt
 506      E7800000 
 507              	.LVL45:
  64:src/main.cpp  ****         for (uint64 j = 0; j < 10000; j++) {
 508              		.loc 1 64 48 is_stmt 1
  64:src/main.cpp  ****         for (uint64 j = 0; j < 10000; j++) {
 509              		.loc 1 64 59 is_stmt 0
 510 00ec 17050000 		lla	a0,.LC1
 510      13050500 
 511 00f4 97000000 		call	_Z11printStringPKc@plt
 511      E7800000 
 512              	.LVL46:
  65:src/main.cpp  ****             for (uint64 k = 0; k < 30000; k++) { /* busy wait */ }
 513              		.loc 1 65 9 is_stmt 1
 514              	.LBB48:
  65:src/main.cpp  ****             for (uint64 k = 0; k < 30000; k++) { /* busy wait */ }
 515              		.loc 1 65 21 is_stmt 0
 516 00fc 93040000 		li	s1,0
 517 0100 6FF01FFA 		j	.L28
 518              	.LVL47:
GAS LISTING /tmp/cc1CXh6x.s 			page 12


 519              	.L24:
 520              	.LBE48:
 521              	.LBE49:
 522              	.LBE42:
  68:src/main.cpp  ****         }
  69:src/main.cpp  ****     }
  70:src/main.cpp  ****     printString("A finished!\n");
 523              		.loc 1 70 5 is_stmt 1
 524              		.loc 1 70 16 is_stmt 0
 525 0104 17050000 		lla	a0,.LC2
 525      13050500 
 526 010c 97000000 		call	_Z11printStringPKc@plt
 526      E7800000 
 527              	.LVL48:
  71:src/main.cpp  ****     finishedA = true;
 528              		.loc 1 71 5 is_stmt 1
 529              		.loc 1 71 15 is_stmt 0
 530 0114 93071000 		li	a5,1
 531 0118 17070000 		sb	a5,.LANCHOR0,a4
 531      2300F700 
  72:src/main.cpp  **** }
 532              		.loc 1 72 1
 533 0120 83308101 		ld	ra,24(sp)
 534              		.cfi_restore 1
 535 0124 03340101 		ld	s0,16(sp)
 536              		.cfi_restore 8
 537              		.cfi_def_cfa 2, 32
 538 0128 83348100 		ld	s1,8(sp)
 539              		.cfi_restore 9
 540 012c 03390100 		ld	s2,0(sp)
 541              		.cfi_restore 18
 542              	.LVL49:
 543 0130 13010102 		addi	sp,sp,32
 544              		.cfi_def_cfa_offset 0
 545 0134 67800000 		jr	ra
 546              		.cfi_endproc
 547              	.LFE46:
 549              		.section	.text._ZN7WorkerA3runEv,"axG",@progbits,_ZN7WorkerA3runEv,comdat
 550              		.align	2
 551              		.weak	_ZN7WorkerA3runEv
 553              	_ZN7WorkerA3runEv:
 554              	.LFB33:
  27:src/main.cpp  ****         workerBodyA(nullptr);
 555              		.loc 1 27 10 is_stmt 1
 556              		.cfi_startproc
 557              	.LVL50:
 558 0000 130101FF 		addi	sp,sp,-16
 559              		.cfi_def_cfa_offset 16
 560 0004 23341100 		sd	ra,8(sp)
 561 0008 23308100 		sd	s0,0(sp)
 562              		.cfi_offset 1, -8
 563              		.cfi_offset 8, -16
 564 000c 13040101 		addi	s0,sp,16
 565              		.cfi_def_cfa 8, 0
  28:src/main.cpp  ****     }
 566              		.loc 1 28 9
  28:src/main.cpp  ****     }
GAS LISTING /tmp/cc1CXh6x.s 			page 13


 567              		.loc 1 28 20 is_stmt 0
 568 0010 93050000 		li	a1,0
 569 0014 97000000 		call	_ZN7WorkerA11workerBodyAEPv
 569      E7800000 
 570              	.LVL51:
  29:src/main.cpp  **** };
 571              		.loc 1 29 5
 572 001c 83308100 		ld	ra,8(sp)
 573              		.cfi_restore 1
 574 0020 03340100 		ld	s0,0(sp)
 575              		.cfi_restore 8
 576              		.cfi_def_cfa 2, 16
 577 0024 13010101 		addi	sp,sp,16
 578              		.cfi_def_cfa_offset 0
 579 0028 67800000 		jr	ra
 580              		.cfi_endproc
 581              	.LFE33:
 583              		.section	.rodata.str1.8
 584 001d 000000   		.align	3
 585              	.LC3:
 586 0020 423A2069 		.string	"B: i="
 586      3D00
 587 0026 0000     		.align	3
 588              	.LC4:
 589 0028 42206669 		.string	"B finished!\n"
 589      6E697368 
 589      6564210A 
 589      00
 590              		.text
 591              		.align	2
 592              		.globl	_ZN7WorkerB11workerBodyBEPv
 594              	_ZN7WorkerB11workerBodyBEPv:
 595              	.LFB47:
  73:src/main.cpp  **** 
  74:src/main.cpp  **** void WorkerB::workerBodyB(void *arg) {
 596              		.loc 1 74 38 is_stmt 1
 597              		.cfi_startproc
 598              	.LVL52:
 599 0138 130101FE 		addi	sp,sp,-32
 600              		.cfi_def_cfa_offset 32
 601 013c 233C1100 		sd	ra,24(sp)
 602 0140 23388100 		sd	s0,16(sp)
 603 0144 23349100 		sd	s1,8(sp)
 604 0148 23302101 		sd	s2,0(sp)
 605              		.cfi_offset 1, -8
 606              		.cfi_offset 8, -16
 607              		.cfi_offset 9, -24
 608              		.cfi_offset 18, -32
 609 014c 13040102 		addi	s0,sp,32
 610              		.cfi_def_cfa 8, 0
  75:src/main.cpp  ****     for (uint64 i = 0; i < 16; i++) {
 611              		.loc 1 75 5
 612              	.LVL53:
 613              	.LBB50:
 614              		.loc 1 75 17 is_stmt 0
 615 0150 13090000 		li	s2,0
 616 0154 6F008003 		j	.L39
GAS LISTING /tmp/cc1CXh6x.s 			page 14


 617              	.LVL54:
 618              	.L36:
 619              	.LBB51:
 620              	.LBB52:
 621              	.LBB53:
  76:src/main.cpp  ****         printString("B: i="); printInteger(i); printString("\n");
  77:src/main.cpp  ****         for (uint64 j = 0; j < 10000; j++) {
  78:src/main.cpp  ****             for (uint64 k = 0; k < 30000; k++) { /* busy wait */ }
  79:src/main.cpp  ****             thread_dispatch();
 622              		.loc 1 79 13 is_stmt 1 discriminator 2
 623              		.loc 1 79 28 is_stmt 0 discriminator 2
 624 0158 97000000 		call	_Z15thread_dispatchv@plt
 624      E7800000 
 625              	.LVL55:
 626              	.LBE53:
  77:src/main.cpp  ****             for (uint64 k = 0; k < 30000; k++) { /* busy wait */ }
 627              		.loc 1 77 9 is_stmt 1 discriminator 2
 628 0160 93841400 		addi	s1,s1,1
 629              	.LVL56:
 630              	.L38:
  77:src/main.cpp  ****             for (uint64 k = 0; k < 30000; k++) { /* busy wait */ }
 631              		.loc 1 77 30 discriminator 1
 632 0164 B7270000 		li	a5,8192
 633 0168 9387F770 		addi	a5,a5,1807
 634 016c 63EE9700 		bgtu	s1,a5,.L35
 635              	.LBB55:
 636              	.LBB54:
  78:src/main.cpp  ****             thread_dispatch();
 637              		.loc 1 78 25 is_stmt 0
 638 0170 13070000 		li	a4,0
 639              	.L37:
 640              	.LVL57:
  78:src/main.cpp  ****             thread_dispatch();
 641              		.loc 1 78 34 is_stmt 1 discriminator 3
 642 0174 B7770000 		li	a5,28672
 643 0178 9387F752 		addi	a5,a5,1327
 644 017c E3EEE7FC 		bgtu	a4,a5,.L36
  78:src/main.cpp  ****             thread_dispatch();
 645              		.loc 1 78 13 discriminator 2
 646 0180 13071700 		addi	a4,a4,1
 647              	.LVL58:
 648 0184 6FF01FFF 		j	.L37
 649              	.LVL59:
 650              	.L35:
 651              	.LBE54:
 652              	.LBE55:
 653              	.LBE52:
 654              	.LBE51:
  75:src/main.cpp  ****         printString("B: i="); printInteger(i); printString("\n");
 655              		.loc 1 75 5 discriminator 2
 656 0188 13091900 		addi	s2,s2,1
 657              	.LVL60:
 658              	.L39:
  75:src/main.cpp  ****         printString("B: i="); printInteger(i); printString("\n");
 659              		.loc 1 75 26 discriminator 1
 660 018c 9307F000 		li	a5,15
 661 0190 63EC2703 		bgtu	s2,a5,.L34
GAS LISTING /tmp/cc1CXh6x.s 			page 15


 662              	.LBB57:
  76:src/main.cpp  ****         for (uint64 j = 0; j < 10000; j++) {
 663              		.loc 1 76 9
  76:src/main.cpp  ****         for (uint64 j = 0; j < 10000; j++) {
 664              		.loc 1 76 20 is_stmt 0
 665 0194 17050000 		lla	a0,.LC3
 665      13050500 
 666 019c 97000000 		call	_Z11printStringPKc@plt
 666      E7800000 
 667              	.LVL61:
  76:src/main.cpp  ****         for (uint64 j = 0; j < 10000; j++) {
 668              		.loc 1 76 31 is_stmt 1
  76:src/main.cpp  ****         for (uint64 j = 0; j < 10000; j++) {
 669              		.loc 1 76 43 is_stmt 0
 670 01a4 13050900 		mv	a0,s2
 671 01a8 97000000 		call	_Z12printIntegerm@plt
 671      E7800000 
 672              	.LVL62:
  76:src/main.cpp  ****         for (uint64 j = 0; j < 10000; j++) {
 673              		.loc 1 76 48 is_stmt 1
  76:src/main.cpp  ****         for (uint64 j = 0; j < 10000; j++) {
 674              		.loc 1 76 59 is_stmt 0
 675 01b0 17050000 		lla	a0,.LC1
 675      13050500 
 676 01b8 97000000 		call	_Z11printStringPKc@plt
 676      E7800000 
 677              	.LVL63:
  77:src/main.cpp  ****             for (uint64 k = 0; k < 30000; k++) { /* busy wait */ }
 678              		.loc 1 77 9 is_stmt 1
 679              	.LBB56:
  77:src/main.cpp  ****             for (uint64 k = 0; k < 30000; k++) { /* busy wait */ }
 680              		.loc 1 77 21 is_stmt 0
 681 01c0 93040000 		li	s1,0
 682 01c4 6FF01FFA 		j	.L38
 683              	.LVL64:
 684              	.L34:
 685              	.LBE56:
 686              	.LBE57:
 687              	.LBE50:
  80:src/main.cpp  ****         }
  81:src/main.cpp  ****     }
  82:src/main.cpp  ****     printString("B finished!\n");
 688              		.loc 1 82 5 is_stmt 1
 689              		.loc 1 82 16 is_stmt 0
 690 01c8 17050000 		lla	a0,.LC4
 690      13050500 
 691 01d0 97000000 		call	_Z11printStringPKc@plt
 691      E7800000 
 692              	.LVL65:
  83:src/main.cpp  ****     finishedB = true;
 693              		.loc 1 83 5 is_stmt 1
 694              		.loc 1 83 15 is_stmt 0
 695 01d8 93071000 		li	a5,1
 696 01dc 17070000 		sb	a5,.LANCHOR0+1,a4
 696      2300F700 
  84:src/main.cpp  ****     thread_dispatch();
 697              		.loc 1 84 5 is_stmt 1
GAS LISTING /tmp/cc1CXh6x.s 			page 16


 698              		.loc 1 84 20 is_stmt 0
 699 01e4 97000000 		call	_Z15thread_dispatchv@plt
 699      E7800000 
 700              	.LVL66:
  85:src/main.cpp  **** }
 701              		.loc 1 85 1
 702 01ec 83308101 		ld	ra,24(sp)
 703              		.cfi_restore 1
 704 01f0 03340101 		ld	s0,16(sp)
 705              		.cfi_restore 8
 706              		.cfi_def_cfa 2, 32
 707 01f4 83348100 		ld	s1,8(sp)
 708              		.cfi_restore 9
 709 01f8 03390100 		ld	s2,0(sp)
 710              		.cfi_restore 18
 711              	.LVL67:
 712 01fc 13010102 		addi	sp,sp,32
 713              		.cfi_def_cfa_offset 0
 714 0200 67800000 		jr	ra
 715              		.cfi_endproc
 716              	.LFE47:
 718              		.section	.text._ZN7WorkerB3runEv,"axG",@progbits,_ZN7WorkerB3runEv,comdat
 719              		.align	2
 720              		.weak	_ZN7WorkerB3runEv
 722              	_ZN7WorkerB3runEv:
 723              	.LFB37:
  37:src/main.cpp  ****         workerBodyB(nullptr);
 724              		.loc 1 37 10 is_stmt 1
 725              		.cfi_startproc
 726              	.LVL68:
 727 0000 130101FF 		addi	sp,sp,-16
 728              		.cfi_def_cfa_offset 16
 729 0004 23341100 		sd	ra,8(sp)
 730 0008 23308100 		sd	s0,0(sp)
 731              		.cfi_offset 1, -8
 732              		.cfi_offset 8, -16
 733 000c 13040101 		addi	s0,sp,16
 734              		.cfi_def_cfa 8, 0
  38:src/main.cpp  ****     }
 735              		.loc 1 38 9
  38:src/main.cpp  ****     }
 736              		.loc 1 38 20 is_stmt 0
 737 0010 93050000 		li	a1,0
 738 0014 97000000 		call	_ZN7WorkerB11workerBodyBEPv
 738      E7800000 
 739              	.LVL69:
  39:src/main.cpp  **** };
 740              		.loc 1 39 5
 741 001c 83308100 		ld	ra,8(sp)
 742              		.cfi_restore 1
 743 0020 03340100 		ld	s0,0(sp)
 744              		.cfi_restore 8
 745              		.cfi_def_cfa 2, 16
 746 0024 13010101 		addi	sp,sp,16
 747              		.cfi_def_cfa_offset 0
 748 0028 67800000 		jr	ra
 749              		.cfi_endproc
GAS LISTING /tmp/cc1CXh6x.s 			page 17


 750              	.LFE37:
 752              		.section	.rodata.str1.8
 753 0035 000000   		.align	3
 754              	.LC5:
 755 0038 433A2069 		.string	"C: i="
 755      3D00
 756 003e 0000     		.align	3
 757              	.LC6:
 758 0040 433A2064 		.string	"C: dispatch\n"
 758      69737061 
 758      7463680A 
 758      00
 759 004d 000000   		.align	3
 760              	.LC7:
 761 0050 433A2074 		.string	"C: t1="
 761      313D00
 762 0057 00       		.align	3
 763              	.LC8:
 764 0058 433A2066 		.string	"C: fibonaci="
 764      69626F6E 
 764      6163693D 
 764      00
 765              		.text
 766              		.align	2
 767              		.globl	_ZN7WorkerC11workerBodyCEPv
 769              	_ZN7WorkerC11workerBodyCEPv:
 770              	.LFB48:
  86:src/main.cpp  **** 
  87:src/main.cpp  **** void WorkerC::workerBodyC(void *arg) {
 771              		.loc 1 87 38 is_stmt 1
 772              		.cfi_startproc
 773              	.LVL70:
 774 0204 130101FE 		addi	sp,sp,-32
 775              		.cfi_def_cfa_offset 32
 776 0208 233C1100 		sd	ra,24(sp)
 777 020c 23388100 		sd	s0,16(sp)
 778 0210 23349100 		sd	s1,8(sp)
 779 0214 23302101 		sd	s2,0(sp)
 780              		.cfi_offset 1, -8
 781              		.cfi_offset 8, -16
 782              		.cfi_offset 9, -24
 783              		.cfi_offset 18, -32
 784 0218 13040102 		addi	s0,sp,32
 785              		.cfi_def_cfa 8, 0
  88:src/main.cpp  ****     uint8 i = 0;
 786              		.loc 1 88 5
 787              	.LVL71:
 788              		.loc 1 88 11 is_stmt 0
 789 021c 93040000 		li	s1,0
 790 0220 6F008003 		j	.L45
 791              	.LVL72:
 792              	.L49:
  89:src/main.cpp  ****     for (; i < 3; i++) {
  90:src/main.cpp  ****         printString("C: i="); printInteger(i); printString("\n");
 793              		.loc 1 90 9 is_stmt 1 discriminator 1
 794              		.loc 1 90 20 is_stmt 0 discriminator 1
 795 0224 17050000 		lla	a0,.LC5
GAS LISTING /tmp/cc1CXh6x.s 			page 18


 795      13050500 
 796 022c 97000000 		call	_Z11printStringPKc@plt
 796      E7800000 
 797              	.LVL73:
 798              		.loc 1 90 31 is_stmt 1 discriminator 1
 799              		.loc 1 90 43 is_stmt 0 discriminator 1
 800 0234 13850400 		mv	a0,s1
 801 0238 97000000 		call	_Z12printIntegerm@plt
 801      E7800000 
 802              	.LVL74:
 803              		.loc 1 90 48 is_stmt 1 discriminator 1
 804              		.loc 1 90 59 is_stmt 0 discriminator 1
 805 0240 17050000 		lla	a0,.LC1
 805      13050500 
 806 0248 97000000 		call	_Z11printStringPKc@plt
 806      E7800000 
 807              	.LVL75:
  89:src/main.cpp  ****     for (; i < 3; i++) {
 808              		.loc 1 89 5 is_stmt 1 discriminator 1
 809 0250 9B841400 		addiw	s1,s1,1
 810              	.LVL76:
 811 0254 93F4F40F 		andi	s1,s1,0xff
 812              	.LVL77:
 813              	.L45:
  89:src/main.cpp  ****     for (; i < 3; i++) {
 814              		.loc 1 89 5 discriminator 2
  89:src/main.cpp  ****     for (; i < 3; i++) {
 815              		.loc 1 89 14 discriminator 2
 816 0258 93072000 		li	a5,2
 817 025c E3F497FC 		bleu	s1,a5,.L49
  91:src/main.cpp  ****     }
  92:src/main.cpp  **** 
  93:src/main.cpp  ****     printString("C: dispatch\n");
 818              		.loc 1 93 5
 819              		.loc 1 93 16 is_stmt 0
 820 0260 17050000 		lla	a0,.LC6
 820      13050500 
 821 0268 97000000 		call	_Z11printStringPKc@plt
 821      E7800000 
 822              	.LVL78:
  94:src/main.cpp  ****     __asm__ ("li t1, 7");
 823              		.loc 1 94 5 is_stmt 1
 824              		.loc 1 94 25 is_stmt 0
 825              	#APP
 826              	# 94 "src/main.cpp" 1
  95              	    thread_dispatch();
 827              		li t1, 7
 828              	# 0 "" 2
 829              		.loc 1 95 5 is_stmt 1
 830              		.loc 1 95 20 is_stmt 0
 831              	#NO_APP
 832 0274 97000000 		call	_Z15thread_dispatchv@plt
 832      E7800000 
 833              	.LVL79:
  96:src/main.cpp  **** 
  97:src/main.cpp  ****     uint64 t1 = 0;
 834              		.loc 1 97 5 is_stmt 1
GAS LISTING /tmp/cc1CXh6x.s 			page 19


  98:src/main.cpp  ****     __asm__ ("mv %[t1], t1" : [t1] "=r"(t1));
 835              		.loc 1 98 5
 836              		.loc 1 98 45 is_stmt 0
 837              	#APP
 838              	# 98 "src/main.cpp" 1
  99              	
 839              		mv s2, t1
 840              	# 0 "" 2
 841              	.LVL80:
 100:src/main.cpp  ****     printString("C: t1="); printInteger(t1); printString("\n");
 842              		.loc 1 100 5 is_stmt 1
 843              		.loc 1 100 16 is_stmt 0
 844              	#NO_APP
 845 0280 17050000 		lla	a0,.LC7
 845      13050500 
 846 0288 97000000 		call	_Z11printStringPKc@plt
 846      E7800000 
 847              	.LVL81:
 848              		.loc 1 100 28 is_stmt 1
 849              		.loc 1 100 40 is_stmt 0
 850 0290 13050900 		mv	a0,s2
 851 0294 97000000 		call	_Z12printIntegerm@plt
 851      E7800000 
 852              	.LVL82:
 853              		.loc 1 100 46 is_stmt 1
 854              		.loc 1 100 57 is_stmt 0
 855 029c 17050000 		lla	a0,.LC1
 855      13050500 
 856 02a4 97000000 		call	_Z11printStringPKc@plt
 856      E7800000 
 857              	.LVL83:
 101:src/main.cpp  **** 
 102:src/main.cpp  ****     uint64 result = fibonacci(12);
 858              		.loc 1 102 5 is_stmt 1
 859              		.loc 1 102 30 is_stmt 0
 860 02ac 1305C000 		li	a0,12
 861 02b0 97000000 		call	_Z9fibonaccim
 861      E7800000 
 862              	.LVL84:
 863 02b8 13090500 		mv	s2,a0
 864              	.LVL85:
 103:src/main.cpp  ****     printString("C: fibonaci="); printInteger(result); printString("\n");
 865              		.loc 1 103 5 is_stmt 1
 866              		.loc 1 103 16 is_stmt 0
 867 02bc 17050000 		lla	a0,.LC8
 867      13050500 
 868              	.LVL86:
 869 02c4 97000000 		call	_Z11printStringPKc@plt
 869      E7800000 
 870              	.LVL87:
 871              		.loc 1 103 34 is_stmt 1
 872              		.loc 1 103 46 is_stmt 0
 873 02cc 13050900 		mv	a0,s2
 874 02d0 97000000 		call	_Z12printIntegerm@plt
 874      E7800000 
 875              	.LVL88:
 876              		.loc 1 103 56 is_stmt 1
GAS LISTING /tmp/cc1CXh6x.s 			page 20


 877              		.loc 1 103 67 is_stmt 0
 878 02d8 17050000 		lla	a0,.LC1
 878      13050500 
 879 02e0 97000000 		call	_Z11printStringPKc@plt
 879      E7800000 
 880              	.LVL89:
 881 02e8 6F008003 		j	.L47
 882              	.L50:
 104:src/main.cpp  **** 
 105:src/main.cpp  ****     for (; i < 6; i++) {
 106:src/main.cpp  ****         printString("C: i="); printInteger(i); printString("\n");
 883              		.loc 1 106 9 is_stmt 1 discriminator 1
 884              		.loc 1 106 20 is_stmt 0 discriminator 1
 885 02ec 17050000 		lla	a0,.LC5
 885      13050500 
 886 02f4 97000000 		call	_Z11printStringPKc@plt
 886      E7800000 
 887              	.LVL90:
 888              		.loc 1 106 31 is_stmt 1 discriminator 1
 889              		.loc 1 106 43 is_stmt 0 discriminator 1
 890 02fc 13850400 		mv	a0,s1
 891 0300 97000000 		call	_Z12printIntegerm@plt
 891      E7800000 
 892              	.LVL91:
 893              		.loc 1 106 48 is_stmt 1 discriminator 1
 894              		.loc 1 106 59 is_stmt 0 discriminator 1
 895 0308 17050000 		lla	a0,.LC1
 895      13050500 
 896 0310 97000000 		call	_Z11printStringPKc@plt
 896      E7800000 
 897              	.LVL92:
 105:src/main.cpp  ****         printString("C: i="); printInteger(i); printString("\n");
 898              		.loc 1 105 5 is_stmt 1 discriminator 1
 899 0318 9B841400 		addiw	s1,s1,1
 900              	.LVL93:
 901 031c 93F4F40F 		andi	s1,s1,0xff
 902              	.LVL94:
 903              	.L47:
 105:src/main.cpp  ****         printString("C: i="); printInteger(i); printString("\n");
 904              		.loc 1 105 5 discriminator 2
 105:src/main.cpp  ****         printString("C: i="); printInteger(i); printString("\n");
 905              		.loc 1 105 14 discriminator 2
 906 0320 93075000 		li	a5,5
 907 0324 E3F497FC 		bleu	s1,a5,.L50
 107:src/main.cpp  ****     }
 108:src/main.cpp  **** 
 109:src/main.cpp  ****     printString("A finished!\n");
 908              		.loc 1 109 5
 909              		.loc 1 109 16 is_stmt 0
 910 0328 17050000 		lla	a0,.LC2
 910      13050500 
 911 0330 97000000 		call	_Z11printStringPKc@plt
 911      E7800000 
 912              	.LVL95:
 110:src/main.cpp  ****     finishedC = true;
 913              		.loc 1 110 5 is_stmt 1
 914              		.loc 1 110 15 is_stmt 0
GAS LISTING /tmp/cc1CXh6x.s 			page 21


 915 0338 93071000 		li	a5,1
 916 033c 17070000 		sb	a5,.LANCHOR0+2,a4
 916      2300F700 
 111:src/main.cpp  ****     thread_dispatch();
 917              		.loc 1 111 5 is_stmt 1
 918              		.loc 1 111 20 is_stmt 0
 919 0344 97000000 		call	_Z15thread_dispatchv@plt
 919      E7800000 
 920              	.LVL96:
 112:src/main.cpp  **** }
 921              		.loc 1 112 1
 922 034c 83308101 		ld	ra,24(sp)
 923              		.cfi_restore 1
 924 0350 03340101 		ld	s0,16(sp)
 925              		.cfi_restore 8
 926              		.cfi_def_cfa 2, 32
 927 0354 83348100 		ld	s1,8(sp)
 928              		.cfi_restore 9
 929              	.LVL97:
 930 0358 03390100 		ld	s2,0(sp)
 931              		.cfi_restore 18
 932              	.LVL98:
 933 035c 13010102 		addi	sp,sp,32
 934              		.cfi_def_cfa_offset 0
 935 0360 67800000 		jr	ra
 936              		.cfi_endproc
 937              	.LFE48:
 939              		.section	.text._ZN7WorkerC3runEv,"axG",@progbits,_ZN7WorkerC3runEv,comdat
 940              		.align	2
 941              		.weak	_ZN7WorkerC3runEv
 943              	_ZN7WorkerC3runEv:
 944              	.LFB41:
  47:src/main.cpp  ****         workerBodyC(nullptr);
 945              		.loc 1 47 10 is_stmt 1
 946              		.cfi_startproc
 947              	.LVL99:
 948 0000 130101FF 		addi	sp,sp,-16
 949              		.cfi_def_cfa_offset 16
 950 0004 23341100 		sd	ra,8(sp)
 951 0008 23308100 		sd	s0,0(sp)
 952              		.cfi_offset 1, -8
 953              		.cfi_offset 8, -16
 954 000c 13040101 		addi	s0,sp,16
 955              		.cfi_def_cfa 8, 0
  48:src/main.cpp  ****     }
 956              		.loc 1 48 9
  48:src/main.cpp  ****     }
 957              		.loc 1 48 20 is_stmt 0
 958 0010 93050000 		li	a1,0
 959 0014 97000000 		call	_ZN7WorkerC11workerBodyCEPv
 959      E7800000 
 960              	.LVL100:
  49:src/main.cpp  **** };
 961              		.loc 1 49 5
 962 001c 83308100 		ld	ra,8(sp)
 963              		.cfi_restore 1
 964 0020 03340100 		ld	s0,0(sp)
GAS LISTING /tmp/cc1CXh6x.s 			page 22


 965              		.cfi_restore 8
 966              		.cfi_def_cfa 2, 16
 967 0024 13010101 		addi	sp,sp,16
 968              		.cfi_def_cfa_offset 0
 969 0028 67800000 		jr	ra
 970              		.cfi_endproc
 971              	.LFE41:
 973              		.section	.rodata.str1.8
 974 0065 000000   		.align	3
 975              	.LC9:
 976 0068 443A2069 		.string	"D: i="
 976      3D00
 977 006e 0000     		.align	3
 978              	.LC10:
 979 0070 443A2064 		.string	"D: dispatch\n"
 979      69737061 
 979      7463680A 
 979      00
 980 007d 000000   		.align	3
 981              	.LC11:
 982 0080 443A2066 		.string	"D: fibonaci="
 982      69626F6E 
 982      6163693D 
 982      00
 983 008d 000000   		.align	3
 984              	.LC12:
 985 0090 44206669 		.string	"D finished!\n"
 985      6E697368 
 985      6564210A 
 985      00
 986              		.text
 987              		.align	2
 988              		.globl	_ZN7WorkerD11workerBodyDEPv
 990              	_ZN7WorkerD11workerBodyDEPv:
 991              	.LFB49:
 113:src/main.cpp  **** 
 114:src/main.cpp  **** void WorkerD::workerBodyD(void* arg) {
 992              		.loc 1 114 38 is_stmt 1
 993              		.cfi_startproc
 994              	.LVL101:
 995 0364 130101FE 		addi	sp,sp,-32
 996              		.cfi_def_cfa_offset 32
 997 0368 233C1100 		sd	ra,24(sp)
 998 036c 23388100 		sd	s0,16(sp)
 999 0370 23349100 		sd	s1,8(sp)
 1000 0374 23302101 		sd	s2,0(sp)
 1001              		.cfi_offset 1, -8
 1002              		.cfi_offset 8, -16
 1003              		.cfi_offset 9, -24
 1004              		.cfi_offset 18, -32
 1005 0378 13040102 		addi	s0,sp,32
 1006              		.cfi_def_cfa 8, 0
 115:src/main.cpp  ****     uint8 i = 10;
 1007              		.loc 1 115 5
 1008              	.LVL102:
 1009              		.loc 1 115 11 is_stmt 0
 1010 037c 9304A000 		li	s1,10
GAS LISTING /tmp/cc1CXh6x.s 			page 23


 1011 0380 6F008003 		j	.L55
 1012              	.LVL103:
 1013              	.L59:
 116:src/main.cpp  ****     for (; i < 13; i++) {
 117:src/main.cpp  ****         printString("D: i="); printInteger(i); printString("\n");
 1014              		.loc 1 117 9 is_stmt 1 discriminator 1
 1015              		.loc 1 117 20 is_stmt 0 discriminator 1
 1016 0384 17050000 		lla	a0,.LC9
 1016      13050500 
 1017 038c 97000000 		call	_Z11printStringPKc@plt
 1017      E7800000 
 1018              	.LVL104:
 1019              		.loc 1 117 31 is_stmt 1 discriminator 1
 1020              		.loc 1 117 43 is_stmt 0 discriminator 1
 1021 0394 13850400 		mv	a0,s1
 1022 0398 97000000 		call	_Z12printIntegerm@plt
 1022      E7800000 
 1023              	.LVL105:
 1024              		.loc 1 117 48 is_stmt 1 discriminator 1
 1025              		.loc 1 117 59 is_stmt 0 discriminator 1
 1026 03a0 17050000 		lla	a0,.LC1
 1026      13050500 
 1027 03a8 97000000 		call	_Z11printStringPKc@plt
 1027      E7800000 
 1028              	.LVL106:
 116:src/main.cpp  ****     for (; i < 13; i++) {
 1029              		.loc 1 116 5 is_stmt 1 discriminator 1
 1030 03b0 9B841400 		addiw	s1,s1,1
 1031              	.LVL107:
 1032 03b4 93F4F40F 		andi	s1,s1,0xff
 1033              	.LVL108:
 1034              	.L55:
 116:src/main.cpp  ****     for (; i < 13; i++) {
 1035              		.loc 1 116 5 discriminator 2
 116:src/main.cpp  ****     for (; i < 13; i++) {
 1036              		.loc 1 116 14 discriminator 2
 1037 03b8 9307C000 		li	a5,12
 1038 03bc E3F497FC 		bleu	s1,a5,.L59
 118:src/main.cpp  ****     }
 119:src/main.cpp  **** 
 120:src/main.cpp  ****     printString("D: dispatch\n");
 1039              		.loc 1 120 5
 1040              		.loc 1 120 16 is_stmt 0
 1041 03c0 17050000 		lla	a0,.LC10
 1041      13050500 
 1042 03c8 97000000 		call	_Z11printStringPKc@plt
 1042      E7800000 
 1043              	.LVL109:
 121:src/main.cpp  ****     __asm__ ("li t1, 5");
 1044              		.loc 1 121 5 is_stmt 1
 1045              		.loc 1 121 25 is_stmt 0
 1046              	#APP
 1047              	# 121 "src/main.cpp" 1
 122              	    thread_dispatch();
 1048              		li t1, 5
 1049              	# 0 "" 2
 1050              		.loc 1 122 5 is_stmt 1
GAS LISTING /tmp/cc1CXh6x.s 			page 24


 1051              		.loc 1 122 20 is_stmt 0
 1052              	#NO_APP
 1053 03d4 97000000 		call	_Z15thread_dispatchv@plt
 1053      E7800000 
 1054              	.LVL110:
 123:src/main.cpp  **** 
 124:src/main.cpp  ****     uint64 result = fibonacci(16);
 1055              		.loc 1 124 5 is_stmt 1
 1056              		.loc 1 124 30 is_stmt 0
 1057 03dc 13050001 		li	a0,16
 1058 03e0 97000000 		call	_Z9fibonaccim
 1058      E7800000 
 1059              	.LVL111:
 1060 03e8 13090500 		mv	s2,a0
 1061              	.LVL112:
 125:src/main.cpp  ****     printString("D: fibonaci="); printInteger(result); printString("\n");
 1062              		.loc 1 125 5 is_stmt 1
 1063              		.loc 1 125 16 is_stmt 0
 1064 03ec 17050000 		lla	a0,.LC11
 1064      13050500 
 1065              	.LVL113:
 1066 03f4 97000000 		call	_Z11printStringPKc@plt
 1066      E7800000 
 1067              	.LVL114:
 1068              		.loc 1 125 34 is_stmt 1
 1069              		.loc 1 125 46 is_stmt 0
 1070 03fc 13050900 		mv	a0,s2
 1071 0400 97000000 		call	_Z12printIntegerm@plt
 1071      E7800000 
 1072              	.LVL115:
 1073              		.loc 1 125 56 is_stmt 1
 1074              		.loc 1 125 67 is_stmt 0
 1075 0408 17050000 		lla	a0,.LC1
 1075      13050500 
 1076 0410 97000000 		call	_Z11printStringPKc@plt
 1076      E7800000 
 1077              	.LVL116:
 1078 0418 6F008003 		j	.L57
 1079              	.L60:
 126:src/main.cpp  **** 
 127:src/main.cpp  ****     for (; i < 16; i++) {
 128:src/main.cpp  ****         printString("D: i="); printInteger(i); printString("\n");
 1080              		.loc 1 128 9 is_stmt 1 discriminator 1
 1081              		.loc 1 128 20 is_stmt 0 discriminator 1
 1082 041c 17050000 		lla	a0,.LC9
 1082      13050500 
 1083 0424 97000000 		call	_Z11printStringPKc@plt
 1083      E7800000 
 1084              	.LVL117:
 1085              		.loc 1 128 31 is_stmt 1 discriminator 1
 1086              		.loc 1 128 43 is_stmt 0 discriminator 1
 1087 042c 13850400 		mv	a0,s1
 1088 0430 97000000 		call	_Z12printIntegerm@plt
 1088      E7800000 
 1089              	.LVL118:
 1090              		.loc 1 128 48 is_stmt 1 discriminator 1
 1091              		.loc 1 128 59 is_stmt 0 discriminator 1
GAS LISTING /tmp/cc1CXh6x.s 			page 25


 1092 0438 17050000 		lla	a0,.LC1
 1092      13050500 
 1093 0440 97000000 		call	_Z11printStringPKc@plt
 1093      E7800000 
 1094              	.LVL119:
 127:src/main.cpp  ****         printString("D: i="); printInteger(i); printString("\n");
 1095              		.loc 1 127 5 is_stmt 1 discriminator 1
 1096 0448 9B841400 		addiw	s1,s1,1
 1097              	.LVL120:
 1098 044c 93F4F40F 		andi	s1,s1,0xff
 1099              	.LVL121:
 1100              	.L57:
 127:src/main.cpp  ****         printString("D: i="); printInteger(i); printString("\n");
 1101              		.loc 1 127 5 discriminator 2
 127:src/main.cpp  ****         printString("D: i="); printInteger(i); printString("\n");
 1102              		.loc 1 127 14 discriminator 2
 1103 0450 9307F000 		li	a5,15
 1104 0454 E3F497FC 		bleu	s1,a5,.L60
 129:src/main.cpp  ****     }
 130:src/main.cpp  **** 
 131:src/main.cpp  ****     printString("D finished!\n");
 1105              		.loc 1 131 5
 1106              		.loc 1 131 16 is_stmt 0
 1107 0458 17050000 		lla	a0,.LC12
 1107      13050500 
 1108 0460 97000000 		call	_Z11printStringPKc@plt
 1108      E7800000 
 1109              	.LVL122:
 132:src/main.cpp  ****     finishedD = true;
 1110              		.loc 1 132 5 is_stmt 1
 1111              		.loc 1 132 15 is_stmt 0
 1112 0468 93071000 		li	a5,1
 1113 046c 17070000 		sb	a5,.LANCHOR0+3,a4
 1113      2300F700 
 133:src/main.cpp  ****     thread_dispatch();
 1114              		.loc 1 133 5 is_stmt 1
 1115              		.loc 1 133 20 is_stmt 0
 1116 0474 97000000 		call	_Z15thread_dispatchv@plt
 1116      E7800000 
 1117              	.LVL123:
 134:src/main.cpp  **** }
 1118              		.loc 1 134 1
 1119 047c 83308101 		ld	ra,24(sp)
 1120              		.cfi_restore 1
 1121 0480 03340101 		ld	s0,16(sp)
 1122              		.cfi_restore 8
 1123              		.cfi_def_cfa 2, 32
 1124 0484 83348100 		ld	s1,8(sp)
 1125              		.cfi_restore 9
 1126              	.LVL124:
 1127 0488 03390100 		ld	s2,0(sp)
 1128              		.cfi_restore 18
 1129              	.LVL125:
 1130 048c 13010102 		addi	sp,sp,32
 1131              		.cfi_def_cfa_offset 0
 1132 0490 67800000 		jr	ra
 1133              		.cfi_endproc
GAS LISTING /tmp/cc1CXh6x.s 			page 26


 1134              	.LFE49:
 1136              		.section	.text._ZN7WorkerD3runEv,"axG",@progbits,_ZN7WorkerD3runEv,comdat
 1137              		.align	2
 1138              		.weak	_ZN7WorkerD3runEv
 1140              	_ZN7WorkerD3runEv:
 1141              	.LFB45:
  57:src/main.cpp  ****         workerBodyD(nullptr);
 1142              		.loc 1 57 10 is_stmt 1
 1143              		.cfi_startproc
 1144              	.LVL126:
 1145 0000 130101FF 		addi	sp,sp,-16
 1146              		.cfi_def_cfa_offset 16
 1147 0004 23341100 		sd	ra,8(sp)
 1148 0008 23308100 		sd	s0,0(sp)
 1149              		.cfi_offset 1, -8
 1150              		.cfi_offset 8, -16
 1151 000c 13040101 		addi	s0,sp,16
 1152              		.cfi_def_cfa 8, 0
  58:src/main.cpp  ****     }
 1153              		.loc 1 58 9
  58:src/main.cpp  ****     }
 1154              		.loc 1 58 20 is_stmt 0
 1155 0010 93050000 		li	a1,0
 1156 0014 97000000 		call	_ZN7WorkerD11workerBodyDEPv
 1156      E7800000 
 1157              	.LVL127:
  59:src/main.cpp  **** };
 1158              		.loc 1 59 5
 1159 001c 83308100 		ld	ra,8(sp)
 1160              		.cfi_restore 1
 1161 0020 03340100 		ld	s0,0(sp)
 1162              		.cfi_restore 8
 1163              		.cfi_def_cfa 2, 16
 1164 0024 13010101 		addi	sp,sp,16
 1165              		.cfi_def_cfa_offset 0
 1166 0028 67800000 		jr	ra
 1167              		.cfi_endproc
 1168              	.LFE45:
 1170              		.section	.rodata.str1.8
 1171 009d 000000   		.align	3
 1172              	.LC13:
 1173 00a0 54687265 		.string	"ThreadA created\n"
 1173      61644120 
 1173      63726561 
 1173      7465640A 
 1173      00
 1174 00b1 00000000 		.align	3
 1174      000000
 1175              	.LC14:
 1176 00b8 54687265 		.string	"ThreadB created\n"
 1176      61644220 
 1176      63726561 
 1176      7465640A 
 1176      00
 1177 00c9 00000000 		.align	3
 1177      000000
 1178              	.LC15:
GAS LISTING /tmp/cc1CXh6x.s 			page 27


 1179 00d0 54687265 		.string	"ThreadC created\n"
 1179      61644320 
 1179      63726561 
 1179      7465640A 
 1179      00
 1180 00e1 00000000 		.align	3
 1180      000000
 1181              	.LC16:
 1182 00e8 54687265 		.string	"ThreadD created\n"
 1182      61644420 
 1182      63726561 
 1182      7465640A 
 1182      00
 1183              		.text
 1184              		.align	2
 1185              		.globl	main
 1187              	main:
 1188              	.LFB50:
 135:src/main.cpp  **** 
 136:src/main.cpp  **** extern "C" void interrupt();
 137:src/main.cpp  **** int main() {
 1189              		.loc 1 137 12 is_stmt 1
 1190              		.cfi_startproc
 1191              		.cfi_personality 0x9b,DW.ref.__gxx_personality_v0
 1192              		.cfi_lsda 0x1b,.LLSDA50
 1193 0494 130101FC 		addi	sp,sp,-64
 1194              		.cfi_def_cfa_offset 64
 1195 0498 233C1102 		sd	ra,56(sp)
 1196 049c 23388102 		sd	s0,48(sp)
 1197 04a0 23349102 		sd	s1,40(sp)
 1198 04a4 23302103 		sd	s2,32(sp)
 1199              		.cfi_offset 1, -8
 1200              		.cfi_offset 8, -16
 1201              		.cfi_offset 9, -24
 1202              		.cfi_offset 18, -32
 1203 04a8 13040104 		addi	s0,sp,64
 1204              		.cfi_def_cfa 8, 0
 138:src/main.cpp  ****     asm volatile("csrw stvec, %0" : : "r" (&interrupt));
 1205              		.loc 1 138 5
 1206              		.loc 1 138 56 is_stmt 0
 1207 04ac 97070000 		la	a5,interrupt
 1207      83B70700 
 1208              	#APP
 1209              	# 138 "src/main.cpp" 1
 139              	    PCB* main = PCB::createProccess(nullptr, nullptr); // main
 1210              		csrw stvec, a5
 1211              	# 0 "" 2
 1212              		.loc 1 139 5 is_stmt 1
 1213              		.loc 1 139 36 is_stmt 0
 1214              	#NO_APP
 1215 04b8 93050000 		li	a1,0
 1216 04bc 13050000 		li	a0,0
 1217              	.LEHB0:
 1218 04c0 97000000 		call	_ZN3PCB14createProccessEPFvvEPv@plt
 1218      E7800000 
 1219              	.LVL128:
 140:src/main.cpp  ****     PCB::running = main;
GAS LISTING /tmp/cc1CXh6x.s 			page 28


 1220              		.loc 1 140 5 is_stmt 1
 1221              		.loc 1 140 18 is_stmt 0
 1222 04c8 97070000 		la	a5,_ZN3PCB7runningE
 1222      83B70700 
 1223 04d0 23B0A700 		sd	a0,0(a5)
 141:src/main.cpp  ****     Kernel::ms_sstatus(Kernel::SSTATUS_SIE); // dozvoljavaju se prekidi
 1224              		.loc 1 141 5 is_stmt 1
 1225              	.LVL129:
 1226              	.LBB58:
 1227              	.LBB59:
 1228              		.file 2 "src/../h/kernel.h"
   1:src/../h/kernel.h **** #ifndef KERNEL_H
   2:src/../h/kernel.h **** #define KERNEL_H
   3:src/../h/kernel.h **** 
   4:src/../h/kernel.h **** #include "hw.h"
   5:src/../h/kernel.h **** 
   6:src/../h/kernel.h **** class Kernel {
   7:src/../h/kernel.h **** public:
   8:src/../h/kernel.h **** 
   9:src/../h/kernel.h ****     // postavlja code u registar a0
  10:src/../h/kernel.h ****     static size_t setCode(size_t code) {
  11:src/../h/kernel.h ****         return code;
  12:src/../h/kernel.h ****     }
  13:src/../h/kernel.h **** 
  14:src/../h/kernel.h ****     // kodovi po kojima se prepoznaju sistemski pozivi
  15:src/../h/kernel.h ****     enum sysCallCodes {
  16:src/../h/kernel.h ****         mem_alloc = 0x01,
  17:src/../h/kernel.h ****         mem_free = 0x02,
  18:src/../h/kernel.h ****         thread_create = 0x11,
  19:src/../h/kernel.h ****         thread_exit = 0x12,
  20:src/../h/kernel.h ****         thread_dispatch = 0x13,
  21:src/../h/kernel.h ****         thread_start = 0x14,
  22:src/../h/kernel.h ****         sem_open = 0x21,
  23:src/../h/kernel.h ****         sem_close = 0x22,
  24:src/../h/kernel.h ****         sem_wait = 0x23,
  25:src/../h/kernel.h ****         sem_signal = 0x24,
  26:src/../h/kernel.h ****         tim_sleep = 0x31,
  27:src/../h/kernel.h ****         getc = 0x41,
  28:src/../h/kernel.h ****         putc = 0x42
  29:src/../h/kernel.h ****     };
  30:src/../h/kernel.h **** 
  31:src/../h/kernel.h ****     // pop sstatus.spp and sstatus.spie bits (has to be a non inline function)
  32:src/../h/kernel.h ****     static void popSppSpie();
  33:src/../h/kernel.h **** 
  34:src/../h/kernel.h ****     // cita registar scause (uzrok nastanka prekida)
  35:src/../h/kernel.h ****     static size_t r_scause() {
  36:src/../h/kernel.h ****         size_t volatile scause;
  37:src/../h/kernel.h ****         __asm__ volatile ("csrr %[scause], scause" : [scause] "=r"(scause));
  38:src/../h/kernel.h ****         return scause;
  39:src/../h/kernel.h ****     }
  40:src/../h/kernel.h **** 
  41:src/../h/kernel.h ****     // upisuje u registar scause (uzrok nastanka prekida)
  42:src/../h/kernel.h ****     static void w_scause(size_t scause) {
  43:src/../h/kernel.h ****         __asm__ volatile ("csrw scause, %[scause]" : : [scause] "r"(scause));
  44:src/../h/kernel.h ****     }
  45:src/../h/kernel.h **** 
  46:src/../h/kernel.h ****     // cita registar sepc
GAS LISTING /tmp/cc1CXh6x.s 			page 29


  47:src/../h/kernel.h ****     static size_t r_sepc() {
  48:src/../h/kernel.h ****         size_t volatile sepc;
  49:src/../h/kernel.h ****         __asm__ volatile ("csrr %[sepc], sepc" : [sepc] "=r"(sepc));
  50:src/../h/kernel.h ****         return sepc;
  51:src/../h/kernel.h ****     }
  52:src/../h/kernel.h **** 
  53:src/../h/kernel.h ****     // upisuje u registar sepc
  54:src/../h/kernel.h ****     static void w_sepc(size_t sepc) {
  55:src/../h/kernel.h ****         __asm__ volatile ("csrw sepc, %[sepc]" : : [sepc] "r"(sepc));
  56:src/../h/kernel.h ****     }
  57:src/../h/kernel.h **** 
  58:src/../h/kernel.h ****     // read register stvec
  59:src/../h/kernel.h ****     static size_t r_stvec() {
  60:src/../h/kernel.h ****         size_t volatile stvec;
  61:src/../h/kernel.h ****         __asm__ volatile ("csrr %[stvec], stvec" : [stvec] "=r"(stvec));
  62:src/../h/kernel.h ****         return stvec;
  63:src/../h/kernel.h ****     }
  64:src/../h/kernel.h **** 
  65:src/../h/kernel.h ****     // write register stvec
  66:src/../h/kernel.h ****     static void w_stvec(size_t stvec) {
  67:src/../h/kernel.h ****         __asm__ volatile ("csrw stvec, %[stvec]" : : [stvec] "r"(stvec));
  68:src/../h/kernel.h ****     }
  69:src/../h/kernel.h **** 
  70:src/../h/kernel.h ****     // read register stval
  71:src/../h/kernel.h ****     static size_t r_stval() {
  72:src/../h/kernel.h ****         size_t volatile stval;
  73:src/../h/kernel.h ****         __asm__ volatile ("csrr %[stval], stval" : [stval] "=r"(stval));
  74:src/../h/kernel.h ****         return stval;
  75:src/../h/kernel.h ****     }
  76:src/../h/kernel.h **** 
  77:src/../h/kernel.h ****     // write register stval
  78:src/../h/kernel.h ****     static void w_stval(size_t stval) {
  79:src/../h/kernel.h ****         __asm__ volatile ("csrw stval, %[stval]" : : [stval] "r"(stval));
  80:src/../h/kernel.h ****     }
  81:src/../h/kernel.h **** 
  82:src/../h/kernel.h ****     enum BitMaskSip
  83:src/../h/kernel.h ****     {
  84:src/../h/kernel.h ****         SIP_SSIE = (1 << 1), // da li su dozvoljeni softverski prekidi
  85:src/../h/kernel.h ****         SIP_SEIE = (1 << 9), // da li su dozvoljeni spoljasnji hardverski prekidi
  86:src/../h/kernel.h ****     };
  87:src/../h/kernel.h **** 
  88:src/../h/kernel.h ****     // postavljanje odredjenih bitova (BitMaskSip) u registar sip
  89:src/../h/kernel.h ****     static void ms_sip(size_t mask) {
  90:src/../h/kernel.h ****         __asm__ volatile ("csrs sip, %[mask]" : : [mask] "r"(mask));
  91:src/../h/kernel.h ****     }
  92:src/../h/kernel.h **** 
  93:src/../h/kernel.h ****     // brisanje odredjenih bitova (BitMaskSip) iz registra sip
  94:src/../h/kernel.h ****     static void mc_sip(size_t mask) {
  95:src/../h/kernel.h ****         __asm__ volatile ("csrc sip, %[mask]" : : [mask] "r"(mask));
  96:src/../h/kernel.h ****     }
  97:src/../h/kernel.h **** 
  98:src/../h/kernel.h ****     // citanje iz registra sip
  99:src/../h/kernel.h ****     static size_t r_sip() {
 100:src/../h/kernel.h ****         size_t volatile sip;
 101:src/../h/kernel.h ****         __asm__ volatile ("csrr %[sip], sip" : [sip] "=r"(sip));
 102:src/../h/kernel.h ****         return sip;
 103:src/../h/kernel.h ****     }
GAS LISTING /tmp/cc1CXh6x.s 			page 30


 104:src/../h/kernel.h **** 
 105:src/../h/kernel.h ****     // upis u registar sip
 106:src/../h/kernel.h ****     static void w_sip(size_t sip) {
 107:src/../h/kernel.h ****         __asm__ volatile ("csrw sip, %[sip]" : : [sip] "r"(sip));
 108:src/../h/kernel.h ****     }
 109:src/../h/kernel.h **** 
 110:src/../h/kernel.h ****     enum BitMaskSstatus
 111:src/../h/kernel.h ****     {
 112:src/../h/kernel.h ****         SSTATUS_SIE = (1 << 1),
 113:src/../h/kernel.h ****         SSTATUS_SPIE = (1 << 5),
 114:src/../h/kernel.h ****         SSTATUS_SPP = (1 << 8),
 115:src/../h/kernel.h ****     };
 116:src/../h/kernel.h **** 
 117:src/../h/kernel.h ****     // mask set register sstatus
 118:src/../h/kernel.h ****     static void ms_sstatus(size_t mask) {
 119:src/../h/kernel.h ****         __asm__ volatile ("csrs sstatus, %[mask]" : : [mask] "r"(mask));
 1229              		.loc 2 119 9
 1230              		.loc 2 119 72 is_stmt 0
 1231 04d4 93072000 		li	a5,2
 1232              	#APP
 1233              	# 119 "src/../h/kernel.h" 1
 120              	    }
 1234              		csrs sstatus, a5
 1235              	# 0 "" 2
 1236              	.LVL130:
 1237              	#NO_APP
 1238              	.LBE59:
 1239              	.LBE58:
 142:src/main.cpp  **** 
 143:src/main.cpp  ****     Thread* threads[4];
 1240              		.loc 1 143 5 is_stmt 1
 144:src/main.cpp  **** 
 145:src/main.cpp  ****     threads[0] = new WorkerA();
 1241              		.loc 1 145 5
 1242              		.loc 1 145 30 is_stmt 0
 1243 04dc 13050001 		li	a0,16
 1244              	.LVL131:
 1245 04e0 97000000 		call	_ZN6ThreadnwEm@plt
 1245      E7800000 
 1246              	.LVL132:
 1247              	.LEHE0:
 1248 04e8 93040500 		mv	s1,a0
 1249              	.LVL133:
 1250              	.LEHB1:
 1251              	.LBB60:
 1252              	.LBB61:
  25:src/main.cpp  **** 
 1253              		.loc 1 25 22
 1254 04ec 97000000 		call	_ZN6ThreadC2Ev@plt
 1254      E7800000 
 1255              	.LVL134:
 1256              	.LEHE1:
 1257 04f4 97070000 		lla	a5,_ZTV7WorkerA+16
 1257      93870700 
 1258 04fc 23B0F400 		sd	a5,0(s1)
 1259              	.LVL135:
 1260              	.LBE61:
GAS LISTING /tmp/cc1CXh6x.s 			page 31


 1261              	.LBE60:
 1262              		.loc 1 145 16
 1263 0500 233094FC 		sd	s1,-64(s0)
 146:src/main.cpp  ****     printString("ThreadA created\n");
 1264              		.loc 1 146 5 is_stmt 1
 1265              		.loc 1 146 16 is_stmt 0
 1266 0504 17050000 		lla	a0,.LC13
 1266      13050500 
 1267              	.LEHB2:
 1268 050c 97000000 		call	_Z11printStringPKc@plt
 1268      E7800000 
 1269              	.LVL136:
 147:src/main.cpp  **** 
 148:src/main.cpp  ****     threads[1] = new WorkerB();
 1270              		.loc 1 148 5 is_stmt 1
 1271              		.loc 1 148 30 is_stmt 0
 1272 0514 13050001 		li	a0,16
 1273 0518 97000000 		call	_ZN6ThreadnwEm@plt
 1273      E7800000 
 1274              	.LVL137:
 1275              	.LEHE2:
 1276 0520 93040500 		mv	s1,a0
 1277              	.LVL138:
 1278              	.LEHB3:
 1279              	.LBB62:
 1280              	.LBB63:
  35:src/main.cpp  **** 
 1281              		.loc 1 35 22
 1282 0524 97000000 		call	_ZN6ThreadC2Ev@plt
 1282      E7800000 
 1283              	.LVL139:
 1284              	.LEHE3:
 1285 052c 97070000 		lla	a5,_ZTV7WorkerB+16
 1285      93870700 
 1286 0534 23B0F400 		sd	a5,0(s1)
 1287              	.LVL140:
 1288              	.LBE63:
 1289              	.LBE62:
 1290              		.loc 1 148 16
 1291 0538 233494FC 		sd	s1,-56(s0)
 149:src/main.cpp  ****     printString("ThreadB created\n");
 1292              		.loc 1 149 5 is_stmt 1
 1293              		.loc 1 149 16 is_stmt 0
 1294 053c 17050000 		lla	a0,.LC14
 1294      13050500 
 1295              	.LEHB4:
 1296 0544 97000000 		call	_Z11printStringPKc@plt
 1296      E7800000 
 1297              	.LVL141:
 150:src/main.cpp  **** 
 151:src/main.cpp  ****     threads[2] = new WorkerC();
 1298              		.loc 1 151 5 is_stmt 1
 1299              		.loc 1 151 30 is_stmt 0
 1300 054c 13050001 		li	a0,16
 1301 0550 97000000 		call	_ZN6ThreadnwEm@plt
 1301      E7800000 
 1302              	.LVL142:
GAS LISTING /tmp/cc1CXh6x.s 			page 32


 1303              	.LEHE4:
 1304 0558 93040500 		mv	s1,a0
 1305              	.LVL143:
 1306              	.LEHB5:
 1307              	.LBB64:
 1308              	.LBB65:
  45:src/main.cpp  **** 
 1309              		.loc 1 45 22
 1310 055c 97000000 		call	_ZN6ThreadC2Ev@plt
 1310      E7800000 
 1311              	.LVL144:
 1312              	.LEHE5:
 1313 0564 97070000 		lla	a5,_ZTV7WorkerC+16
 1313      93870700 
 1314 056c 23B0F400 		sd	a5,0(s1)
 1315              	.LVL145:
 1316              	.LBE65:
 1317              	.LBE64:
 1318              		.loc 1 151 16
 1319 0570 233894FC 		sd	s1,-48(s0)
 152:src/main.cpp  ****     printString("ThreadC created\n");
 1320              		.loc 1 152 5 is_stmt 1
 1321              		.loc 1 152 16 is_stmt 0
 1322 0574 17050000 		lla	a0,.LC15
 1322      13050500 
 1323              	.LEHB6:
 1324 057c 97000000 		call	_Z11printStringPKc@plt
 1324      E7800000 
 1325              	.LVL146:
 153:src/main.cpp  **** 
 154:src/main.cpp  ****     threads[3] = new WorkerD();
 1326              		.loc 1 154 5 is_stmt 1
 1327              		.loc 1 154 30 is_stmt 0
 1328 0584 13050001 		li	a0,16
 1329 0588 97000000 		call	_ZN6ThreadnwEm@plt
 1329      E7800000 
 1330              	.LVL147:
 1331              	.LEHE6:
 1332 0590 93040500 		mv	s1,a0
 1333              	.LVL148:
 1334              	.LEHB7:
 1335              	.LBB66:
 1336              	.LBB67:
  55:src/main.cpp  **** 
 1337              		.loc 1 55 22
 1338 0594 97000000 		call	_ZN6ThreadC2Ev@plt
 1338      E7800000 
 1339              	.LVL149:
 1340              	.LEHE7:
 1341 059c 97070000 		lla	a5,_ZTV7WorkerD+16
 1341      93870700 
 1342 05a4 23B0F400 		sd	a5,0(s1)
 1343              	.LVL150:
 1344              	.LBE67:
 1345              	.LBE66:
 1346              		.loc 1 154 16
 1347 05a8 233C94FC 		sd	s1,-40(s0)
GAS LISTING /tmp/cc1CXh6x.s 			page 33


 155:src/main.cpp  ****     printString("ThreadD created\n");
 1348              		.loc 1 155 5 is_stmt 1
 1349              		.loc 1 155 16 is_stmt 0
 1350 05ac 17050000 		lla	a0,.LC16
 1350      13050500 
 1351              	.LEHB8:
 1352 05b4 97000000 		call	_Z11printStringPKc@plt
 1352      E7800000 
 1353              	.LVL151:
 1354              	.LBB68:
 156:src/main.cpp  **** 
 157:src/main.cpp  ****     for(int i=0; i<4; i++) {
 1355              		.loc 1 157 13
 1356 05bc 93040000 		li	s1,0
 1357              	.L65:
 1358              	.LVL152:
 1359              		.loc 1 157 19 is_stmt 1 discriminator 1
 1360 05c0 93073000 		li	a5,3
 1361 05c4 63C69702 		bgt	s1,a5,.L64
 158:src/main.cpp  ****         threads[i]->start();
 1362              		.loc 1 158 9
 1363              		.loc 1 158 18 is_stmt 0
 1364 05c8 93973400 		slli	a5,s1,3
 1365 05cc 130704FE 		addi	a4,s0,-32
 1366 05d0 B307F700 		add	a5,a4,a5
 1367              		.loc 1 158 26
 1368 05d4 03B507FE 		ld	a0,-32(a5)
 1369 05d8 97000000 		call	_ZN6Thread5startEv@plt
 1369      E7800000 
 1370              	.LVL153:
 157:src/main.cpp  ****         threads[i]->start();
 1371              		.loc 1 157 5 is_stmt 1
 1372 05e0 9B841400 		addiw	s1,s1,1
 1373              	.LVL154:
 1374 05e4 6FF0DFFD 		j	.L65
 1375              	.LVL155:
 1376              	.L66:
 1377              	.LBE68:
 159:src/main.cpp  ****     }
 160:src/main.cpp  **** 
 161:src/main.cpp  ****     while (!(finishedA && finishedB && finishedC && finishedD)) {
 162:src/main.cpp  ****         Thread::dispatch();
 1378              		.loc 1 162 9
 1379              		.loc 1 162 25 is_stmt 0
 1380 05e8 97000000 		call	_ZN6Thread8dispatchEv@plt
 1380      E7800000 
 1381              	.LVL156:
 1382              	.LEHE8:
 1383              	.L64:
 161:src/main.cpp  ****         Thread::dispatch();
 1384              		.loc 1 161 5 is_stmt 1
 161:src/main.cpp  ****         Thread::dispatch();
 1385              		.loc 1 161 12
 1386 05f0 97070000 		lbu	a5,.LANCHOR0
 1386      83C70700 
 1387 05f8 E38807FE 		beqz	a5,.L66
 161:src/main.cpp  ****         Thread::dispatch();
GAS LISTING /tmp/cc1CXh6x.s 			page 34


 1388              		.loc 1 161 24 is_stmt 0 discriminator 1
 1389 05fc 97070000 		lbu	a5,.LANCHOR0+1
 1389      83C70700 
 1390 0604 E38207FE 		beqz	a5,.L66
 161:src/main.cpp  ****         Thread::dispatch();
 1391              		.loc 1 161 37 discriminator 2
 1392 0608 97070000 		lbu	a5,.LANCHOR0+2
 1392      83C70700 
 1393 0610 E38C07FC 		beqz	a5,.L66
 161:src/main.cpp  ****         Thread::dispatch();
 1394              		.loc 1 161 12 discriminator 3
 1395 0614 97070000 		lbu	a5,.LANCHOR0+3
 1395      83C70700 
 1396 061c E38607FC 		beqz	a5,.L66
 1397              	.LBB69:
 163:src/main.cpp  ****     }
 164:src/main.cpp  **** 
 165:src/main.cpp  ****     for (auto thread: threads) { delete thread; }
 1398              		.loc 1 165 23
 1399 0620 930404FC 		addi	s1,s0,-64
 1400              	.LVL157:
 1401 0624 6F008000 		j	.L67
 1402              	.LVL158:
 1403              	.L69:
 1404              		.loc 1 165 5 is_stmt 1 discriminator 5
 1405 0628 93848400 		addi	s1,s1,8
 1406              	.LVL159:
 1407              	.L67:
 1408              		.loc 1 165 23 discriminator 6
 1409 062c 930704FE 		addi	a5,s0,-32
 1410 0630 6386F408 		beq	s1,a5,.L79
 1411              		.loc 1 165 15 is_stmt 0 discriminator 2
 1412 0634 03B50400 		ld	a0,0(s1)
 1413              	.LVL160:
 1414              		.loc 1 165 34 is_stmt 1 discriminator 2
 1415              		.loc 1 165 47 is_stmt 0 discriminator 2
 1416 0638 E30805FE 		beqz	a0,.L69
 1417              		.loc 1 165 41 discriminator 3
 1418 063c 83370500 		ld	a5,0(a0)
 1419 0640 83B78700 		ld	a5,8(a5)
 1420 0644 E7800700 		jalr	a5
 1421              	.LVL161:
 1422 0648 6FF01FFE 		j	.L69
 1423              	.LVL162:
 1424              	.L75:
 1425 064c 13090500 		mv	s2,a0
 1426              	.LBE69:
 145:src/main.cpp  ****     printString("ThreadA created\n");
 1427              		.loc 1 145 30
 1428 0650 13850400 		mv	a0,s1
 1429 0654 97000000 		call	_ZN6ThreaddlEPv@plt
 1429      E7800000 
 1430              	.LVL163:
 1431 065c 13050900 		mv	a0,s2
 1432              	.LEHB9:
 1433 0660 97000000 		call	_Unwind_Resume@plt
 1433      E7800000 
GAS LISTING /tmp/cc1CXh6x.s 			page 35


 1434              	.LVL164:
 1435              	.LEHE9:
 1436              	.L76:
 1437 0668 13090500 		mv	s2,a0
 148:src/main.cpp  ****     printString("ThreadB created\n");
 1438              		.loc 1 148 30
 1439 066c 13850400 		mv	a0,s1
 1440 0670 97000000 		call	_ZN6ThreaddlEPv@plt
 1440      E7800000 
 1441              	.LVL165:
 1442 0678 13050900 		mv	a0,s2
 1443              	.LEHB10:
 1444 067c 97000000 		call	_Unwind_Resume@plt
 1444      E7800000 
 1445              	.LVL166:
 1446              	.LEHE10:
 1447              	.L77:
 1448 0684 13090500 		mv	s2,a0
 151:src/main.cpp  ****     printString("ThreadC created\n");
 1449              		.loc 1 151 30
 1450 0688 13850400 		mv	a0,s1
 1451 068c 97000000 		call	_ZN6ThreaddlEPv@plt
 1451      E7800000 
 1452              	.LVL167:
 1453 0694 13050900 		mv	a0,s2
 1454              	.LEHB11:
 1455 0698 97000000 		call	_Unwind_Resume@plt
 1455      E7800000 
 1456              	.LVL168:
 1457              	.LEHE11:
 1458              	.L78:
 1459 06a0 13090500 		mv	s2,a0
 154:src/main.cpp  ****     printString("ThreadD created\n");
 1460              		.loc 1 154 30
 1461 06a4 13850400 		mv	a0,s1
 1462 06a8 97000000 		call	_ZN6ThreaddlEPv@plt
 1462      E7800000 
 1463              	.LVL169:
 1464 06b0 13050900 		mv	a0,s2
 1465              	.LEHB12:
 1466 06b4 97000000 		call	_Unwind_Resume@plt
 1466      E7800000 
 1467              	.LVL170:
 1468              	.LEHE12:
 1469              	.L79:
 166:src/main.cpp  **** 
 167:src/main.cpp  ****     return 0;
 168:src/main.cpp  **** }
 1470              		.loc 1 168 1
 1471 06bc 13050000 		li	a0,0
 1472 06c0 83308103 		ld	ra,56(sp)
 1473              		.cfi_restore 1
 1474 06c4 03340103 		ld	s0,48(sp)
 1475              		.cfi_restore 8
 1476              		.cfi_def_cfa 2, 64
 1477 06c8 83348102 		ld	s1,40(sp)
 1478              		.cfi_restore 9
GAS LISTING /tmp/cc1CXh6x.s 			page 36


 1479              	.LVL171:
 1480 06cc 03390102 		ld	s2,32(sp)
 1481              		.cfi_restore 18
 1482 06d0 13010104 		addi	sp,sp,64
 1483              		.cfi_def_cfa_offset 0
 1484 06d4 67800000 		jr	ra
 1485              		.cfi_endproc
 1486              	.LFE50:
 1487              		.globl	__gxx_personality_v0
 1488              		.section	.gcc_except_table,"a",@progbits
 1489              	.LLSDA50:
 1490 0000 FF       		.byte	0xff
 1491 0001 FF       		.byte	0xff
 1492 0002 03       		.byte	0x3
 1493 0003 A901     		.byte	0xa9,0x1
 1494 0005 00000000 		.4byte	.LEHB0-.LFB50
 1495 0009 00000000 		.4byte	.LEHE0-.LEHB0
 1496 000d 00000000 		.4byte	0
 1497 0011 00       		.byte	0
 1498 0012 00000000 		.4byte	.LEHB1-.LFB50
 1499 0016 00000000 		.4byte	.LEHE1-.LEHB1
 1500 001a 00000000 		.4byte	.L75-.LFB50
 1501 001e 00       		.byte	0
 1502 001f 00000000 		.4byte	.LEHB2-.LFB50
 1503 0023 00000000 		.4byte	.LEHE2-.LEHB2
 1504 0027 00000000 		.4byte	0
 1505 002b 00       		.byte	0
 1506 002c 00000000 		.4byte	.LEHB3-.LFB50
 1507 0030 00000000 		.4byte	.LEHE3-.LEHB3
 1508 0034 00000000 		.4byte	.L76-.LFB50
 1509 0038 00       		.byte	0
 1510 0039 00000000 		.4byte	.LEHB4-.LFB50
 1511 003d 00000000 		.4byte	.LEHE4-.LEHB4
 1512 0041 00000000 		.4byte	0
 1513 0045 00       		.byte	0
 1514 0046 00000000 		.4byte	.LEHB5-.LFB50
 1515 004a 00000000 		.4byte	.LEHE5-.LEHB5
 1516 004e 00000000 		.4byte	.L77-.LFB50
 1517 0052 00       		.byte	0
 1518 0053 00000000 		.4byte	.LEHB6-.LFB50
 1519 0057 00000000 		.4byte	.LEHE6-.LEHB6
 1520 005b 00000000 		.4byte	0
 1521 005f 00       		.byte	0
 1522 0060 00000000 		.4byte	.LEHB7-.LFB50
 1523 0064 00000000 		.4byte	.LEHE7-.LEHB7
 1524 0068 00000000 		.4byte	.L78-.LFB50
 1525 006c 00       		.byte	0
 1526 006d 00000000 		.4byte	.LEHB8-.LFB50
 1527 0071 00000000 		.4byte	.LEHE8-.LEHB8
 1528 0075 00000000 		.4byte	0
 1529 0079 00       		.byte	0
 1530 007a 00000000 		.4byte	.LEHB9-.LFB50
 1531 007e 00000000 		.4byte	.LEHE9-.LEHB9
 1532 0082 00000000 		.4byte	0
 1533 0086 00       		.byte	0
 1534 0087 00000000 		.4byte	.LEHB10-.LFB50
 1535 008b 00000000 		.4byte	.LEHE10-.LEHB10
GAS LISTING /tmp/cc1CXh6x.s 			page 37


 1536 008f 00000000 		.4byte	0
 1537 0093 00       		.byte	0
 1538 0094 00000000 		.4byte	.LEHB11-.LFB50
 1539 0098 00000000 		.4byte	.LEHE11-.LEHB11
 1540 009c 00000000 		.4byte	0
 1541 00a0 00       		.byte	0
 1542 00a1 00000000 		.4byte	.LEHB12-.LFB50
 1543 00a5 00000000 		.4byte	.LEHE12-.LEHB12
 1544 00a9 00000000 		.4byte	0
 1545 00ad 00       		.byte	0
 1546              		.text
 1548              		.weak	_ZTV7WorkerA
 1549              		.section	.data.rel.ro.local._ZTV7WorkerA,"awG",@progbits,_ZTV7WorkerA,comdat
 1550              		.align	3
 1553              	_ZTV7WorkerA:
 1554 0000 00000000 		.dword	0
 1554      00000000 
 1555 0008 00000000 		.dword	0
 1555      00000000 
 1556 0010 00000000 		.dword	_ZN7WorkerAD1Ev
 1556      00000000 
 1557 0018 00000000 		.dword	_ZN7WorkerAD0Ev
 1557      00000000 
 1558 0020 00000000 		.dword	_ZN7WorkerA3runEv
 1558      00000000 
 1559              		.weak	_ZTV7WorkerB
 1560              		.section	.data.rel.ro.local._ZTV7WorkerB,"awG",@progbits,_ZTV7WorkerB,comdat
 1561              		.align	3
 1564              	_ZTV7WorkerB:
 1565 0000 00000000 		.dword	0
 1565      00000000 
 1566 0008 00000000 		.dword	0
 1566      00000000 
 1567 0010 00000000 		.dword	_ZN7WorkerBD1Ev
 1567      00000000 
 1568 0018 00000000 		.dword	_ZN7WorkerBD0Ev
 1568      00000000 
 1569 0020 00000000 		.dword	_ZN7WorkerB3runEv
 1569      00000000 
 1570              		.weak	_ZTV7WorkerC
 1571              		.section	.data.rel.ro.local._ZTV7WorkerC,"awG",@progbits,_ZTV7WorkerC,comdat
 1572              		.align	3
 1575              	_ZTV7WorkerC:
 1576 0000 00000000 		.dword	0
 1576      00000000 
 1577 0008 00000000 		.dword	0
 1577      00000000 
 1578 0010 00000000 		.dword	_ZN7WorkerCD1Ev
 1578      00000000 
 1579 0018 00000000 		.dword	_ZN7WorkerCD0Ev
 1579      00000000 
 1580 0020 00000000 		.dword	_ZN7WorkerC3runEv
 1580      00000000 
 1581              		.weak	_ZTV7WorkerD
 1582              		.section	.data.rel.ro.local._ZTV7WorkerD,"awG",@progbits,_ZTV7WorkerD,comdat
 1583              		.align	3
 1586              	_ZTV7WorkerD:
GAS LISTING /tmp/cc1CXh6x.s 			page 38


 1587 0000 00000000 		.dword	0
 1587      00000000 
 1588 0008 00000000 		.dword	0
 1588      00000000 
 1589 0010 00000000 		.dword	_ZN7WorkerDD1Ev
 1589      00000000 
 1590 0018 00000000 		.dword	_ZN7WorkerDD0Ev
 1590      00000000 
 1591 0020 00000000 		.dword	_ZN7WorkerD3runEv
 1591      00000000 
 1592              		.globl	finishedD
 1593              		.globl	finishedC
 1594              		.globl	finishedB
 1595              		.globl	finishedA
 1596              		.bss
 1597              		.set	.LANCHOR0,. + 0
 1600              	finishedA:
 1601 0000 00       		.zero	1
 1604              	finishedB:
 1605 0001 00       		.zero	1
 1608              	finishedC:
 1609 0002 00       		.zero	1
 1612              	finishedD:
 1613 0003 00       		.zero	1
 1614              		.text
 1615              	.Letext0:
 1616              		.file 3 "src/../h/hw.h"
 1617              		.file 4 "src/../h/PCB.h"
 1618              		.file 5 "src/../h/syscall_cpp.h"
 1619              		.file 6 "src/../h/print.h"
 1620              		.file 7 "src/../h/syscall_c.h"
 6408              		.align	3
 6411              	DW.ref.__gxx_personality_v0:
 6412 0000 00000000 		.dword	__gxx_personality_v0
 6412      00000000 
 6413              		.ident	"GCC: (Ubuntu 9.4.0-1ubuntu1~20.04) 9.4.0"
 6414              		.section	.note.GNU-stack,"",@progbits
GAS LISTING /tmp/cc1CXh6x.s 			page 39


DEFINED SYMBOLS
                            *ABS*:0000000000000000 main.cpp
     /tmp/cc1CXh6x.s:10     .text._ZN7WorkerAD2Ev:0000000000000000 _ZN7WorkerAD2Ev
     /tmp/cc1CXh6x.s:14     .text._ZN7WorkerAD2Ev:0000000000000000 .L0 
     /tmp/cc1CXh6x.s:16     .text._ZN7WorkerAD2Ev:0000000000000000 .L0 
     /tmp/cc1CXh6x.s:17     .text._ZN7WorkerAD2Ev:0000000000000004 .L0 
     /tmp/cc1CXh6x.s:20     .text._ZN7WorkerAD2Ev:000000000000000c .L0 
     /tmp/cc1CXh6x.s:21     .text._ZN7WorkerAD2Ev:000000000000000c .L0 
     /tmp/cc1CXh6x.s:23     .text._ZN7WorkerAD2Ev:0000000000000010 .L0 
     /tmp/cc1CXh6x.s:1553   .data.rel.ro.local._ZTV7WorkerA:0000000000000000 _ZTV7WorkerA
     /tmp/cc1CXh6x.s:26     .text._ZN7WorkerAD2Ev:0000000000000010 .L0 
     /tmp/cc1CXh6x.s:32     .text._ZN7WorkerAD2Ev:0000000000000028 .L0 
     /tmp/cc1CXh6x.s:34     .text._ZN7WorkerAD2Ev:000000000000002c .L0 
     /tmp/cc1CXh6x.s:35     .text._ZN7WorkerAD2Ev:000000000000002c .L0 
     /tmp/cc1CXh6x.s:37     .text._ZN7WorkerAD2Ev:0000000000000030 .L0 
     /tmp/cc1CXh6x.s:39     .text._ZN7WorkerAD2Ev:0000000000000034 .L0 
     /tmp/cc1CXh6x.s:10     .text._ZN7WorkerAD2Ev:0000000000000000 _ZN7WorkerAD1Ev
     /tmp/cc1CXh6x.s:48     .text._ZN7WorkerAD0Ev:0000000000000000 _ZN7WorkerAD0Ev
     /tmp/cc1CXh6x.s:51     .text._ZN7WorkerAD0Ev:0000000000000000 .L0 
     /tmp/cc1CXh6x.s:53     .text._ZN7WorkerAD0Ev:0000000000000000 .L0 
     /tmp/cc1CXh6x.s:54     .text._ZN7WorkerAD0Ev:0000000000000004 .L0 
     /tmp/cc1CXh6x.s:58     .text._ZN7WorkerAD0Ev:0000000000000010 .L0 
     /tmp/cc1CXh6x.s:59     .text._ZN7WorkerAD0Ev:0000000000000010 .L0 
     /tmp/cc1CXh6x.s:60     .text._ZN7WorkerAD0Ev:0000000000000010 .L0 
     /tmp/cc1CXh6x.s:62     .text._ZN7WorkerAD0Ev:0000000000000014 .L0 
     /tmp/cc1CXh6x.s:68     .text._ZN7WorkerAD0Ev:0000000000000018 .L0 
     /tmp/cc1CXh6x.s:78     .text._ZN7WorkerAD0Ev:000000000000003c .L0 
     /tmp/cc1CXh6x.s:80     .text._ZN7WorkerAD0Ev:0000000000000040 .L0 
     /tmp/cc1CXh6x.s:81     .text._ZN7WorkerAD0Ev:0000000000000040 .L0 
     /tmp/cc1CXh6x.s:83     .text._ZN7WorkerAD0Ev:0000000000000044 .L0 
     /tmp/cc1CXh6x.s:86     .text._ZN7WorkerAD0Ev:0000000000000048 .L0 
     /tmp/cc1CXh6x.s:88     .text._ZN7WorkerAD0Ev:000000000000004c .L0 
     /tmp/cc1CXh6x.s:95     .text._ZN7WorkerBD2Ev:0000000000000000 _ZN7WorkerBD2Ev
     /tmp/cc1CXh6x.s:98     .text._ZN7WorkerBD2Ev:0000000000000000 .L0 
     /tmp/cc1CXh6x.s:100    .text._ZN7WorkerBD2Ev:0000000000000000 .L0 
     /tmp/cc1CXh6x.s:101    .text._ZN7WorkerBD2Ev:0000000000000004 .L0 
     /tmp/cc1CXh6x.s:104    .text._ZN7WorkerBD2Ev:000000000000000c .L0 
     /tmp/cc1CXh6x.s:105    .text._ZN7WorkerBD2Ev:000000000000000c .L0 
     /tmp/cc1CXh6x.s:107    .text._ZN7WorkerBD2Ev:0000000000000010 .L0 
     /tmp/cc1CXh6x.s:1564   .data.rel.ro.local._ZTV7WorkerB:0000000000000000 _ZTV7WorkerB
     /tmp/cc1CXh6x.s:110    .text._ZN7WorkerBD2Ev:0000000000000010 .L0 
     /tmp/cc1CXh6x.s:116    .text._ZN7WorkerBD2Ev:0000000000000028 .L0 
     /tmp/cc1CXh6x.s:118    .text._ZN7WorkerBD2Ev:000000000000002c .L0 
     /tmp/cc1CXh6x.s:119    .text._ZN7WorkerBD2Ev:000000000000002c .L0 
     /tmp/cc1CXh6x.s:121    .text._ZN7WorkerBD2Ev:0000000000000030 .L0 
     /tmp/cc1CXh6x.s:123    .text._ZN7WorkerBD2Ev:0000000000000034 .L0 
     /tmp/cc1CXh6x.s:95     .text._ZN7WorkerBD2Ev:0000000000000000 _ZN7WorkerBD1Ev
     /tmp/cc1CXh6x.s:132    .text._ZN7WorkerBD0Ev:0000000000000000 _ZN7WorkerBD0Ev
     /tmp/cc1CXh6x.s:135    .text._ZN7WorkerBD0Ev:0000000000000000 .L0 
     /tmp/cc1CXh6x.s:137    .text._ZN7WorkerBD0Ev:0000000000000000 .L0 
     /tmp/cc1CXh6x.s:138    .text._ZN7WorkerBD0Ev:0000000000000004 .L0 
     /tmp/cc1CXh6x.s:142    .text._ZN7WorkerBD0Ev:0000000000000010 .L0 
     /tmp/cc1CXh6x.s:143    .text._ZN7WorkerBD0Ev:0000000000000010 .L0 
     /tmp/cc1CXh6x.s:144    .text._ZN7WorkerBD0Ev:0000000000000010 .L0 
     /tmp/cc1CXh6x.s:146    .text._ZN7WorkerBD0Ev:0000000000000014 .L0 
     /tmp/cc1CXh6x.s:152    .text._ZN7WorkerBD0Ev:0000000000000018 .L0 
     /tmp/cc1CXh6x.s:162    .text._ZN7WorkerBD0Ev:000000000000003c .L0 
GAS LISTING /tmp/cc1CXh6x.s 			page 40


     /tmp/cc1CXh6x.s:164    .text._ZN7WorkerBD0Ev:0000000000000040 .L0 
     /tmp/cc1CXh6x.s:165    .text._ZN7WorkerBD0Ev:0000000000000040 .L0 
     /tmp/cc1CXh6x.s:167    .text._ZN7WorkerBD0Ev:0000000000000044 .L0 
     /tmp/cc1CXh6x.s:170    .text._ZN7WorkerBD0Ev:0000000000000048 .L0 
     /tmp/cc1CXh6x.s:172    .text._ZN7WorkerBD0Ev:000000000000004c .L0 
     /tmp/cc1CXh6x.s:179    .text._ZN7WorkerCD2Ev:0000000000000000 _ZN7WorkerCD2Ev
     /tmp/cc1CXh6x.s:182    .text._ZN7WorkerCD2Ev:0000000000000000 .L0 
     /tmp/cc1CXh6x.s:184    .text._ZN7WorkerCD2Ev:0000000000000000 .L0 
     /tmp/cc1CXh6x.s:185    .text._ZN7WorkerCD2Ev:0000000000000004 .L0 
     /tmp/cc1CXh6x.s:188    .text._ZN7WorkerCD2Ev:000000000000000c .L0 
     /tmp/cc1CXh6x.s:189    .text._ZN7WorkerCD2Ev:000000000000000c .L0 
     /tmp/cc1CXh6x.s:191    .text._ZN7WorkerCD2Ev:0000000000000010 .L0 
     /tmp/cc1CXh6x.s:1575   .data.rel.ro.local._ZTV7WorkerC:0000000000000000 _ZTV7WorkerC
     /tmp/cc1CXh6x.s:194    .text._ZN7WorkerCD2Ev:0000000000000010 .L0 
     /tmp/cc1CXh6x.s:200    .text._ZN7WorkerCD2Ev:0000000000000028 .L0 
     /tmp/cc1CXh6x.s:202    .text._ZN7WorkerCD2Ev:000000000000002c .L0 
     /tmp/cc1CXh6x.s:203    .text._ZN7WorkerCD2Ev:000000000000002c .L0 
     /tmp/cc1CXh6x.s:205    .text._ZN7WorkerCD2Ev:0000000000000030 .L0 
     /tmp/cc1CXh6x.s:207    .text._ZN7WorkerCD2Ev:0000000000000034 .L0 
     /tmp/cc1CXh6x.s:179    .text._ZN7WorkerCD2Ev:0000000000000000 _ZN7WorkerCD1Ev
     /tmp/cc1CXh6x.s:216    .text._ZN7WorkerCD0Ev:0000000000000000 _ZN7WorkerCD0Ev
     /tmp/cc1CXh6x.s:219    .text._ZN7WorkerCD0Ev:0000000000000000 .L0 
     /tmp/cc1CXh6x.s:221    .text._ZN7WorkerCD0Ev:0000000000000000 .L0 
     /tmp/cc1CXh6x.s:222    .text._ZN7WorkerCD0Ev:0000000000000004 .L0 
     /tmp/cc1CXh6x.s:226    .text._ZN7WorkerCD0Ev:0000000000000010 .L0 
     /tmp/cc1CXh6x.s:227    .text._ZN7WorkerCD0Ev:0000000000000010 .L0 
     /tmp/cc1CXh6x.s:228    .text._ZN7WorkerCD0Ev:0000000000000010 .L0 
     /tmp/cc1CXh6x.s:230    .text._ZN7WorkerCD0Ev:0000000000000014 .L0 
     /tmp/cc1CXh6x.s:236    .text._ZN7WorkerCD0Ev:0000000000000018 .L0 
     /tmp/cc1CXh6x.s:246    .text._ZN7WorkerCD0Ev:000000000000003c .L0 
     /tmp/cc1CXh6x.s:248    .text._ZN7WorkerCD0Ev:0000000000000040 .L0 
     /tmp/cc1CXh6x.s:249    .text._ZN7WorkerCD0Ev:0000000000000040 .L0 
     /tmp/cc1CXh6x.s:251    .text._ZN7WorkerCD0Ev:0000000000000044 .L0 
     /tmp/cc1CXh6x.s:254    .text._ZN7WorkerCD0Ev:0000000000000048 .L0 
     /tmp/cc1CXh6x.s:256    .text._ZN7WorkerCD0Ev:000000000000004c .L0 
     /tmp/cc1CXh6x.s:263    .text._ZN7WorkerDD2Ev:0000000000000000 _ZN7WorkerDD2Ev
     /tmp/cc1CXh6x.s:266    .text._ZN7WorkerDD2Ev:0000000000000000 .L0 
     /tmp/cc1CXh6x.s:268    .text._ZN7WorkerDD2Ev:0000000000000000 .L0 
     /tmp/cc1CXh6x.s:269    .text._ZN7WorkerDD2Ev:0000000000000004 .L0 
     /tmp/cc1CXh6x.s:272    .text._ZN7WorkerDD2Ev:000000000000000c .L0 
     /tmp/cc1CXh6x.s:273    .text._ZN7WorkerDD2Ev:000000000000000c .L0 
     /tmp/cc1CXh6x.s:275    .text._ZN7WorkerDD2Ev:0000000000000010 .L0 
     /tmp/cc1CXh6x.s:1586   .data.rel.ro.local._ZTV7WorkerD:0000000000000000 _ZTV7WorkerD
     /tmp/cc1CXh6x.s:278    .text._ZN7WorkerDD2Ev:0000000000000010 .L0 
     /tmp/cc1CXh6x.s:284    .text._ZN7WorkerDD2Ev:0000000000000028 .L0 
     /tmp/cc1CXh6x.s:286    .text._ZN7WorkerDD2Ev:000000000000002c .L0 
     /tmp/cc1CXh6x.s:287    .text._ZN7WorkerDD2Ev:000000000000002c .L0 
     /tmp/cc1CXh6x.s:289    .text._ZN7WorkerDD2Ev:0000000000000030 .L0 
     /tmp/cc1CXh6x.s:291    .text._ZN7WorkerDD2Ev:0000000000000034 .L0 
     /tmp/cc1CXh6x.s:263    .text._ZN7WorkerDD2Ev:0000000000000000 _ZN7WorkerDD1Ev
     /tmp/cc1CXh6x.s:300    .text._ZN7WorkerDD0Ev:0000000000000000 _ZN7WorkerDD0Ev
     /tmp/cc1CXh6x.s:303    .text._ZN7WorkerDD0Ev:0000000000000000 .L0 
     /tmp/cc1CXh6x.s:305    .text._ZN7WorkerDD0Ev:0000000000000000 .L0 
     /tmp/cc1CXh6x.s:306    .text._ZN7WorkerDD0Ev:0000000000000004 .L0 
     /tmp/cc1CXh6x.s:310    .text._ZN7WorkerDD0Ev:0000000000000010 .L0 
     /tmp/cc1CXh6x.s:311    .text._ZN7WorkerDD0Ev:0000000000000010 .L0 
     /tmp/cc1CXh6x.s:312    .text._ZN7WorkerDD0Ev:0000000000000010 .L0 
GAS LISTING /tmp/cc1CXh6x.s 			page 41


     /tmp/cc1CXh6x.s:314    .text._ZN7WorkerDD0Ev:0000000000000014 .L0 
     /tmp/cc1CXh6x.s:320    .text._ZN7WorkerDD0Ev:0000000000000018 .L0 
     /tmp/cc1CXh6x.s:330    .text._ZN7WorkerDD0Ev:000000000000003c .L0 
     /tmp/cc1CXh6x.s:332    .text._ZN7WorkerDD0Ev:0000000000000040 .L0 
     /tmp/cc1CXh6x.s:333    .text._ZN7WorkerDD0Ev:0000000000000040 .L0 
     /tmp/cc1CXh6x.s:335    .text._ZN7WorkerDD0Ev:0000000000000044 .L0 
     /tmp/cc1CXh6x.s:338    .text._ZN7WorkerDD0Ev:0000000000000048 .L0 
     /tmp/cc1CXh6x.s:340    .text._ZN7WorkerDD0Ev:000000000000004c .L0 
     /tmp/cc1CXh6x.s:347    .text:0000000000000000 _Z9fibonaccim
     /tmp/cc1CXh6x.s:350    .text:0000000000000000 .L0 
     /tmp/cc1CXh6x.s:352    .text:0000000000000000 .L0 
     /tmp/cc1CXh6x.s:353    .text:0000000000000004 .L0 
     /tmp/cc1CXh6x.s:358    .text:0000000000000014 .L0 
     /tmp/cc1CXh6x.s:359    .text:0000000000000014 .L0 
     /tmp/cc1CXh6x.s:360    .text:0000000000000014 .L0 
     /tmp/cc1CXh6x.s:361    .text:0000000000000014 .L0 
     /tmp/cc1CXh6x.s:363    .text:0000000000000018 .L0 
     /tmp/cc1CXh6x.s:366    .text:000000000000001c .L0 
     /tmp/cc1CXh6x.s:369    .text:0000000000000024 .L0 
     /tmp/cc1CXh6x.s:370    .text:0000000000000024 .L0 
     /tmp/cc1CXh6x.s:373    .text:000000000000002c .L0 
     /tmp/cc1CXh6x.s:377    .text:0000000000000030 .L0 
     /tmp/cc1CXh6x.s:378    .text:0000000000000030 .L0 
     /tmp/cc1CXh6x.s:383    .text:0000000000000040 .L0 
     /tmp/cc1CXh6x.s:387    .text:000000000000004c .L0 
     /tmp/cc1CXh6x.s:390    .text:0000000000000050 .L0 
     /tmp/cc1CXh6x.s:391    .text:0000000000000054 .L0 
     /tmp/cc1CXh6x.s:392    .text:0000000000000054 .L0 
     /tmp/cc1CXh6x.s:394    .text:0000000000000058 .L0 
     /tmp/cc1CXh6x.s:395    .text:0000000000000058 .L0 
     /tmp/cc1CXh6x.s:397    .text:000000000000005c .L0 
     /tmp/cc1CXh6x.s:400    .text:0000000000000060 .L0 
     /tmp/cc1CXh6x.s:402    .text:0000000000000064 .L0 
     /tmp/cc1CXh6x.s:406    .text:0000000000000068 .L0 
     /tmp/cc1CXh6x.s:408    .text:0000000000000068 .L0 
     /tmp/cc1CXh6x.s:409    .text:0000000000000068 .L0 
     /tmp/cc1CXh6x.s:412    .text:0000000000000074 .L0 
     /tmp/cc1CXh6x.s:429    .text:0000000000000074 _ZN7WorkerA11workerBodyAEPv
     /tmp/cc1CXh6x.s:432    .text:0000000000000074 .L0 
     /tmp/cc1CXh6x.s:434    .text:0000000000000074 .L0 
     /tmp/cc1CXh6x.s:435    .text:0000000000000078 .L0 
     /tmp/cc1CXh6x.s:440    .text:0000000000000088 .L0 
     /tmp/cc1CXh6x.s:441    .text:0000000000000088 .L0 
     /tmp/cc1CXh6x.s:442    .text:0000000000000088 .L0 
     /tmp/cc1CXh6x.s:443    .text:0000000000000088 .L0 
     /tmp/cc1CXh6x.s:445    .text:000000000000008c .L0 
     /tmp/cc1CXh6x.s:449    .text:000000000000008c .L0 
     /tmp/cc1CXh6x.s:450    .text:000000000000008c .L0 
     /tmp/cc1CXh6x.s:458    .text:0000000000000094 .L0 
     /tmp/cc1CXh6x.s:459    .text:0000000000000094 .L0 
     /tmp/cc1CXh6x.s:463    .text:000000000000009c .L0 
     /tmp/cc1CXh6x.s:467    .text:00000000000000a0 .L0 
     /tmp/cc1CXh6x.s:473    .text:00000000000000ac .L0 
     /tmp/cc1CXh6x.s:477    .text:00000000000000b0 .L0 
     /tmp/cc1CXh6x.s:481    .text:00000000000000bc .L0 
     /tmp/cc1CXh6x.s:491    .text:00000000000000c4 .L0 
     /tmp/cc1CXh6x.s:495    .text:00000000000000c8 .L0 
GAS LISTING /tmp/cc1CXh6x.s 			page 42


     /tmp/cc1CXh6x.s:499    .text:00000000000000d0 .L0 
     /tmp/cc1CXh6x.s:500    .text:00000000000000d0 .L0 
     /tmp/cc1CXh6x.s:504    .text:00000000000000e0 .L0 
     /tmp/cc1CXh6x.s:505    .text:00000000000000e0 .L0 
     /tmp/cc1CXh6x.s:509    .text:00000000000000ec .L0 
     /tmp/cc1CXh6x.s:510    .text:00000000000000ec .L0 
     /tmp/cc1CXh6x.s:515    .text:00000000000000fc .L0 
     /tmp/cc1CXh6x.s:516    .text:00000000000000fc .L0 
     /tmp/cc1CXh6x.s:524    .text:0000000000000104 .L0 
     /tmp/cc1CXh6x.s:525    .text:0000000000000104 .L0 
     /tmp/cc1CXh6x.s:529    .text:0000000000000114 .L0 
     /tmp/cc1CXh6x.s:530    .text:0000000000000114 .L0 
     /tmp/cc1CXh6x.s:533    .text:0000000000000120 .L0 
     /tmp/cc1CXh6x.s:534    .text:0000000000000124 .L0 
     /tmp/cc1CXh6x.s:536    .text:0000000000000128 .L0 
     /tmp/cc1CXh6x.s:537    .text:0000000000000128 .L0 
     /tmp/cc1CXh6x.s:539    .text:000000000000012c .L0 
     /tmp/cc1CXh6x.s:541    .text:0000000000000130 .L0 
     /tmp/cc1CXh6x.s:544    .text:0000000000000134 .L0 
     /tmp/cc1CXh6x.s:546    .text:0000000000000138 .L0 
     /tmp/cc1CXh6x.s:553    .text._ZN7WorkerA3runEv:0000000000000000 _ZN7WorkerA3runEv
     /tmp/cc1CXh6x.s:556    .text._ZN7WorkerA3runEv:0000000000000000 .L0 
     /tmp/cc1CXh6x.s:558    .text._ZN7WorkerA3runEv:0000000000000000 .L0 
     /tmp/cc1CXh6x.s:559    .text._ZN7WorkerA3runEv:0000000000000004 .L0 
     /tmp/cc1CXh6x.s:562    .text._ZN7WorkerA3runEv:000000000000000c .L0 
     /tmp/cc1CXh6x.s:563    .text._ZN7WorkerA3runEv:000000000000000c .L0 
     /tmp/cc1CXh6x.s:565    .text._ZN7WorkerA3runEv:0000000000000010 .L0 
     /tmp/cc1CXh6x.s:567    .text._ZN7WorkerA3runEv:0000000000000010 .L0 
     /tmp/cc1CXh6x.s:568    .text._ZN7WorkerA3runEv:0000000000000010 .L0 
     /tmp/cc1CXh6x.s:572    .text._ZN7WorkerA3runEv:000000000000001c .L0 
     /tmp/cc1CXh6x.s:573    .text._ZN7WorkerA3runEv:0000000000000020 .L0 
     /tmp/cc1CXh6x.s:575    .text._ZN7WorkerA3runEv:0000000000000024 .L0 
     /tmp/cc1CXh6x.s:576    .text._ZN7WorkerA3runEv:0000000000000024 .L0 
     /tmp/cc1CXh6x.s:578    .text._ZN7WorkerA3runEv:0000000000000028 .L0 
     /tmp/cc1CXh6x.s:580    .text._ZN7WorkerA3runEv:000000000000002c .L0 
     /tmp/cc1CXh6x.s:594    .text:0000000000000138 _ZN7WorkerB11workerBodyBEPv
     /tmp/cc1CXh6x.s:597    .text:0000000000000138 .L0 
     /tmp/cc1CXh6x.s:599    .text:0000000000000138 .L0 
     /tmp/cc1CXh6x.s:600    .text:000000000000013c .L0 
     /tmp/cc1CXh6x.s:605    .text:000000000000014c .L0 
     /tmp/cc1CXh6x.s:606    .text:000000000000014c .L0 
     /tmp/cc1CXh6x.s:607    .text:000000000000014c .L0 
     /tmp/cc1CXh6x.s:608    .text:000000000000014c .L0 
     /tmp/cc1CXh6x.s:610    .text:0000000000000150 .L0 
     /tmp/cc1CXh6x.s:614    .text:0000000000000150 .L0 
     /tmp/cc1CXh6x.s:615    .text:0000000000000150 .L0 
     /tmp/cc1CXh6x.s:623    .text:0000000000000158 .L0 
     /tmp/cc1CXh6x.s:624    .text:0000000000000158 .L0 
     /tmp/cc1CXh6x.s:628    .text:0000000000000160 .L0 
     /tmp/cc1CXh6x.s:632    .text:0000000000000164 .L0 
     /tmp/cc1CXh6x.s:638    .text:0000000000000170 .L0 
     /tmp/cc1CXh6x.s:642    .text:0000000000000174 .L0 
     /tmp/cc1CXh6x.s:646    .text:0000000000000180 .L0 
     /tmp/cc1CXh6x.s:656    .text:0000000000000188 .L0 
     /tmp/cc1CXh6x.s:660    .text:000000000000018c .L0 
     /tmp/cc1CXh6x.s:664    .text:0000000000000194 .L0 
     /tmp/cc1CXh6x.s:665    .text:0000000000000194 .L0 
GAS LISTING /tmp/cc1CXh6x.s 			page 43


     /tmp/cc1CXh6x.s:669    .text:00000000000001a4 .L0 
     /tmp/cc1CXh6x.s:670    .text:00000000000001a4 .L0 
     /tmp/cc1CXh6x.s:674    .text:00000000000001b0 .L0 
     /tmp/cc1CXh6x.s:675    .text:00000000000001b0 .L0 
     /tmp/cc1CXh6x.s:680    .text:00000000000001c0 .L0 
     /tmp/cc1CXh6x.s:681    .text:00000000000001c0 .L0 
     /tmp/cc1CXh6x.s:689    .text:00000000000001c8 .L0 
     /tmp/cc1CXh6x.s:690    .text:00000000000001c8 .L0 
     /tmp/cc1CXh6x.s:694    .text:00000000000001d8 .L0 
     /tmp/cc1CXh6x.s:695    .text:00000000000001d8 .L0 
     /tmp/cc1CXh6x.s:698    .text:00000000000001e4 .L0 
     /tmp/cc1CXh6x.s:699    .text:00000000000001e4 .L0 
     /tmp/cc1CXh6x.s:702    .text:00000000000001ec .L0 
     /tmp/cc1CXh6x.s:703    .text:00000000000001f0 .L0 
     /tmp/cc1CXh6x.s:705    .text:00000000000001f4 .L0 
     /tmp/cc1CXh6x.s:706    .text:00000000000001f4 .L0 
     /tmp/cc1CXh6x.s:708    .text:00000000000001f8 .L0 
     /tmp/cc1CXh6x.s:710    .text:00000000000001fc .L0 
     /tmp/cc1CXh6x.s:713    .text:0000000000000200 .L0 
     /tmp/cc1CXh6x.s:715    .text:0000000000000204 .L0 
     /tmp/cc1CXh6x.s:722    .text._ZN7WorkerB3runEv:0000000000000000 _ZN7WorkerB3runEv
     /tmp/cc1CXh6x.s:725    .text._ZN7WorkerB3runEv:0000000000000000 .L0 
     /tmp/cc1CXh6x.s:727    .text._ZN7WorkerB3runEv:0000000000000000 .L0 
     /tmp/cc1CXh6x.s:728    .text._ZN7WorkerB3runEv:0000000000000004 .L0 
     /tmp/cc1CXh6x.s:731    .text._ZN7WorkerB3runEv:000000000000000c .L0 
     /tmp/cc1CXh6x.s:732    .text._ZN7WorkerB3runEv:000000000000000c .L0 
     /tmp/cc1CXh6x.s:734    .text._ZN7WorkerB3runEv:0000000000000010 .L0 
     /tmp/cc1CXh6x.s:736    .text._ZN7WorkerB3runEv:0000000000000010 .L0 
     /tmp/cc1CXh6x.s:737    .text._ZN7WorkerB3runEv:0000000000000010 .L0 
     /tmp/cc1CXh6x.s:741    .text._ZN7WorkerB3runEv:000000000000001c .L0 
     /tmp/cc1CXh6x.s:742    .text._ZN7WorkerB3runEv:0000000000000020 .L0 
     /tmp/cc1CXh6x.s:744    .text._ZN7WorkerB3runEv:0000000000000024 .L0 
     /tmp/cc1CXh6x.s:745    .text._ZN7WorkerB3runEv:0000000000000024 .L0 
     /tmp/cc1CXh6x.s:747    .text._ZN7WorkerB3runEv:0000000000000028 .L0 
     /tmp/cc1CXh6x.s:749    .text._ZN7WorkerB3runEv:000000000000002c .L0 
     /tmp/cc1CXh6x.s:769    .text:0000000000000204 _ZN7WorkerC11workerBodyCEPv
     /tmp/cc1CXh6x.s:772    .text:0000000000000204 .L0 
     /tmp/cc1CXh6x.s:774    .text:0000000000000204 .L0 
     /tmp/cc1CXh6x.s:775    .text:0000000000000208 .L0 
     /tmp/cc1CXh6x.s:780    .text:0000000000000218 .L0 
     /tmp/cc1CXh6x.s:781    .text:0000000000000218 .L0 
     /tmp/cc1CXh6x.s:782    .text:0000000000000218 .L0 
     /tmp/cc1CXh6x.s:783    .text:0000000000000218 .L0 
     /tmp/cc1CXh6x.s:785    .text:000000000000021c .L0 
     /tmp/cc1CXh6x.s:788    .text:000000000000021c .L0 
     /tmp/cc1CXh6x.s:789    .text:000000000000021c .L0 
     /tmp/cc1CXh6x.s:794    .text:0000000000000224 .L0 
     /tmp/cc1CXh6x.s:795    .text:0000000000000224 .L0 
     /tmp/cc1CXh6x.s:799    .text:0000000000000234 .L0 
     /tmp/cc1CXh6x.s:800    .text:0000000000000234 .L0 
     /tmp/cc1CXh6x.s:804    .text:0000000000000240 .L0 
     /tmp/cc1CXh6x.s:805    .text:0000000000000240 .L0 
     /tmp/cc1CXh6x.s:809    .text:0000000000000250 .L0 
     /tmp/cc1CXh6x.s:815    .text:0000000000000258 .L0 
     /tmp/cc1CXh6x.s:816    .text:0000000000000258 .L0 
     /tmp/cc1CXh6x.s:819    .text:0000000000000260 .L0 
     /tmp/cc1CXh6x.s:820    .text:0000000000000260 .L0 
GAS LISTING /tmp/cc1CXh6x.s 			page 44


     /tmp/cc1CXh6x.s:824    .text:0000000000000270 .L0 
        src/main.cpp:94     .text:0000000000000270 .L0 
     /tmp/cc1CXh6x.s:830    .text:0000000000000274 .L0 
     /tmp/cc1CXh6x.s:832    .text:0000000000000274 .L0 
     /tmp/cc1CXh6x.s:835    .text:000000000000027c .L0 
     /tmp/cc1CXh6x.s:836    .text:000000000000027c .L0 
        src/main.cpp:98     .text:000000000000027c .L0 
     /tmp/cc1CXh6x.s:843    .text:0000000000000280 .L0 
     /tmp/cc1CXh6x.s:845    .text:0000000000000280 .L0 
     /tmp/cc1CXh6x.s:849    .text:0000000000000290 .L0 
     /tmp/cc1CXh6x.s:850    .text:0000000000000290 .L0 
     /tmp/cc1CXh6x.s:854    .text:000000000000029c .L0 
     /tmp/cc1CXh6x.s:855    .text:000000000000029c .L0 
     /tmp/cc1CXh6x.s:859    .text:00000000000002ac .L0 
     /tmp/cc1CXh6x.s:860    .text:00000000000002ac .L0 
     /tmp/cc1CXh6x.s:866    .text:00000000000002bc .L0 
     /tmp/cc1CXh6x.s:867    .text:00000000000002bc .L0 
     /tmp/cc1CXh6x.s:872    .text:00000000000002cc .L0 
     /tmp/cc1CXh6x.s:873    .text:00000000000002cc .L0 
     /tmp/cc1CXh6x.s:877    .text:00000000000002d8 .L0 
     /tmp/cc1CXh6x.s:878    .text:00000000000002d8 .L0 
     /tmp/cc1CXh6x.s:884    .text:00000000000002ec .L0 
     /tmp/cc1CXh6x.s:885    .text:00000000000002ec .L0 
     /tmp/cc1CXh6x.s:889    .text:00000000000002fc .L0 
     /tmp/cc1CXh6x.s:890    .text:00000000000002fc .L0 
     /tmp/cc1CXh6x.s:894    .text:0000000000000308 .L0 
     /tmp/cc1CXh6x.s:895    .text:0000000000000308 .L0 
     /tmp/cc1CXh6x.s:899    .text:0000000000000318 .L0 
     /tmp/cc1CXh6x.s:905    .text:0000000000000320 .L0 
     /tmp/cc1CXh6x.s:906    .text:0000000000000320 .L0 
     /tmp/cc1CXh6x.s:909    .text:0000000000000328 .L0 
     /tmp/cc1CXh6x.s:910    .text:0000000000000328 .L0 
     /tmp/cc1CXh6x.s:914    .text:0000000000000338 .L0 
     /tmp/cc1CXh6x.s:915    .text:0000000000000338 .L0 
     /tmp/cc1CXh6x.s:918    .text:0000000000000344 .L0 
     /tmp/cc1CXh6x.s:919    .text:0000000000000344 .L0 
     /tmp/cc1CXh6x.s:922    .text:000000000000034c .L0 
     /tmp/cc1CXh6x.s:923    .text:0000000000000350 .L0 
     /tmp/cc1CXh6x.s:925    .text:0000000000000354 .L0 
     /tmp/cc1CXh6x.s:926    .text:0000000000000354 .L0 
     /tmp/cc1CXh6x.s:928    .text:0000000000000358 .L0 
     /tmp/cc1CXh6x.s:931    .text:000000000000035c .L0 
     /tmp/cc1CXh6x.s:934    .text:0000000000000360 .L0 
     /tmp/cc1CXh6x.s:936    .text:0000000000000364 .L0 
     /tmp/cc1CXh6x.s:943    .text._ZN7WorkerC3runEv:0000000000000000 _ZN7WorkerC3runEv
     /tmp/cc1CXh6x.s:946    .text._ZN7WorkerC3runEv:0000000000000000 .L0 
     /tmp/cc1CXh6x.s:948    .text._ZN7WorkerC3runEv:0000000000000000 .L0 
     /tmp/cc1CXh6x.s:949    .text._ZN7WorkerC3runEv:0000000000000004 .L0 
     /tmp/cc1CXh6x.s:952    .text._ZN7WorkerC3runEv:000000000000000c .L0 
     /tmp/cc1CXh6x.s:953    .text._ZN7WorkerC3runEv:000000000000000c .L0 
     /tmp/cc1CXh6x.s:955    .text._ZN7WorkerC3runEv:0000000000000010 .L0 
     /tmp/cc1CXh6x.s:957    .text._ZN7WorkerC3runEv:0000000000000010 .L0 
     /tmp/cc1CXh6x.s:958    .text._ZN7WorkerC3runEv:0000000000000010 .L0 
     /tmp/cc1CXh6x.s:962    .text._ZN7WorkerC3runEv:000000000000001c .L0 
     /tmp/cc1CXh6x.s:963    .text._ZN7WorkerC3runEv:0000000000000020 .L0 
     /tmp/cc1CXh6x.s:965    .text._ZN7WorkerC3runEv:0000000000000024 .L0 
     /tmp/cc1CXh6x.s:966    .text._ZN7WorkerC3runEv:0000000000000024 .L0 
GAS LISTING /tmp/cc1CXh6x.s 			page 45


     /tmp/cc1CXh6x.s:968    .text._ZN7WorkerC3runEv:0000000000000028 .L0 
     /tmp/cc1CXh6x.s:970    .text._ZN7WorkerC3runEv:000000000000002c .L0 
     /tmp/cc1CXh6x.s:990    .text:0000000000000364 _ZN7WorkerD11workerBodyDEPv
     /tmp/cc1CXh6x.s:993    .text:0000000000000364 .L0 
     /tmp/cc1CXh6x.s:995    .text:0000000000000364 .L0 
     /tmp/cc1CXh6x.s:996    .text:0000000000000368 .L0 
     /tmp/cc1CXh6x.s:1001   .text:0000000000000378 .L0 
     /tmp/cc1CXh6x.s:1002   .text:0000000000000378 .L0 
     /tmp/cc1CXh6x.s:1003   .text:0000000000000378 .L0 
     /tmp/cc1CXh6x.s:1004   .text:0000000000000378 .L0 
     /tmp/cc1CXh6x.s:1006   .text:000000000000037c .L0 
     /tmp/cc1CXh6x.s:1009   .text:000000000000037c .L0 
     /tmp/cc1CXh6x.s:1010   .text:000000000000037c .L0 
     /tmp/cc1CXh6x.s:1015   .text:0000000000000384 .L0 
     /tmp/cc1CXh6x.s:1016   .text:0000000000000384 .L0 
     /tmp/cc1CXh6x.s:1020   .text:0000000000000394 .L0 
     /tmp/cc1CXh6x.s:1021   .text:0000000000000394 .L0 
     /tmp/cc1CXh6x.s:1025   .text:00000000000003a0 .L0 
     /tmp/cc1CXh6x.s:1026   .text:00000000000003a0 .L0 
     /tmp/cc1CXh6x.s:1030   .text:00000000000003b0 .L0 
     /tmp/cc1CXh6x.s:1036   .text:00000000000003b8 .L0 
     /tmp/cc1CXh6x.s:1037   .text:00000000000003b8 .L0 
     /tmp/cc1CXh6x.s:1040   .text:00000000000003c0 .L0 
     /tmp/cc1CXh6x.s:1041   .text:00000000000003c0 .L0 
     /tmp/cc1CXh6x.s:1045   .text:00000000000003d0 .L0 
        src/main.cpp:121    .text:00000000000003d0 .L0 
     /tmp/cc1CXh6x.s:1051   .text:00000000000003d4 .L0 
     /tmp/cc1CXh6x.s:1053   .text:00000000000003d4 .L0 
     /tmp/cc1CXh6x.s:1056   .text:00000000000003dc .L0 
     /tmp/cc1CXh6x.s:1057   .text:00000000000003dc .L0 
     /tmp/cc1CXh6x.s:1063   .text:00000000000003ec .L0 
     /tmp/cc1CXh6x.s:1064   .text:00000000000003ec .L0 
     /tmp/cc1CXh6x.s:1069   .text:00000000000003fc .L0 
     /tmp/cc1CXh6x.s:1070   .text:00000000000003fc .L0 
     /tmp/cc1CXh6x.s:1074   .text:0000000000000408 .L0 
     /tmp/cc1CXh6x.s:1075   .text:0000000000000408 .L0 
     /tmp/cc1CXh6x.s:1081   .text:000000000000041c .L0 
     /tmp/cc1CXh6x.s:1082   .text:000000000000041c .L0 
     /tmp/cc1CXh6x.s:1086   .text:000000000000042c .L0 
     /tmp/cc1CXh6x.s:1087   .text:000000000000042c .L0 
     /tmp/cc1CXh6x.s:1091   .text:0000000000000438 .L0 
     /tmp/cc1CXh6x.s:1092   .text:0000000000000438 .L0 
     /tmp/cc1CXh6x.s:1096   .text:0000000000000448 .L0 
     /tmp/cc1CXh6x.s:1102   .text:0000000000000450 .L0 
     /tmp/cc1CXh6x.s:1103   .text:0000000000000450 .L0 
     /tmp/cc1CXh6x.s:1106   .text:0000000000000458 .L0 
     /tmp/cc1CXh6x.s:1107   .text:0000000000000458 .L0 
     /tmp/cc1CXh6x.s:1111   .text:0000000000000468 .L0 
     /tmp/cc1CXh6x.s:1112   .text:0000000000000468 .L0 
     /tmp/cc1CXh6x.s:1115   .text:0000000000000474 .L0 
     /tmp/cc1CXh6x.s:1116   .text:0000000000000474 .L0 
     /tmp/cc1CXh6x.s:1119   .text:000000000000047c .L0 
     /tmp/cc1CXh6x.s:1120   .text:0000000000000480 .L0 
     /tmp/cc1CXh6x.s:1122   .text:0000000000000484 .L0 
     /tmp/cc1CXh6x.s:1123   .text:0000000000000484 .L0 
     /tmp/cc1CXh6x.s:1125   .text:0000000000000488 .L0 
     /tmp/cc1CXh6x.s:1128   .text:000000000000048c .L0 
GAS LISTING /tmp/cc1CXh6x.s 			page 46


     /tmp/cc1CXh6x.s:1131   .text:0000000000000490 .L0 
     /tmp/cc1CXh6x.s:1133   .text:0000000000000494 .L0 
     /tmp/cc1CXh6x.s:1140   .text._ZN7WorkerD3runEv:0000000000000000 _ZN7WorkerD3runEv
     /tmp/cc1CXh6x.s:1143   .text._ZN7WorkerD3runEv:0000000000000000 .L0 
     /tmp/cc1CXh6x.s:1145   .text._ZN7WorkerD3runEv:0000000000000000 .L0 
     /tmp/cc1CXh6x.s:1146   .text._ZN7WorkerD3runEv:0000000000000004 .L0 
     /tmp/cc1CXh6x.s:1149   .text._ZN7WorkerD3runEv:000000000000000c .L0 
     /tmp/cc1CXh6x.s:1150   .text._ZN7WorkerD3runEv:000000000000000c .L0 
     /tmp/cc1CXh6x.s:1152   .text._ZN7WorkerD3runEv:0000000000000010 .L0 
     /tmp/cc1CXh6x.s:1154   .text._ZN7WorkerD3runEv:0000000000000010 .L0 
     /tmp/cc1CXh6x.s:1155   .text._ZN7WorkerD3runEv:0000000000000010 .L0 
     /tmp/cc1CXh6x.s:1159   .text._ZN7WorkerD3runEv:000000000000001c .L0 
     /tmp/cc1CXh6x.s:1160   .text._ZN7WorkerD3runEv:0000000000000020 .L0 
     /tmp/cc1CXh6x.s:1162   .text._ZN7WorkerD3runEv:0000000000000024 .L0 
     /tmp/cc1CXh6x.s:1163   .text._ZN7WorkerD3runEv:0000000000000024 .L0 
     /tmp/cc1CXh6x.s:1165   .text._ZN7WorkerD3runEv:0000000000000028 .L0 
     /tmp/cc1CXh6x.s:1167   .text._ZN7WorkerD3runEv:000000000000002c .L0 
     /tmp/cc1CXh6x.s:1187   .text:0000000000000494 main
     /tmp/cc1CXh6x.s:1190   .text:0000000000000494 .L0 
     /tmp/cc1CXh6x.s:6411   .data.rel.local.DW.ref.__gxx_personality_v0:0000000000000000 DW.ref.__gxx_personality_v0
     /tmp/cc1CXh6x.s:1193   .text:0000000000000494 .L0 
     /tmp/cc1CXh6x.s:1194   .text:0000000000000498 .L0 
     /tmp/cc1CXh6x.s:1199   .text:00000000000004a8 .L0 
     /tmp/cc1CXh6x.s:1200   .text:00000000000004a8 .L0 
     /tmp/cc1CXh6x.s:1201   .text:00000000000004a8 .L0 
     /tmp/cc1CXh6x.s:1202   .text:00000000000004a8 .L0 
     /tmp/cc1CXh6x.s:1204   .text:00000000000004ac .L0 
     /tmp/cc1CXh6x.s:1206   .text:00000000000004ac .L0 
     /tmp/cc1CXh6x.s:1207   .text:00000000000004ac .L0 
     /tmp/cc1CXh6x.s:1213   .text:00000000000004b8 .L0 
     /tmp/cc1CXh6x.s:1215   .text:00000000000004b8 .L0 
     /tmp/cc1CXh6x.s:1221   .text:00000000000004c8 .L0 
     /tmp/cc1CXh6x.s:1222   .text:00000000000004c8 .L0 
     /tmp/cc1CXh6x.s:1229   .text:00000000000004d4 .L0 
     /tmp/cc1CXh6x.s:1230   .text:00000000000004d4 .L0 
     /tmp/cc1CXh6x.s:1231   .text:00000000000004d4 .L0 
     /tmp/cc1CXh6x.s:1241   .text:00000000000004dc .L0 
     /tmp/cc1CXh6x.s:1242   .text:00000000000004dc .L0 
     /tmp/cc1CXh6x.s:1243   .text:00000000000004dc .L0 
     /tmp/cc1CXh6x.s:1254   .text:00000000000004ec .L0 
     /tmp/cc1CXh6x.s:1263   .text:0000000000000500 .L0 
     /tmp/cc1CXh6x.s:1265   .text:0000000000000504 .L0 
     /tmp/cc1CXh6x.s:1266   .text:0000000000000504 .L0 
     /tmp/cc1CXh6x.s:1271   .text:0000000000000514 .L0 
     /tmp/cc1CXh6x.s:1272   .text:0000000000000514 .L0 
     /tmp/cc1CXh6x.s:1282   .text:0000000000000524 .L0 
     /tmp/cc1CXh6x.s:1291   .text:0000000000000538 .L0 
     /tmp/cc1CXh6x.s:1293   .text:000000000000053c .L0 
     /tmp/cc1CXh6x.s:1294   .text:000000000000053c .L0 
     /tmp/cc1CXh6x.s:1299   .text:000000000000054c .L0 
     /tmp/cc1CXh6x.s:1300   .text:000000000000054c .L0 
     /tmp/cc1CXh6x.s:1310   .text:000000000000055c .L0 
     /tmp/cc1CXh6x.s:1319   .text:0000000000000570 .L0 
     /tmp/cc1CXh6x.s:1321   .text:0000000000000574 .L0 
     /tmp/cc1CXh6x.s:1322   .text:0000000000000574 .L0 
     /tmp/cc1CXh6x.s:1327   .text:0000000000000584 .L0 
     /tmp/cc1CXh6x.s:1328   .text:0000000000000584 .L0 
GAS LISTING /tmp/cc1CXh6x.s 			page 47


     /tmp/cc1CXh6x.s:1338   .text:0000000000000594 .L0 
     /tmp/cc1CXh6x.s:1347   .text:00000000000005a8 .L0 
     /tmp/cc1CXh6x.s:1349   .text:00000000000005ac .L0 
     /tmp/cc1CXh6x.s:1350   .text:00000000000005ac .L0 
     /tmp/cc1CXh6x.s:1356   .text:00000000000005bc .L0 
     /tmp/cc1CXh6x.s:1360   .text:00000000000005c0 .L0 
     /tmp/cc1CXh6x.s:1363   .text:00000000000005c8 .L0 
     /tmp/cc1CXh6x.s:1364   .text:00000000000005c8 .L0 
     /tmp/cc1CXh6x.s:1368   .text:00000000000005d4 .L0 
     /tmp/cc1CXh6x.s:1372   .text:00000000000005e0 .L0 
     /tmp/cc1CXh6x.s:1379   .text:00000000000005e8 .L0 
     /tmp/cc1CXh6x.s:1380   .text:00000000000005e8 .L0 
     /tmp/cc1CXh6x.s:1385   .text:00000000000005f0 .L0 
     /tmp/cc1CXh6x.s:1386   .text:00000000000005f0 .L0 
     /tmp/cc1CXh6x.s:1389   .text:00000000000005fc .L0 
     /tmp/cc1CXh6x.s:1392   .text:0000000000000608 .L0 
     /tmp/cc1CXh6x.s:1395   .text:0000000000000614 .L0 
     /tmp/cc1CXh6x.s:1399   .text:0000000000000620 .L0 
     /tmp/cc1CXh6x.s:1405   .text:0000000000000628 .L0 
     /tmp/cc1CXh6x.s:1409   .text:000000000000062c .L0 
     /tmp/cc1CXh6x.s:1412   .text:0000000000000634 .L0 
     /tmp/cc1CXh6x.s:1415   .text:0000000000000638 .L0 
     /tmp/cc1CXh6x.s:1416   .text:0000000000000638 .L0 
     /tmp/cc1CXh6x.s:1418   .text:000000000000063c .L0 
     /tmp/cc1CXh6x.s:1428   .text:0000000000000650 .L0 
     /tmp/cc1CXh6x.s:1439   .text:000000000000066c .L0 
     /tmp/cc1CXh6x.s:1450   .text:0000000000000688 .L0 
     /tmp/cc1CXh6x.s:1461   .text:00000000000006a4 .L0 
     /tmp/cc1CXh6x.s:1471   .text:00000000000006bc .L0 
     /tmp/cc1CXh6x.s:1473   .text:00000000000006c4 .L0 
     /tmp/cc1CXh6x.s:1475   .text:00000000000006c8 .L0 
     /tmp/cc1CXh6x.s:1476   .text:00000000000006c8 .L0 
     /tmp/cc1CXh6x.s:1478   .text:00000000000006cc .L0 
     /tmp/cc1CXh6x.s:1481   .text:00000000000006d0 .L0 
     /tmp/cc1CXh6x.s:1483   .text:00000000000006d4 .L0 
     /tmp/cc1CXh6x.s:1485   .text:00000000000006d8 .L0 
     /tmp/cc1CXh6x.s:1612   .bss:0000000000000003 finishedD
     /tmp/cc1CXh6x.s:1608   .bss:0000000000000002 finishedC
     /tmp/cc1CXh6x.s:1604   .bss:0000000000000001 finishedB
     /tmp/cc1CXh6x.s:1600   .bss:0000000000000000 finishedA
     /tmp/cc1CXh6x.s:1597   .bss:0000000000000000 .LANCHOR0
     /tmp/cc1CXh6x.s:44     .text._ZN7WorkerAD2Ev:0000000000000034 .L0 
     /tmp/cc1CXh6x.s:91     .text._ZN7WorkerAD0Ev:000000000000004c .L0 
     /tmp/cc1CXh6x.s:128    .text._ZN7WorkerBD2Ev:0000000000000034 .L0 
     /tmp/cc1CXh6x.s:175    .text._ZN7WorkerBD0Ev:000000000000004c .L0 
     /tmp/cc1CXh6x.s:212    .text._ZN7WorkerCD2Ev:0000000000000034 .L0 
     /tmp/cc1CXh6x.s:259    .text._ZN7WorkerCD0Ev:000000000000004c .L0 
     /tmp/cc1CXh6x.s:296    .text._ZN7WorkerDD2Ev:0000000000000034 .L0 
     /tmp/cc1CXh6x.s:343    .text._ZN7WorkerDD0Ev:000000000000004c .L0 
     /tmp/cc1CXh6x.s:1621   .text:00000000000006d8 .L0 
     /tmp/cc1CXh6x.s:583    .text._ZN7WorkerA3runEv:000000000000002c .L0 
     /tmp/cc1CXh6x.s:752    .text._ZN7WorkerB3runEv:000000000000002c .L0 
     /tmp/cc1CXh6x.s:973    .text._ZN7WorkerC3runEv:000000000000002c .L0 
     /tmp/cc1CXh6x.s:1170   .text._ZN7WorkerD3runEv:000000000000002c .L0 
     /tmp/cc1CXh6x.s:417    .rodata.str1.8:0000000000000000 .LC0
     /tmp/cc1CXh6x.s:500    .text:00000000000000d0 .L0 
     /tmp/cc1CXh6x.s:420    .rodata.str1.8:0000000000000008 .LC1
GAS LISTING /tmp/cc1CXh6x.s 			page 48


     /tmp/cc1CXh6x.s:510    .text:00000000000000ec .L0 
     /tmp/cc1CXh6x.s:423    .rodata.str1.8:0000000000000010 .LC2
     /tmp/cc1CXh6x.s:525    .text:0000000000000104 .L0 
     /tmp/cc1CXh6x.s:531    .text:0000000000000118 .L0 
     /tmp/cc1CXh6x.s:585    .rodata.str1.8:0000000000000020 .LC3
     /tmp/cc1CXh6x.s:665    .text:0000000000000194 .L0 
     /tmp/cc1CXh6x.s:675    .text:00000000000001b0 .L0 
     /tmp/cc1CXh6x.s:588    .rodata.str1.8:0000000000000028 .LC4
     /tmp/cc1CXh6x.s:690    .text:00000000000001c8 .L0 
     /tmp/cc1CXh6x.s:696    .text:00000000000001dc .L0 
     /tmp/cc1CXh6x.s:754    .rodata.str1.8:0000000000000038 .LC5
     /tmp/cc1CXh6x.s:795    .text:0000000000000224 .L0 
     /tmp/cc1CXh6x.s:805    .text:0000000000000240 .L0 
     /tmp/cc1CXh6x.s:757    .rodata.str1.8:0000000000000040 .LC6
     /tmp/cc1CXh6x.s:820    .text:0000000000000260 .L0 
     /tmp/cc1CXh6x.s:760    .rodata.str1.8:0000000000000050 .LC7
     /tmp/cc1CXh6x.s:845    .text:0000000000000280 .L0 
     /tmp/cc1CXh6x.s:855    .text:000000000000029c .L0 
     /tmp/cc1CXh6x.s:763    .rodata.str1.8:0000000000000058 .LC8
     /tmp/cc1CXh6x.s:867    .text:00000000000002bc .L0 
     /tmp/cc1CXh6x.s:878    .text:00000000000002d8 .L0 
     /tmp/cc1CXh6x.s:885    .text:00000000000002ec .L0 
     /tmp/cc1CXh6x.s:895    .text:0000000000000308 .L0 
     /tmp/cc1CXh6x.s:910    .text:0000000000000328 .L0 
     /tmp/cc1CXh6x.s:916    .text:000000000000033c .L0 
     /tmp/cc1CXh6x.s:975    .rodata.str1.8:0000000000000068 .LC9
     /tmp/cc1CXh6x.s:1016   .text:0000000000000384 .L0 
     /tmp/cc1CXh6x.s:1026   .text:00000000000003a0 .L0 
     /tmp/cc1CXh6x.s:978    .rodata.str1.8:0000000000000070 .LC10
     /tmp/cc1CXh6x.s:1041   .text:00000000000003c0 .L0 
     /tmp/cc1CXh6x.s:981    .rodata.str1.8:0000000000000080 .LC11
     /tmp/cc1CXh6x.s:1064   .text:00000000000003ec .L0 
     /tmp/cc1CXh6x.s:1075   .text:0000000000000408 .L0 
     /tmp/cc1CXh6x.s:1082   .text:000000000000041c .L0 
     /tmp/cc1CXh6x.s:1092   .text:0000000000000438 .L0 
     /tmp/cc1CXh6x.s:984    .rodata.str1.8:0000000000000090 .LC12
     /tmp/cc1CXh6x.s:1107   .text:0000000000000458 .L0 
     /tmp/cc1CXh6x.s:1113   .text:000000000000046c .L0 
     /tmp/cc1CXh6x.s:1207   .text:00000000000004ac .L0 
     /tmp/cc1CXh6x.s:1222   .text:00000000000004c8 .L0 
     /tmp/cc1CXh6x.s:1257   .text:00000000000004f4 .L0 
     /tmp/cc1CXh6x.s:1172   .rodata.str1.8:00000000000000a0 .LC13
     /tmp/cc1CXh6x.s:1266   .text:0000000000000504 .L0 
     /tmp/cc1CXh6x.s:1285   .text:000000000000052c .L0 
     /tmp/cc1CXh6x.s:1175   .rodata.str1.8:00000000000000b8 .LC14
     /tmp/cc1CXh6x.s:1294   .text:000000000000053c .L0 
     /tmp/cc1CXh6x.s:1313   .text:0000000000000564 .L0 
     /tmp/cc1CXh6x.s:1178   .rodata.str1.8:00000000000000d0 .LC15
     /tmp/cc1CXh6x.s:1322   .text:0000000000000574 .L0 
     /tmp/cc1CXh6x.s:1341   .text:000000000000059c .L0 
     /tmp/cc1CXh6x.s:1181   .rodata.str1.8:00000000000000e8 .LC16
     /tmp/cc1CXh6x.s:1350   .text:00000000000005ac .L0 
     /tmp/cc1CXh6x.s:1386   .text:00000000000005f0 .L0 
     /tmp/cc1CXh6x.s:1389   .text:00000000000005fc .L0 
     /tmp/cc1CXh6x.s:1392   .text:0000000000000608 .L0 
     /tmp/cc1CXh6x.s:1395   .text:0000000000000614 .L0 
     /tmp/cc1CXh6x.s:388    .text:0000000000000050 .L17
GAS LISTING /tmp/cc1CXh6x.s 			page 49


     /tmp/cc1CXh6x.s:405    .text:0000000000000068 .L22
     /tmp/cc1CXh6x.s:375    .text:0000000000000030 .L19
     /tmp/cc1CXh6x.s:493    .text:00000000000000c8 .L29
     /tmp/cc1CXh6x.s:485    .text:00000000000000c4 .L25
     /tmp/cc1CXh6x.s:453    .text:0000000000000094 .L26
     /tmp/cc1CXh6x.s:474    .text:00000000000000b0 .L27
     /tmp/cc1CXh6x.s:519    .text:0000000000000104 .L24
     /tmp/cc1CXh6x.s:465    .text:00000000000000a0 .L28
     /tmp/cc1CXh6x.s:658    .text:000000000000018c .L39
     /tmp/cc1CXh6x.s:650    .text:0000000000000188 .L35
     /tmp/cc1CXh6x.s:618    .text:0000000000000158 .L36
     /tmp/cc1CXh6x.s:639    .text:0000000000000174 .L37
     /tmp/cc1CXh6x.s:684    .text:00000000000001c8 .L34
     /tmp/cc1CXh6x.s:630    .text:0000000000000164 .L38
     /tmp/cc1CXh6x.s:813    .text:0000000000000258 .L45
     /tmp/cc1CXh6x.s:792    .text:0000000000000224 .L49
     /tmp/cc1CXh6x.s:903    .text:0000000000000320 .L47
     /tmp/cc1CXh6x.s:882    .text:00000000000002ec .L50
     /tmp/cc1CXh6x.s:1034   .text:00000000000003b8 .L55
     /tmp/cc1CXh6x.s:1013   .text:0000000000000384 .L59
     /tmp/cc1CXh6x.s:1100   .text:0000000000000450 .L57
     /tmp/cc1CXh6x.s:1079   .text:000000000000041c .L60
     /tmp/cc1CXh6x.s:1383   .text:00000000000005f0 .L64
     /tmp/cc1CXh6x.s:1357   .text:00000000000005c0 .L65
     /tmp/cc1CXh6x.s:1376   .text:00000000000005e8 .L66
     /tmp/cc1CXh6x.s:1407   .text:000000000000062c .L67
     /tmp/cc1CXh6x.s:1469   .text:00000000000006bc .L79
     /tmp/cc1CXh6x.s:1403   .text:0000000000000628 .L69
     /tmp/cc1CXh6x.s:26     .text._ZN7WorkerAD2Ev:0000000000000010 .L0 
     /tmp/cc1CXh6x.s:68     .text._ZN7WorkerAD0Ev:0000000000000018 .L0 
     /tmp/cc1CXh6x.s:110    .text._ZN7WorkerBD2Ev:0000000000000010 .L0 
     /tmp/cc1CXh6x.s:152    .text._ZN7WorkerBD0Ev:0000000000000018 .L0 
     /tmp/cc1CXh6x.s:194    .text._ZN7WorkerCD2Ev:0000000000000010 .L0 
     /tmp/cc1CXh6x.s:236    .text._ZN7WorkerCD0Ev:0000000000000018 .L0 
     /tmp/cc1CXh6x.s:278    .text._ZN7WorkerDD2Ev:0000000000000010 .L0 
     /tmp/cc1CXh6x.s:320    .text._ZN7WorkerDD0Ev:0000000000000018 .L0 
     /tmp/cc1CXh6x.s:1217   .text:00000000000004c0 .LEHB0
     /tmp/cc1CXh6x.s:1188   .text:0000000000000494 .LFB50
     /tmp/cc1CXh6x.s:1247   .text:00000000000004e8 .LEHE0
     /tmp/cc1CXh6x.s:1250   .text:00000000000004ec .LEHB1
     /tmp/cc1CXh6x.s:1256   .text:00000000000004f4 .LEHE1
     /tmp/cc1CXh6x.s:1424   .text:000000000000064c .L75
     /tmp/cc1CXh6x.s:1267   .text:000000000000050c .LEHB2
     /tmp/cc1CXh6x.s:1275   .text:0000000000000520 .LEHE2
     /tmp/cc1CXh6x.s:1278   .text:0000000000000524 .LEHB3
     /tmp/cc1CXh6x.s:1284   .text:000000000000052c .LEHE3
     /tmp/cc1CXh6x.s:1436   .text:0000000000000668 .L76
     /tmp/cc1CXh6x.s:1295   .text:0000000000000544 .LEHB4
     /tmp/cc1CXh6x.s:1303   .text:0000000000000558 .LEHE4
     /tmp/cc1CXh6x.s:1306   .text:000000000000055c .LEHB5
     /tmp/cc1CXh6x.s:1312   .text:0000000000000564 .LEHE5
     /tmp/cc1CXh6x.s:1447   .text:0000000000000684 .L77
     /tmp/cc1CXh6x.s:1323   .text:000000000000057c .LEHB6
     /tmp/cc1CXh6x.s:1331   .text:0000000000000590 .LEHE6
     /tmp/cc1CXh6x.s:1334   .text:0000000000000594 .LEHB7
     /tmp/cc1CXh6x.s:1340   .text:000000000000059c .LEHE7
     /tmp/cc1CXh6x.s:1458   .text:00000000000006a0 .L78
GAS LISTING /tmp/cc1CXh6x.s 			page 50


     /tmp/cc1CXh6x.s:1351   .text:00000000000005b4 .LEHB8
     /tmp/cc1CXh6x.s:1382   .text:00000000000005f0 .LEHE8
     /tmp/cc1CXh6x.s:1432   .text:0000000000000660 .LEHB9
     /tmp/cc1CXh6x.s:1435   .text:0000000000000668 .LEHE9
     /tmp/cc1CXh6x.s:1443   .text:000000000000067c .LEHB10
     /tmp/cc1CXh6x.s:1446   .text:0000000000000684 .LEHE10
     /tmp/cc1CXh6x.s:1454   .text:0000000000000698 .LEHB11
     /tmp/cc1CXh6x.s:1457   .text:00000000000006a0 .LEHE11
     /tmp/cc1CXh6x.s:1465   .text:00000000000006b4 .LEHB12
     /tmp/cc1CXh6x.s:1468   .text:00000000000006bc .LEHE12
     /tmp/cc1CXh6x.s:4232   .debug_abbrev:0000000000000000 .Ldebug_abbrev0
     /tmp/cc1CXh6x.s:6327   .debug_str:00000000000007ec .LASF161
     /tmp/cc1CXh6x.s:6131   .debug_str:000000000000025c .LASF162
     /tmp/cc1CXh6x.s:6299   .debug_str:000000000000072e .LASF163
     /tmp/cc1CXh6x.s:6007   .debug_ranges:0000000000000000 .Ldebug_ranges0
     /tmp/cc1CXh6x.s:6049   .debug_line:0000000000000000 .Ldebug_line0
     /tmp/cc1CXh6x.s:6159   .debug_str:0000000000000320 .LASF0
     /tmp/cc1CXh6x.s:6187   .debug_str:00000000000003f7 .LASF1
     /tmp/cc1CXh6x.s:6277   .debug_str:000000000000069b .LASF2
     /tmp/cc1CXh6x.s:6121   .debug_str:0000000000000211 .LASF3
     /tmp/cc1CXh6x.s:6283   .debug_str:00000000000006c6 .LASF4
     /tmp/cc1CXh6x.s:6175   .debug_str:0000000000000395 .LASF5
     /tmp/cc1CXh6x.s:6063   .debug_str:0000000000000059 .LASF6
     /tmp/cc1CXh6x.s:6245   .debug_str:00000000000005ba .LASF7
     /tmp/cc1CXh6x.s:6179   .debug_str:00000000000003c3 .LASF8
     /tmp/cc1CXh6x.s:6139   .debug_str:0000000000000286 .LASF9
     /tmp/cc1CXh6x.s:6143   .debug_str:00000000000002ae .LASF10
     /tmp/cc1CXh6x.s:6089   .debug_str:0000000000000129 .LASF11
     /tmp/cc1CXh6x.s:6129   .debug_str:000000000000024d .LASF12
     /tmp/cc1CXh6x.s:6093   .debug_str:000000000000014b .LASF13
     /tmp/cc1CXh6x.s:6087   .debug_str:0000000000000119 .LASF14
     /tmp/cc1CXh6x.s:6315   .debug_str:00000000000007ad .LASF15
     /tmp/cc1CXh6x.s:6113   .debug_str:00000000000001db .LASF16
     /tmp/cc1CXh6x.s:6305   .debug_str:0000000000000761 .LASF17
     /tmp/cc1CXh6x.s:6207   .debug_str:0000000000000495 .LASF18
     /tmp/cc1CXh6x.s:6319   .debug_str:00000000000007c0 .LASF145
     /tmp/cc1CXh6x.s:6369   .debug_str:00000000000009f6 .LASF164
     /tmp/cc1CXh6x.s:6083   .debug_str:0000000000000101 .LASF19
     /tmp/cc1CXh6x.s:6145   .debug_str:00000000000002bc .LASF21
     /tmp/cc1CXh6x.s:6397   .debug_str:0000000000000ab3 .LASF20
     /tmp/cc1CXh6x.s:6337   .debug_str:00000000000008ec .LASF22
     /tmp/cc1CXh6x.s:6301   .debug_str:000000000000074c .LASF165
     /tmp/cc1CXh6x.s:6189   .debug_str:000000000000040a .LASF51
     /tmp/cc1CXh6x.s:6191   .debug_str:0000000000000410 .LASF53
     /tmp/cc1CXh6x.s:6323   .debug_str:00000000000007d7 .LASF166
     /tmp/cc1CXh6x.s:6185   .debug_str:00000000000003f2 .LASF23
     /tmp/cc1CXh6x.s:6389   .debug_str:0000000000000a8d .LASF24
     /tmp/cc1CXh6x.s:6395   .debug_str:0000000000000aa6 .LASF25
     /tmp/cc1CXh6x.s:6117   .debug_str:00000000000001fe .LASF26
     /tmp/cc1CXh6x.s:6057   .debug_str:000000000000002c .LASF27
     /tmp/cc1CXh6x.s:6169   .debug_str:0000000000000361 .LASF60
     /tmp/cc1CXh6x.s:6155   .debug_str:0000000000000305 .LASF55
     /tmp/cc1CXh6x.s:6079   .debug_str:00000000000000db .LASF57
     /tmp/cc1CXh6x.s:6097   .debug_str:000000000000016b .LASF167
     /tmp/cc1CXh6x.s:6353   .debug_str:0000000000000973 .LASF28
     /tmp/cc1CXh6x.s:6209   .debug_str:000000000000049a .LASF29
     /tmp/cc1CXh6x.s:6365   .debug_str:00000000000009d1 .LASF30
GAS LISTING /tmp/cc1CXh6x.s 			page 51


     /tmp/cc1CXh6x.s:6181   .debug_str:00000000000003d6 .LASF31
     /tmp/cc1CXh6x.s:6393   .debug_str:0000000000000aa1 .LASF32
     /tmp/cc1CXh6x.s:6303   .debug_str:0000000000000758 .LASF33
     /tmp/cc1CXh6x.s:6109   .debug_str:00000000000001c7 .LASF34
     /tmp/cc1CXh6x.s:6333   .debug_str:00000000000008d0 .LASF35
     /tmp/cc1CXh6x.s:6295   .debug_str:000000000000070d .LASF168
     /tmp/cc1CXh6x.s:6107   .debug_str:00000000000001be .LASF41
     /tmp/cc1CXh6x.s:6071   .debug_str:000000000000008f .LASF43
     /tmp/cc1CXh6x.s:6161   .debug_str:000000000000032d .LASF36
     /tmp/cc1CXh6x.s:6359   .debug_str:00000000000009a0 .LASF38
     /tmp/cc1CXh6x.s:6163   .debug_str:000000000000033c .LASF37
     /tmp/cc1CXh6x.s:6197   .debug_str:000000000000043f .LASF39
     /tmp/cc1CXh6x.s:6195   .debug_str:0000000000000435 .LASF40
     /tmp/cc1CXh6x.s:6257   .debug_str:000000000000060c .LASF42
     /tmp/cc1CXh6x.s:6373   .debug_str:0000000000000a29 .LASF44
     /tmp/cc1CXh6x.s:6317   .debug_str:00000000000007b9 .LASF45
     /tmp/cc1CXh6x.s:6349   .debug_str:000000000000095f .LASF169
     /tmp/cc1CXh6x.s:6125   .debug_str:000000000000022a .LASF46
     /tmp/cc1CXh6x.s:6325   .debug_str:00000000000007df .LASF47
     /tmp/cc1CXh6x.s:6103   .debug_str:0000000000000196 .LASF48
     /tmp/cc1CXh6x.s:6375   .debug_str:0000000000000a44 .LASF49
     /tmp/cc1CXh6x.s:6171   .debug_str:000000000000036e .LASF50
     /tmp/cc1CXh6x.s:6151   .debug_str:00000000000002ea .LASF52
     /tmp/cc1CXh6x.s:6243   .debug_str:00000000000005a1 .LASF54
     /tmp/cc1CXh6x.s:6347   .debug_str:0000000000000956 .LASF56
     /tmp/cc1CXh6x.s:6273   .debug_str:000000000000067a .LASF58
     /tmp/cc1CXh6x.s:6271   .debug_str:0000000000000671 .LASF59
     /tmp/cc1CXh6x.s:6259   .debug_str:000000000000061c .LASF61
     /tmp/cc1CXh6x.s:6255   .debug_str:0000000000000605 .LASF62
     /tmp/cc1CXh6x.s:6233   .debug_str:0000000000000542 .LASF63
     /tmp/cc1CXh6x.s:6231   .debug_str:000000000000053b .LASF64
     /tmp/cc1CXh6x.s:6263   .debug_str:0000000000000642 .LASF65
     /tmp/cc1CXh6x.s:6221   .debug_str:00000000000004f5 .LASF66
     /tmp/cc1CXh6x.s:6293   .debug_str:00000000000006f8 .LASF67
     /tmp/cc1CXh6x.s:6225   .debug_str:0000000000000507 .LASF68
     /tmp/cc1CXh6x.s:6193   .debug_str:0000000000000420 .LASF69
     /tmp/cc1CXh6x.s:6199   .debug_str:000000000000045d .LASF70
     /tmp/cc1CXh6x.s:6219   .debug_str:00000000000004e0 .LASF71
     /tmp/cc1CXh6x.s:6401   .debug_str:0000000000000ac9 .LASF72
     /tmp/cc1CXh6x.s:6345   .debug_str:0000000000000941 .LASF73
     /tmp/cc1CXh6x.s:6311   .debug_str:0000000000000796 .LASF74
     /tmp/cc1CXh6x.s:6249   .debug_str:00000000000005d9 .LASF75
     /tmp/cc1CXh6x.s:6291   .debug_str:00000000000006f1 .LASF76
     /tmp/cc1CXh6x.s:6067   .debug_str:000000000000006b .LASF77
     /tmp/cc1CXh6x.s:6111   .debug_str:00000000000001d5 .LASF78
     /tmp/cc1CXh6x.s:6279   .debug_str:00000000000006a9 .LASF79
     /tmp/cc1CXh6x.s:6167   .debug_str:000000000000035b .LASF80
     /tmp/cc1CXh6x.s:6229   .debug_str:0000000000000528 .LASF81
     /tmp/cc1CXh6x.s:6065   .debug_str:0000000000000060 .LASF82
     /tmp/cc1CXh6x.s:6355   .debug_str:000000000000097d .LASF83
     /tmp/cc1CXh6x.s:6275   .debug_str:0000000000000690 .LASF84
     /tmp/cc1CXh6x.s:6227   .debug_str:000000000000050f .LASF85
     /tmp/cc1CXh6x.s:6361   .debug_str:00000000000009be .LASF86
     /tmp/cc1CXh6x.s:6127   .debug_str:0000000000000236 .LASF87
     /tmp/cc1CXh6x.s:6357   .debug_str:0000000000000996 .LASF88
     /tmp/cc1CXh6x.s:6077   .debug_str:00000000000000c4 .LASF89
     /tmp/cc1CXh6x.s:6281   .debug_str:00000000000006bc .LASF90
GAS LISTING /tmp/cc1CXh6x.s 			page 52


     /tmp/cc1CXh6x.s:6223   .debug_str:00000000000004fd .LASF91
     /tmp/cc1CXh6x.s:6285   .debug_str:00000000000006cd .LASF92
     /tmp/cc1CXh6x.s:6287   .debug_str:00000000000006d7 .LASF93
     /tmp/cc1CXh6x.s:6391   .debug_str:0000000000000a99 .LASF94
     /tmp/cc1CXh6x.s:6241   .debug_str:000000000000058f .LASF95
     /tmp/cc1CXh6x.s:6123   .debug_str:0000000000000217 .LASF96
     /tmp/cc1CXh6x.s:6253   .debug_str:00000000000005f9 .LASF97
     /tmp/cc1CXh6x.s:6371   .debug_str:0000000000000a0d .LASF98
     /tmp/cc1CXh6x.s:6075   .debug_str:00000000000000b4 .LASF99
     /tmp/cc1CXh6x.s:6183   .debug_str:00000000000003e0 .LASF112
     /tmp/cc1CXh6x.s:6363   .debug_str:00000000000009c8 .LASF100
     /tmp/cc1CXh6x.s:6379   .debug_str:0000000000000a58 .LASF115
     /tmp/cc1CXh6x.s:6147   .debug_str:00000000000002d3 .LASF170
     /tmp/cc1CXh6x.s:6343   .debug_str:0000000000000931 .LASF101
     /tmp/cc1CXh6x.s:6059   .debug_str:000000000000003c .LASF102
     /tmp/cc1CXh6x.s:6383   .debug_str:0000000000000a77 .LASF103
     /tmp/cc1CXh6x.s:6217   .debug_str:00000000000004d1 .LASF104
     /tmp/cc1CXh6x.s:6239   .debug_str:0000000000000579 .LASF105
     /tmp/cc1CXh6x.s:6053   .debug_str:0000000000000012 .LASF106
     /tmp/cc1CXh6x.s:6073   .debug_str:00000000000000a2 .LASF107
     /tmp/cc1CXh6x.s:6235   .debug_str:0000000000000556 .LASF108
     /tmp/cc1CXh6x.s:6251   .debug_str:00000000000005ed .LASF109
     /tmp/cc1CXh6x.s:6177   .debug_str:00000000000003a7 .LASF110
     /tmp/cc1CXh6x.s:6205   .debug_str:0000000000000485 .LASF111
     /tmp/cc1CXh6x.s:6335   .debug_str:00000000000008da .LASF113
     /tmp/cc1CXh6x.s:6269   .debug_str:0000000000000668 .LASF114
     /tmp/cc1CXh6x.s:6157   .debug_str:0000000000000310 .LASF116
     /tmp/cc1CXh6x.s:6387   .debug_str:0000000000000a85 .LASF117
     /tmp/cc1CXh6x.s:6215   .debug_str:00000000000004bf .LASF118
     /tmp/cc1CXh6x.s:6339   .debug_str:000000000000090c .LASF119
     /tmp/cc1CXh6x.s:6085   .debug_str:000000000000010d .LASF120
     /tmp/cc1CXh6x.s:6367   .debug_str:00000000000009da .LASF121
     /tmp/cc1CXh6x.s:6331   .debug_str:00000000000008c0 .LASF122
     /tmp/cc1CXh6x.s:6173   .debug_str:0000000000000383 .LASF123
     /tmp/cc1CXh6x.s:6267   .debug_str:000000000000065f .LASF124
     /tmp/cc1CXh6x.s:6297   .debug_str:000000000000071e .LASF125
     /tmp/cc1CXh6x.s:6385   .debug_str:0000000000000a7d .LASF126
     /tmp/cc1CXh6x.s:6051   .debug_str:0000000000000000 .LASF127
     /tmp/cc1CXh6x.s:6091   .debug_str:0000000000000138 .LASF128
     /tmp/cc1CXh6x.s:6247   .debug_str:00000000000005cd .LASF129
     /tmp/cc1CXh6x.s:6105   .debug_str:00000000000001a2 .LASF130
     /tmp/cc1CXh6x.s:6101   .debug_str:0000000000000186 .LASF131
     /tmp/cc1CXh6x.s:6341   .debug_str:000000000000091f .LASF132
     /tmp/cc1CXh6x.s:6265   .debug_str:0000000000000656 .LASF133
     /tmp/cc1CXh6x.s:6403   .debug_str:0000000000000ad1 .LASF134
     /tmp/cc1CXh6x.s:6133   .debug_str:0000000000000269 .LASF135
     /tmp/cc1CXh6x.s:6061   .debug_str:000000000000004f .LASF136
     /tmp/cc1CXh6x.s:6149   .debug_str:00000000000002da .LASF137
     /tmp/cc1CXh6x.s:49     .text._ZN7WorkerAD0Ev:0000000000000000 .LFB66
     /tmp/cc1CXh6x.s:89     .text._ZN7WorkerAD0Ev:000000000000004c .LFE66
     /tmp/cc1CXh6x.s:5380   .debug_loc:0000000000000000 .LLST1
     /tmp/cc1CXh6x.s:65     .text._ZN7WorkerAD0Ev:0000000000000018 .LBB31
     /tmp/cc1CXh6x.s:73     .text._ZN7WorkerAD0Ev:000000000000002c .LBE31
     /tmp/cc1CXh6x.s:5398   .debug_loc:000000000000004c .LLST2
     /tmp/cc1CXh6x.s:71     .text._ZN7WorkerAD0Ev:000000000000002c .LVL4
     /tmp/cc1CXh6x.s:76     .text._ZN7WorkerAD0Ev:0000000000000038 .LVL5
     /tmp/cc1CXh6x.s:6203   .debug_str:0000000000000475 .LASF138
GAS LISTING /tmp/cc1CXh6x.s 			page 53


     /tmp/cc1CXh6x.s:11     .text._ZN7WorkerAD2Ev:0000000000000000 .LFB64
     /tmp/cc1CXh6x.s:40     .text._ZN7WorkerAD2Ev:0000000000000034 .LFE64
     /tmp/cc1CXh6x.s:5409   .debug_loc:0000000000000082 .LLST0
     /tmp/cc1CXh6x.s:29     .text._ZN7WorkerAD2Ev:0000000000000024 .LVL1
     /tmp/cc1CXh6x.s:6313   .debug_str:000000000000079d .LASF139
     /tmp/cc1CXh6x.s:133    .text._ZN7WorkerBD0Ev:0000000000000000 .LFB62
     /tmp/cc1CXh6x.s:173    .text._ZN7WorkerBD0Ev:000000000000004c .LFE62
     /tmp/cc1CXh6x.s:5423   .debug_loc:00000000000000bb .LLST4
     /tmp/cc1CXh6x.s:149    .text._ZN7WorkerBD0Ev:0000000000000018 .LBB34
     /tmp/cc1CXh6x.s:157    .text._ZN7WorkerBD0Ev:000000000000002c .LBE34
     /tmp/cc1CXh6x.s:5441   .debug_loc:0000000000000107 .LLST5
     /tmp/cc1CXh6x.s:155    .text._ZN7WorkerBD0Ev:000000000000002c .LVL11
     /tmp/cc1CXh6x.s:160    .text._ZN7WorkerBD0Ev:0000000000000038 .LVL12
     /tmp/cc1CXh6x.s:6081   .debug_str:00000000000000f1 .LASF140
     /tmp/cc1CXh6x.s:96     .text._ZN7WorkerBD2Ev:0000000000000000 .LFB60
     /tmp/cc1CXh6x.s:124    .text._ZN7WorkerBD2Ev:0000000000000034 .LFE60
     /tmp/cc1CXh6x.s:5452   .debug_loc:000000000000013d .LLST3
     /tmp/cc1CXh6x.s:113    .text._ZN7WorkerBD2Ev:0000000000000024 .LVL8
     /tmp/cc1CXh6x.s:6069   .debug_str:000000000000007f .LASF141
     /tmp/cc1CXh6x.s:217    .text._ZN7WorkerCD0Ev:0000000000000000 .LFB58
     /tmp/cc1CXh6x.s:257    .text._ZN7WorkerCD0Ev:000000000000004c .LFE58
     /tmp/cc1CXh6x.s:5466   .debug_loc:0000000000000176 .LLST7
     /tmp/cc1CXh6x.s:233    .text._ZN7WorkerCD0Ev:0000000000000018 .LBB37
     /tmp/cc1CXh6x.s:241    .text._ZN7WorkerCD0Ev:000000000000002c .LBE37
     /tmp/cc1CXh6x.s:5484   .debug_loc:00000000000001c2 .LLST8
     /tmp/cc1CXh6x.s:239    .text._ZN7WorkerCD0Ev:000000000000002c .LVL18
     /tmp/cc1CXh6x.s:244    .text._ZN7WorkerCD0Ev:0000000000000038 .LVL19
     /tmp/cc1CXh6x.s:6165   .debug_str:000000000000034b .LASF142
     /tmp/cc1CXh6x.s:180    .text._ZN7WorkerCD2Ev:0000000000000000 .LFB56
     /tmp/cc1CXh6x.s:208    .text._ZN7WorkerCD2Ev:0000000000000034 .LFE56
     /tmp/cc1CXh6x.s:5495   .debug_loc:00000000000001f8 .LLST6
     /tmp/cc1CXh6x.s:197    .text._ZN7WorkerCD2Ev:0000000000000024 .LVL15
     /tmp/cc1CXh6x.s:6289   .debug_str:00000000000006e1 .LASF143
     /tmp/cc1CXh6x.s:301    .text._ZN7WorkerDD0Ev:0000000000000000 .LFB54
     /tmp/cc1CXh6x.s:341    .text._ZN7WorkerDD0Ev:000000000000004c .LFE54
     /tmp/cc1CXh6x.s:5509   .debug_loc:0000000000000231 .LLST10
     /tmp/cc1CXh6x.s:317    .text._ZN7WorkerDD0Ev:0000000000000018 .LBB40
     /tmp/cc1CXh6x.s:325    .text._ZN7WorkerDD0Ev:000000000000002c .LBE40
     /tmp/cc1CXh6x.s:5527   .debug_loc:000000000000027d .LLST11
     /tmp/cc1CXh6x.s:323    .text._ZN7WorkerDD0Ev:000000000000002c .LVL25
     /tmp/cc1CXh6x.s:328    .text._ZN7WorkerDD0Ev:0000000000000038 .LVL26
     /tmp/cc1CXh6x.s:6153   .debug_str:00000000000002f5 .LASF144
     /tmp/cc1CXh6x.s:264    .text._ZN7WorkerDD2Ev:0000000000000000 .LFB52
     /tmp/cc1CXh6x.s:292    .text._ZN7WorkerDD2Ev:0000000000000034 .LFE52
     /tmp/cc1CXh6x.s:5538   .debug_loc:00000000000002b3 .LLST9
     /tmp/cc1CXh6x.s:281    .text._ZN7WorkerDD2Ev:0000000000000024 .LVL22
     /tmp/cc1CXh6x.s:1486   .text:00000000000006d8 .LFE50
     /tmp/cc1CXh6x.s:5552   .debug_loc:00000000000002ec .LLST36
     /tmp/cc1CXh6x.s:6099   .debug_str:000000000000017e .LASF146
     /tmp/cc1CXh6x.s:1354   .text:00000000000005bc .LBB68
     /tmp/cc1CXh6x.s:1377   .text:00000000000005e8 .LBE68
     /tmp/cc1CXh6x.s:5559   .debug_loc:000000000000030f .LLST42
     /tmp/cc1CXh6x.s:1370   .text:00000000000005e0 .LVL153
     /tmp/cc1CXh6x.s:1397   .text:0000000000000620 .LBB69
     /tmp/cc1CXh6x.s:1426   .text:0000000000000650 .LBE69
     /tmp/cc1CXh6x.s:6119   .debug_str:000000000000020a .LASF147
     /tmp/cc1CXh6x.s:5570   .debug_loc:0000000000000345 .LLST43
GAS LISTING /tmp/cc1CXh6x.s 			page 54


     /tmp/cc1CXh6x.s:6307   .debug_str:0000000000000777 .LASF148
     /tmp/cc1CXh6x.s:6321   .debug_str:00000000000007cb .LASF171
     /tmp/cc1CXh6x.s:5577   .debug_loc:0000000000000368 .LLST44
     /tmp/cc1CXh6x.s:6135   .debug_str:000000000000026e .LASF149
     /tmp/cc1CXh6x.s:1226   .text:00000000000004d4 .LBB58
     /tmp/cc1CXh6x.s:1239   .text:00000000000004dc .LBE58
     /tmp/cc1CXh6x.s:5588   .debug_loc:000000000000039e .LLST37
     /tmp/cc1CXh6x.s:1251   .text:00000000000004ec .LBB60
     /tmp/cc1CXh6x.s:1261   .text:0000000000000500 .LBE60
     /tmp/cc1CXh6x.s:5596   .debug_loc:00000000000003c2 .LLST38
     /tmp/cc1CXh6x.s:1255   .text:00000000000004f4 .LVL134
     /tmp/cc1CXh6x.s:1279   .text:0000000000000524 .LBB62
     /tmp/cc1CXh6x.s:1289   .text:0000000000000538 .LBE62
     /tmp/cc1CXh6x.s:5607   .debug_loc:00000000000003f8 .LLST39
     /tmp/cc1CXh6x.s:1283   .text:000000000000052c .LVL139
     /tmp/cc1CXh6x.s:1307   .text:000000000000055c .LBB64
     /tmp/cc1CXh6x.s:1317   .text:0000000000000570 .LBE64
     /tmp/cc1CXh6x.s:5618   .debug_loc:000000000000042e .LLST40
     /tmp/cc1CXh6x.s:1311   .text:0000000000000564 .LVL144
     /tmp/cc1CXh6x.s:1335   .text:0000000000000594 .LBB66
     /tmp/cc1CXh6x.s:1345   .text:00000000000005a8 .LBE66
     /tmp/cc1CXh6x.s:5629   .debug_loc:0000000000000464 .LLST41
     /tmp/cc1CXh6x.s:1339   .text:000000000000059c .LVL149
     /tmp/cc1CXh6x.s:1219   .text:00000000000004c8 .LVL128
     /tmp/cc1CXh6x.s:1246   .text:00000000000004e8 .LVL132
     /tmp/cc1CXh6x.s:1269   .text:0000000000000514 .LVL136
     /tmp/cc1CXh6x.s:1274   .text:0000000000000520 .LVL137
     /tmp/cc1CXh6x.s:1297   .text:000000000000054c .LVL141
     /tmp/cc1CXh6x.s:1302   .text:0000000000000558 .LVL142
     /tmp/cc1CXh6x.s:1325   .text:0000000000000584 .LVL146
     /tmp/cc1CXh6x.s:1330   .text:0000000000000590 .LVL147
     /tmp/cc1CXh6x.s:1353   .text:00000000000005bc .LVL151
     /tmp/cc1CXh6x.s:1381   .text:00000000000005f0 .LVL156
     /tmp/cc1CXh6x.s:1430   .text:000000000000065c .LVL163
     /tmp/cc1CXh6x.s:1434   .text:0000000000000668 .LVL164
     /tmp/cc1CXh6x.s:1441   .text:0000000000000678 .LVL165
     /tmp/cc1CXh6x.s:1445   .text:0000000000000684 .LVL166
     /tmp/cc1CXh6x.s:1452   .text:0000000000000694 .LVL167
     /tmp/cc1CXh6x.s:1456   .text:00000000000006a0 .LVL168
     /tmp/cc1CXh6x.s:1463   .text:00000000000006b0 .LVL169
     /tmp/cc1CXh6x.s:1467   .text:00000000000006bc .LVL170
     /tmp/cc1CXh6x.s:991    .text:0000000000000364 .LFB49
     /tmp/cc1CXh6x.s:1134   .text:0000000000000494 .LFE49
     /tmp/cc1CXh6x.s:5640   .debug_loc:000000000000049a .LLST31
     /tmp/cc1CXh6x.s:5654   .debug_loc:00000000000004d3 .LLST32
     /tmp/cc1CXh6x.s:5668   .debug_loc:000000000000050c .LLST33
     /tmp/cc1CXh6x.s:6399   .debug_str:0000000000000ac2 .LASF150
     /tmp/cc1CXh6x.s:5688   .debug_loc:0000000000000569 .LLST34
     /tmp/cc1CXh6x.s:1018   .text:0000000000000394 .LVL104
     /tmp/cc1CXh6x.s:1023   .text:00000000000003a0 .LVL105
     /tmp/cc1CXh6x.s:1028   .text:00000000000003b0 .LVL106
     /tmp/cc1CXh6x.s:1043   .text:00000000000003d0 .LVL109
     /tmp/cc1CXh6x.s:1054   .text:00000000000003dc .LVL110
     /tmp/cc1CXh6x.s:1059   .text:00000000000003e8 .LVL111
     /tmp/cc1CXh6x.s:1067   .text:00000000000003fc .LVL114
     /tmp/cc1CXh6x.s:1072   .text:0000000000000408 .LVL115
     /tmp/cc1CXh6x.s:1077   .text:0000000000000418 .LVL116
GAS LISTING /tmp/cc1CXh6x.s 			page 55


     /tmp/cc1CXh6x.s:1084   .text:000000000000042c .LVL117
     /tmp/cc1CXh6x.s:1089   .text:0000000000000438 .LVL118
     /tmp/cc1CXh6x.s:1094   .text:0000000000000448 .LVL119
     /tmp/cc1CXh6x.s:1109   .text:0000000000000468 .LVL122
     /tmp/cc1CXh6x.s:1117   .text:000000000000047c .LVL123
     /tmp/cc1CXh6x.s:770    .text:0000000000000204 .LFB48
     /tmp/cc1CXh6x.s:937    .text:0000000000000364 .LFE48
     /tmp/cc1CXh6x.s:5699   .debug_loc:000000000000059f .LLST25
     /tmp/cc1CXh6x.s:5713   .debug_loc:00000000000005d8 .LLST26
     /tmp/cc1CXh6x.s:5727   .debug_loc:0000000000000611 .LLST27
     /tmp/cc1CXh6x.s:5747   .debug_loc:000000000000066e .LLST28
     /tmp/cc1CXh6x.s:5755   .debug_loc:0000000000000692 .LLST29
     /tmp/cc1CXh6x.s:797    .text:0000000000000234 .LVL73
     /tmp/cc1CXh6x.s:802    .text:0000000000000240 .LVL74
     /tmp/cc1CXh6x.s:807    .text:0000000000000250 .LVL75
     /tmp/cc1CXh6x.s:822    .text:0000000000000270 .LVL78
     /tmp/cc1CXh6x.s:833    .text:000000000000027c .LVL79
     /tmp/cc1CXh6x.s:847    .text:0000000000000290 .LVL81
     /tmp/cc1CXh6x.s:852    .text:000000000000029c .LVL82
     /tmp/cc1CXh6x.s:857    .text:00000000000002ac .LVL83
     /tmp/cc1CXh6x.s:862    .text:00000000000002b8 .LVL84
     /tmp/cc1CXh6x.s:870    .text:00000000000002cc .LVL87
     /tmp/cc1CXh6x.s:875    .text:00000000000002d8 .LVL88
     /tmp/cc1CXh6x.s:880    .text:00000000000002e8 .LVL89
     /tmp/cc1CXh6x.s:887    .text:00000000000002fc .LVL90
     /tmp/cc1CXh6x.s:892    .text:0000000000000308 .LVL91
     /tmp/cc1CXh6x.s:897    .text:0000000000000318 .LVL92
     /tmp/cc1CXh6x.s:912    .text:0000000000000338 .LVL95
     /tmp/cc1CXh6x.s:920    .text:000000000000034c .LVL96
     /tmp/cc1CXh6x.s:595    .text:0000000000000138 .LFB47
     /tmp/cc1CXh6x.s:716    .text:0000000000000204 .LFE47
     /tmp/cc1CXh6x.s:5766   .debug_loc:00000000000006c8 .LLST19
     /tmp/cc1CXh6x.s:5780   .debug_loc:0000000000000701 .LLST20
     /tmp/cc1CXh6x.s:613    .text:0000000000000150 .LBB50
     /tmp/cc1CXh6x.s:687    .text:00000000000001c8 .LBE50
     /tmp/cc1CXh6x.s:5794   .debug_loc:000000000000073a .LLST21
     /tmp/cc1CXh6x.s:5806   .debug_loc:0000000000000771 .LLST22
     /tmp/cc1CXh6x.s:636    .text:0000000000000170 .LBB54
     /tmp/cc1CXh6x.s:651    .text:0000000000000188 .LBE54
     /tmp/cc1CXh6x.s:5818   .debug_loc:00000000000007a8 .LLST23
     /tmp/cc1CXh6x.s:625    .text:0000000000000160 .LVL55
     /tmp/cc1CXh6x.s:667    .text:00000000000001a4 .LVL61
     /tmp/cc1CXh6x.s:672    .text:00000000000001b0 .LVL62
     /tmp/cc1CXh6x.s:677    .text:00000000000001c0 .LVL63
     /tmp/cc1CXh6x.s:692    .text:00000000000001d8 .LVL65
     /tmp/cc1CXh6x.s:700    .text:00000000000001ec .LVL66
     /tmp/cc1CXh6x.s:430    .text:0000000000000074 .LFB46
     /tmp/cc1CXh6x.s:547    .text:0000000000000138 .LFE46
     /tmp/cc1CXh6x.s:5829   .debug_loc:00000000000007de .LLST13
     /tmp/cc1CXh6x.s:5843   .debug_loc:0000000000000817 .LLST14
     /tmp/cc1CXh6x.s:448    .text:000000000000008c .LBB42
     /tmp/cc1CXh6x.s:522    .text:0000000000000104 .LBE42
     /tmp/cc1CXh6x.s:5857   .debug_loc:0000000000000850 .LLST15
     /tmp/cc1CXh6x.s:5869   .debug_loc:0000000000000887 .LLST16
     /tmp/cc1CXh6x.s:471    .text:00000000000000ac .LBB46
     /tmp/cc1CXh6x.s:486    .text:00000000000000c4 .LBE46
     /tmp/cc1CXh6x.s:5881   .debug_loc:00000000000008be .LLST17
GAS LISTING /tmp/cc1CXh6x.s 			page 56


     /tmp/cc1CXh6x.s:460    .text:000000000000009c .LVL38
     /tmp/cc1CXh6x.s:502    .text:00000000000000e0 .LVL44
     /tmp/cc1CXh6x.s:507    .text:00000000000000ec .LVL45
     /tmp/cc1CXh6x.s:512    .text:00000000000000fc .LVL46
     /tmp/cc1CXh6x.s:527    .text:0000000000000114 .LVL48
     /tmp/cc1CXh6x.s:1141   .text._ZN7WorkerD3runEv:0000000000000000 .LFB45
     /tmp/cc1CXh6x.s:1168   .text._ZN7WorkerD3runEv:000000000000002c .LFE45
     /tmp/cc1CXh6x.s:5892   .debug_loc:00000000000008f4 .LLST35
     /tmp/cc1CXh6x.s:1157   .text._ZN7WorkerD3runEv:000000000000001c .LVL127
     /tmp/cc1CXh6x.s:6201   .debug_str:0000000000000465 .LASF151
     /tmp/cc1CXh6x.s:944    .text._ZN7WorkerC3runEv:0000000000000000 .LFB41
     /tmp/cc1CXh6x.s:971    .text._ZN7WorkerC3runEv:000000000000002c .LFE41
     /tmp/cc1CXh6x.s:5906   .debug_loc:000000000000092d .LLST30
     /tmp/cc1CXh6x.s:960    .text._ZN7WorkerC3runEv:000000000000001c .LVL100
     /tmp/cc1CXh6x.s:6329   .debug_str:00000000000008b0 .LASF152
     /tmp/cc1CXh6x.s:723    .text._ZN7WorkerB3runEv:0000000000000000 .LFB37
     /tmp/cc1CXh6x.s:750    .text._ZN7WorkerB3runEv:000000000000002c .LFE37
     /tmp/cc1CXh6x.s:5920   .debug_loc:0000000000000966 .LLST24
     /tmp/cc1CXh6x.s:739    .text._ZN7WorkerB3runEv:000000000000001c .LVL69
     /tmp/cc1CXh6x.s:6095   .debug_str:000000000000015b .LASF153
     /tmp/cc1CXh6x.s:554    .text._ZN7WorkerA3runEv:0000000000000000 .LFB33
     /tmp/cc1CXh6x.s:581    .text._ZN7WorkerA3runEv:000000000000002c .LFE33
     /tmp/cc1CXh6x.s:5934   .debug_loc:000000000000099f .LLST18
     /tmp/cc1CXh6x.s:570    .text._ZN7WorkerA3runEv:000000000000001c .LVL51
     /tmp/cc1CXh6x.s:6237   .debug_str:0000000000000569 .LASF154
     /tmp/cc1CXh6x.s:6211   .debug_str:00000000000004a0 .LASF172
     /tmp/cc1CXh6x.s:6137   .debug_str:0000000000000278 .LASF173
     /tmp/cc1CXh6x.s:348    .text:0000000000000000 .LFB29
     /tmp/cc1CXh6x.s:413    .text:0000000000000074 .LFE29
     /tmp/cc1CXh6x.s:5948   .debug_loc:00000000000009d8 .LLST12
     /tmp/cc1CXh6x.s:380    .text:000000000000003c .LVL30
     /tmp/cc1CXh6x.s:385    .text:000000000000004c .LVL31
     /tmp/cc1CXh6x.s:410    .text:0000000000000070 .LVL34
     /tmp/cc1CXh6x.s:6351   .debug_str:000000000000096e .LASF174
     /tmp/cc1CXh6x.s:6309   .debug_str:0000000000000783 .LASF155
     /tmp/cc1CXh6x.s:6377   .debug_str:0000000000000a4c .LASF156
     /tmp/cc1CXh6x.s:6381   .debug_str:0000000000000a68 .LASF175
     /tmp/cc1CXh6x.s:6141   .debug_str:0000000000000296 .LASF176
     /tmp/cc1CXh6x.s:6055   .debug_str:000000000000001a .LASF157
     /tmp/cc1CXh6x.s:6115   .debug_str:00000000000001f1 .LASF158
     /tmp/cc1CXh6x.s:6213   .debug_str:00000000000004aa .LASF159
     /tmp/cc1CXh6x.s:6261   .debug_str:0000000000000632 .LASF160
     /tmp/cc1CXh6x.s:52     .text._ZN7WorkerAD0Ev:0000000000000000 .LVL2
     /tmp/cc1CXh6x.s:84     .text._ZN7WorkerAD0Ev:0000000000000044 .LVL6
     /tmp/cc1CXh6x.s:64     .text._ZN7WorkerAD0Ev:0000000000000018 .LVL3
     /tmp/cc1CXh6x.s:15     .text._ZN7WorkerAD2Ev:0000000000000000 .LVL0
     /tmp/cc1CXh6x.s:136    .text._ZN7WorkerBD0Ev:0000000000000000 .LVL9
     /tmp/cc1CXh6x.s:168    .text._ZN7WorkerBD0Ev:0000000000000044 .LVL13
     /tmp/cc1CXh6x.s:148    .text._ZN7WorkerBD0Ev:0000000000000018 .LVL10
     /tmp/cc1CXh6x.s:99     .text._ZN7WorkerBD2Ev:0000000000000000 .LVL7
     /tmp/cc1CXh6x.s:220    .text._ZN7WorkerCD0Ev:0000000000000000 .LVL16
     /tmp/cc1CXh6x.s:252    .text._ZN7WorkerCD0Ev:0000000000000044 .LVL20
     /tmp/cc1CXh6x.s:232    .text._ZN7WorkerCD0Ev:0000000000000018 .LVL17
     /tmp/cc1CXh6x.s:183    .text._ZN7WorkerCD2Ev:0000000000000000 .LVL14
     /tmp/cc1CXh6x.s:304    .text._ZN7WorkerDD0Ev:0000000000000000 .LVL23
     /tmp/cc1CXh6x.s:336    .text._ZN7WorkerDD0Ev:0000000000000044 .LVL27
     /tmp/cc1CXh6x.s:316    .text._ZN7WorkerDD0Ev:0000000000000018 .LVL24
GAS LISTING /tmp/cc1CXh6x.s 			page 57


     /tmp/cc1CXh6x.s:267    .text._ZN7WorkerDD2Ev:0000000000000000 .LVL21
     /tmp/cc1CXh6x.s:1244   .text:00000000000004e0 .LVL131
     /tmp/cc1CXh6x.s:1358   .text:00000000000005c0 .LVL152
     /tmp/cc1CXh6x.s:1373   .text:00000000000005e4 .LVL154
     /tmp/cc1CXh6x.s:1375   .text:00000000000005e8 .LVL155
     /tmp/cc1CXh6x.s:1400   .text:0000000000000624 .LVL157
     /tmp/cc1CXh6x.s:1413   .text:0000000000000638 .LVL160
     /tmp/cc1CXh6x.s:1421   .text:0000000000000648 .LVL161
     /tmp/cc1CXh6x.s:1402   .text:0000000000000628 .LVL158
     /tmp/cc1CXh6x.s:1423   .text:000000000000064c .LVL162
     /tmp/cc1CXh6x.s:1479   .text:00000000000006cc .LVL171
     /tmp/cc1CXh6x.s:1225   .text:00000000000004d4 .LVL129
     /tmp/cc1CXh6x.s:1236   .text:00000000000004dc .LVL130
     /tmp/cc1CXh6x.s:1249   .text:00000000000004ec .LVL133
     /tmp/cc1CXh6x.s:1259   .text:0000000000000500 .LVL135
     /tmp/cc1CXh6x.s:1277   .text:0000000000000524 .LVL138
     /tmp/cc1CXh6x.s:1287   .text:0000000000000538 .LVL140
     /tmp/cc1CXh6x.s:1305   .text:000000000000055c .LVL143
     /tmp/cc1CXh6x.s:1315   .text:0000000000000570 .LVL145
     /tmp/cc1CXh6x.s:1333   .text:0000000000000594 .LVL148
     /tmp/cc1CXh6x.s:1343   .text:00000000000005a8 .LVL150
     /tmp/cc1CXh6x.s:994    .text:0000000000000364 .LVL101
     /tmp/cc1CXh6x.s:1012   .text:0000000000000384 .LVL103
     /tmp/cc1CXh6x.s:1008   .text:000000000000037c .LVL102
     /tmp/cc1CXh6x.s:1031   .text:00000000000003b4 .LVL107
     /tmp/cc1CXh6x.s:1033   .text:00000000000003b8 .LVL108
     /tmp/cc1CXh6x.s:1097   .text:000000000000044c .LVL120
     /tmp/cc1CXh6x.s:1099   .text:0000000000000450 .LVL121
     /tmp/cc1CXh6x.s:1126   .text:0000000000000488 .LVL124
     /tmp/cc1CXh6x.s:1061   .text:00000000000003ec .LVL112
     /tmp/cc1CXh6x.s:1065   .text:00000000000003f4 .LVL113
     /tmp/cc1CXh6x.s:1129   .text:000000000000048c .LVL125
     /tmp/cc1CXh6x.s:773    .text:0000000000000204 .LVL70
     /tmp/cc1CXh6x.s:791    .text:0000000000000224 .LVL72
     /tmp/cc1CXh6x.s:787    .text:000000000000021c .LVL71
     /tmp/cc1CXh6x.s:810    .text:0000000000000254 .LVL76
     /tmp/cc1CXh6x.s:812    .text:0000000000000258 .LVL77
     /tmp/cc1CXh6x.s:900    .text:000000000000031c .LVL93
     /tmp/cc1CXh6x.s:902    .text:0000000000000320 .LVL94
     /tmp/cc1CXh6x.s:929    .text:0000000000000358 .LVL97
     /tmp/cc1CXh6x.s:841    .text:0000000000000280 .LVL80
     /tmp/cc1CXh6x.s:864    .text:00000000000002bc .LVL85
     /tmp/cc1CXh6x.s:868    .text:00000000000002c4 .LVL86
     /tmp/cc1CXh6x.s:932    .text:000000000000035c .LVL98
     /tmp/cc1CXh6x.s:598    .text:0000000000000138 .LVL52
     /tmp/cc1CXh6x.s:617    .text:0000000000000158 .LVL54
     /tmp/cc1CXh6x.s:612    .text:0000000000000150 .LVL53
     /tmp/cc1CXh6x.s:711    .text:00000000000001fc .LVL67
     /tmp/cc1CXh6x.s:657    .text:000000000000018c .LVL60
     /tmp/cc1CXh6x.s:683    .text:00000000000001c8 .LVL64
     /tmp/cc1CXh6x.s:640    .text:0000000000000174 .LVL57
     /tmp/cc1CXh6x.s:649    .text:0000000000000188 .LVL59
     /tmp/cc1CXh6x.s:433    .text:0000000000000074 .LVL35
     /tmp/cc1CXh6x.s:452    .text:0000000000000094 .LVL37
     /tmp/cc1CXh6x.s:447    .text:000000000000008c .LVL36
     /tmp/cc1CXh6x.s:542    .text:0000000000000130 .LVL49
     /tmp/cc1CXh6x.s:492    .text:00000000000000c8 .LVL43
GAS LISTING /tmp/cc1CXh6x.s 			page 58


     /tmp/cc1CXh6x.s:518    .text:0000000000000104 .LVL47
     /tmp/cc1CXh6x.s:475    .text:00000000000000b0 .LVL40
     /tmp/cc1CXh6x.s:484    .text:00000000000000c4 .LVL42
     /tmp/cc1CXh6x.s:1144   .text._ZN7WorkerD3runEv:0000000000000000 .LVL126
     /tmp/cc1CXh6x.s:947    .text._ZN7WorkerC3runEv:0000000000000000 .LVL99
     /tmp/cc1CXh6x.s:726    .text._ZN7WorkerB3runEv:0000000000000000 .LVL68
     /tmp/cc1CXh6x.s:557    .text._ZN7WorkerA3runEv:0000000000000000 .LVL50
     /tmp/cc1CXh6x.s:351    .text:0000000000000000 .LVL28
     /tmp/cc1CXh6x.s:374    .text:0000000000000030 .LVL29
     /tmp/cc1CXh6x.s:398    .text:000000000000005c .LVL32
     /tmp/cc1CXh6x.s:404    .text:0000000000000068 .LVL33
     /tmp/cc1CXh6x.s:1622   .debug_info:0000000000000000 .Ldebug_info0
     /tmp/cc1CXh6x.s:5      .text:0000000000000000 .Ltext0
     /tmp/cc1CXh6x.s:1615   .text:00000000000006d8 .Letext0
     /tmp/cc1CXh6x.s:455    .text:0000000000000094 .LBB44
     /tmp/cc1CXh6x.s:488    .text:00000000000000c4 .LBE44
     /tmp/cc1CXh6x.s:514    .text:00000000000000fc .LBB48
     /tmp/cc1CXh6x.s:520    .text:0000000000000104 .LBE48
     /tmp/cc1CXh6x.s:620    .text:0000000000000158 .LBB52
     /tmp/cc1CXh6x.s:653    .text:0000000000000188 .LBE52
     /tmp/cc1CXh6x.s:679    .text:00000000000001c0 .LBB56
     /tmp/cc1CXh6x.s:685    .text:00000000000001c8 .LBE56
     /tmp/cc1CXh6x.s:1489   .gcc_except_table:0000000000000000 .LLSDA50
                           .group:0000000000000000 _ZN7WorkerAD5Ev
                           .group:0000000000000000 _ZN7WorkerBD5Ev
                           .group:0000000000000000 _ZN7WorkerCD5Ev
                           .group:0000000000000000 _ZN7WorkerDD5Ev

UNDEFINED SYMBOLS
_ZN6ThreadD2Ev
_ZN6ThreaddlEPv
_Z15thread_dispatchv
_Z11printStringPKc
_Z12printIntegerm
interrupt
_ZN3PCB14createProccessEPFvvEPv
_ZN3PCB7runningE
_ZN6ThreadnwEm
_ZN6ThreadC2Ev
_ZN6Thread5startEv
_ZN6Thread8dispatchEv
_Unwind_Resume
__gxx_personality_v0
