GAS LISTING /tmp/ccIpvNYv.s 			page 1


   1              		.file	"main.cpp"
   2              		.option pic
   3              		.option norelax
   4              		.text
   5              	.Ltext0:
   6              		.align	2
   7              		.globl	_Z12checkNullptrPv
   9              	_Z12checkNullptrPv:
  10              	.LFB9:
  11              		.file 1 "src/main.cpp"
   1:src/main.cpp  **** #include "../lib/hw.h"
   2:src/main.cpp  **** #include "../lib/console.h"
   3:src/main.cpp  **** #include "../h/MemoryAllocator.h"
   4:src/main.cpp  **** #include "../h/syscall_c.h"
   5:src/main.cpp  **** #include "../h/print.h"
   6:src/main.cpp  **** 
   7:src/main.cpp  **** void checkNullptr(void* p) {
  12              		.loc 1 7 28
  13              		.cfi_startproc
  14              	.LVL0:
   8:src/main.cpp  ****     static int x = 0;
  15              		.loc 1 8 5
   9:src/main.cpp  ****     if(p == nullptr) {
  16              		.loc 1 9 5
  17 0000 630E0500 		beqz	a0,.L7
  10:src/main.cpp  ****         __putc('?');
  11:src/main.cpp  ****         __putc('0' + x);
  12:src/main.cpp  ****     }
  13:src/main.cpp  ****     x++;
  18              		.loc 1 13 5
  19              		.loc 1 13 6 is_stmt 0
  20 0004 17070000 		lla	a4,.LANCHOR0
  20      13070700 
  21 000c 83270700 		lw	a5,0(a4)
  22 0010 9B871700 		addiw	a5,a5,1
  23 0014 2320F700 		sw	a5,0(a4)
  24 0018 67800000 		ret
  25              	.L7:
   7:src/main.cpp  ****     static int x = 0;
  26              		.loc 1 7 28
  27 001c 130101FF 		addi	sp,sp,-16
  28              		.cfi_def_cfa_offset 16
  29 0020 23341100 		sd	ra,8(sp)
  30 0024 23308100 		sd	s0,0(sp)
  31              		.cfi_offset 1, -8
  32              		.cfi_offset 8, -16
  33 0028 13040101 		addi	s0,sp,16
  34              		.cfi_def_cfa 8, 0
  10:src/main.cpp  ****         __putc('?');
  35              		.loc 1 10 9 is_stmt 1
  10:src/main.cpp  ****         __putc('?');
  36              		.loc 1 10 15 is_stmt 0
  37 002c 1305F003 		li	a0,63
  38              	.LVL1:
  39 0030 97000000 		call	__putc@plt
  39      E7800000 
  40              	.LVL2:
GAS LISTING /tmp/ccIpvNYv.s 			page 2


  11:src/main.cpp  ****     }
  41              		.loc 1 11 9 is_stmt 1
  11:src/main.cpp  ****     }
  42              		.loc 1 11 15 is_stmt 0
  43 0038 17050000 		lw	a0,.LANCHOR0
  43      03250500 
  44 0040 1B050503 		addiw	a0,a0,48
  45 0044 1375F50F 		andi	a0,a0,0xff
  46 0048 97000000 		call	__putc@plt
  46      E7800000 
  47              	.LVL3:
  48              		.loc 1 13 5 is_stmt 1
  49              		.loc 1 13 6 is_stmt 0
  50 0050 17070000 		lla	a4,.LANCHOR0
  50      13070700 
  51 0058 83270700 		lw	a5,0(a4)
  52 005c 9B871700 		addiw	a5,a5,1
  53 0060 2320F700 		sw	a5,0(a4)
  14:src/main.cpp  **** }
  54              		.loc 1 14 1
  55 0064 83308100 		ld	ra,8(sp)
  56              		.cfi_restore 1
  57 0068 03340100 		ld	s0,0(sp)
  58              		.cfi_restore 8
  59              		.cfi_def_cfa 2, 16
  60 006c 13010101 		addi	sp,sp,16
  61              		.cfi_def_cfa_offset 0
  62 0070 67800000 		jr	ra
  63              		.cfi_endproc
  64              	.LFE9:
  66              		.align	2
  67              		.globl	_Z11checkStatusi
  69              	_Z11checkStatusi:
  70              	.LFB10:
  15:src/main.cpp  **** 
  16:src/main.cpp  **** void checkStatus(int status) {
  71              		.loc 1 16 30 is_stmt 1
  72              		.cfi_startproc
  73              	.LVL4:
  17:src/main.cpp  ****     static int y = 0;
  74              		.loc 1 17 5
  18:src/main.cpp  ****     if(status) {
  75              		.loc 1 18 5
  76 0074 631E0500 		bnez	a0,.L14
  19:src/main.cpp  ****         __putc('0' + y);
  20:src/main.cpp  ****         __putc('?');
  21:src/main.cpp  ****     }
  22:src/main.cpp  ****     y++;
  77              		.loc 1 22 5
  78              		.loc 1 22 6 is_stmt 0
  79 0078 17070000 		lla	a4,.LANCHOR0
  79      13070700 
  80 0080 83274700 		lw	a5,4(a4)
  81 0084 9B871700 		addiw	a5,a5,1
  82 0088 2322F700 		sw	a5,4(a4)
  83 008c 67800000 		ret
  84              	.L14:
GAS LISTING /tmp/ccIpvNYv.s 			page 3


  16:src/main.cpp  ****     static int y = 0;
  85              		.loc 1 16 30
  86 0090 130101FF 		addi	sp,sp,-16
  87              		.cfi_def_cfa_offset 16
  88 0094 23341100 		sd	ra,8(sp)
  89 0098 23308100 		sd	s0,0(sp)
  90              		.cfi_offset 1, -8
  91              		.cfi_offset 8, -16
  92 009c 13040101 		addi	s0,sp,16
  93              		.cfi_def_cfa 8, 0
  19:src/main.cpp  ****         __putc('0' + y);
  94              		.loc 1 19 9 is_stmt 1
  19:src/main.cpp  ****         __putc('0' + y);
  95              		.loc 1 19 15 is_stmt 0
  96 00a0 17050000 		lw	a0,.LANCHOR0+4
  96      03250500 
  97              	.LVL5:
  98 00a8 1B050503 		addiw	a0,a0,48
  99 00ac 1375F50F 		andi	a0,a0,0xff
 100 00b0 97000000 		call	__putc@plt
 100      E7800000 
 101              	.LVL6:
  20:src/main.cpp  ****     }
 102              		.loc 1 20 9 is_stmt 1
  20:src/main.cpp  ****     }
 103              		.loc 1 20 15 is_stmt 0
 104 00b8 1305F003 		li	a0,63
 105 00bc 97000000 		call	__putc@plt
 105      E7800000 
 106              	.LVL7:
 107              		.loc 1 22 5 is_stmt 1
 108              		.loc 1 22 6 is_stmt 0
 109 00c4 17070000 		lla	a4,.LANCHOR0
 109      13070700 
 110 00cc 83274700 		lw	a5,4(a4)
 111 00d0 9B871700 		addiw	a5,a5,1
 112 00d4 2322F700 		sw	a5,4(a4)
  23:src/main.cpp  **** }
 113              		.loc 1 23 1
 114 00d8 83308100 		ld	ra,8(sp)
 115              		.cfi_restore 1
 116 00dc 03340100 		ld	s0,0(sp)
 117              		.cfi_restore 8
 118              		.cfi_def_cfa 2, 16
 119 00e0 13010101 		addi	sp,sp,16
 120              		.cfi_def_cfa_offset 0
 121 00e4 67800000 		jr	ra
 122              		.cfi_endproc
 123              	.LFE10:
 125              		.align	2
 126              		.globl	main
 128              	main:
 129              	.LFB11:
  24:src/main.cpp  **** 
  25:src/main.cpp  **** int main() {
 130              		.loc 1 25 12 is_stmt 1
 131              		.cfi_startproc
GAS LISTING /tmp/ccIpvNYv.s 			page 4


 132 00e8 130101FE 		addi	sp,sp,-32
 133              		.cfi_def_cfa_offset 32
 134 00ec 233C1100 		sd	ra,24(sp)
 135 00f0 23388100 		sd	s0,16(sp)
 136 00f4 23349100 		sd	s1,8(sp)
 137              		.cfi_offset 1, -8
 138              		.cfi_offset 8, -16
 139              		.cfi_offset 9, -24
 140 00f8 13040102 		addi	s0,sp,32
 141              		.cfi_def_cfa 8, 0
  26:src/main.cpp  ****     int velicinaZaglavlja = sizeof(size_t); // meni je ovoliko
 142              		.loc 1 26 5
 143              	.LVL8:
  27:src/main.cpp  **** 
  28:src/main.cpp  ****     const size_t celaMemorija = (((size_t)HEAP_END_ADDR - (size_t)HEAP_START_ADDR - velicinaZaglavl
 144              		.loc 1 28 5
 145              		.loc 1 28 57 is_stmt 0
 146 00fc 97070000 		la	a5,HEAP_END_ADDR
 146      83B70700 
 147 0104 03B50700 		ld	a0,0(a5)
 148 0108 97070000 		la	a5,HEAP_START_ADDR
 148      83B70700 
 149 0110 83B70700 		ld	a5,0(a5)
 150 0114 3305F540 		sub	a0,a0,a5
 151              		.loc 1 28 83
 152 0118 130585FF 		addi	a0,a0,-8
 153              		.loc 1 28 103
 154 011c 13556500 		srli	a0,a0,6
 155              		.loc 1 28 119
 156 0120 1305F5FF 		addi	a0,a0,-1
 157              	.LVL9:
  29:src/main.cpp  ****     char* niz = (char*)mem_alloc(celaMemorija); // celokupan prostor
 158              		.loc 1 29 5 is_stmt 1
 159              		.loc 1 29 33 is_stmt 0
 160 0124 13156500 		slli	a0,a0,6
 161              	.LVL10:
 162 0128 97000000 		call	_Z9mem_allocm@plt
 162      E7800000 
 163              	.LVL11:
 164 0130 93040500 		mv	s1,a0
 165              	.LVL12:
  30:src/main.cpp  ****     if(niz == nullptr) {
 166              		.loc 1 30 5 is_stmt 1
 167 0134 63060504 		beqz	a0,.L21
 168              	.L16:
  31:src/main.cpp  ****         __putc('?');
  32:src/main.cpp  ****     }
  33:src/main.cpp  **** 
  34:src/main.cpp  ****     int n = 10;
 169              		.loc 1 34 5
 170              	.LVL13:
  35:src/main.cpp  ****     char* niz2 = (char*)mem_alloc(n*sizeof(char));
 171              		.loc 1 35 5
 172              		.loc 1 35 34 is_stmt 0
 173 0138 1305A000 		li	a0,10
 174 013c 97000000 		call	_Z9mem_allocm@plt
 174      E7800000 
GAS LISTING /tmp/ccIpvNYv.s 			page 5


 175              	.LVL14:
  36:src/main.cpp  ****     if(niz2 == nullptr) {
 176              		.loc 1 36 5 is_stmt 1
 177 0144 63060504 		beqz	a0,.L22
 178              	.LVL15:
 179              	.L17:
  37:src/main.cpp  ****         __putc('k');
  38:src/main.cpp  ****     }
  39:src/main.cpp  **** 
  40:src/main.cpp  ****     int status = mem_free(niz);
 180              		.loc 1 40 5
 181              		.loc 1 40 26 is_stmt 0
 182 0148 13850400 		mv	a0,s1
 183 014c 97000000 		call	_Z8mem_freePv@plt
 183      E7800000 
 184              	.LVL16:
  41:src/main.cpp  ****     if(status) {
 185              		.loc 1 41 5 is_stmt 1
 186 0154 63160504 		bnez	a0,.L23
 187              	.LVL17:
 188              	.L18:
  42:src/main.cpp  ****         __putc('?');
  43:src/main.cpp  ****     }
  44:src/main.cpp  ****     niz2 = (char*)mem_alloc(n*sizeof(char));
 189              		.loc 1 44 5
 190              		.loc 1 44 28 is_stmt 0
 191 0158 1305A000 		li	a0,10
 192 015c 97000000 		call	_Z9mem_allocm@plt
 192      E7800000 
 193              	.LVL18:
  45:src/main.cpp  ****     if(niz2 == nullptr) {
 194              		.loc 1 45 5 is_stmt 1
 195 0164 63060504 		beqz	a0,.L24
 196              	.LVL19:
 197              	.L19:
  46:src/main.cpp  ****         __putc('?');
  47:src/main.cpp  ****     }
  48:src/main.cpp  **** 
  49:src/main.cpp  ****     return 0;
 198              		.loc 1 49 5
  50:src/main.cpp  **** }
 199              		.loc 1 50 1 is_stmt 0
 200 0168 13050000 		li	a0,0
 201 016c 83308101 		ld	ra,24(sp)
 202              		.cfi_remember_state
 203              		.cfi_restore 1
 204 0170 03340101 		ld	s0,16(sp)
 205              		.cfi_restore 8
 206              		.cfi_def_cfa 2, 32
 207 0174 83348100 		ld	s1,8(sp)
 208              		.cfi_restore 9
 209              	.LVL20:
 210 0178 13010102 		addi	sp,sp,32
 211              		.cfi_def_cfa_offset 0
 212 017c 67800000 		jr	ra
 213              	.LVL21:
 214              	.L21:
GAS LISTING /tmp/ccIpvNYv.s 			page 6


 215              		.cfi_restore_state
  31:src/main.cpp  ****     }
 216              		.loc 1 31 9 is_stmt 1
  31:src/main.cpp  ****     }
 217              		.loc 1 31 15 is_stmt 0
 218 0180 1305F003 		li	a0,63
 219 0184 97000000 		call	__putc@plt
 219      E7800000 
 220              	.LVL22:
 221 018c 6FF0DFFA 		j	.L16
 222              	.LVL23:
 223              	.L22:
  37:src/main.cpp  ****     }
 224              		.loc 1 37 9 is_stmt 1
  37:src/main.cpp  ****     }
 225              		.loc 1 37 15 is_stmt 0
 226 0190 1305B006 		li	a0,107
 227              	.LVL24:
 228 0194 97000000 		call	__putc@plt
 228      E7800000 
 229              	.LVL25:
 230 019c 6FF0DFFA 		j	.L17
 231              	.LVL26:
 232              	.L23:
  42:src/main.cpp  ****     }
 233              		.loc 1 42 9 is_stmt 1
  42:src/main.cpp  ****     }
 234              		.loc 1 42 15 is_stmt 0
 235 01a0 1305F003 		li	a0,63
 236              	.LVL27:
 237 01a4 97000000 		call	__putc@plt
 237      E7800000 
 238              	.LVL28:
 239 01ac 6FF0DFFA 		j	.L18
 240              	.LVL29:
 241              	.L24:
  46:src/main.cpp  ****     }
 242              		.loc 1 46 9 is_stmt 1
  46:src/main.cpp  ****     }
 243              		.loc 1 46 15 is_stmt 0
 244 01b0 1305F003 		li	a0,63
 245              	.LVL30:
 246 01b4 97000000 		call	__putc@plt
 246      E7800000 
 247              	.LVL31:
 248 01bc 6FF0DFFA 		j	.L19
 249              		.cfi_endproc
 250              	.LFE11:
 252              		.bss
 253              		.align	2
 254              		.set	.LANCHOR0,. + 0
 257              	_ZZ12checkNullptrPvE1x:
 258 0000 00000000 		.zero	4
 261              	_ZZ11checkStatusiE1y:
 262 0004 00000000 		.zero	4
 263              		.text
 264              	.Letext0:
GAS LISTING /tmp/ccIpvNYv.s 			page 7


 265              		.file 2 "src/../lib/hw.h"
 266              		.file 3 "src/../h/syscall_c.h"
 267              		.file 4 "src/../lib/console.h"
GAS LISTING /tmp/ccIpvNYv.s 			page 8


DEFINED SYMBOLS
                            *ABS*:0000000000000000 main.cpp
     /tmp/ccIpvNYv.s:9      .text:0000000000000000 _Z12checkNullptrPv
     /tmp/ccIpvNYv.s:13     .text:0000000000000000 .L0 
     /tmp/ccIpvNYv.s:15     .text:0000000000000000 .L0 
     /tmp/ccIpvNYv.s:16     .text:0000000000000000 .L0 
     /tmp/ccIpvNYv.s:17     .text:0000000000000000 .L0 
     /tmp/ccIpvNYv.s:19     .text:0000000000000004 .L0 
     /tmp/ccIpvNYv.s:20     .text:0000000000000004 .L0 
     /tmp/ccIpvNYv.s:27     .text:000000000000001c .L0 
     /tmp/ccIpvNYv.s:28     .text:0000000000000020 .L0 
     /tmp/ccIpvNYv.s:31     .text:0000000000000028 .L0 
     /tmp/ccIpvNYv.s:32     .text:0000000000000028 .L0 
     /tmp/ccIpvNYv.s:34     .text:000000000000002c .L0 
     /tmp/ccIpvNYv.s:36     .text:000000000000002c .L0 
     /tmp/ccIpvNYv.s:37     .text:000000000000002c .L0 
     /tmp/ccIpvNYv.s:42     .text:0000000000000038 .L0 
     /tmp/ccIpvNYv.s:43     .text:0000000000000038 .L0 
     /tmp/ccIpvNYv.s:49     .text:0000000000000050 .L0 
     /tmp/ccIpvNYv.s:50     .text:0000000000000050 .L0 
     /tmp/ccIpvNYv.s:55     .text:0000000000000064 .L0 
     /tmp/ccIpvNYv.s:56     .text:0000000000000068 .L0 
     /tmp/ccIpvNYv.s:58     .text:000000000000006c .L0 
     /tmp/ccIpvNYv.s:59     .text:000000000000006c .L0 
     /tmp/ccIpvNYv.s:61     .text:0000000000000070 .L0 
     /tmp/ccIpvNYv.s:63     .text:0000000000000074 .L0 
     /tmp/ccIpvNYv.s:69     .text:0000000000000074 _Z11checkStatusi
     /tmp/ccIpvNYv.s:72     .text:0000000000000074 .L0 
     /tmp/ccIpvNYv.s:74     .text:0000000000000074 .L0 
     /tmp/ccIpvNYv.s:75     .text:0000000000000074 .L0 
     /tmp/ccIpvNYv.s:76     .text:0000000000000074 .L0 
     /tmp/ccIpvNYv.s:78     .text:0000000000000078 .L0 
     /tmp/ccIpvNYv.s:79     .text:0000000000000078 .L0 
     /tmp/ccIpvNYv.s:86     .text:0000000000000090 .L0 
     /tmp/ccIpvNYv.s:87     .text:0000000000000094 .L0 
     /tmp/ccIpvNYv.s:90     .text:000000000000009c .L0 
     /tmp/ccIpvNYv.s:91     .text:000000000000009c .L0 
     /tmp/ccIpvNYv.s:93     .text:00000000000000a0 .L0 
     /tmp/ccIpvNYv.s:95     .text:00000000000000a0 .L0 
     /tmp/ccIpvNYv.s:96     .text:00000000000000a0 .L0 
     /tmp/ccIpvNYv.s:103    .text:00000000000000b8 .L0 
     /tmp/ccIpvNYv.s:104    .text:00000000000000b8 .L0 
     /tmp/ccIpvNYv.s:108    .text:00000000000000c4 .L0 
     /tmp/ccIpvNYv.s:109    .text:00000000000000c4 .L0 
     /tmp/ccIpvNYv.s:114    .text:00000000000000d8 .L0 
     /tmp/ccIpvNYv.s:115    .text:00000000000000dc .L0 
     /tmp/ccIpvNYv.s:117    .text:00000000000000e0 .L0 
     /tmp/ccIpvNYv.s:118    .text:00000000000000e0 .L0 
     /tmp/ccIpvNYv.s:120    .text:00000000000000e4 .L0 
     /tmp/ccIpvNYv.s:122    .text:00000000000000e8 .L0 
     /tmp/ccIpvNYv.s:128    .text:00000000000000e8 main
     /tmp/ccIpvNYv.s:131    .text:00000000000000e8 .L0 
     /tmp/ccIpvNYv.s:132    .text:00000000000000e8 .L0 
     /tmp/ccIpvNYv.s:133    .text:00000000000000ec .L0 
     /tmp/ccIpvNYv.s:137    .text:00000000000000f8 .L0 
     /tmp/ccIpvNYv.s:138    .text:00000000000000f8 .L0 
     /tmp/ccIpvNYv.s:139    .text:00000000000000f8 .L0 
GAS LISTING /tmp/ccIpvNYv.s 			page 9


     /tmp/ccIpvNYv.s:141    .text:00000000000000fc .L0 
     /tmp/ccIpvNYv.s:144    .text:00000000000000fc .L0 
     /tmp/ccIpvNYv.s:145    .text:00000000000000fc .L0 
     /tmp/ccIpvNYv.s:146    .text:00000000000000fc .L0 
     /tmp/ccIpvNYv.s:152    .text:0000000000000118 .L0 
     /tmp/ccIpvNYv.s:154    .text:000000000000011c .L0 
     /tmp/ccIpvNYv.s:156    .text:0000000000000120 .L0 
     /tmp/ccIpvNYv.s:159    .text:0000000000000124 .L0 
     /tmp/ccIpvNYv.s:160    .text:0000000000000124 .L0 
     /tmp/ccIpvNYv.s:167    .text:0000000000000134 .L0 
     /tmp/ccIpvNYv.s:171    .text:0000000000000138 .L0 
     /tmp/ccIpvNYv.s:172    .text:0000000000000138 .L0 
     /tmp/ccIpvNYv.s:173    .text:0000000000000138 .L0 
     /tmp/ccIpvNYv.s:177    .text:0000000000000144 .L0 
     /tmp/ccIpvNYv.s:181    .text:0000000000000148 .L0 
     /tmp/ccIpvNYv.s:182    .text:0000000000000148 .L0 
     /tmp/ccIpvNYv.s:186    .text:0000000000000154 .L0 
     /tmp/ccIpvNYv.s:190    .text:0000000000000158 .L0 
     /tmp/ccIpvNYv.s:191    .text:0000000000000158 .L0 
     /tmp/ccIpvNYv.s:195    .text:0000000000000164 .L0 
     /tmp/ccIpvNYv.s:199    .text:0000000000000168 .L0 
     /tmp/ccIpvNYv.s:200    .text:0000000000000168 .L0 
     /tmp/ccIpvNYv.s:202    .text:0000000000000170 .L0 
     /tmp/ccIpvNYv.s:203    .text:0000000000000170 .L0 
     /tmp/ccIpvNYv.s:205    .text:0000000000000174 .L0 
     /tmp/ccIpvNYv.s:206    .text:0000000000000174 .L0 
     /tmp/ccIpvNYv.s:208    .text:0000000000000178 .L0 
     /tmp/ccIpvNYv.s:211    .text:000000000000017c .L0 
     /tmp/ccIpvNYv.s:215    .text:0000000000000180 .L0 
     /tmp/ccIpvNYv.s:217    .text:0000000000000180 .L0 
     /tmp/ccIpvNYv.s:218    .text:0000000000000180 .L0 
     /tmp/ccIpvNYv.s:225    .text:0000000000000190 .L0 
     /tmp/ccIpvNYv.s:226    .text:0000000000000190 .L0 
     /tmp/ccIpvNYv.s:234    .text:00000000000001a0 .L0 
     /tmp/ccIpvNYv.s:235    .text:00000000000001a0 .L0 
     /tmp/ccIpvNYv.s:243    .text:00000000000001b0 .L0 
     /tmp/ccIpvNYv.s:244    .text:00000000000001b0 .L0 
     /tmp/ccIpvNYv.s:249    .text:00000000000001c0 .L0 
     /tmp/ccIpvNYv.s:254    .bss:0000000000000000 .LANCHOR0
     /tmp/ccIpvNYv.s:257    .bss:0000000000000000 _ZZ12checkNullptrPvE1x
     /tmp/ccIpvNYv.s:261    .bss:0000000000000004 _ZZ11checkStatusiE1y
     /tmp/ccIpvNYv.s:268    .text:00000000000001c0 .L0 
     /tmp/ccIpvNYv.s:20     .text:0000000000000004 .L0 
     /tmp/ccIpvNYv.s:43     .text:0000000000000038 .L0 
     /tmp/ccIpvNYv.s:50     .text:0000000000000050 .L0 
     /tmp/ccIpvNYv.s:79     .text:0000000000000078 .L0 
     /tmp/ccIpvNYv.s:96     .text:00000000000000a0 .L0 
     /tmp/ccIpvNYv.s:109    .text:00000000000000c4 .L0 
     /tmp/ccIpvNYv.s:146    .text:00000000000000fc .L0 
     /tmp/ccIpvNYv.s:148    .text:0000000000000108 .L0 
     /tmp/ccIpvNYv.s:25     .text:000000000000001c .L7
     /tmp/ccIpvNYv.s:84     .text:0000000000000090 .L14
     /tmp/ccIpvNYv.s:214    .text:0000000000000180 .L21
     /tmp/ccIpvNYv.s:223    .text:0000000000000190 .L22
     /tmp/ccIpvNYv.s:232    .text:00000000000001a0 .L23
     /tmp/ccIpvNYv.s:241    .text:00000000000001b0 .L24
     /tmp/ccIpvNYv.s:168    .text:0000000000000138 .L16
GAS LISTING /tmp/ccIpvNYv.s 			page 10


     /tmp/ccIpvNYv.s:179    .text:0000000000000148 .L17
     /tmp/ccIpvNYv.s:188    .text:0000000000000158 .L18
     /tmp/ccIpvNYv.s:197    .text:0000000000000168 .L19
     /tmp/ccIpvNYv.s:641    .debug_abbrev:0000000000000000 .Ldebug_abbrev0
     /tmp/ccIpvNYv.s:1104   .debug_str:000000000000004f .LASF33
     /tmp/ccIpvNYv.s:1132   .debug_str:00000000000001b2 .LASF34
     /tmp/ccIpvNYv.s:1154   .debug_str:0000000000000243 .LASF35
     /tmp/ccIpvNYv.s:5      .text:0000000000000000 .Ltext0
     /tmp/ccIpvNYv.s:264    .text:00000000000001c0 .Letext0
     /tmp/ccIpvNYv.s:1088   .debug_line:0000000000000000 .Ldebug_line0
     /tmp/ccIpvNYv.s:1134   .debug_str:00000000000001bf .LASF0
     /tmp/ccIpvNYv.s:1122   .debug_str:000000000000016d .LASF1
     /tmp/ccIpvNYv.s:1116   .debug_str:0000000000000141 .LASF2
     /tmp/ccIpvNYv.s:1100   .debug_str:0000000000000043 .LASF4
     /tmp/ccIpvNYv.s:1120   .debug_str:000000000000015b .LASF3
     /tmp/ccIpvNYv.s:1096   .debug_str:000000000000002e .LASF5
     /tmp/ccIpvNYv.s:1092   .debug_str:000000000000000e .LASF6
     /tmp/ccIpvNYv.s:1112   .debug_str:000000000000011f .LASF7
     /tmp/ccIpvNYv.s:1140   .debug_str:00000000000001e5 .LASF8
     /tmp/ccIpvNYv.s:1098   .debug_str:0000000000000035 .LASF9
     /tmp/ccIpvNYv.s:1160   .debug_str:0000000000000273 .LASF10
     /tmp/ccIpvNYv.s:1114   .debug_str:0000000000000132 .LASF11
     /tmp/ccIpvNYv.s:1150   .debug_str:0000000000000229 .LASF12
     /tmp/ccIpvNYv.s:1144   .debug_str:000000000000020b .LASF13
     /tmp/ccIpvNYv.s:1124   .debug_str:0000000000000180 .LASF14
     /tmp/ccIpvNYv.s:1106   .debug_str:00000000000000f1 .LASF15
     /tmp/ccIpvNYv.s:1142   .debug_str:00000000000001f5 .LASF16
     /tmp/ccIpvNYv.s:1102   .debug_str:000000000000004a .LASF17
     /tmp/ccIpvNYv.s:1128   .debug_str:000000000000019f .LASF23
     /tmp/ccIpvNYv.s:129    .text:00000000000000e8 .LFB11
     /tmp/ccIpvNYv.s:250    .text:00000000000001c0 .LFE11
     /tmp/ccIpvNYv.s:1136   .debug_str:00000000000001cc .LASF18
     /tmp/ccIpvNYv.s:1094   .debug_str:0000000000000021 .LASF19
     /tmp/ccIpvNYv.s:978    .debug_loc:0000000000000000 .LLST2
     /tmp/ccIpvNYv.s:993    .debug_loc:000000000000003a .LLST3
     /tmp/ccIpvNYv.s:1004   .debug_loc:0000000000000070 .LLST4
     /tmp/ccIpvNYv.s:1158   .debug_str:000000000000026e .LASF20
     /tmp/ccIpvNYv.s:1017   .debug_loc:00000000000000a8 .LLST5
     /tmp/ccIpvNYv.s:1108   .debug_str:0000000000000107 .LASF21
     /tmp/ccIpvNYv.s:1036   .debug_loc:0000000000000104 .LLST6
     /tmp/ccIpvNYv.s:163    .text:0000000000000130 .LVL11
     /tmp/ccIpvNYv.s:175    .text:0000000000000144 .LVL14
     /tmp/ccIpvNYv.s:184    .text:0000000000000154 .LVL16
     /tmp/ccIpvNYv.s:193    .text:0000000000000164 .LVL18
     /tmp/ccIpvNYv.s:220    .text:000000000000018c .LVL22
     /tmp/ccIpvNYv.s:229    .text:000000000000019c .LVL25
     /tmp/ccIpvNYv.s:238    .text:00000000000001ac .LVL28
     /tmp/ccIpvNYv.s:247    .text:00000000000001bc .LVL31
     /tmp/ccIpvNYv.s:1148   .debug_str:0000000000000224 .LASF22
     /tmp/ccIpvNYv.s:1118   .debug_str:000000000000014f .LASF24
     /tmp/ccIpvNYv.s:1110   .debug_str:000000000000010e .LASF26
     /tmp/ccIpvNYv.s:70     .text:0000000000000074 .LFB10
     /tmp/ccIpvNYv.s:123    .text:00000000000000e8 .LFE10
     /tmp/ccIpvNYv.s:1047   .debug_loc:000000000000013a .LLST1
     /tmp/ccIpvNYv.s:101    .text:00000000000000b8 .LVL6
     /tmp/ccIpvNYv.s:106    .text:00000000000000c4 .LVL7
     /tmp/ccIpvNYv.s:1156   .debug_str:0000000000000261 .LASF25
GAS LISTING /tmp/ccIpvNYv.s 			page 11


     /tmp/ccIpvNYv.s:1126   .debug_str:000000000000018c .LASF27
     /tmp/ccIpvNYv.s:10     .text:0000000000000000 .LFB9
     /tmp/ccIpvNYv.s:64     .text:0000000000000074 .LFE9
     /tmp/ccIpvNYv.s:1061   .debug_loc:0000000000000173 .LLST0
     /tmp/ccIpvNYv.s:40     .text:0000000000000038 .LVL2
     /tmp/ccIpvNYv.s:47     .text:0000000000000050 .LVL3
     /tmp/ccIpvNYv.s:1130   .debug_str:00000000000001a4 .LASF28
     /tmp/ccIpvNYv.s:1152   .debug_str:0000000000000239 .LASF30
     /tmp/ccIpvNYv.s:1090   .debug_str:0000000000000000 .LASF29
     /tmp/ccIpvNYv.s:1146   .debug_str:000000000000021b .LASF31
     /tmp/ccIpvNYv.s:1138   .debug_str:00000000000001de .LASF32
     /tmp/ccIpvNYv.s:157    .text:0000000000000124 .LVL9
     /tmp/ccIpvNYv.s:161    .text:0000000000000128 .LVL10
     /tmp/ccIpvNYv.s:165    .text:0000000000000134 .LVL12
     /tmp/ccIpvNYv.s:209    .text:0000000000000178 .LVL20
     /tmp/ccIpvNYv.s:213    .text:0000000000000180 .LVL21
     /tmp/ccIpvNYv.s:170    .text:0000000000000138 .LVL13
     /tmp/ccIpvNYv.s:222    .text:0000000000000190 .LVL23
     /tmp/ccIpvNYv.s:178    .text:0000000000000148 .LVL15
     /tmp/ccIpvNYv.s:196    .text:0000000000000168 .LVL19
     /tmp/ccIpvNYv.s:227    .text:0000000000000194 .LVL24
     /tmp/ccIpvNYv.s:240    .text:00000000000001b0 .LVL29
     /tmp/ccIpvNYv.s:245    .text:00000000000001b4 .LVL30
     /tmp/ccIpvNYv.s:187    .text:0000000000000158 .LVL17
     /tmp/ccIpvNYv.s:231    .text:00000000000001a0 .LVL26
     /tmp/ccIpvNYv.s:236    .text:00000000000001a4 .LVL27
     /tmp/ccIpvNYv.s:73     .text:0000000000000074 .LVL4
     /tmp/ccIpvNYv.s:97     .text:00000000000000a8 .LVL5
     /tmp/ccIpvNYv.s:14     .text:0000000000000000 .LVL0
     /tmp/ccIpvNYv.s:38     .text:0000000000000030 .LVL1
     /tmp/ccIpvNYv.s:269    .debug_info:0000000000000000 .Ldebug_info0

UNDEFINED SYMBOLS
__putc
HEAP_END_ADDR
HEAP_START_ADDR
_Z9mem_allocm
_Z8mem_freePv
