GAS LISTING /tmp/cc9fo0BQ.s 			page 1


   1              		.file	"main.cpp"
   2              		.option pic
   3              		.option norelax
   4              		.text
   5              	.Ltext0:
   6              		.align	2
   7              		.globl	idleProcess
   9              	idleProcess:
  10              	.LFB34:
  11              		.file 1 "src/main.cpp"
   1:src/main.cpp  **** #include "../h/hw.h"
   2:src/main.cpp  **** #include "../h/syscall_c.h"
   3:src/main.cpp  **** #include "../h/PCB.h"
   4:src/main.cpp  **** #include "../h/kernel.h"
   5:src/main.cpp  **** #include "../h/SCB.h"
   6:src/main.cpp  **** #include "../h/CCB.h"
   7:src/main.cpp  **** #include "../h/userMain.h"
   8:src/main.cpp  **** 
   9:src/main.cpp  **** // Kernel inicijalizacija
  10:src/main.cpp  **** extern "C" void interrupt();
  11:src/main.cpp  **** extern "C" void idleProcess(void*) {
  12              		.loc 1 11 36
  13              		.cfi_startproc
  14 0000 130101FF 		addi	sp,sp,-16
  15              		.cfi_def_cfa_offset 16
  16 0004 23348100 		sd	s0,8(sp)
  17              		.cfi_offset 8, -8
  18 0008 13040101 		addi	s0,sp,16
  19              		.cfi_def_cfa 8, 0
  20              	.L2:
  12:src/main.cpp  ****     while(true) {}
  21              		.loc 1 12 5 discriminator 1
  22              		.loc 1 12 5 discriminator 1
  23 000c 6F000000 		j	.L2
  24              		.cfi_endproc
  25              	.LFE34:
  27              		.align	2
  28              		.globl	_Z15userMainWrapperPv
  30              	_Z15userMainWrapperPv:
  31              	.LFB33:
  32              		.file 2 "src/../h/userMain.h"
   1:src/../h/userMain.h **** #ifndef USERMAIN_H
   2:src/../h/userMain.h **** #define USERMAIN_H
   3:src/../h/userMain.h **** 
   4:src/../h/userMain.h **** PCB* userProcess = nullptr;
   5:src/../h/userMain.h **** 
   6:src/../h/userMain.h **** extern "C" void interrupt();
   7:src/../h/userMain.h **** void userMode() {
   8:src/../h/userMain.h ****     size_t code = Kernel::sysCallCodes::userMode;
   9:src/../h/userMain.h ****     asm volatile("mv a0, %0" : : "r" (code));
  10:src/../h/userMain.h ****     asm volatile("ecall");
  11:src/../h/userMain.h **** 
  12:src/../h/userMain.h **** }
  13:src/../h/userMain.h **** void userMain();
  14:src/../h/userMain.h **** void userMainWrapper(void*) {
  33              		.loc 2 14 29
  34              		.cfi_startproc
GAS LISTING /tmp/cc9fo0BQ.s 			page 2


  35 0010 130101FF 		addi	sp,sp,-16
  36              		.cfi_def_cfa_offset 16
  37 0014 23341100 		sd	ra,8(sp)
  38 0018 23308100 		sd	s0,0(sp)
  39              		.cfi_offset 1, -8
  40              		.cfi_offset 8, -16
  41 001c 13040101 		addi	s0,sp,16
  42              		.cfi_def_cfa 8, 0
  15:src/../h/userMain.h ****     //userMode(); // prelazak u user mod
  16:src/../h/userMain.h ****     userMain();
  43              		.loc 2 16 5
  44              		.loc 2 16 13 is_stmt 0
  45 0020 97000000 		call	_Z8userMainv@plt
  45      E7800000 
  46              	.LVL0:
  17:src/../h/userMain.h **** }
  47              		.loc 2 17 1
  48 0028 83308100 		ld	ra,8(sp)
  49              		.cfi_restore 1
  50 002c 03340100 		ld	s0,0(sp)
  51              		.cfi_restore 8
  52              		.cfi_def_cfa 2, 16
  53 0030 13010101 		addi	sp,sp,16
  54              		.cfi_def_cfa_offset 0
  55 0034 67800000 		jr	ra
  56              		.cfi_endproc
  57              	.LFE33:
  59              		.align	2
  60              		.globl	_Z8userModev
  62              	_Z8userModev:
  63              	.LFB32:
   7:src/../h/userMain.h ****     size_t code = Kernel::sysCallCodes::userMode;
  64              		.loc 2 7 17 is_stmt 1
  65              		.cfi_startproc
  66 0038 130101FF 		addi	sp,sp,-16
  67              		.cfi_def_cfa_offset 16
  68 003c 23348100 		sd	s0,8(sp)
  69              		.cfi_offset 8, -8
  70 0040 13040101 		addi	s0,sp,16
  71              		.cfi_def_cfa 8, 0
   8:src/../h/userMain.h ****     asm volatile("mv a0, %0" : : "r" (code));
  72              		.loc 2 8 5
  73              	.LVL1:
   9:src/../h/userMain.h ****     asm volatile("ecall");
  74              		.loc 2 9 5
   9:src/../h/userMain.h ****     asm volatile("ecall");
  75              		.loc 2 9 45 is_stmt 0
  76 0044 93073004 		li	a5,67
  77              	#APP
  78              	# 9 "src/../h/userMain.h" 1
  10:src/../h/userMain.h **** 
  79              		mv a0, a5
  80              	# 0 "" 2
  81              		.loc 2 10 5 is_stmt 1
  10:src/../h/userMain.h **** 
  82              		.loc 2 10 26 is_stmt 0
  83              	# 10 "src/../h/userMain.h" 1
GAS LISTING /tmp/cc9fo0BQ.s 			page 3


  12:src/../h/userMain.h **** void userMain();
  84              		ecall
  85              	# 0 "" 2
  86              		.loc 2 12 1
  87              	#NO_APP
  88 0050 03348100 		ld	s0,8(sp)
  89              		.cfi_restore 8
  90              		.cfi_def_cfa 2, 16
  91 0054 13010101 		addi	sp,sp,16
  92              		.cfi_def_cfa_offset 0
  93 0058 67800000 		jr	ra
  94              		.cfi_endproc
  95              	.LFE32:
  97              		.align	2
  98              		.globl	main
 100              	main:
 101              	.LFB35:
  13:src/main.cpp  **** }
  14:src/main.cpp  **** // ------------
  15:src/main.cpp  **** 
  16:src/main.cpp  **** int main() {
 102              		.loc 1 16 12 is_stmt 1
 103              		.cfi_startproc
 104 005c 130101FF 		addi	sp,sp,-16
 105              		.cfi_def_cfa_offset 16
 106 0060 23341100 		sd	ra,8(sp)
 107 0064 23308100 		sd	s0,0(sp)
 108              		.cfi_offset 1, -8
 109              		.cfi_offset 8, -16
 110 0068 13040101 		addi	s0,sp,16
 111              		.cfi_def_cfa 8, 0
  17:src/main.cpp  ****     // Kernel inicijalizacija
  18:src/main.cpp  ****     asm volatile("csrw stvec, %0" : : "r" (&interrupt));
 112              		.loc 1 18 5
 113              		.loc 1 18 56 is_stmt 0
 114 006c 97070000 		la	a5,interrupt
 114      83B70700 
 115              	#APP
 116              	# 18 "src/main.cpp" 1
  19              	    PCB* main = PCB::createProccess(nullptr, nullptr); // main proces(ne pravimo stek)
 117              		csrw stvec, a5
 118              	# 0 "" 2
 119              		.loc 1 19 5 is_stmt 1
 120              		.loc 1 19 36 is_stmt 0
 121              	#NO_APP
 122 0078 93050000 		li	a1,0
 123 007c 13050000 		li	a0,0
 124 0080 97000000 		call	_ZN3PCB14createProccessEPFvvEPv@plt
 124      E7800000 
 125              	.LVL2:
  20:src/main.cpp  ****     PCB::running = main;
 126              		.loc 1 20 5 is_stmt 1
 127              		.loc 1 20 18 is_stmt 0
 128 0088 97070000 		la	a5,_ZN3PCB7runningE
 128      83B70700 
 129 0090 23B0A700 		sd	a0,0(a5)
  21:src/main.cpp  **** 
GAS LISTING /tmp/cc9fo0BQ.s 			page 4


  22:src/main.cpp  ****     sem_open(&CCB::semInput, 0);
 130              		.loc 1 22 5 is_stmt 1
 131              		.loc 1 22 13 is_stmt 0
 132 0094 93050000 		li	a1,0
 133 0098 17050000 		la	a0,_ZN3CCB8semInputE
 133      03350500 
 134              	.LVL3:
 135 00a0 97000000 		call	_Z8sem_openPP3SCBj@plt
 135      E7800000 
 136              	.LVL4:
  23:src/main.cpp  ****     sem_open(&CCB::semOutput, 0);
 137              		.loc 1 23 5 is_stmt 1
 138              		.loc 1 23 13 is_stmt 0
 139 00a8 93050000 		li	a1,0
 140 00ac 17050000 		la	a0,_ZN3CCB9semOutputE
 140      03350500 
 141 00b4 97000000 		call	_Z8sem_openPP3SCBj@plt
 141      E7800000 
 142              	.LVL5:
  24:src/main.cpp  ****     sem_open(&CCB::inputBufferEmpty, 0);
 143              		.loc 1 24 5 is_stmt 1
 144              		.loc 1 24 13 is_stmt 0
 145 00bc 93050000 		li	a1,0
 146 00c0 17050000 		la	a0,_ZN3CCB16inputBufferEmptyE
 146      03350500 
 147 00c8 97000000 		call	_Z8sem_openPP3SCBj@plt
 147      E7800000 
 148              	.LVL6:
  25:src/main.cpp  **** 
  26:src/main.cpp  ****     Kernel::ms_sstatus(Kernel::SSTATUS_SIE); // dozvoljavaju se prekidi
 149              		.loc 1 26 5 is_stmt 1
 150              	.LBB12:
 151              	.LBB13:
 152              		.file 3 "src/../h/kernel.h"
   1:src/../h/kernel.h **** #ifndef KERNEL_H
   2:src/../h/kernel.h **** #define KERNEL_H
   3:src/../h/kernel.h **** 
   4:src/../h/kernel.h **** #include "hw.h"
   5:src/../h/kernel.h **** 
   6:src/../h/kernel.h **** class Kernel {
   7:src/../h/kernel.h **** public:
   8:src/../h/kernel.h ****     // postavlja code u registar a0
   9:src/../h/kernel.h ****     static size_t setCode(size_t code) {
  10:src/../h/kernel.h ****         return code;
  11:src/../h/kernel.h ****     }
  12:src/../h/kernel.h **** 
  13:src/../h/kernel.h ****     // kodovi po kojima se prepoznaju sistemski pozivi
  14:src/../h/kernel.h ****     enum sysCallCodes {
  15:src/../h/kernel.h ****         mem_alloc = 0x01,
  16:src/../h/kernel.h ****         mem_free = 0x02,
  17:src/../h/kernel.h ****         thread_create = 0x11,
  18:src/../h/kernel.h ****         thread_exit = 0x12,
  19:src/../h/kernel.h ****         thread_dispatch = 0x13,
  20:src/../h/kernel.h ****         thread_start = 0x14,
  21:src/../h/kernel.h ****         sem_open = 0x21,
  22:src/../h/kernel.h ****         sem_close = 0x22,
  23:src/../h/kernel.h ****         sem_wait = 0x23,
GAS LISTING /tmp/cc9fo0BQ.s 			page 5


  24:src/../h/kernel.h ****         sem_signal = 0x24,
  25:src/../h/kernel.h ****         time_sleep = 0x31,
  26:src/../h/kernel.h ****         getc = 0x41,
  27:src/../h/kernel.h ****         putc = 0x42,
  28:src/../h/kernel.h ****         userMode = 0x43
  29:src/../h/kernel.h ****     };
  30:src/../h/kernel.h **** 
  31:src/../h/kernel.h ****     // pop sstatus.spp and sstatus.spie bits (has to be a non inline function)
  32:src/../h/kernel.h ****     static void popSppSpie();
  33:src/../h/kernel.h **** 
  34:src/../h/kernel.h ****     // cita registar scause (uzrok nastanka prekida)
  35:src/../h/kernel.h ****     static size_t r_scause() {
  36:src/../h/kernel.h ****         size_t volatile scause;
  37:src/../h/kernel.h ****         __asm__ volatile ("csrr %[scause], scause" : [scause] "=r"(scause));
  38:src/../h/kernel.h ****         return scause;
  39:src/../h/kernel.h ****     }
  40:src/../h/kernel.h **** 
  41:src/../h/kernel.h ****     // upisuje u registar scause (uzrok nastanka prekida)
  42:src/../h/kernel.h ****     static void w_scause(size_t scause) {
  43:src/../h/kernel.h ****         __asm__ volatile ("csrw scause, %[scause]" : : [scause] "r"(scause));
  44:src/../h/kernel.h ****     }
  45:src/../h/kernel.h **** 
  46:src/../h/kernel.h ****     // cita registar sepc
  47:src/../h/kernel.h ****     static size_t r_sepc() {
  48:src/../h/kernel.h ****         size_t volatile sepc;
  49:src/../h/kernel.h ****         __asm__ volatile ("csrr %[sepc], sepc" : [sepc] "=r"(sepc));
  50:src/../h/kernel.h ****         return sepc;
  51:src/../h/kernel.h ****     }
  52:src/../h/kernel.h **** 
  53:src/../h/kernel.h ****     // upisuje u registar sepc
  54:src/../h/kernel.h ****     static void w_sepc(size_t sepc) {
  55:src/../h/kernel.h ****         __asm__ volatile ("csrw sepc, %[sepc]" : : [sepc] "r"(sepc));
  56:src/../h/kernel.h ****     }
  57:src/../h/kernel.h **** 
  58:src/../h/kernel.h ****     // read register stvec
  59:src/../h/kernel.h ****     static size_t r_stvec() {
  60:src/../h/kernel.h ****         size_t volatile stvec;
  61:src/../h/kernel.h ****         __asm__ volatile ("csrr %[stvec], stvec" : [stvec] "=r"(stvec));
  62:src/../h/kernel.h ****         return stvec;
  63:src/../h/kernel.h ****     }
  64:src/../h/kernel.h **** 
  65:src/../h/kernel.h ****     // write register stvec
  66:src/../h/kernel.h ****     static void w_stvec(size_t stvec) {
  67:src/../h/kernel.h ****         __asm__ volatile ("csrw stvec, %[stvec]" : : [stvec] "r"(stvec));
  68:src/../h/kernel.h ****     }
  69:src/../h/kernel.h **** 
  70:src/../h/kernel.h ****     // read register stval
  71:src/../h/kernel.h ****     static size_t r_stval() {
  72:src/../h/kernel.h ****         size_t volatile stval;
  73:src/../h/kernel.h ****         __asm__ volatile ("csrr %[stval], stval" : [stval] "=r"(stval));
  74:src/../h/kernel.h ****         return stval;
  75:src/../h/kernel.h ****     }
  76:src/../h/kernel.h **** 
  77:src/../h/kernel.h ****     // write register stval
  78:src/../h/kernel.h ****     static void w_stval(size_t stval) {
  79:src/../h/kernel.h ****         __asm__ volatile ("csrw stval, %[stval]" : : [stval] "r"(stval));
  80:src/../h/kernel.h ****     }
GAS LISTING /tmp/cc9fo0BQ.s 			page 6


  81:src/../h/kernel.h **** 
  82:src/../h/kernel.h ****     enum BitMaskSip
  83:src/../h/kernel.h ****     {
  84:src/../h/kernel.h ****         SIP_SSIE = (1 << 1), // da li su dozvoljeni softverski prekidi
  85:src/../h/kernel.h ****         SIP_SEIE = (1 << 9), // da li su dozvoljeni spoljasnji hardverski prekidi
  86:src/../h/kernel.h ****     };
  87:src/../h/kernel.h **** 
  88:src/../h/kernel.h ****     // postavljanje odredjenih bitova (BitMaskSip) u registar sip
  89:src/../h/kernel.h ****     static void ms_sip(size_t mask) {
  90:src/../h/kernel.h ****         __asm__ volatile ("csrs sip, %[mask]" : : [mask] "r"(mask));
  91:src/../h/kernel.h ****     }
  92:src/../h/kernel.h **** 
  93:src/../h/kernel.h ****     // brisanje odredjenih bitova (BitMaskSip) iz registra sip
  94:src/../h/kernel.h ****     static void mc_sip(size_t mask) {
  95:src/../h/kernel.h ****         __asm__ volatile ("csrc sip, %[mask]" : : [mask] "r"(mask));
  96:src/../h/kernel.h ****     }
  97:src/../h/kernel.h **** 
  98:src/../h/kernel.h ****     // citanje iz registra sip
  99:src/../h/kernel.h ****     static size_t r_sip() {
 100:src/../h/kernel.h ****         size_t volatile sip;
 101:src/../h/kernel.h ****         __asm__ volatile ("csrr %[sip], sip" : [sip] "=r"(sip));
 102:src/../h/kernel.h ****         return sip;
 103:src/../h/kernel.h ****     }
 104:src/../h/kernel.h **** 
 105:src/../h/kernel.h ****     // upis u registar sip
 106:src/../h/kernel.h ****     static void w_sip(size_t sip) {
 107:src/../h/kernel.h ****         __asm__ volatile ("csrw sip, %[sip]" : : [sip] "r"(sip));
 108:src/../h/kernel.h ****     }
 109:src/../h/kernel.h **** 
 110:src/../h/kernel.h ****     enum BitMaskSstatus
 111:src/../h/kernel.h ****     {
 112:src/../h/kernel.h ****         SSTATUS_SIE = (1 << 1), // ako je 0 - maskiranje spoljasnjih prekida u sistemskom rezimu
 113:src/../h/kernel.h ****         SSTATUS_SPIE = (1 << 5), // prethodna vrednost sie
 114:src/../h/kernel.h ****         SSTATUS_SPP = (1 << 8), // u kom rezimu se desio prekid
 115:src/../h/kernel.h ****     };
 116:src/../h/kernel.h **** 
 117:src/../h/kernel.h ****     // mask set register sstatus
 118:src/../h/kernel.h ****     static void ms_sstatus(size_t mask) {
 119:src/../h/kernel.h ****         __asm__ volatile ("csrs sstatus, %[mask]" : : [mask] "r"(mask));
 153              		.loc 3 119 9
 154              		.loc 3 119 72 is_stmt 0
 155 00d0 93072000 		li	a5,2
 156              	#APP
 157              	# 119 "src/../h/kernel.h" 1
 120              	    }
 158              		csrs sstatus, a5
 159              	# 0 "" 2
 160              	.LVL7:
 161              	#NO_APP
 162              	.LBE13:
 163              	.LBE12:
  27:src/main.cpp  **** 
  28:src/main.cpp  ****     thread_create(&CCB::inputProcces, CCB::inputBody, nullptr); // getc nit (stavljamo je prvi put 
 164              		.loc 1 28 5 is_stmt 1
 165              		.loc 1 28 18 is_stmt 0
 166 00d8 13060000 		li	a2,0
 167 00dc 97050000 		la	a1,_ZN3CCB9inputBodyEPv
GAS LISTING /tmp/cc9fo0BQ.s 			page 7


 167      83B50500 
 168 00e4 17050000 		la	a0,_ZN3CCB12inputProccesE
 168      03350500 
 169 00ec 97000000 		call	_Z13thread_createPP3PCBPFvPvES2_@plt
 169      E7800000 
 170              	.LVL8:
  29:src/main.cpp  ****     thread_create(&CCB::outputProcess, CCB::outputBody, nullptr); // putc nit ( stavljamo je prvi p
 171              		.loc 1 29 5 is_stmt 1
 172              		.loc 1 29 18 is_stmt 0
 173 00f4 13060000 		li	a2,0
 174 00f8 97050000 		la	a1,_ZN3CCB10outputBodyEPv
 174      83B50500 
 175 0100 17050000 		la	a0,_ZN3CCB13outputProcessE
 175      03350500 
 176 0108 97000000 		call	_Z13thread_createPP3PCBPFvPvES2_@plt
 176      E7800000 
 177              	.LVL9:
  30:src/main.cpp  ****     thread_create_only(&Scheduler::idleProcess, idleProcess, nullptr); // idle nit
 178              		.loc 1 30 5 is_stmt 1
 179              		.loc 1 30 23 is_stmt 0
 180 0110 13060000 		li	a2,0
 181 0114 97050000 		lla	a1,idleProcess
 181      93850500 
 182 011c 17050000 		la	a0,_ZN9Scheduler11idleProcessE
 182      03350500 
 183 0124 97000000 		call	_Z18thread_create_onlyPP3PCBPFvPvES2_@plt
 183      E7800000 
 184              	.LVL10:
  31:src/main.cpp  ****     Scheduler::idleProcess->setFinished(true);
 185              		.loc 1 31 5 is_stmt 1
 186              		.loc 1 31 40 is_stmt 0
 187 012c 97070000 		la	a5,_ZN9Scheduler11idleProcessE
 187      83B70700 
 188 0134 83B70700 		ld	a5,0(a5)
 189              	.LVL11:
 190              	.LBB14:
 191              	.LBB15:
 192              		.file 4 "src/../h/PCB.h"
   1:src/../h/PCB.h **** #ifndef PCB_H
   2:src/../h/PCB.h **** #define PCB_H
   3:src/../h/PCB.h **** 
   4:src/../h/PCB.h **** #include "hw.h"
   5:src/../h/PCB.h **** 
   6:src/../h/PCB.h **** extern "C" void interruptHandler();
   7:src/../h/PCB.h **** 
   8:src/../h/PCB.h **** class PCB {
   9:src/../h/PCB.h **** friend class Scheduler;
  10:src/../h/PCB.h **** friend void interruptHandler();
  11:src/../h/PCB.h **** friend class Kernel;
  12:src/../h/PCB.h **** friend class SCB;
  13:src/../h/PCB.h **** public:
  14:src/../h/PCB.h ****     // vraca true ako se proces zavrsio, false ako nije
  15:src/../h/PCB.h ****     bool isFinished() const {
  16:src/../h/PCB.h ****         return finished;
  17:src/../h/PCB.h ****     }
  18:src/../h/PCB.h ****     // vraca true ako je semafor obrisan pre nego sto je proces odblokiran
  19:src/../h/PCB.h ****     bool isSemaphoreDeleted() const {
GAS LISTING /tmp/cc9fo0BQ.s 			page 8


  20:src/../h/PCB.h ****         return semDeleted;
  21:src/../h/PCB.h ****     }
  22:src/../h/PCB.h **** 
  23:src/../h/PCB.h ****     size_t getTimeSleeping() const {
  24:src/../h/PCB.h ****         return timeSleeping;
  25:src/../h/PCB.h ****     }
  26:src/../h/PCB.h **** 
  27:src/../h/PCB.h ****     void setTimeSleeping(size_t newTime) {
  28:src/../h/PCB.h ****         timeSleeping = newTime;
  29:src/../h/PCB.h ****     }
  30:src/../h/PCB.h **** 
  31:src/../h/PCB.h ****     PCB* getNextInList() const {
  32:src/../h/PCB.h ****         return nextInList;
  33:src/../h/PCB.h ****     }
  34:src/../h/PCB.h **** 
  35:src/../h/PCB.h ****     void setNextInList(PCB* next) {
  36:src/../h/PCB.h ****         nextInList = next;
  37:src/../h/PCB.h ****     }
  38:src/../h/PCB.h **** 
  39:src/../h/PCB.h ****     void setBlocked(bool newState) {
  40:src/../h/PCB.h ****         blocked = newState;
  41:src/../h/PCB.h ****     }
  42:src/../h/PCB.h **** 
  43:src/../h/PCB.h ****     void setSemDeleted(bool newState) {
  44:src/../h/PCB.h ****         semDeleted = newState;
  45:src/../h/PCB.h ****     }
  46:src/../h/PCB.h **** 
  47:src/../h/PCB.h ****     void setTimeSlice(time_t timeSlice_) {
  48:src/../h/PCB.h ****         timeSlice = timeSlice_;
  49:src/../h/PCB.h ****     }
  50:src/../h/PCB.h **** 
  51:src/../h/PCB.h ****     void setFinished(bool finished_) {
  52:src/../h/PCB.h ****         finished = finished_;
 193              		.loc 4 52 9 is_stmt 1
 194              		.loc 4 52 18 is_stmt 0
 195 0138 13071000 		li	a4,1
 196 013c 2384E702 		sb	a4,40(a5)
 197              	.LVL12:
 198              	.LBE15:
 199              	.LBE14:
  32:src/main.cpp  ****     Scheduler::idleProcess->setTimeSlice(1);
 200              		.loc 1 32 5 is_stmt 1
 201              	.LBB16:
 202              	.LBB17:
  48:src/../h/PCB.h ****     }
 203              		.loc 4 48 9
  48:src/../h/PCB.h ****     }
 204              		.loc 4 48 19 is_stmt 0
 205 0140 13071000 		li	a4,1
 206 0144 23B0E704 		sd	a4,64(a5)
 207              	.LVL13:
 208              	.LBE17:
 209              	.LBE16:
  33:src/main.cpp  ****     thread_create(&userProcess, userMainWrapper, nullptr);
 210              		.loc 1 33 5 is_stmt 1
 211              		.loc 1 33 18 is_stmt 0
 212 0148 13060000 		li	a2,0
GAS LISTING /tmp/cc9fo0BQ.s 			page 9


 213 014c 97050000 		lla	a1,_Z15userMainWrapperPv
 213      93850500 
 214 0154 17050000 		lla	a0,.LANCHOR0
 214      13050500 
 215 015c 97000000 		call	_Z13thread_createPP3PCBPFvPvES2_@plt
 215      E7800000 
 216              	.LVL14:
 217              	.L10:
  34:src/main.cpp  ****     // ----
  35:src/main.cpp  **** 
  36:src/main.cpp  ****     while(!userProcess->isFinished()) {
 218              		.loc 1 36 5 is_stmt 1
 219              		.loc 1 36 11
 220              		.loc 1 36 35 is_stmt 0
 221 0164 97070000 		ld	a5,.LANCHOR0
 221      83B70700 
 222              	.LVL15:
 223              	.LBB18:
 224              	.LBB19:
  16:src/../h/PCB.h ****     }
 225              		.loc 4 16 9 is_stmt 1
  16:src/../h/PCB.h ****     }
 226              		.loc 4 16 16 is_stmt 0
 227 016c 83C78702 		lbu	a5,40(a5)
 228              	.LVL16:
 229              	.LBE19:
 230              	.LBE18:
 231              		.loc 1 36 11
 232 0170 63980700 		bnez	a5,.L9
  37:src/main.cpp  ****         thread_dispatch();
 233              		.loc 1 37 9 is_stmt 1
 234              		.loc 1 37 24 is_stmt 0
 235 0174 97000000 		call	_Z15thread_dispatchv@plt
 235      E7800000 
 236              	.LVL17:
  36:src/main.cpp  ****         thread_dispatch();
 237              		.loc 1 36 5
 238 017c 6FF09FFE 		j	.L10
 239              	.L9:
  38:src/main.cpp  ****     }
  39:src/main.cpp  **** 
  40:src/main.cpp  ****     while(CCB::semOutput->getSemValue() != 0) {
 240              		.loc 1 40 5 is_stmt 1
 241              		.loc 1 40 41
 242              		.loc 1 40 38 is_stmt 0
 243 0180 97070000 		la	a5,_ZN3CCB9semOutputE
 243      83B70700 
 244 0188 83B70700 		ld	a5,0(a5)
 245              	.LVL18:
 246              	.LBB20:
 247              	.LBB21:
 248              		.file 5 "src/../h/SCB.h"
   1:src/../h/SCB.h **** #ifndef PROJECT_BASE_SCB_H
   2:src/../h/SCB.h **** #define PROJECT_BASE_SCB_H
   3:src/../h/SCB.h **** 
   4:src/../h/SCB.h **** #include "PCB.h"
   5:src/../h/SCB.h **** #include "Scheduler.h"
GAS LISTING /tmp/cc9fo0BQ.s 			page 10


   6:src/../h/SCB.h **** 
   7:src/../h/SCB.h **** class SCB { // Semaphore Control Block
   8:src/../h/SCB.h **** public:
   9:src/../h/SCB.h ****     int getSemValue() const {
  10:src/../h/SCB.h ****         return semValue;
 249              		.loc 5 10 9 is_stmt 1
 250              		.loc 5 10 16 is_stmt 0
 251 018c 83A70701 		lw	a5,16(a5)
 252              	.LVL19:
 253              	.LBE21:
 254              	.LBE20:
 255              		.loc 1 40 41
 256 0190 63880700 		beqz	a5,.L11
  41:src/main.cpp  ****         thread_dispatch();
 257              		.loc 1 41 9 is_stmt 1
 258              		.loc 1 41 24 is_stmt 0
 259 0194 97000000 		call	_Z15thread_dispatchv@plt
 259      E7800000 
 260              	.LVL20:
  40:src/main.cpp  ****         thread_dispatch();
 261              		.loc 1 40 5
 262 019c 6FF05FFE 		j	.L9
 263              	.L11:
  42:src/main.cpp  ****     }
  43:src/main.cpp  ****     return 0;
 264              		.loc 1 43 5 is_stmt 1
  44:src/main.cpp  **** }...
 265              		.loc 1 44 1 is_stmt 0
 266 01a0 13050000 		li	a0,0
 267 01a4 83308100 		ld	ra,8(sp)
 268              		.cfi_restore 1
 269 01a8 03340100 		ld	s0,0(sp)
 270              		.cfi_restore 8
 271              		.cfi_def_cfa 2, 16
 272 01ac 13010101 		addi	sp,sp,16
 273              		.cfi_def_cfa_offset 0
 274 01b0 67800000 		jr	ra
 275              		.cfi_endproc
 276              	.LFE35:
 278              		.globl	userProcess
 279              		.bss
 280              		.align	3
 281              		.set	.LANCHOR0,. + 0
 284              	userProcess:
 285 0000 00000000 		.zero	8
 285      00000000 
 286              		.text
 287              	.Letext0:
 288              		.file 6 "src/../h/hw.h"
 289              		.file 7 "src/../h/syscall_c.h"
GAS LISTING /tmp/cc9fo0BQ.s 			page 11


DEFINED SYMBOLS
                            *ABS*:0000000000000000 main.cpp
     /tmp/cc9fo0BQ.s:9      .text:0000000000000000 idleProcess
     /tmp/cc9fo0BQ.s:13     .text:0000000000000000 .L0 
     /tmp/cc9fo0BQ.s:14     .text:0000000000000000 .L0 
     /tmp/cc9fo0BQ.s:15     .text:0000000000000004 .L0 
     /tmp/cc9fo0BQ.s:17     .text:0000000000000008 .L0 
     /tmp/cc9fo0BQ.s:19     .text:000000000000000c .L0 
     /tmp/cc9fo0BQ.s:22     .text:000000000000000c .L0 
     /tmp/cc9fo0BQ.s:23     .text:000000000000000c .L0 
     /tmp/cc9fo0BQ.s:24     .text:0000000000000010 .L0 
     /tmp/cc9fo0BQ.s:30     .text:0000000000000010 _Z15userMainWrapperPv
     /tmp/cc9fo0BQ.s:34     .text:0000000000000010 .L0 
     /tmp/cc9fo0BQ.s:35     .text:0000000000000010 .L0 
     /tmp/cc9fo0BQ.s:36     .text:0000000000000014 .L0 
     /tmp/cc9fo0BQ.s:39     .text:000000000000001c .L0 
     /tmp/cc9fo0BQ.s:40     .text:000000000000001c .L0 
     /tmp/cc9fo0BQ.s:42     .text:0000000000000020 .L0 
     /tmp/cc9fo0BQ.s:44     .text:0000000000000020 .L0 
     /tmp/cc9fo0BQ.s:45     .text:0000000000000020 .L0 
     /tmp/cc9fo0BQ.s:48     .text:0000000000000028 .L0 
     /tmp/cc9fo0BQ.s:49     .text:000000000000002c .L0 
     /tmp/cc9fo0BQ.s:51     .text:0000000000000030 .L0 
     /tmp/cc9fo0BQ.s:52     .text:0000000000000030 .L0 
     /tmp/cc9fo0BQ.s:54     .text:0000000000000034 .L0 
     /tmp/cc9fo0BQ.s:56     .text:0000000000000038 .L0 
     /tmp/cc9fo0BQ.s:62     .text:0000000000000038 _Z8userModev
     /tmp/cc9fo0BQ.s:65     .text:0000000000000038 .L0 
     /tmp/cc9fo0BQ.s:66     .text:0000000000000038 .L0 
     /tmp/cc9fo0BQ.s:67     .text:000000000000003c .L0 
     /tmp/cc9fo0BQ.s:69     .text:0000000000000040 .L0 
     /tmp/cc9fo0BQ.s:71     .text:0000000000000044 .L0 
     /tmp/cc9fo0BQ.s:74     .text:0000000000000044 .L0 
     /tmp/cc9fo0BQ.s:75     .text:0000000000000044 .L0 
     /tmp/cc9fo0BQ.s:76     .text:0000000000000044 .L0 
     /tmp/cc9fo0BQ.s:82     .text:000000000000004c .L0 
 src/../h/userMain.h:10     .text:000000000000004c .L0 
     /tmp/cc9fo0BQ.s:88     .text:0000000000000050 .L0 
     /tmp/cc9fo0BQ.s:89     .text:0000000000000054 .L0 
     /tmp/cc9fo0BQ.s:90     .text:0000000000000054 .L0 
     /tmp/cc9fo0BQ.s:92     .text:0000000000000058 .L0 
     /tmp/cc9fo0BQ.s:94     .text:000000000000005c .L0 
     /tmp/cc9fo0BQ.s:100    .text:000000000000005c main
     /tmp/cc9fo0BQ.s:103    .text:000000000000005c .L0 
     /tmp/cc9fo0BQ.s:104    .text:000000000000005c .L0 
     /tmp/cc9fo0BQ.s:105    .text:0000000000000060 .L0 
     /tmp/cc9fo0BQ.s:108    .text:0000000000000068 .L0 
     /tmp/cc9fo0BQ.s:109    .text:0000000000000068 .L0 
     /tmp/cc9fo0BQ.s:111    .text:000000000000006c .L0 
     /tmp/cc9fo0BQ.s:113    .text:000000000000006c .L0 
     /tmp/cc9fo0BQ.s:114    .text:000000000000006c .L0 
     /tmp/cc9fo0BQ.s:120    .text:0000000000000078 .L0 
     /tmp/cc9fo0BQ.s:122    .text:0000000000000078 .L0 
     /tmp/cc9fo0BQ.s:127    .text:0000000000000088 .L0 
     /tmp/cc9fo0BQ.s:128    .text:0000000000000088 .L0 
     /tmp/cc9fo0BQ.s:131    .text:0000000000000094 .L0 
     /tmp/cc9fo0BQ.s:132    .text:0000000000000094 .L0 
GAS LISTING /tmp/cc9fo0BQ.s 			page 12


     /tmp/cc9fo0BQ.s:138    .text:00000000000000a8 .L0 
     /tmp/cc9fo0BQ.s:139    .text:00000000000000a8 .L0 
     /tmp/cc9fo0BQ.s:144    .text:00000000000000bc .L0 
     /tmp/cc9fo0BQ.s:145    .text:00000000000000bc .L0 
     /tmp/cc9fo0BQ.s:153    .text:00000000000000d0 .L0 
     /tmp/cc9fo0BQ.s:154    .text:00000000000000d0 .L0 
     /tmp/cc9fo0BQ.s:155    .text:00000000000000d0 .L0 
     /tmp/cc9fo0BQ.s:165    .text:00000000000000d8 .L0 
     /tmp/cc9fo0BQ.s:166    .text:00000000000000d8 .L0 
     /tmp/cc9fo0BQ.s:172    .text:00000000000000f4 .L0 
     /tmp/cc9fo0BQ.s:173    .text:00000000000000f4 .L0 
     /tmp/cc9fo0BQ.s:179    .text:0000000000000110 .L0 
     /tmp/cc9fo0BQ.s:180    .text:0000000000000110 .L0 
     /tmp/cc9fo0BQ.s:186    .text:000000000000012c .L0 
     /tmp/cc9fo0BQ.s:187    .text:000000000000012c .L0 
     /tmp/cc9fo0BQ.s:194    .text:0000000000000138 .L0 
     /tmp/cc9fo0BQ.s:195    .text:0000000000000138 .L0 
     /tmp/cc9fo0BQ.s:203    .text:0000000000000140 .L0 
     /tmp/cc9fo0BQ.s:204    .text:0000000000000140 .L0 
     /tmp/cc9fo0BQ.s:205    .text:0000000000000140 .L0 
     /tmp/cc9fo0BQ.s:211    .text:0000000000000148 .L0 
     /tmp/cc9fo0BQ.s:212    .text:0000000000000148 .L0 
     /tmp/cc9fo0BQ.s:219    .text:0000000000000164 .L0 
     /tmp/cc9fo0BQ.s:220    .text:0000000000000164 .L0 
     /tmp/cc9fo0BQ.s:221    .text:0000000000000164 .L0 
     /tmp/cc9fo0BQ.s:226    .text:000000000000016c .L0 
     /tmp/cc9fo0BQ.s:227    .text:000000000000016c .L0 
     /tmp/cc9fo0BQ.s:232    .text:0000000000000170 .L0 
     /tmp/cc9fo0BQ.s:234    .text:0000000000000174 .L0 
     /tmp/cc9fo0BQ.s:235    .text:0000000000000174 .L0 
     /tmp/cc9fo0BQ.s:238    .text:000000000000017c .L0 
     /tmp/cc9fo0BQ.s:241    .text:0000000000000180 .L0 
     /tmp/cc9fo0BQ.s:242    .text:0000000000000180 .L0 
     /tmp/cc9fo0BQ.s:243    .text:0000000000000180 .L0 
     /tmp/cc9fo0BQ.s:250    .text:000000000000018c .L0 
     /tmp/cc9fo0BQ.s:251    .text:000000000000018c .L0 
     /tmp/cc9fo0BQ.s:256    .text:0000000000000190 .L0 
     /tmp/cc9fo0BQ.s:258    .text:0000000000000194 .L0 
     /tmp/cc9fo0BQ.s:259    .text:0000000000000194 .L0 
     /tmp/cc9fo0BQ.s:262    .text:000000000000019c .L0 
     /tmp/cc9fo0BQ.s:265    .text:00000000000001a0 .L0 
     /tmp/cc9fo0BQ.s:266    .text:00000000000001a0 .L0 
     /tmp/cc9fo0BQ.s:268    .text:00000000000001a8 .L0 
     /tmp/cc9fo0BQ.s:270    .text:00000000000001ac .L0 
     /tmp/cc9fo0BQ.s:271    .text:00000000000001ac .L0 
     /tmp/cc9fo0BQ.s:273    .text:00000000000001b0 .L0 
     /tmp/cc9fo0BQ.s:275    .text:00000000000001b4 .L0 
     /tmp/cc9fo0BQ.s:284    .bss:0000000000000000 userProcess
     /tmp/cc9fo0BQ.s:281    .bss:0000000000000000 .LANCHOR0
     /tmp/cc9fo0BQ.s:290    .text:00000000000001b4 .L0 
     /tmp/cc9fo0BQ.s:114    .text:000000000000006c .L0 
     /tmp/cc9fo0BQ.s:128    .text:0000000000000088 .L0 
     /tmp/cc9fo0BQ.s:133    .text:0000000000000098 .L0 
     /tmp/cc9fo0BQ.s:140    .text:00000000000000ac .L0 
     /tmp/cc9fo0BQ.s:146    .text:00000000000000c0 .L0 
     /tmp/cc9fo0BQ.s:167    .text:00000000000000dc .L0 
     /tmp/cc9fo0BQ.s:168    .text:00000000000000e4 .L0 
GAS LISTING /tmp/cc9fo0BQ.s 			page 13


     /tmp/cc9fo0BQ.s:174    .text:00000000000000f8 .L0 
     /tmp/cc9fo0BQ.s:175    .text:0000000000000100 .L0 
     /tmp/cc9fo0BQ.s:181    .text:0000000000000114 .L0 
     /tmp/cc9fo0BQ.s:182    .text:000000000000011c .L0 
     /tmp/cc9fo0BQ.s:187    .text:000000000000012c .L0 
     /tmp/cc9fo0BQ.s:213    .text:000000000000014c .L0 
     /tmp/cc9fo0BQ.s:214    .text:0000000000000154 .L0 
     /tmp/cc9fo0BQ.s:221    .text:0000000000000164 .L0 
     /tmp/cc9fo0BQ.s:243    .text:0000000000000180 .L0 
     /tmp/cc9fo0BQ.s:20     .text:000000000000000c .L2
     /tmp/cc9fo0BQ.s:239    .text:0000000000000180 .L9
     /tmp/cc9fo0BQ.s:217    .text:0000000000000164 .L10
     /tmp/cc9fo0BQ.s:263    .text:00000000000001a0 .L11
     /tmp/cc9fo0BQ.s:1603   .debug_abbrev:0000000000000000 .Ldebug_abbrev0
     /tmp/cc9fo0BQ.s:2807   .debug_str:00000000000007ad .LASF168
     /tmp/cc9fo0BQ.s:2599   .debug_str:0000000000000226 .LASF169
     /tmp/cc9fo0BQ.s:2873   .debug_str:0000000000000a66 .LASF170
     /tmp/cc9fo0BQ.s:5      .text:0000000000000000 .Ltext0
     /tmp/cc9fo0BQ.s:287    .text:00000000000001b4 .Letext0
     /tmp/cc9fo0BQ.s:2529   .debug_line:0000000000000000 .Ldebug_line0
     /tmp/cc9fo0BQ.s:2627   .debug_str:00000000000002dc .LASF0
     /tmp/cc9fo0BQ.s:2655   .debug_str:000000000000039e .LASF1
     /tmp/cc9fo0BQ.s:2749   .debug_str:0000000000000643 .LASF2
     /tmp/cc9fo0BQ.s:2757   .debug_str:000000000000068a .LASF4
     /tmp/cc9fo0BQ.s:2641   .debug_str:0000000000000334 .LASF3
     /tmp/cc9fo0BQ.s:2539   .debug_str:0000000000000032 .LASF5
     /tmp/cc9fo0BQ.s:2717   .debug_str:0000000000000561 .LASF6
     /tmp/cc9fo0BQ.s:2709   .debug_str:0000000000000524 .LASF7
     /tmp/cc9fo0BQ.s:2649   .debug_str:000000000000037c .LASF8
     /tmp/cc9fo0BQ.s:2605   .debug_str:0000000000000244 .LASF9
     /tmp/cc9fo0BQ.s:2611   .debug_str:0000000000000279 .LASF10
     /tmp/cc9fo0BQ.s:2559   .debug_str:00000000000000e1 .LASF11
     /tmp/cc9fo0BQ.s:2597   .debug_str:0000000000000217 .LASF12
     /tmp/cc9fo0BQ.s:2561   .debug_str:00000000000000f0 .LASF13
     /tmp/cc9fo0BQ.s:2557   .debug_str:00000000000000d1 .LASF14
     /tmp/cc9fo0BQ.s:2785   .debug_str:000000000000073a .LASF15
     /tmp/cc9fo0BQ.s:2583   .debug_str:000000000000019c .LASF16
     /tmp/cc9fo0BQ.s:2775   .debug_str:0000000000000700 .LASF17
     /tmp/cc9fo0BQ.s:2795   .debug_str:0000000000000771 .LASF18
     /tmp/cc9fo0BQ.s:2847   .debug_str:000000000000099e .LASF20
     /tmp/cc9fo0BQ.s:2577   .debug_str:000000000000016a .LASF19
     /tmp/cc9fo0BQ.s:2819   .debug_str:00000000000008b9 .LASF21
     /tmp/cc9fo0BQ.s:2793   .debug_str:0000000000000761 .LASF22
     /tmp/cc9fo0BQ.s:2643   .debug_str:0000000000000346 .LASF23
     /tmp/cc9fo0BQ.s:2591   .debug_str:00000000000001e4 .LASF26
     /tmp/cc9fo0BQ.s:2877   .debug_str:0000000000000a97 .LASF28
     /tmp/cc9fo0BQ.s:2613   .debug_str:0000000000000287 .LASF24
     /tmp/cc9fo0BQ.s:2661   .debug_str:00000000000003dd .LASF25
     /tmp/cc9fo0BQ.s:2683   .debug_str:000000000000046c .LASF27
     /tmp/cc9fo0BQ.s:2875   .debug_str:0000000000000a7c .LASF29
     /tmp/cc9fo0BQ.s:2799   .debug_str:0000000000000781 .LASF30
     /tmp/cc9fo0BQ.s:2857   .debug_str:0000000000000a00 .LASF31
     /tmp/cc9fo0BQ.s:2825   .debug_str:00000000000008f6 .LASF32
     /tmp/cc9fo0BQ.s:2809   .debug_str:0000000000000871 .LASF33
     /tmp/cc9fo0BQ.s:2571   .debug_str:0000000000000146 .LASF34
     /tmp/cc9fo0BQ.s:2753   .debug_str:0000000000000664 .LASF35
     /tmp/cc9fo0BQ.s:2553   .debug_str:00000000000000b9 .LASF36
GAS LISTING /tmp/cc9fo0BQ.s 			page 14


     /tmp/cc9fo0BQ.s:2615   .debug_str:0000000000000295 .LASF37
     /tmp/cc9fo0BQ.s:2865   .debug_str:0000000000000a34 .LASF38
     /tmp/cc9fo0BQ.s:2543   .debug_str:0000000000000044 .LASF39
     /tmp/cc9fo0BQ.s:2771   .debug_str:00000000000006eb .LASF171
     /tmp/cc9fo0BQ.s:2659   .debug_str:00000000000003d7 .LASF112
     /tmp/cc9fo0BQ.s:2663   .debug_str:00000000000003f7 .LASF114
     /tmp/cc9fo0BQ.s:2803   .debug_str:0000000000000798 .LASF172
     /tmp/cc9fo0BQ.s:2653   .debug_str:0000000000000399 .LASF40
     /tmp/cc9fo0BQ.s:2859   .debug_str:0000000000000a16 .LASF41
     /tmp/cc9fo0BQ.s:2863   .debug_str:0000000000000a27 .LASF42
     /tmp/cc9fo0BQ.s:2587   .debug_str:00000000000001b7 .LASF43
     /tmp/cc9fo0BQ.s:2531   .debug_str:0000000000000000 .LASF44
     /tmp/cc9fo0BQ.s:2637   .debug_str:0000000000000312 .LASF75
     /tmp/cc9fo0BQ.s:2621   .debug_str:00000000000002c2 .LASF116
     /tmp/cc9fo0BQ.s:2551   .debug_str:00000000000000a3 .LASF118
     /tmp/cc9fo0BQ.s:2565   .debug_str:0000000000000113 .LASF81
     /tmp/cc9fo0BQ.s:2535   .debug_str:0000000000000018 .LASF45
     /tmp/cc9fo0BQ.s:2769   .debug_str:00000000000006e5 .LASF46
     /tmp/cc9fo0BQ.s:2843   .debug_str:0000000000000986 .LASF47
     /tmp/cc9fo0BQ.s:2651   .debug_str:000000000000038f .LASF48
     /tmp/cc9fo0BQ.s:2861   .debug_str:0000000000000a22 .LASF49
     /tmp/cc9fo0BQ.s:2773   .debug_str:00000000000006f7 .LASF50
     /tmp/cc9fo0BQ.s:2705   .debug_str:0000000000000503 .LASF51
     /tmp/cc9fo0BQ.s:2669   .debug_str:0000000000000426 .LASF52
     /tmp/cc9fo0BQ.s:2849   .debug_str:00000000000009b5 .LASF53
     /tmp/cc9fo0BQ.s:2575   .debug_str:000000000000015c .LASF54
     /tmp/cc9fo0BQ.s:2813   .debug_str:000000000000088f .LASF55
     /tmp/cc9fo0BQ.s:2765   .debug_str:00000000000006cb .LASF173
     /tmp/cc9fo0BQ.s:2573   .debug_str:0000000000000153 .LASF61
     /tmp/cc9fo0BQ.s:2547   .debug_str:0000000000000079 .LASF63
     /tmp/cc9fo0BQ.s:2629   .debug_str:00000000000002e9 .LASF56
     /tmp/cc9fo0BQ.s:2837   .debug_str:0000000000000944 .LASF58
     /tmp/cc9fo0BQ.s:2631   .debug_str:00000000000002f8 .LASF57
     /tmp/cc9fo0BQ.s:2761   .debug_str:0000000000000698 .LASF59
     /tmp/cc9fo0BQ.s:2667   .debug_str:000000000000041c .LASF60
     /tmp/cc9fo0BQ.s:2727   .debug_str:0000000000000597 .LASF62
     /tmp/cc9fo0BQ.s:2851   .debug_str:00000000000009c2 .LASF64
     /tmp/cc9fo0BQ.s:2673   .debug_str:0000000000000439 .LASF65
     /tmp/cc9fo0BQ.s:2555   .debug_str:00000000000000c5 .LASF66
     /tmp/cc9fo0BQ.s:2607   .debug_str:0000000000000254 .LASF67
     /tmp/cc9fo0BQ.s:2811   .debug_str:000000000000088a .LASF68
     /tmp/cc9fo0BQ.s:2845   .debug_str:000000000000098f .LASF69
     /tmp/cc9fo0BQ.s:2791   .debug_str:000000000000075a .LASF70
     /tmp/cc9fo0BQ.s:2647   .debug_str:000000000000036b .LASF71
     /tmp/cc9fo0BQ.s:2537   .debug_str:0000000000000023 .LASF72
     /tmp/cc9fo0BQ.s:2841   .debug_str:000000000000096c .LASF73
     /tmp/cc9fo0BQ.s:2801   .debug_str:000000000000078c .LASF74
     /tmp/cc9fo0BQ.s:2789   .debug_str:000000000000074d .LASF76
     /tmp/cc9fo0BQ.s:2743   .debug_str:0000000000000612 .LASF77
     /tmp/cc9fo0BQ.s:2855   .debug_str:00000000000009e5 .LASF78
     /tmp/cc9fo0BQ.s:2755   .debug_str:000000000000067c .LASF79
     /tmp/cc9fo0BQ.s:2581   .debug_str:0000000000000183 .LASF80
     /tmp/cc9fo0BQ.s:2723   .debug_str:0000000000000584 .LASF82
     /tmp/cc9fo0BQ.s:2625   .debug_str:00000000000002d6 .LASF83
     /tmp/cc9fo0BQ.s:2719   .debug_str:0000000000000568 .LASF84
     /tmp/cc9fo0BQ.s:2533   .debug_str:0000000000000010 .LASF85
     /tmp/cc9fo0BQ.s:2867   .debug_str:0000000000000a43 .LASF86
GAS LISTING /tmp/cc9fo0BQ.s 			page 15


     /tmp/cc9fo0BQ.s:2779   .debug_str:0000000000000720 .LASF87
     /tmp/cc9fo0BQ.s:2691   .debug_str:000000000000049f .LASF88
     /tmp/cc9fo0BQ.s:2623   .debug_str:00000000000002cd .LASF89
     /tmp/cc9fo0BQ.s:2787   .debug_str:0000000000000746 .LASF90
     /tmp/cc9fo0BQ.s:2609   .debug_str:000000000000026c .LASF105
     /tmp/cc9fo0BQ.s:2815   .debug_str:0000000000000899 .LASF91
     /tmp/cc9fo0BQ.s:2835   .debug_str:000000000000093b .LASF92
     /tmp/cc9fo0BQ.s:2783   .debug_str:000000000000072c .LASF93
     /tmp/cc9fo0BQ.s:2675   .debug_str:000000000000043e .LASF94
     /tmp/cc9fo0BQ.s:2733   .debug_str:00000000000005c7 .LASF95
     /tmp/cc9fo0BQ.s:2711   .debug_str:0000000000000537 .LASF96
     /tmp/cc9fo0BQ.s:2737   .debug_str:00000000000005ea .LASF97
     /tmp/cc9fo0BQ.s:2731   .debug_str:00000000000005bd .LASF98
     /tmp/cc9fo0BQ.s:2767   .debug_str:00000000000006dc .LASF99
     /tmp/cc9fo0BQ.s:2617   .debug_str:00000000000002ac .LASF100
     /tmp/cc9fo0BQ.s:2741   .debug_str:0000000000000607 .LASF101
     /tmp/cc9fo0BQ.s:2633   .debug_str:0000000000000307 .LASF102
     /tmp/cc9fo0BQ.s:2677   .debug_str:000000000000044a .LASF103
     /tmp/cc9fo0BQ.s:2645   .debug_str:0000000000000362 .LASF104
     /tmp/cc9fo0BQ.s:2827   .debug_str:0000000000000904 .LASF106
     /tmp/cc9fo0BQ.s:2593   .debug_str:00000000000001f4 .LASF107
     /tmp/cc9fo0BQ.s:2805   .debug_str:00000000000007a0 .LASF108
     /tmp/cc9fo0BQ.s:2567   .debug_str:0000000000000126 .LASF109
     /tmp/cc9fo0BQ.s:2853   .debug_str:00000000000009dd .LASF110
     /tmp/cc9fo0BQ.s:2639   .debug_str:000000000000031f .LASF111
     /tmp/cc9fo0BQ.s:2619   .debug_str:00000000000002b7 .LASF113
     /tmp/cc9fo0BQ.s:2707   .debug_str:000000000000050b .LASF115
     /tmp/cc9fo0BQ.s:2823   .debug_str:00000000000008ed .LASF117
     /tmp/cc9fo0BQ.s:2745   .debug_str:0000000000000622 .LASF119
     /tmp/cc9fo0BQ.s:2869   .debug_str:0000000000000a55 .LASF120
     /tmp/cc9fo0BQ.s:2729   .debug_str:00000000000005a7 .LASF121
     /tmp/cc9fo0BQ.s:2725   .debug_str:0000000000000590 .LASF122
     /tmp/cc9fo0BQ.s:2701   .debug_str:00000000000004e4 .LASF123
     /tmp/cc9fo0BQ.s:2699   .debug_str:00000000000004dd .LASF124
     /tmp/cc9fo0BQ.s:2739   .debug_str:00000000000005f3 .LASF125
     /tmp/cc9fo0BQ.s:2687   .debug_str:000000000000048f .LASF126
     /tmp/cc9fo0BQ.s:2763   .debug_str:00000000000006b6 .LASF127
     /tmp/cc9fo0BQ.s:2689   .debug_str:0000000000000497 .LASF128
     /tmp/cc9fo0BQ.s:2665   .debug_str:0000000000000407 .LASF129
     /tmp/cc9fo0BQ.s:2671   .debug_str:0000000000000431 .LASF130
     /tmp/cc9fo0BQ.s:2685   .debug_str:000000000000047a .LASF131
     /tmp/cc9fo0BQ.s:2871   .debug_str:0000000000000a5e .LASF132
     /tmp/cc9fo0BQ.s:2821   .debug_str:00000000000008d8 .LASF133
     /tmp/cc9fo0BQ.s:2781   .debug_str:0000000000000725 .LASF134
     /tmp/cc9fo0BQ.s:2715   .debug_str:000000000000054d .LASF135
     /tmp/cc9fo0BQ.s:2759   .debug_str:0000000000000691 .LASF136
     /tmp/cc9fo0BQ.s:2569   .debug_str:0000000000000132 .LASF137
     /tmp/cc9fo0BQ.s:2579   .debug_str:000000000000017d .LASF138
     /tmp/cc9fo0BQ.s:2751   .debug_str:0000000000000651 .LASF139
     /tmp/cc9fo0BQ.s:2635   .debug_str:000000000000030c .LASF140
     /tmp/cc9fo0BQ.s:2697   .debug_str:00000000000004ca .LASF141
     /tmp/cc9fo0BQ.s:2541   .debug_str:0000000000000039 .LASF142
     /tmp/cc9fo0BQ.s:2831   .debug_str:0000000000000918 .LASF143
     /tmp/cc9fo0BQ.s:2747   .debug_str:0000000000000638 .LASF144
     /tmp/cc9fo0BQ.s:2693   .debug_str:00000000000004a4 .LASF145
     /tmp/cc9fo0BQ.s:2839   .debug_str:0000000000000962 .LASF146
     /tmp/cc9fo0BQ.s:2595   .debug_str:0000000000000200 .LASF147
GAS LISTING /tmp/cc9fo0BQ.s 			page 16


     /tmp/cc9fo0BQ.s:2833   .debug_str:0000000000000931 .LASF148
     /tmp/cc9fo0BQ.s:2549   .debug_str:000000000000008c .LASF149
     /tmp/cc9fo0BQ.s:2797   .debug_str:000000000000077c .LASF150
     /tmp/cc9fo0BQ.s:2603   .debug_str:0000000000000238 .LASF151
     /tmp/cc9fo0BQ.s:101    .text:000000000000005c .LFB35
     /tmp/cc9fo0BQ.s:276    .text:00000000000001b4 .LFE35
     /tmp/cc9fo0BQ.s:2457   .debug_loc:0000000000000000 .LLST0
     /tmp/cc9fo0BQ.s:150    .text:00000000000000d0 .LBB12
     /tmp/cc9fo0BQ.s:163    .text:00000000000000d8 .LBE12
     /tmp/cc9fo0BQ.s:2464   .debug_loc:0000000000000023 .LLST1
     /tmp/cc9fo0BQ.s:190    .text:0000000000000138 .LBB14
     /tmp/cc9fo0BQ.s:199    .text:0000000000000140 .LBE14
     /tmp/cc9fo0BQ.s:2472   .debug_loc:0000000000000047 .LLST2
     /tmp/cc9fo0BQ.s:2480   .debug_loc:000000000000006b .LLST3
     /tmp/cc9fo0BQ.s:201    .text:0000000000000140 .LBB16
     /tmp/cc9fo0BQ.s:209    .text:0000000000000148 .LBE16
     /tmp/cc9fo0BQ.s:2487   .debug_loc:000000000000008e .LLST4
     /tmp/cc9fo0BQ.s:2495   .debug_loc:00000000000000b2 .LLST5
     /tmp/cc9fo0BQ.s:223    .text:000000000000016c .LBB18
     /tmp/cc9fo0BQ.s:230    .text:0000000000000170 .LBE18
     /tmp/cc9fo0BQ.s:2502   .debug_loc:00000000000000d5 .LLST6
     /tmp/cc9fo0BQ.s:246    .text:000000000000018c .LBB20
     /tmp/cc9fo0BQ.s:254    .text:0000000000000190 .LBE20
     /tmp/cc9fo0BQ.s:2509   .debug_loc:00000000000000f8 .LLST7
     /tmp/cc9fo0BQ.s:125    .text:0000000000000088 .LVL2
     /tmp/cc9fo0BQ.s:136    .text:00000000000000a8 .LVL4
     /tmp/cc9fo0BQ.s:142    .text:00000000000000bc .LVL5
     /tmp/cc9fo0BQ.s:148    .text:00000000000000d0 .LVL6
     /tmp/cc9fo0BQ.s:170    .text:00000000000000f4 .LVL8
     /tmp/cc9fo0BQ.s:177    .text:0000000000000110 .LVL9
     /tmp/cc9fo0BQ.s:184    .text:000000000000012c .LVL10
     /tmp/cc9fo0BQ.s:216    .text:0000000000000164 .LVL14
     /tmp/cc9fo0BQ.s:236    .text:000000000000017c .LVL17
     /tmp/cc9fo0BQ.s:260    .text:000000000000019c .LVL20
     /tmp/cc9fo0BQ.s:2721   .debug_str:0000000000000578 .LASF152
     /tmp/cc9fo0BQ.s:10     .text:0000000000000000 .LFB34
     /tmp/cc9fo0BQ.s:25     .text:0000000000000010 .LFE34
     /tmp/cc9fo0BQ.s:2679   .debug_str:000000000000044f .LASF153
     /tmp/cc9fo0BQ.s:2817   .debug_str:00000000000008a3 .LASF154
     /tmp/cc9fo0BQ.s:31     .text:0000000000000010 .LFB33
     /tmp/cc9fo0BQ.s:57     .text:0000000000000038 .LFE33
     /tmp/cc9fo0BQ.s:46     .text:0000000000000028 .LVL0
     /tmp/cc9fo0BQ.s:2695   .debug_str:00000000000004bd .LASF155
     /tmp/cc9fo0BQ.s:63     .text:0000000000000038 .LFB32
     /tmp/cc9fo0BQ.s:95     .text:000000000000005c .LFE32
     /tmp/cc9fo0BQ.s:2585   .debug_str:00000000000001b2 .LASF156
     /tmp/cc9fo0BQ.s:2829   .debug_str:0000000000000913 .LASF158
     /tmp/cc9fo0BQ.s:2601   .debug_str:0000000000000233 .LASF157
     /tmp/cc9fo0BQ.s:2777   .debug_str:0000000000000716 .LASF159
     /tmp/cc9fo0BQ.s:2703   .debug_str:00000000000004f8 .LASF160
     /tmp/cc9fo0BQ.s:2735   .debug_str:00000000000005d7 .LASF161
     /tmp/cc9fo0BQ.s:2589   .debug_str:00000000000001c3 .LASF162
     /tmp/cc9fo0BQ.s:2657   .debug_str:00000000000003b1 .LASF163
     /tmp/cc9fo0BQ.s:2563   .debug_str:0000000000000100 .LASF164
     /tmp/cc9fo0BQ.s:2545   .debug_str:0000000000000064 .LASF165
     /tmp/cc9fo0BQ.s:2681   .debug_str:000000000000045f .LASF166
     /tmp/cc9fo0BQ.s:2713   .debug_str:0000000000000544 .LASF167
GAS LISTING /tmp/cc9fo0BQ.s 			page 17


     /tmp/cc9fo0BQ.s:134    .text:00000000000000a0 .LVL3
     /tmp/cc9fo0BQ.s:160    .text:00000000000000d8 .LVL7
     /tmp/cc9fo0BQ.s:189    .text:0000000000000138 .LVL11
     /tmp/cc9fo0BQ.s:197    .text:0000000000000140 .LVL12
     /tmp/cc9fo0BQ.s:207    .text:0000000000000148 .LVL13
     /tmp/cc9fo0BQ.s:222    .text:000000000000016c .LVL15
     /tmp/cc9fo0BQ.s:228    .text:0000000000000170 .LVL16
     /tmp/cc9fo0BQ.s:245    .text:000000000000018c .LVL18
     /tmp/cc9fo0BQ.s:252    .text:0000000000000190 .LVL19
     /tmp/cc9fo0BQ.s:291    .debug_info:0000000000000000 .Ldebug_info0

UNDEFINED SYMBOLS
_Z8userMainv
interrupt
_ZN3PCB14createProccessEPFvvEPv
_ZN3PCB7runningE
_ZN3CCB8semInputE
_Z8sem_openPP3SCBj
_ZN3CCB9semOutputE
_ZN3CCB16inputBufferEmptyE
_ZN3CCB9inputBodyEPv
_ZN3CCB12inputProccesE
_Z13thread_createPP3PCBPFvPvES2_
_ZN3CCB10outputBodyEPv
_ZN3CCB13outputProcessE
_ZN9Scheduler11idleProcessE
_Z18thread_create_onlyPP3PCBPFvPvES2_
_Z15thread_dispatchv
