GAS LISTING /tmp/ccnuPOag.s 			page 1


   1              		.file	"main.cpp"
   2              		.option pic
   3              		.option norelax
   4              		.text
   5              	.Ltext0:
   6              		.align	2
   7              		.globl	idleProcess
   9              	idleProcess:
  10              	.LFB33:
  11              		.file 1 "src/main.cpp"
   1:src/main.cpp  **** #include "../h/hw.h"
   2:src/main.cpp  **** #include "../h/syscall_c.h"
   3:src/main.cpp  **** #include "../h/PCB.h"
   4:src/main.cpp  **** #include "../h/kernel.h"
   5:src/main.cpp  **** #include "../h/SCB.h"
   6:src/main.cpp  **** #include "../h/CCB.h"
   7:src/main.cpp  **** #include "../h/userMain.h"
   8:src/main.cpp  **** 
   9:src/main.cpp  **** // Kernel inicijalizacija
  10:src/main.cpp  **** extern "C" void interrupt();
  11:src/main.cpp  **** extern "C" void idleProcess(void*) {
  12              		.loc 1 11 36
  13              		.cfi_startproc
  14 0000 130101FF 		addi	sp,sp,-16
  15              		.cfi_def_cfa_offset 16
  16 0004 23348100 		sd	s0,8(sp)
  17              		.cfi_offset 8, -8
  18 0008 13040101 		addi	s0,sp,16
  19              		.cfi_def_cfa 8, 0
  20              	.L2:
  12:src/main.cpp  ****     while(true) {}
  21              		.loc 1 12 5 discriminator 1
  22              		.loc 1 12 5 discriminator 1
  23 000c 6F000000 		j	.L2
  24              		.cfi_endproc
  25              	.LFE33:
  27              		.align	2
  28              		.globl	_Z8userModev
  30              	_Z8userModev:
  31              	.LFB31:
  32              		.file 2 "src/../h/userMain.h"
   1:src/../h/userMain.h **** #ifndef USERMAIN_H
   2:src/../h/userMain.h **** #define USERMAIN_H
   3:src/../h/userMain.h **** 
   4:src/../h/userMain.h **** PCB* userProcess = nullptr;
   5:src/../h/userMain.h **** 
   6:src/../h/userMain.h **** extern "C" void interrupt();
   7:src/../h/userMain.h **** void userMode() {
  33              		.loc 2 7 17
  34              		.cfi_startproc
  35 0010 130101FF 		addi	sp,sp,-16
  36              		.cfi_def_cfa_offset 16
  37 0014 23348100 		sd	s0,8(sp)
  38              		.cfi_offset 8, -8
  39 0018 13040101 		addi	s0,sp,16
  40              		.cfi_def_cfa 8, 0
   8:src/../h/userMain.h ****     size_t code = Kernel::sysCallCodes::userMode;
GAS LISTING /tmp/ccnuPOag.s 			page 2


  41              		.loc 2 8 5
  42              	.LVL0:
   9:src/../h/userMain.h ****     asm volatile("mv a0, %0" : : "r" (code));
  43              		.loc 2 9 5
  44              		.loc 2 9 45 is_stmt 0
  45 001c 93073004 		li	a5,67
  46              	#APP
  47              	# 9 "src/../h/userMain.h" 1
  10              	    asm volatile("ecall");
  48              		mv a0, a5
  49              	# 0 "" 2
  50              		.loc 2 10 5 is_stmt 1
  51              		.loc 2 10 26 is_stmt 0
  52              	# 10 "src/../h/userMain.h" 1
  11              	
  12:src/../h/userMain.h **** }
  53              		ecall
  54              	# 0 "" 2
  55              		.loc 2 12 1
  56              	#NO_APP
  57 0028 03348100 		ld	s0,8(sp)
  58              		.cfi_restore 8
  59              		.cfi_def_cfa 2, 16
  60 002c 13010101 		addi	sp,sp,16
  61              		.cfi_def_cfa_offset 0
  62 0030 67800000 		jr	ra
  63              		.cfi_endproc
  64              	.LFE31:
  66              		.align	2
  67              		.globl	_Z15userMainWrapperPv
  69              	_Z15userMainWrapperPv:
  70              	.LFB32:
  13:src/../h/userMain.h **** void userMain();
  14:src/../h/userMain.h **** void userMainWrapper(void*) {
  71              		.loc 2 14 29 is_stmt 1
  72              		.cfi_startproc
  73 0034 130101FF 		addi	sp,sp,-16
  74              		.cfi_def_cfa_offset 16
  75 0038 23341100 		sd	ra,8(sp)
  76 003c 23308100 		sd	s0,0(sp)
  77              		.cfi_offset 1, -8
  78              		.cfi_offset 8, -16
  79 0040 13040101 		addi	s0,sp,16
  80              		.cfi_def_cfa 8, 0
  15:src/../h/userMain.h ****     userMode();
  81              		.loc 2 15 5
  82              		.loc 2 15 13 is_stmt 0
  83 0044 97000000 		call	_Z8userModev
  83      E7800000 
  84              	.LVL1:
  16:src/../h/userMain.h ****     userMain();
  85              		.loc 2 16 5 is_stmt 1
  86              		.loc 2 16 13 is_stmt 0
  87 004c 97000000 		call	_Z8userMainv@plt
  87      E7800000 
  88              	.LVL2:
  17:src/../h/userMain.h **** }
GAS LISTING /tmp/ccnuPOag.s 			page 3


  89              		.loc 2 17 1
  90 0054 83308100 		ld	ra,8(sp)
  91              		.cfi_restore 1
  92 0058 03340100 		ld	s0,0(sp)
  93              		.cfi_restore 8
  94              		.cfi_def_cfa 2, 16
  95 005c 13010101 		addi	sp,sp,16
  96              		.cfi_def_cfa_offset 0
  97 0060 67800000 		jr	ra
  98              		.cfi_endproc
  99              	.LFE32:
 101              		.align	2
 102              		.globl	main
 104              	main:
 105              	.LFB34:
  13:src/main.cpp  **** }
  14:src/main.cpp  **** // ------------
  15:src/main.cpp  **** 
  16:src/main.cpp  **** int main() {
 106              		.loc 1 16 12 is_stmt 1
 107              		.cfi_startproc
 108 0064 130101FE 		addi	sp,sp,-32
 109              		.cfi_def_cfa_offset 32
 110 0068 233C1100 		sd	ra,24(sp)
 111 006c 23388100 		sd	s0,16(sp)
 112 0070 23349100 		sd	s1,8(sp)
 113              		.cfi_offset 1, -8
 114              		.cfi_offset 8, -16
 115              		.cfi_offset 9, -24
 116 0074 13040102 		addi	s0,sp,32
 117              		.cfi_def_cfa 8, 0
  17:src/main.cpp  ****     // Kernel inicijalizacija
  18:src/main.cpp  ****     asm volatile("csrw stvec, %0" : : "r" (&interrupt));
 118              		.loc 1 18 5
 119              		.loc 1 18 56 is_stmt 0
 120 0078 97070000 		la	a5,interrupt
 120      83B70700 
 121              	#APP
 122              	# 18 "src/main.cpp" 1
  19              	    PCB* main = PCB::createProccess(nullptr, nullptr); // main proces(ne pravimo stek)
 123              		csrw stvec, a5
 124              	# 0 "" 2
 125              		.loc 1 19 5 is_stmt 1
 126              		.loc 1 19 36 is_stmt 0
 127              	#NO_APP
 128 0084 93050000 		li	a1,0
 129 0088 13050000 		li	a0,0
 130 008c 97000000 		call	_ZN3PCB14createProccessEPFvvEPv@plt
 130      E7800000 
 131              	.LVL3:
  20:src/main.cpp  ****     PCB::running = main;
 132              		.loc 1 20 5 is_stmt 1
 133              		.loc 1 20 18 is_stmt 0
 134 0094 97070000 		la	a5,_ZN3PCB7runningE
 134      83B70700 
 135 009c 23B0A700 		sd	a0,0(a5)
  21:src/main.cpp  **** 
GAS LISTING /tmp/ccnuPOag.s 			page 4


  22:src/main.cpp  ****     sem_open(&CCB::semInput, 0);
 136              		.loc 1 22 5 is_stmt 1
 137              		.loc 1 22 13 is_stmt 0
 138 00a0 93050000 		li	a1,0
 139 00a4 17050000 		la	a0,_ZN3CCB8semInputE
 139      03350500 
 140              	.LVL4:
 141 00ac 97000000 		call	_Z8sem_openPP3SCBj@plt
 141      E7800000 
 142              	.LVL5:
  23:src/main.cpp  ****     sem_open(&CCB::semOutput, 0);
 143              		.loc 1 23 5 is_stmt 1
 144              		.loc 1 23 13 is_stmt 0
 145 00b4 93050000 		li	a1,0
 146 00b8 17050000 		la	a0,_ZN3CCB9semOutputE
 146      03350500 
 147 00c0 97000000 		call	_Z8sem_openPP3SCBj@plt
 147      E7800000 
 148              	.LVL6:
  24:src/main.cpp  ****     sem_open(&CCB::inputBufferEmpty, 0);
 149              		.loc 1 24 5 is_stmt 1
 150              		.loc 1 24 13 is_stmt 0
 151 00c8 93050000 		li	a1,0
 152 00cc 17050000 		la	a0,_ZN3CCB16inputBufferEmptyE
 152      03350500 
 153 00d4 97000000 		call	_Z8sem_openPP3SCBj@plt
 153      E7800000 
 154              	.LVL7:
  25:src/main.cpp  **** 
  26:src/main.cpp  ****     Kernel::ms_sstatus(Kernel::SSTATUS_SIE); // dozvoljavaju se prekidi
 155              		.loc 1 26 5 is_stmt 1
 156              	.LBB10:
 157              	.LBB11:
 158              		.file 3 "src/../h/kernel.h"
   1:src/../h/kernel.h **** #ifndef KERNEL_H
   2:src/../h/kernel.h **** #define KERNEL_H
   3:src/../h/kernel.h **** 
   4:src/../h/kernel.h **** #include "hw.h"
   5:src/../h/kernel.h **** 
   6:src/../h/kernel.h **** class Kernel {
   7:src/../h/kernel.h **** public:
   8:src/../h/kernel.h ****     // postavlja code u registar a0
   9:src/../h/kernel.h ****     static size_t setCode(size_t code) {
  10:src/../h/kernel.h ****         return code;
  11:src/../h/kernel.h ****     }
  12:src/../h/kernel.h **** 
  13:src/../h/kernel.h ****     // kodovi po kojima se prepoznaju sistemski pozivi
  14:src/../h/kernel.h ****     enum sysCallCodes {
  15:src/../h/kernel.h ****         mem_alloc = 0x01,
  16:src/../h/kernel.h ****         mem_free = 0x02,
  17:src/../h/kernel.h ****         thread_create = 0x11,
  18:src/../h/kernel.h ****         thread_exit = 0x12,
  19:src/../h/kernel.h ****         thread_dispatch = 0x13,
  20:src/../h/kernel.h ****         thread_start = 0x14,
  21:src/../h/kernel.h ****         sem_open = 0x21,
  22:src/../h/kernel.h ****         sem_close = 0x22,
  23:src/../h/kernel.h ****         sem_wait = 0x23,
GAS LISTING /tmp/ccnuPOag.s 			page 5


  24:src/../h/kernel.h ****         sem_signal = 0x24,
  25:src/../h/kernel.h ****         time_sleep = 0x31,
  26:src/../h/kernel.h ****         getc = 0x41,
  27:src/../h/kernel.h ****         putc = 0x42,
  28:src/../h/kernel.h ****         userMode = 0x43
  29:src/../h/kernel.h ****     };
  30:src/../h/kernel.h **** 
  31:src/../h/kernel.h ****     // pop sstatus.spp and sstatus.spie bits (has to be a non inline function)
  32:src/../h/kernel.h ****     static void popSppSpie();
  33:src/../h/kernel.h **** 
  34:src/../h/kernel.h ****     // cita registar scause (uzrok nastanka prekida)
  35:src/../h/kernel.h ****     static size_t r_scause() {
  36:src/../h/kernel.h ****         size_t volatile scause;
  37:src/../h/kernel.h ****         __asm__ volatile ("csrr %[scause], scause" : [scause] "=r"(scause));
  38:src/../h/kernel.h ****         return scause;
  39:src/../h/kernel.h ****     }
  40:src/../h/kernel.h **** 
  41:src/../h/kernel.h ****     // upisuje u registar scause (uzrok nastanka prekida)
  42:src/../h/kernel.h ****     static void w_scause(size_t scause) {
  43:src/../h/kernel.h ****         __asm__ volatile ("csrw scause, %[scause]" : : [scause] "r"(scause));
  44:src/../h/kernel.h ****     }
  45:src/../h/kernel.h **** 
  46:src/../h/kernel.h ****     // cita registar sepc
  47:src/../h/kernel.h ****     static size_t r_sepc() {
  48:src/../h/kernel.h ****         size_t volatile sepc;
  49:src/../h/kernel.h ****         __asm__ volatile ("csrr %[sepc], sepc" : [sepc] "=r"(sepc));
  50:src/../h/kernel.h ****         return sepc;
  51:src/../h/kernel.h ****     }
  52:src/../h/kernel.h **** 
  53:src/../h/kernel.h ****     // upisuje u registar sepc
  54:src/../h/kernel.h ****     static void w_sepc(size_t sepc) {
  55:src/../h/kernel.h ****         __asm__ volatile ("csrw sepc, %[sepc]" : : [sepc] "r"(sepc));
  56:src/../h/kernel.h ****     }
  57:src/../h/kernel.h **** 
  58:src/../h/kernel.h ****     // read register stvec
  59:src/../h/kernel.h ****     static size_t r_stvec() {
  60:src/../h/kernel.h ****         size_t volatile stvec;
  61:src/../h/kernel.h ****         __asm__ volatile ("csrr %[stvec], stvec" : [stvec] "=r"(stvec));
  62:src/../h/kernel.h ****         return stvec;
  63:src/../h/kernel.h ****     }
  64:src/../h/kernel.h **** 
  65:src/../h/kernel.h ****     // write register stvec
  66:src/../h/kernel.h ****     static void w_stvec(size_t stvec) {
  67:src/../h/kernel.h ****         __asm__ volatile ("csrw stvec, %[stvec]" : : [stvec] "r"(stvec));
  68:src/../h/kernel.h ****     }
  69:src/../h/kernel.h **** 
  70:src/../h/kernel.h ****     // read register stval
  71:src/../h/kernel.h ****     static size_t r_stval() {
  72:src/../h/kernel.h ****         size_t volatile stval;
  73:src/../h/kernel.h ****         __asm__ volatile ("csrr %[stval], stval" : [stval] "=r"(stval));
  74:src/../h/kernel.h ****         return stval;
  75:src/../h/kernel.h ****     }
  76:src/../h/kernel.h **** 
  77:src/../h/kernel.h ****     // write register stval
  78:src/../h/kernel.h ****     static void w_stval(size_t stval) {
  79:src/../h/kernel.h ****         __asm__ volatile ("csrw stval, %[stval]" : : [stval] "r"(stval));
  80:src/../h/kernel.h ****     }
GAS LISTING /tmp/ccnuPOag.s 			page 6


  81:src/../h/kernel.h **** 
  82:src/../h/kernel.h ****     enum BitMaskSip
  83:src/../h/kernel.h ****     {
  84:src/../h/kernel.h ****         SIP_SSIE = (1 << 1), // da li su dozvoljeni softverski prekidi
  85:src/../h/kernel.h ****         SIP_SEIE = (1 << 9), // da li su dozvoljeni spoljasnji hardverski prekidi
  86:src/../h/kernel.h ****     };
  87:src/../h/kernel.h **** 
  88:src/../h/kernel.h ****     // postavljanje odredjenih bitova (BitMaskSip) u registar sip
  89:src/../h/kernel.h ****     static void ms_sip(size_t mask) {
  90:src/../h/kernel.h ****         __asm__ volatile ("csrs sip, %[mask]" : : [mask] "r"(mask));
  91:src/../h/kernel.h ****     }
  92:src/../h/kernel.h **** 
  93:src/../h/kernel.h ****     // brisanje odredjenih bitova (BitMaskSip) iz registra sip
  94:src/../h/kernel.h ****     static void mc_sip(size_t mask) {
  95:src/../h/kernel.h ****         __asm__ volatile ("csrc sip, %[mask]" : : [mask] "r"(mask));
  96:src/../h/kernel.h ****     }
  97:src/../h/kernel.h **** 
  98:src/../h/kernel.h ****     // citanje iz registra sip
  99:src/../h/kernel.h ****     static size_t r_sip() {
 100:src/../h/kernel.h ****         size_t volatile sip;
 101:src/../h/kernel.h ****         __asm__ volatile ("csrr %[sip], sip" : [sip] "=r"(sip));
 102:src/../h/kernel.h ****         return sip;
 103:src/../h/kernel.h ****     }
 104:src/../h/kernel.h **** 
 105:src/../h/kernel.h ****     // upis u registar sip
 106:src/../h/kernel.h ****     static void w_sip(size_t sip) {
 107:src/../h/kernel.h ****         __asm__ volatile ("csrw sip, %[sip]" : : [sip] "r"(sip));
 108:src/../h/kernel.h ****     }
 109:src/../h/kernel.h **** 
 110:src/../h/kernel.h ****     enum BitMaskSstatus
 111:src/../h/kernel.h ****     {
 112:src/../h/kernel.h ****         SSTATUS_SIE = (1 << 1), // ako je 0 - maskiranje spoljasnjih prekida u sistemskom rezimu
 113:src/../h/kernel.h ****         SSTATUS_SPIE = (1 << 5), // prethodna vrednost sie
 114:src/../h/kernel.h ****         SSTATUS_SPP = (1 << 8), // u kom rezimu se desio prekid
 115:src/../h/kernel.h ****     };
 116:src/../h/kernel.h **** 
 117:src/../h/kernel.h ****     // mask set register sstatus
 118:src/../h/kernel.h ****     static void ms_sstatus(size_t mask) {
 119:src/../h/kernel.h ****         __asm__ volatile ("csrs sstatus, %[mask]" : : [mask] "r"(mask));
 159              		.loc 3 119 9
 160              		.loc 3 119 72 is_stmt 0
 161 00dc 93072000 		li	a5,2
 162              	#APP
 163              	# 119 "src/../h/kernel.h" 1
 120              	    }
 164              		csrs sstatus, a5
 165              	# 0 "" 2
 166              	.LVL8:
 167              	#NO_APP
 168              	.LBE11:
 169              	.LBE10:
  27:src/main.cpp  **** 
  28:src/main.cpp  ****     thread_create(&CCB::inputProcces, CCB::inputBody, nullptr); // getc nit (stavljamo je prvi put 
 170              		.loc 1 28 5 is_stmt 1
 171              		.loc 1 28 18 is_stmt 0
 172 00e4 13060000 		li	a2,0
 173 00e8 97050000 		la	a1,_ZN3CCB9inputBodyEPv
GAS LISTING /tmp/ccnuPOag.s 			page 7


 173      83B50500 
 174 00f0 17050000 		la	a0,_ZN3CCB12inputProccesE
 174      03350500 
 175 00f8 97000000 		call	_Z13thread_createPP3PCBPFvPvES2_@plt
 175      E7800000 
 176              	.LVL9:
  29:src/main.cpp  ****     CCB::inputProcces->setTimeSlice(1);
 177              		.loc 1 29 5 is_stmt 1
 178              		.loc 1 29 36 is_stmt 0
 179 0100 97070000 		la	a5,_ZN3CCB12inputProccesE
 179      83B70700 
 180 0108 83B70700 		ld	a5,0(a5)
 181              	.LVL10:
 182              	.LBB12:
 183              	.LBB13:
 184              		.file 4 "src/../h/PCB.h"
   1:src/../h/PCB.h **** #ifndef PCB_H
   2:src/../h/PCB.h **** #define PCB_H
   3:src/../h/PCB.h **** 
   4:src/../h/PCB.h **** #include "hw.h"
   5:src/../h/PCB.h **** 
   6:src/../h/PCB.h **** extern "C" void interruptHandler();
   7:src/../h/PCB.h **** 
   8:src/../h/PCB.h **** class PCB {
   9:src/../h/PCB.h **** friend class Scheduler;
  10:src/../h/PCB.h **** friend void interruptHandler();
  11:src/../h/PCB.h **** friend class Kernel;
  12:src/../h/PCB.h **** friend class SCB;
  13:src/../h/PCB.h **** public:
  14:src/../h/PCB.h ****     // vraca true ako se proces zavrsio, false ako nije
  15:src/../h/PCB.h ****     bool isFinished() const {
  16:src/../h/PCB.h ****         return finished;
  17:src/../h/PCB.h ****     }
  18:src/../h/PCB.h ****     // vraca true ako je semafor obrisan pre nego sto je proces odblokiran
  19:src/../h/PCB.h ****     bool isSemaphoreDeleted() const {
  20:src/../h/PCB.h ****         return semDeleted;
  21:src/../h/PCB.h ****     }
  22:src/../h/PCB.h **** 
  23:src/../h/PCB.h ****     size_t getTimeSleeping() const {
  24:src/../h/PCB.h ****         return timeSleeping;
  25:src/../h/PCB.h ****     }
  26:src/../h/PCB.h **** 
  27:src/../h/PCB.h ****     void setTimeSleeping(size_t newTime) {
  28:src/../h/PCB.h ****         timeSleeping = newTime;
  29:src/../h/PCB.h ****     }
  30:src/../h/PCB.h **** 
  31:src/../h/PCB.h ****     PCB* getNextInList() const {
  32:src/../h/PCB.h ****         return nextInList;
  33:src/../h/PCB.h ****     }
  34:src/../h/PCB.h **** 
  35:src/../h/PCB.h ****     void setNextInList(PCB* next) {
  36:src/../h/PCB.h ****         nextInList = next;
  37:src/../h/PCB.h ****     }
  38:src/../h/PCB.h **** 
  39:src/../h/PCB.h ****     void setBlocked(bool newState) {
  40:src/../h/PCB.h ****         blocked = newState;
  41:src/../h/PCB.h ****     }
GAS LISTING /tmp/ccnuPOag.s 			page 8


  42:src/../h/PCB.h **** 
  43:src/../h/PCB.h ****     void setSemDeleted(bool newState) {
  44:src/../h/PCB.h ****         semDeleted = newState;
  45:src/../h/PCB.h ****     }
  46:src/../h/PCB.h **** 
  47:src/../h/PCB.h ****     void setTimeSlice(time_t timeSlice_) {
  48:src/../h/PCB.h ****         timeSlice = timeSlice_;
 185              		.loc 4 48 9 is_stmt 1
 186              		.loc 4 48 19 is_stmt 0
 187 010c 93041000 		li	s1,1
 188 0110 23B09704 		sd	s1,64(a5)
 189              	.LVL11:
 190              	.LBE13:
 191              	.LBE12:
  30:src/main.cpp  ****     thread_create(&CCB::outputProcess, CCB::outputBody, nullptr); // putc nit ( stavljamo je prvi p
 192              		.loc 1 30 5 is_stmt 1
 193              		.loc 1 30 18 is_stmt 0
 194 0114 13060000 		li	a2,0
 195 0118 97050000 		la	a1,_ZN3CCB10outputBodyEPv
 195      83B50500 
 196 0120 17050000 		la	a0,_ZN3CCB13outputProcessE
 196      03350500 
 197 0128 97000000 		call	_Z13thread_createPP3PCBPFvPvES2_@plt
 197      E7800000 
 198              	.LVL12:
  31:src/main.cpp  ****     CCB::outputProcess->setTimeSlice(1);
 199              		.loc 1 31 5 is_stmt 1
 200              		.loc 1 31 37 is_stmt 0
 201 0130 97070000 		la	a5,_ZN3CCB13outputProcessE
 201      83B70700 
 202 0138 83B70700 		ld	a5,0(a5)
 203              	.LVL13:
 204              	.LBB14:
 205              	.LBB15:
 206              		.loc 4 48 9 is_stmt 1
 207              		.loc 4 48 19 is_stmt 0
 208 013c 23B09704 		sd	s1,64(a5)
 209              	.LVL14:
 210              	.LBE15:
 211              	.LBE14:
  32:src/main.cpp  ****     thread_create_only(&Scheduler::idleProcess, idleProcess, nullptr); // idle nit
 212              		.loc 1 32 5 is_stmt 1
 213              		.loc 1 32 23 is_stmt 0
 214 0140 13060000 		li	a2,0
 215 0144 97050000 		lla	a1,idleProcess
 215      93850500 
 216 014c 17050000 		la	a0,_ZN9Scheduler11idleProcessE
 216      03350500 
 217 0154 97000000 		call	_Z18thread_create_onlyPP3PCBPFvPvES2_@plt
 217      E7800000 
 218              	.LVL15:
  33:src/main.cpp  ****     thread_create(&userProcess, userMainWrapper, nullptr);
 219              		.loc 1 33 5 is_stmt 1
 220              		.loc 1 33 18 is_stmt 0
 221 015c 13060000 		li	a2,0
 222 0160 97050000 		lla	a1,_Z15userMainWrapperPv
 222      93850500 
GAS LISTING /tmp/ccnuPOag.s 			page 9


 223 0168 17050000 		lla	a0,.LANCHOR0
 223      13050500 
 224 0170 97000000 		call	_Z13thread_createPP3PCBPFvPvES2_@plt
 224      E7800000 
 225              	.LVL16:
 226              	.L10:
  34:src/main.cpp  ****     // ----
  35:src/main.cpp  **** 
  36:src/main.cpp  ****     while(!userProcess->isFinished()) {
 227              		.loc 1 36 5 is_stmt 1
 228              		.loc 1 36 11
 229              		.loc 1 36 35 is_stmt 0
 230 0178 97070000 		ld	a5,.LANCHOR0
 230      83B70700 
 231              	.LVL17:
 232              	.LBB16:
 233              	.LBB17:
  16:src/../h/PCB.h ****     }
 234              		.loc 4 16 9 is_stmt 1
  16:src/../h/PCB.h ****     }
 235              		.loc 4 16 16 is_stmt 0
 236 0180 83C78702 		lbu	a5,40(a5)
 237              	.LVL18:
 238              	.LBE17:
 239              	.LBE16:
 240              		.loc 1 36 11
 241 0184 63980700 		bnez	a5,.L9
  37:src/main.cpp  ****         thread_dispatch();
 242              		.loc 1 37 9 is_stmt 1
 243              		.loc 1 37 24 is_stmt 0
 244 0188 97000000 		call	_Z15thread_dispatchv@plt
 244      E7800000 
 245              	.LVL19:
  36:src/main.cpp  ****         thread_dispatch();
 246              		.loc 1 36 5
 247 0190 6FF09FFE 		j	.L10
 248              	.L9:
  38:src/main.cpp  ****     }
  39:src/main.cpp  **** 
  40:src/main.cpp  ****    // while(CCB::semOutput->getSemValue() != 0) {}
  41:src/main.cpp  ****     return 0;
 249              		.loc 1 41 5 is_stmt 1
  42:src/main.cpp  **** }...
 250              		.loc 1 42 1 is_stmt 0
 251 0194 13050000 		li	a0,0
 252 0198 83308101 		ld	ra,24(sp)
 253              		.cfi_restore 1
 254 019c 03340101 		ld	s0,16(sp)
 255              		.cfi_restore 8
 256              		.cfi_def_cfa 2, 32
 257 01a0 83348100 		ld	s1,8(sp)
 258              		.cfi_restore 9
 259 01a4 13010102 		addi	sp,sp,32
 260              		.cfi_def_cfa_offset 0
 261 01a8 67800000 		jr	ra
 262              		.cfi_endproc
 263              	.LFE34:
GAS LISTING /tmp/ccnuPOag.s 			page 10


 265              		.globl	userProcess
 266              		.bss
 267              		.align	3
 268              		.set	.LANCHOR0,. + 0
 271              	userProcess:
 272 0000 00000000 		.zero	8
 272      00000000 
 273              		.text
 274              	.Letext0:
 275              		.file 5 "src/../h/hw.h"
 276              		.file 6 "src/../h/syscall_c.h"
GAS LISTING /tmp/ccnuPOag.s 			page 11


DEFINED SYMBOLS
                            *ABS*:0000000000000000 main.cpp
     /tmp/ccnuPOag.s:9      .text:0000000000000000 idleProcess
     /tmp/ccnuPOag.s:13     .text:0000000000000000 .L0 
     /tmp/ccnuPOag.s:14     .text:0000000000000000 .L0 
     /tmp/ccnuPOag.s:15     .text:0000000000000004 .L0 
     /tmp/ccnuPOag.s:17     .text:0000000000000008 .L0 
     /tmp/ccnuPOag.s:19     .text:000000000000000c .L0 
     /tmp/ccnuPOag.s:22     .text:000000000000000c .L0 
     /tmp/ccnuPOag.s:23     .text:000000000000000c .L0 
     /tmp/ccnuPOag.s:24     .text:0000000000000010 .L0 
     /tmp/ccnuPOag.s:30     .text:0000000000000010 _Z8userModev
     /tmp/ccnuPOag.s:34     .text:0000000000000010 .L0 
     /tmp/ccnuPOag.s:35     .text:0000000000000010 .L0 
     /tmp/ccnuPOag.s:36     .text:0000000000000014 .L0 
     /tmp/ccnuPOag.s:38     .text:0000000000000018 .L0 
     /tmp/ccnuPOag.s:40     .text:000000000000001c .L0 
     /tmp/ccnuPOag.s:43     .text:000000000000001c .L0 
     /tmp/ccnuPOag.s:44     .text:000000000000001c .L0 
     /tmp/ccnuPOag.s:45     .text:000000000000001c .L0 
     /tmp/ccnuPOag.s:51     .text:0000000000000024 .L0 
 src/../h/userMain.h:10     .text:0000000000000024 .L0 
     /tmp/ccnuPOag.s:57     .text:0000000000000028 .L0 
     /tmp/ccnuPOag.s:58     .text:000000000000002c .L0 
     /tmp/ccnuPOag.s:59     .text:000000000000002c .L0 
     /tmp/ccnuPOag.s:61     .text:0000000000000030 .L0 
     /tmp/ccnuPOag.s:63     .text:0000000000000034 .L0 
     /tmp/ccnuPOag.s:69     .text:0000000000000034 _Z15userMainWrapperPv
     /tmp/ccnuPOag.s:72     .text:0000000000000034 .L0 
     /tmp/ccnuPOag.s:73     .text:0000000000000034 .L0 
     /tmp/ccnuPOag.s:74     .text:0000000000000038 .L0 
     /tmp/ccnuPOag.s:77     .text:0000000000000040 .L0 
     /tmp/ccnuPOag.s:78     .text:0000000000000040 .L0 
     /tmp/ccnuPOag.s:80     .text:0000000000000044 .L0 
     /tmp/ccnuPOag.s:82     .text:0000000000000044 .L0 
     /tmp/ccnuPOag.s:83     .text:0000000000000044 .L0 
     /tmp/ccnuPOag.s:86     .text:000000000000004c .L0 
     /tmp/ccnuPOag.s:87     .text:000000000000004c .L0 
     /tmp/ccnuPOag.s:90     .text:0000000000000054 .L0 
     /tmp/ccnuPOag.s:91     .text:0000000000000058 .L0 
     /tmp/ccnuPOag.s:93     .text:000000000000005c .L0 
     /tmp/ccnuPOag.s:94     .text:000000000000005c .L0 
     /tmp/ccnuPOag.s:96     .text:0000000000000060 .L0 
     /tmp/ccnuPOag.s:98     .text:0000000000000064 .L0 
     /tmp/ccnuPOag.s:104    .text:0000000000000064 main
     /tmp/ccnuPOag.s:107    .text:0000000000000064 .L0 
     /tmp/ccnuPOag.s:108    .text:0000000000000064 .L0 
     /tmp/ccnuPOag.s:109    .text:0000000000000068 .L0 
     /tmp/ccnuPOag.s:113    .text:0000000000000074 .L0 
     /tmp/ccnuPOag.s:114    .text:0000000000000074 .L0 
     /tmp/ccnuPOag.s:115    .text:0000000000000074 .L0 
     /tmp/ccnuPOag.s:117    .text:0000000000000078 .L0 
     /tmp/ccnuPOag.s:119    .text:0000000000000078 .L0 
     /tmp/ccnuPOag.s:120    .text:0000000000000078 .L0 
     /tmp/ccnuPOag.s:126    .text:0000000000000084 .L0 
     /tmp/ccnuPOag.s:128    .text:0000000000000084 .L0 
     /tmp/ccnuPOag.s:133    .text:0000000000000094 .L0 
GAS LISTING /tmp/ccnuPOag.s 			page 12


     /tmp/ccnuPOag.s:134    .text:0000000000000094 .L0 
     /tmp/ccnuPOag.s:137    .text:00000000000000a0 .L0 
     /tmp/ccnuPOag.s:138    .text:00000000000000a0 .L0 
     /tmp/ccnuPOag.s:144    .text:00000000000000b4 .L0 
     /tmp/ccnuPOag.s:145    .text:00000000000000b4 .L0 
     /tmp/ccnuPOag.s:150    .text:00000000000000c8 .L0 
     /tmp/ccnuPOag.s:151    .text:00000000000000c8 .L0 
     /tmp/ccnuPOag.s:159    .text:00000000000000dc .L0 
     /tmp/ccnuPOag.s:160    .text:00000000000000dc .L0 
     /tmp/ccnuPOag.s:161    .text:00000000000000dc .L0 
     /tmp/ccnuPOag.s:171    .text:00000000000000e4 .L0 
     /tmp/ccnuPOag.s:172    .text:00000000000000e4 .L0 
     /tmp/ccnuPOag.s:178    .text:0000000000000100 .L0 
     /tmp/ccnuPOag.s:179    .text:0000000000000100 .L0 
     /tmp/ccnuPOag.s:186    .text:000000000000010c .L0 
     /tmp/ccnuPOag.s:187    .text:000000000000010c .L0 
     /tmp/ccnuPOag.s:193    .text:0000000000000114 .L0 
     /tmp/ccnuPOag.s:194    .text:0000000000000114 .L0 
     /tmp/ccnuPOag.s:200    .text:0000000000000130 .L0 
     /tmp/ccnuPOag.s:201    .text:0000000000000130 .L0 
     /tmp/ccnuPOag.s:207    .text:000000000000013c .L0 
     /tmp/ccnuPOag.s:208    .text:000000000000013c .L0 
     /tmp/ccnuPOag.s:213    .text:0000000000000140 .L0 
     /tmp/ccnuPOag.s:214    .text:0000000000000140 .L0 
     /tmp/ccnuPOag.s:220    .text:000000000000015c .L0 
     /tmp/ccnuPOag.s:221    .text:000000000000015c .L0 
     /tmp/ccnuPOag.s:228    .text:0000000000000178 .L0 
     /tmp/ccnuPOag.s:229    .text:0000000000000178 .L0 
     /tmp/ccnuPOag.s:230    .text:0000000000000178 .L0 
     /tmp/ccnuPOag.s:235    .text:0000000000000180 .L0 
     /tmp/ccnuPOag.s:236    .text:0000000000000180 .L0 
     /tmp/ccnuPOag.s:241    .text:0000000000000184 .L0 
     /tmp/ccnuPOag.s:243    .text:0000000000000188 .L0 
     /tmp/ccnuPOag.s:244    .text:0000000000000188 .L0 
     /tmp/ccnuPOag.s:247    .text:0000000000000190 .L0 
     /tmp/ccnuPOag.s:250    .text:0000000000000194 .L0 
     /tmp/ccnuPOag.s:251    .text:0000000000000194 .L0 
     /tmp/ccnuPOag.s:253    .text:000000000000019c .L0 
     /tmp/ccnuPOag.s:255    .text:00000000000001a0 .L0 
     /tmp/ccnuPOag.s:256    .text:00000000000001a0 .L0 
     /tmp/ccnuPOag.s:258    .text:00000000000001a4 .L0 
     /tmp/ccnuPOag.s:260    .text:00000000000001a8 .L0 
     /tmp/ccnuPOag.s:262    .text:00000000000001ac .L0 
     /tmp/ccnuPOag.s:271    .bss:0000000000000000 userProcess
     /tmp/ccnuPOag.s:268    .bss:0000000000000000 .LANCHOR0
     /tmp/ccnuPOag.s:277    .text:00000000000001ac .L0 
     /tmp/ccnuPOag.s:120    .text:0000000000000078 .L0 
     /tmp/ccnuPOag.s:134    .text:0000000000000094 .L0 
     /tmp/ccnuPOag.s:139    .text:00000000000000a4 .L0 
     /tmp/ccnuPOag.s:146    .text:00000000000000b8 .L0 
     /tmp/ccnuPOag.s:152    .text:00000000000000cc .L0 
     /tmp/ccnuPOag.s:173    .text:00000000000000e8 .L0 
     /tmp/ccnuPOag.s:174    .text:00000000000000f0 .L0 
     /tmp/ccnuPOag.s:179    .text:0000000000000100 .L0 
     /tmp/ccnuPOag.s:195    .text:0000000000000118 .L0 
     /tmp/ccnuPOag.s:196    .text:0000000000000120 .L0 
     /tmp/ccnuPOag.s:201    .text:0000000000000130 .L0 
GAS LISTING /tmp/ccnuPOag.s 			page 13


     /tmp/ccnuPOag.s:215    .text:0000000000000144 .L0 
     /tmp/ccnuPOag.s:216    .text:000000000000014c .L0 
     /tmp/ccnuPOag.s:222    .text:0000000000000160 .L0 
     /tmp/ccnuPOag.s:223    .text:0000000000000168 .L0 
     /tmp/ccnuPOag.s:230    .text:0000000000000178 .L0 
     /tmp/ccnuPOag.s:20     .text:000000000000000c .L2
     /tmp/ccnuPOag.s:248    .text:0000000000000194 .L9
     /tmp/ccnuPOag.s:226    .text:0000000000000178 .L10
     /tmp/ccnuPOag.s:1368   .debug_abbrev:0000000000000000 .Ldebug_abbrev0
     /tmp/ccnuPOag.s:2483   .debug_str:00000000000006d8 .LASF142
     /tmp/ccnuPOag.s:2299   .debug_str:00000000000001de .LASF143
     /tmp/ccnuPOag.s:2455   .debug_str:0000000000000627 .LASF144
     /tmp/ccnuPOag.s:5      .text:0000000000000000 .Ltext0
     /tmp/ccnuPOag.s:274    .text:00000000000001ac .Letext0
     /tmp/ccnuPOag.s:2239   .debug_line:0000000000000000 .Ldebug_line0
     /tmp/ccnuPOag.s:2323   .debug_str:000000000000026c .LASF0
     /tmp/ccnuPOag.s:2349   .debug_str:000000000000031d .LASF1
     /tmp/ccnuPOag.s:2437   .debug_str:0000000000000593 .LASF2
     /tmp/ccnuPOag.s:2443   .debug_str:00000000000005cc .LASF4
     /tmp/ccnuPOag.s:2337   .debug_str:00000000000002c4 .LASF3
     /tmp/ccnuPOag.s:2245   .debug_str:000000000000001b .LASF5
     /tmp/ccnuPOag.s:2409   .debug_str:00000000000004d4 .LASF6
     /tmp/ccnuPOag.s:2401   .debug_str:0000000000000497 .LASF7
     /tmp/ccnuPOag.s:2343   .debug_str:00000000000002fb .LASF8
     /tmp/ccnuPOag.s:2305   .debug_str:00000000000001fc .LASF9
     /tmp/ccnuPOag.s:2309   .debug_str:0000000000000219 .LASF10
     /tmp/ccnuPOag.s:2261   .debug_str:00000000000000b2 .LASF11
     /tmp/ccnuPOag.s:2297   .debug_str:00000000000001cf .LASF12
     /tmp/ccnuPOag.s:2263   .debug_str:00000000000000c1 .LASF13
     /tmp/ccnuPOag.s:2259   .debug_str:00000000000000a2 .LASF14
     /tmp/ccnuPOag.s:2467   .debug_str:0000000000000685 .LASF15
     /tmp/ccnuPOag.s:2283   .debug_str:0000000000000154 .LASF16
     /tmp/ccnuPOag.s:2461   .debug_str:000000000000065a .LASF17
     /tmp/ccnuPOag.s:2473   .debug_str:00000000000006a8 .LASF18
     /tmp/ccnuPOag.s:2515   .debug_str:0000000000000892 .LASF20
     /tmp/ccnuPOag.s:2279   .debug_str:000000000000013b .LASF19
     /tmp/ccnuPOag.s:2493   .debug_str:00000000000007df .LASF21
     /tmp/ccnuPOag.s:2471   .debug_str:0000000000000698 .LASF22
     /tmp/ccnuPOag.s:2339   .debug_str:00000000000002d6 .LASF23
     /tmp/ccnuPOag.s:2291   .debug_str:000000000000019c .LASF26
     /tmp/ccnuPOag.s:2537   .debug_str:000000000000093f .LASF28
     /tmp/ccnuPOag.s:2311   .debug_str:0000000000000227 .LASF24
     /tmp/ccnuPOag.s:2355   .debug_str:000000000000035c .LASF25
     /tmp/ccnuPOag.s:2377   .debug_str:00000000000003e4 .LASF27
     /tmp/ccnuPOag.s:2535   .debug_str:0000000000000924 .LASF29
     /tmp/ccnuPOag.s:2475   .debug_str:00000000000006b3 .LASF30
     /tmp/ccnuPOag.s:2523   .debug_str:00000000000008d9 .LASF31
     /tmp/ccnuPOag.s:2499   .debug_str:000000000000081c .LASF32
     /tmp/ccnuPOag.s:2485   .debug_str:000000000000079c .LASF33
     /tmp/ccnuPOag.s:2273   .debug_str:0000000000000117 .LASF34
     /tmp/ccnuPOag.s:2441   .debug_str:00000000000005b4 .LASF35
     /tmp/ccnuPOag.s:2531   .debug_str:000000000000090d .LASF36
     /tmp/ccnuPOag.s:2249   .debug_str:000000000000002d .LASF37
     /tmp/ccnuPOag.s:2457   .debug_str:0000000000000645 .LASF145
     /tmp/ccnuPOag.s:2353   .debug_str:0000000000000356 .LASF86
     /tmp/ccnuPOag.s:2357   .debug_str:0000000000000376 .LASF88
     /tmp/ccnuPOag.s:2479   .debug_str:00000000000006c3 .LASF146
GAS LISTING /tmp/ccnuPOag.s 			page 14


     /tmp/ccnuPOag.s:2347   .debug_str:0000000000000318 .LASF38
     /tmp/ccnuPOag.s:2525   .debug_str:00000000000008ef .LASF39
     /tmp/ccnuPOag.s:2529   .debug_str:0000000000000900 .LASF40
     /tmp/ccnuPOag.s:2287   .debug_str:000000000000016f .LASF41
     /tmp/ccnuPOag.s:2241   .debug_str:0000000000000000 .LASF42
     /tmp/ccnuPOag.s:2333   .debug_str:00000000000002a2 .LASF95
     /tmp/ccnuPOag.s:2317   .debug_str:000000000000024b .LASF90
     /tmp/ccnuPOag.s:2257   .debug_str:000000000000008c .LASF92
     /tmp/ccnuPOag.s:2267   .debug_str:00000000000000e4 .LASF147
     /tmp/ccnuPOag.s:2243   .debug_str:0000000000000010 .LASF43
     /tmp/ccnuPOag.s:2369   .debug_str:00000000000003bd .LASF44
     /tmp/ccnuPOag.s:2513   .debug_str:0000000000000889 .LASF45
     /tmp/ccnuPOag.s:2345   .debug_str:000000000000030e .LASF46
     /tmp/ccnuPOag.s:2527   .debug_str:00000000000008fb .LASF47
     /tmp/ccnuPOag.s:2459   .debug_str:0000000000000651 .LASF48
     /tmp/ccnuPOag.s:2397   .debug_str:0000000000000476 .LASF49
     /tmp/ccnuPOag.s:2363   .debug_str:00000000000003a5 .LASF50
     /tmp/ccnuPOag.s:2517   .debug_str:00000000000008a9 .LASF51
     /tmp/ccnuPOag.s:2277   .debug_str:000000000000012d .LASF52
     /tmp/ccnuPOag.s:2487   .debug_str:00000000000007b5 .LASF53
     /tmp/ccnuPOag.s:2451   .debug_str:000000000000060d .LASF148
     /tmp/ccnuPOag.s:2275   .debug_str:0000000000000124 .LASF59
     /tmp/ccnuPOag.s:2253   .debug_str:0000000000000062 .LASF61
     /tmp/ccnuPOag.s:2325   .debug_str:0000000000000279 .LASF54
     /tmp/ccnuPOag.s:2509   .debug_str:0000000000000861 .LASF56
     /tmp/ccnuPOag.s:2327   .debug_str:0000000000000288 .LASF55
     /tmp/ccnuPOag.s:2447   .debug_str:00000000000005da .LASF57
     /tmp/ccnuPOag.s:2361   .debug_str:000000000000039b .LASF58
     /tmp/ccnuPOag.s:2415   .debug_str:00000000000004ee .LASF60
     /tmp/ccnuPOag.s:2519   .debug_str:00000000000008b6 .LASF62
     /tmp/ccnuPOag.s:2367   .debug_str:00000000000003b8 .LASF63
     /tmp/ccnuPOag.s:2469   .debug_str:0000000000000691 .LASF64
     /tmp/ccnuPOag.s:2307   .debug_str:000000000000020c .LASF79
     /tmp/ccnuPOag.s:2489   .debug_str:00000000000007bf .LASF65
     /tmp/ccnuPOag.s:2319   .debug_str:0000000000000256 .LASF66
     /tmp/ccnuPOag.s:2465   .debug_str:0000000000000677 .LASF67
     /tmp/ccnuPOag.s:2371   .debug_str:00000000000003c3 .LASF68
     /tmp/ccnuPOag.s:2421   .debug_str:000000000000051e .LASF69
     /tmp/ccnuPOag.s:2403   .debug_str:00000000000004aa .LASF70
     /tmp/ccnuPOag.s:2425   .debug_str:0000000000000541 .LASF71
     /tmp/ccnuPOag.s:2419   .debug_str:0000000000000514 .LASF72
     /tmp/ccnuPOag.s:2453   .debug_str:000000000000061e .LASF73
     /tmp/ccnuPOag.s:2313   .debug_str:0000000000000235 .LASF74
     /tmp/ccnuPOag.s:2429   .debug_str:000000000000055e .LASF75
     /tmp/ccnuPOag.s:2329   .debug_str:0000000000000297 .LASF76
     /tmp/ccnuPOag.s:2373   .debug_str:00000000000003cf .LASF77
     /tmp/ccnuPOag.s:2341   .debug_str:00000000000002f2 .LASF78
     /tmp/ccnuPOag.s:2501   .debug_str:000000000000082a .LASF80
     /tmp/ccnuPOag.s:2293   .debug_str:00000000000001ac .LASF81
     /tmp/ccnuPOag.s:2481   .debug_str:00000000000006cb .LASF82
     /tmp/ccnuPOag.s:2269   .debug_str:00000000000000f7 .LASF83
     /tmp/ccnuPOag.s:2521   .debug_str:00000000000008d1 .LASF84
     /tmp/ccnuPOag.s:2335   .debug_str:00000000000002af .LASF85
     /tmp/ccnuPOag.s:2315   .debug_str:0000000000000240 .LASF87
     /tmp/ccnuPOag.s:2399   .debug_str:000000000000047e .LASF89
     /tmp/ccnuPOag.s:2497   .debug_str:0000000000000813 .LASF91
     /tmp/ccnuPOag.s:2433   .debug_str:0000000000000572 .LASF93
GAS LISTING /tmp/ccnuPOag.s 			page 15


     /tmp/ccnuPOag.s:2431   .debug_str:0000000000000569 .LASF94
     /tmp/ccnuPOag.s:2417   .debug_str:00000000000004fe .LASF96
     /tmp/ccnuPOag.s:2413   .debug_str:00000000000004e7 .LASF97
     /tmp/ccnuPOag.s:2393   .debug_str:0000000000000457 .LASF98
     /tmp/ccnuPOag.s:2391   .debug_str:0000000000000450 .LASF99
     /tmp/ccnuPOag.s:2427   .debug_str:000000000000054a .LASF100
     /tmp/ccnuPOag.s:2381   .debug_str:0000000000000407 .LASF101
     /tmp/ccnuPOag.s:2449   .debug_str:00000000000005f8 .LASF102
     /tmp/ccnuPOag.s:2383   .debug_str:000000000000040f .LASF103
     /tmp/ccnuPOag.s:2359   .debug_str:0000000000000386 .LASF104
     /tmp/ccnuPOag.s:2365   .debug_str:00000000000003b0 .LASF105
     /tmp/ccnuPOag.s:2379   .debug_str:00000000000003f2 .LASF106
     /tmp/ccnuPOag.s:2533   .debug_str:000000000000091c .LASF107
     /tmp/ccnuPOag.s:2495   .debug_str:00000000000007fe .LASF108
     /tmp/ccnuPOag.s:2463   .debug_str:0000000000000670 .LASF109
     /tmp/ccnuPOag.s:2407   .debug_str:00000000000004c0 .LASF110
     /tmp/ccnuPOag.s:2445   .debug_str:00000000000005d3 .LASF111
     /tmp/ccnuPOag.s:2271   .debug_str:0000000000000103 .LASF112
     /tmp/ccnuPOag.s:2281   .debug_str:000000000000014e .LASF113
     /tmp/ccnuPOag.s:2439   .debug_str:00000000000005a1 .LASF114
     /tmp/ccnuPOag.s:2331   .debug_str:000000000000029c .LASF115
     /tmp/ccnuPOag.s:2389   .debug_str:000000000000043d .LASF116
     /tmp/ccnuPOag.s:2247   .debug_str:0000000000000022 .LASF117
     /tmp/ccnuPOag.s:2505   .debug_str:000000000000083e .LASF118
     /tmp/ccnuPOag.s:2435   .debug_str:0000000000000588 .LASF119
     /tmp/ccnuPOag.s:2385   .debug_str:0000000000000417 .LASF120
     /tmp/ccnuPOag.s:2511   .debug_str:000000000000087f .LASF121
     /tmp/ccnuPOag.s:2295   .debug_str:00000000000001b8 .LASF122
     /tmp/ccnuPOag.s:2507   .debug_str:0000000000000857 .LASF123
     /tmp/ccnuPOag.s:2255   .debug_str:0000000000000075 .LASF124
     /tmp/ccnuPOag.s:2477   .debug_str:00000000000006be .LASF125
     /tmp/ccnuPOag.s:2303   .debug_str:00000000000001f0 .LASF126
     /tmp/ccnuPOag.s:105    .text:0000000000000064 .LFB34
     /tmp/ccnuPOag.s:263    .text:00000000000001ac .LFE34
     /tmp/ccnuPOag.s:2174   .debug_loc:0000000000000000 .LLST0
     /tmp/ccnuPOag.s:156    .text:00000000000000dc .LBB10
     /tmp/ccnuPOag.s:169    .text:00000000000000e4 .LBE10
     /tmp/ccnuPOag.s:2181   .debug_loc:0000000000000023 .LLST1
     /tmp/ccnuPOag.s:182    .text:000000000000010c .LBB12
     /tmp/ccnuPOag.s:191    .text:0000000000000114 .LBE12
     /tmp/ccnuPOag.s:2189   .debug_loc:0000000000000047 .LLST2
     /tmp/ccnuPOag.s:2197   .debug_loc:000000000000006b .LLST3
     /tmp/ccnuPOag.s:204    .text:000000000000013c .LBB14
     /tmp/ccnuPOag.s:211    .text:0000000000000140 .LBE14
     /tmp/ccnuPOag.s:2204   .debug_loc:000000000000008e .LLST4
     /tmp/ccnuPOag.s:2212   .debug_loc:00000000000000b2 .LLST5
     /tmp/ccnuPOag.s:232    .text:0000000000000180 .LBB16
     /tmp/ccnuPOag.s:239    .text:0000000000000184 .LBE16
     /tmp/ccnuPOag.s:2219   .debug_loc:00000000000000d5 .LLST6
     /tmp/ccnuPOag.s:131    .text:0000000000000094 .LVL3
     /tmp/ccnuPOag.s:142    .text:00000000000000b4 .LVL5
     /tmp/ccnuPOag.s:148    .text:00000000000000c8 .LVL6
     /tmp/ccnuPOag.s:154    .text:00000000000000dc .LVL7
     /tmp/ccnuPOag.s:176    .text:0000000000000100 .LVL9
     /tmp/ccnuPOag.s:198    .text:0000000000000130 .LVL12
     /tmp/ccnuPOag.s:218    .text:000000000000015c .LVL15
     /tmp/ccnuPOag.s:225    .text:0000000000000178 .LVL16
GAS LISTING /tmp/ccnuPOag.s 			page 16


     /tmp/ccnuPOag.s:245    .text:0000000000000190 .LVL19
     /tmp/ccnuPOag.s:2411   .debug_str:00000000000004db .LASF127
     /tmp/ccnuPOag.s:10     .text:0000000000000000 .LFB33
     /tmp/ccnuPOag.s:25     .text:0000000000000010 .LFE33
     /tmp/ccnuPOag.s:2375   .debug_str:00000000000003d4 .LASF128
     /tmp/ccnuPOag.s:2491   .debug_str:00000000000007c9 .LASF129
     /tmp/ccnuPOag.s:70     .text:0000000000000034 .LFB32
     /tmp/ccnuPOag.s:99     .text:0000000000000064 .LFE32
     /tmp/ccnuPOag.s:84     .text:000000000000004c .LVL1
     /tmp/ccnuPOag.s:88     .text:0000000000000054 .LVL2
     /tmp/ccnuPOag.s:2387   .debug_str:0000000000000430 .LASF130
     /tmp/ccnuPOag.s:31     .text:0000000000000010 .LFB31
     /tmp/ccnuPOag.s:64     .text:0000000000000034 .LFE31
     /tmp/ccnuPOag.s:2285   .debug_str:000000000000016a .LASF131
     /tmp/ccnuPOag.s:2503   .debug_str:0000000000000839 .LASF132
     /tmp/ccnuPOag.s:2301   .debug_str:00000000000001eb .LASF134
     /tmp/ccnuPOag.s:2395   .debug_str:000000000000046b .LASF133
     /tmp/ccnuPOag.s:2423   .debug_str:000000000000052e .LASF135
     /tmp/ccnuPOag.s:2289   .debug_str:000000000000017b .LASF136
     /tmp/ccnuPOag.s:2351   .debug_str:0000000000000330 .LASF137
     /tmp/ccnuPOag.s:2265   .debug_str:00000000000000d1 .LASF138
     /tmp/ccnuPOag.s:2251   .debug_str:000000000000004d .LASF139
     /tmp/ccnuPOag.s:2321   .debug_str:000000000000025f .LASF140
     /tmp/ccnuPOag.s:2405   .debug_str:00000000000004b7 .LASF141
     /tmp/ccnuPOag.s:140    .text:00000000000000ac .LVL4
     /tmp/ccnuPOag.s:166    .text:00000000000000e4 .LVL8
     /tmp/ccnuPOag.s:181    .text:000000000000010c .LVL10
     /tmp/ccnuPOag.s:189    .text:0000000000000114 .LVL11
     /tmp/ccnuPOag.s:203    .text:000000000000013c .LVL13
     /tmp/ccnuPOag.s:209    .text:0000000000000140 .LVL14
     /tmp/ccnuPOag.s:231    .text:0000000000000180 .LVL17
     /tmp/ccnuPOag.s:237    .text:0000000000000184 .LVL18
     /tmp/ccnuPOag.s:278    .debug_info:0000000000000000 .Ldebug_info0

UNDEFINED SYMBOLS
_Z8userMainv
interrupt
_ZN3PCB14createProccessEPFvvEPv
_ZN3PCB7runningE
_ZN3CCB8semInputE
_Z8sem_openPP3SCBj
_ZN3CCB9semOutputE
_ZN3CCB16inputBufferEmptyE
_ZN3CCB9inputBodyEPv
_ZN3CCB12inputProccesE
_Z13thread_createPP3PCBPFvPvES2_
_ZN3CCB10outputBodyEPv
_ZN3CCB13outputProcessE
_ZN9Scheduler11idleProcessE
_Z18thread_create_onlyPP3PCBPFvPvES2_
_Z15thread_dispatchv
