GAS LISTING /tmp/cclLaGkf.s 			page 1


   1              		.file	"main.cpp"
   2              		.option pic
   3              		.option norelax
   4              		.text
   5              	.Ltext0:
   6              		.align	2
   7              		.globl	idleProcess
   9              	idleProcess:
  10              	.LFB35:
  11              		.file 1 "src/main.cpp"
   1:src/main.cpp  **** #include "../h/hw.h"
   2:src/main.cpp  **** #include "../h/syscall_c.h"
   3:src/main.cpp  **** #include "../h/PCB.h"
   4:src/main.cpp  **** #include "../h/kernel.h"
   5:src/main.cpp  **** #include "../h/SCB.h"
   6:src/main.cpp  **** #include "../h/CCB.h"
   7:src/main.cpp  **** #include "../h/userMain.h"
   8:src/main.cpp  **** #include "../h/Cache.h"
   9:src/main.cpp  **** #include "../h/slab.h"
  10:src/main.cpp  **** 
  11:src/main.cpp  **** // Kernel inicijalizacija
  12:src/main.cpp  **** extern "C" void interrupt();
  13:src/main.cpp  **** extern "C" void idleProcess(void*) {
  12              		.loc 1 13 36
  13              		.cfi_startproc
  14 0000 130101FF 		addi	sp,sp,-16
  15              		.cfi_def_cfa_offset 16
  16 0004 23348100 		sd	s0,8(sp)
  17              		.cfi_offset 8, -8
  18 0008 13040101 		addi	s0,sp,16
  19              		.cfi_def_cfa 8, 0
  20              	.L2:
  14:src/main.cpp  ****     while(true) {}
  21              		.loc 1 14 5 discriminator 1
  22              		.loc 1 14 5 discriminator 1
  23 000c 6F000000 		j	.L2
  24              		.cfi_endproc
  25              	.LFE35:
  27              		.align	2
  28              		.globl	_Z15userMainWrapperPv
  30              	_Z15userMainWrapperPv:
  31              	.LFB34:
  32              		.file 2 "src/../h/userMain.h"
   1:src/../h/userMain.h **** #ifndef USERMAIN_H
   2:src/../h/userMain.h **** #define USERMAIN_H
   3:src/../h/userMain.h **** 
   4:src/../h/userMain.h **** PCB* userProcess = nullptr;
   5:src/../h/userMain.h **** 
   6:src/../h/userMain.h **** extern "C" void interrupt();
   7:src/../h/userMain.h **** void userMode() {
   8:src/../h/userMain.h ****     size_t code = Kernel::sysCallCodes::userMode;
   9:src/../h/userMain.h ****     asm volatile("mv a0, %0" : : "r" (code));
  10:src/../h/userMain.h ****     asm volatile("ecall");
  11:src/../h/userMain.h **** 
  12:src/../h/userMain.h **** }
  13:src/../h/userMain.h **** void userMain();
  14:src/../h/userMain.h **** void userMainWrapper(void*) {
GAS LISTING /tmp/cclLaGkf.s 			page 2


  33              		.loc 2 14 29
  34              		.cfi_startproc
  35 0010 130101FF 		addi	sp,sp,-16
  36              		.cfi_def_cfa_offset 16
  37 0014 23341100 		sd	ra,8(sp)
  38 0018 23308100 		sd	s0,0(sp)
  39              		.cfi_offset 1, -8
  40              		.cfi_offset 8, -16
  41 001c 13040101 		addi	s0,sp,16
  42              		.cfi_def_cfa 8, 0
  15:src/../h/userMain.h ****     //userMode(); // prelazak u user mod
  16:src/../h/userMain.h ****     userMain();
  43              		.loc 2 16 5
  44              		.loc 2 16 13 is_stmt 0
  45 0020 97000000 		call	_Z8userMainv@plt
  45      E7800000 
  46              	.LVL0:
  17:src/../h/userMain.h **** }
  47              		.loc 2 17 1
  48 0028 83308100 		ld	ra,8(sp)
  49              		.cfi_restore 1
  50 002c 03340100 		ld	s0,0(sp)
  51              		.cfi_restore 8
  52              		.cfi_def_cfa 2, 16
  53 0030 13010101 		addi	sp,sp,16
  54              		.cfi_def_cfa_offset 0
  55 0034 67800000 		jr	ra
  56              		.cfi_endproc
  57              	.LFE34:
  59              		.align	2
  60              		.globl	_Z8userModev
  62              	_Z8userModev:
  63              	.LFB33:
   7:src/../h/userMain.h ****     size_t code = Kernel::sysCallCodes::userMode;
  64              		.loc 2 7 17 is_stmt 1
  65              		.cfi_startproc
  66 0038 130101FF 		addi	sp,sp,-16
  67              		.cfi_def_cfa_offset 16
  68 003c 23348100 		sd	s0,8(sp)
  69              		.cfi_offset 8, -8
  70 0040 13040101 		addi	s0,sp,16
  71              		.cfi_def_cfa 8, 0
   8:src/../h/userMain.h ****     asm volatile("mv a0, %0" : : "r" (code));
  72              		.loc 2 8 5
  73              	.LVL1:
   9:src/../h/userMain.h ****     asm volatile("ecall");
  74              		.loc 2 9 5
   9:src/../h/userMain.h ****     asm volatile("ecall");
  75              		.loc 2 9 45 is_stmt 0
  76 0044 93073004 		li	a5,67
  77              	#APP
  78              	# 9 "src/../h/userMain.h" 1
  10:src/../h/userMain.h **** 
  79              		mv a0, a5
  80              	# 0 "" 2
  81              		.loc 2 10 5 is_stmt 1
  10:src/../h/userMain.h **** 
GAS LISTING /tmp/cclLaGkf.s 			page 3


  82              		.loc 2 10 26 is_stmt 0
  83              	# 10 "src/../h/userMain.h" 1
  12:src/../h/userMain.h **** void userMain();
  84              		ecall
  85              	# 0 "" 2
  86              		.loc 2 12 1
  87              	#NO_APP
  88 0050 03348100 		ld	s0,8(sp)
  89              		.cfi_restore 8
  90              		.cfi_def_cfa 2, 16
  91 0054 13010101 		addi	sp,sp,16
  92              		.cfi_def_cfa_offset 0
  93 0058 67800000 		jr	ra
  94              		.cfi_endproc
  95              	.LFE33:
  97              		.align	2
  98              		.globl	main
 100              	main:
 101              	.LFB36:
  15:src/main.cpp  **** }
  16:src/main.cpp  **** // ------------
  17:src/main.cpp  **** 
  18:src/main.cpp  **** int main() {
 102              		.loc 1 18 12 is_stmt 1
 103              		.cfi_startproc
 104 005c 130101FF 		addi	sp,sp,-16
 105              		.cfi_def_cfa_offset 16
 106 0060 23341100 		sd	ra,8(sp)
 107 0064 23308100 		sd	s0,0(sp)
 108              		.cfi_offset 1, -8
 109              		.cfi_offset 8, -16
 110 0068 13040101 		addi	s0,sp,16
 111              		.cfi_def_cfa 8, 0
  19:src/main.cpp  ****     // Kernel inicijalizacija
  20:src/main.cpp  ****     asm volatile("csrw stvec, %0" : : "r" (&interrupt));
 112              		.loc 1 20 5
 113              		.loc 1 20 56 is_stmt 0
 114 006c 97070000 		la	a5,interrupt
 114      83B70700 
 115              	#APP
 116              	# 20 "src/main.cpp" 1
  21              	    kmem_init((void*)HEAP_START_ADDR, 1 << 24);
 117              		csrw stvec, a5
 118              	# 0 "" 2
 119              		.loc 1 21 5 is_stmt 1
 120              		.loc 1 21 14 is_stmt 0
 121              	#NO_APP
 122 0078 B7050001 		li	a1,16777216
 123 007c 97070000 		la	a5,HEAP_START_ADDR
 123      83B70700 
 124 0084 03B50700 		ld	a0,0(a5)
 125 0088 97000000 		call	_Z9kmem_initPvi@plt
 125      E7800000 
 126              	.LVL2:
  22:src/main.cpp  **** 
  23:src/main.cpp  ****     PCB* main = PCB::createSysProcess(nullptr, nullptr); // main proces(ne pravimo stek)
 127              		.loc 1 23 5 is_stmt 1
GAS LISTING /tmp/cclLaGkf.s 			page 4


 128              		.loc 1 23 38 is_stmt 0
 129 0090 93050000 		li	a1,0
 130 0094 13050000 		li	a0,0
 131 0098 97000000 		call	_ZN3PCB16createSysProcessEPFvvEPv@plt
 131      E7800000 
 132              	.LVL3:
  24:src/main.cpp  ****     PCB::running = main;
 133              		.loc 1 24 5 is_stmt 1
 134              		.loc 1 24 18 is_stmt 0
 135 00a0 97070000 		la	a5,_ZN3PCB7runningE
 135      83B70700 
 136 00a8 23B0A700 		sd	a0,0(a5)
  25:src/main.cpp  **** /*
  26:src/main.cpp  ****     CCB::inputProcces = PCB::createSysProcess(CCB::inputBody, nullptr);
  27:src/main.cpp  ****     CCB::outputProcess = PCB::createSysProcess(CCB::outputBody, nullptr);
  28:src/main.cpp  ****     Scheduler::put(CCB::inputProcces);
  29:src/main.cpp  ****     Scheduler::put(CCB::outputProcess);
  30:src/main.cpp  ****     Scheduler::idleProcess = PCB::createSysProcess(idleProcess, nullptr);*/
  31:src/main.cpp  ****     thread_create(&CCB::inputProcces, CCB::inputBody, nullptr); // getc nit (stavljamo je prvi put 
 137              		.loc 1 31 5 is_stmt 1
 138              		.loc 1 31 18 is_stmt 0
 139 00ac 13060000 		li	a2,0
 140 00b0 97050000 		la	a1,_ZN3CCB9inputBodyEPv
 140      83B50500 
 141 00b8 17050000 		la	a0,_ZN3CCB12inputProccesE
 141      03350500 
 142              	.LVL4:
 143 00c0 97000000 		call	_Z13thread_createPP3PCBPFvPvES2_@plt
 143      E7800000 
 144              	.LVL5:
  32:src/main.cpp  ****     thread_create(&CCB::outputProcess, CCB::outputBody, nullptr); // putc nit ( stavljamo je prvi p
 145              		.loc 1 32 5 is_stmt 1
 146              		.loc 1 32 18 is_stmt 0
 147 00c8 13060000 		li	a2,0
 148 00cc 97050000 		la	a1,_ZN3CCB10outputBodyEPv
 148      83B50500 
 149 00d4 17050000 		la	a0,_ZN3CCB13outputProcessE
 149      03350500 
 150 00dc 97000000 		call	_Z13thread_createPP3PCBPFvPvES2_@plt
 150      E7800000 
 151              	.LVL6:
  33:src/main.cpp  ****     thread_create_only(&Scheduler::idleProcess, idleProcess, nullptr); // idle nit
 152              		.loc 1 33 5 is_stmt 1
 153              		.loc 1 33 23 is_stmt 0
 154 00e4 13060000 		li	a2,0
 155 00e8 97050000 		lla	a1,idleProcess
 155      93850500 
 156 00f0 17050000 		la	a0,_ZN9Scheduler11idleProcessE
 156      03350500 
 157 00f8 97000000 		call	_Z18thread_create_onlyPP3PCBPFvPvES2_@plt
 157      E7800000 
 158              	.LVL7:
  34:src/main.cpp  ****     Scheduler::idleProcess->setFinished(true);
 159              		.loc 1 34 5 is_stmt 1
 160              		.loc 1 34 40 is_stmt 0
 161 0100 97070000 		la	a5,_ZN9Scheduler11idleProcessE
 161      83B70700 
GAS LISTING /tmp/cclLaGkf.s 			page 5


 162 0108 83B70700 		ld	a5,0(a5)
 163              	.LVL8:
 164              	.LBB12:
 165              	.LBB13:
 166              		.file 3 "src/../h/PCB.h"
   1:src/../h/PCB.h **** #ifndef PCB_H
   2:src/../h/PCB.h **** #define PCB_H
   3:src/../h/PCB.h **** 
   4:src/../h/PCB.h **** #include "hw.h"
   5:src/../h/PCB.h **** #include "slab.h"
   6:src/../h/PCB.h **** 
   7:src/../h/PCB.h **** extern "C" void interruptHandler();
   8:src/../h/PCB.h **** 
   9:src/../h/PCB.h **** class PCB {
  10:src/../h/PCB.h **** friend class Scheduler;
  11:src/../h/PCB.h **** friend void interruptHandler();
  12:src/../h/PCB.h **** friend class Kernel;
  13:src/../h/PCB.h **** friend class SCB;
  14:src/../h/PCB.h **** public:
  15:src/../h/PCB.h ****     // vraca true ako se proces zavrsio, false ako nije
  16:src/../h/PCB.h ****     bool isFinished() const {
  17:src/../h/PCB.h ****         return finished;
  18:src/../h/PCB.h ****     }
  19:src/../h/PCB.h ****     // vraca true ako je semafor obrisan pre nego sto je proces odblokiran
  20:src/../h/PCB.h ****     bool isSemaphoreDeleted() const {
  21:src/../h/PCB.h ****         return semDeleted;
  22:src/../h/PCB.h ****     }
  23:src/../h/PCB.h **** 
  24:src/../h/PCB.h ****     size_t getTimeSleeping() const {
  25:src/../h/PCB.h ****         return timeSleeping;
  26:src/../h/PCB.h ****     }
  27:src/../h/PCB.h **** 
  28:src/../h/PCB.h ****     void setTimeSleeping(size_t newTime) {
  29:src/../h/PCB.h ****         timeSleeping = newTime;
  30:src/../h/PCB.h ****     }
  31:src/../h/PCB.h **** 
  32:src/../h/PCB.h ****     PCB* getNextInList() const {
  33:src/../h/PCB.h ****         return nextInList;
  34:src/../h/PCB.h ****     }
  35:src/../h/PCB.h **** 
  36:src/../h/PCB.h ****     void setNextInList(PCB* next) {
  37:src/../h/PCB.h ****         nextInList = next;
  38:src/../h/PCB.h ****     }
  39:src/../h/PCB.h **** 
  40:src/../h/PCB.h ****     void setBlocked(bool newState) {
  41:src/../h/PCB.h ****         blocked = newState;
  42:src/../h/PCB.h ****     }
  43:src/../h/PCB.h **** 
  44:src/../h/PCB.h ****     void setSemDeleted(bool newState) {
  45:src/../h/PCB.h ****         semDeleted = newState;
  46:src/../h/PCB.h ****     }
  47:src/../h/PCB.h **** 
  48:src/../h/PCB.h ****     void setTimeSlice(time_t timeSlice_) {
  49:src/../h/PCB.h ****         timeSlice = timeSlice_;
  50:src/../h/PCB.h ****     }
  51:src/../h/PCB.h **** 
  52:src/../h/PCB.h ****     void setFinished(bool finished_) {
GAS LISTING /tmp/cclLaGkf.s 			page 6


  53:src/../h/PCB.h ****         finished = finished_;
 167              		.loc 3 53 9 is_stmt 1
 168              		.loc 3 53 18 is_stmt 0
 169 010c 13071000 		li	a4,1
 170 0110 2384E702 		sb	a4,40(a5)
 171              	.LVL9:
 172              	.LBE13:
 173              	.LBE12:
  35:src/main.cpp  ****     Scheduler::idleProcess->setTimeSlice(1);
 174              		.loc 1 35 5 is_stmt 1
 175              	.LBB14:
 176              	.LBB15:
  49:src/../h/PCB.h ****     }
 177              		.loc 3 49 9
  49:src/../h/PCB.h ****     }
 178              		.loc 3 49 19 is_stmt 0
 179 0114 13071000 		li	a4,1
 180 0118 23B0E704 		sd	a4,64(a5)
 181              	.LVL10:
 182              	.LBE15:
 183              	.LBE14:
  36:src/main.cpp  **** 
  37:src/main.cpp  ****     //CCB::semInput = SCB::createSemaphore(0);
  38:src/main.cpp  ****     sem_open(&CCB::semInput, 0);
 184              		.loc 1 38 5 is_stmt 1
 185              		.loc 1 38 13 is_stmt 0
 186 011c 93050000 		li	a1,0
 187 0120 17050000 		la	a0,_ZN3CCB8semInputE
 187      03350500 
 188 0128 97000000 		call	_Z8sem_openPP3SCBj@plt
 188      E7800000 
 189              	.LVL11:
  39:src/main.cpp  ****     //CCB::semOutput = SCB::createSemaphore(0);
  40:src/main.cpp  ****     sem_open(&CCB::semOutput, 0);
 190              		.loc 1 40 5 is_stmt 1
 191              		.loc 1 40 13 is_stmt 0
 192 0130 93050000 		li	a1,0
 193 0134 17050000 		la	a0,_ZN3CCB9semOutputE
 193      03350500 
 194 013c 97000000 		call	_Z8sem_openPP3SCBj@plt
 194      E7800000 
 195              	.LVL12:
  41:src/main.cpp  ****     //CCB::inputBufferEmpty = SCB::createSemaphore(0);
  42:src/main.cpp  ****     sem_open(&CCB::inputBufferEmpty, 0);
 196              		.loc 1 42 5 is_stmt 1
 197              		.loc 1 42 13 is_stmt 0
 198 0144 93050000 		li	a1,0
 199 0148 17050000 		la	a0,_ZN3CCB16inputBufferEmptyE
 199      03350500 
 200 0150 97000000 		call	_Z8sem_openPP3SCBj@plt
 200      E7800000 
 201              	.LVL13:
  43:src/main.cpp  **** 
  44:src/main.cpp  ****     Kernel::ms_sstatus(Kernel::SSTATUS_SIE); // dozvoljavaju se prekidi
 202              		.loc 1 44 5 is_stmt 1
 203              	.LBB16:
 204              	.LBB17:
GAS LISTING /tmp/cclLaGkf.s 			page 7


 205              		.file 4 "src/../h/kernel.h"
   1:src/../h/kernel.h **** #ifndef KERNEL_H
   2:src/../h/kernel.h **** #define KERNEL_H
   3:src/../h/kernel.h **** 
   4:src/../h/kernel.h **** #include "hw.h"
   5:src/../h/kernel.h **** 
   6:src/../h/kernel.h **** class Kernel {
   7:src/../h/kernel.h **** public:
   8:src/../h/kernel.h ****     // postavlja code u registar a0
   9:src/../h/kernel.h ****     static size_t setCode(size_t code) {
  10:src/../h/kernel.h ****         return code;
  11:src/../h/kernel.h ****     }
  12:src/../h/kernel.h **** 
  13:src/../h/kernel.h ****     // kodovi po kojima se prepoznaju sistemski pozivi
  14:src/../h/kernel.h ****     enum sysCallCodes {
  15:src/../h/kernel.h ****         mem_alloc = 0x01,
  16:src/../h/kernel.h ****         mem_free = 0x02,
  17:src/../h/kernel.h ****         thread_create = 0x11,
  18:src/../h/kernel.h ****         thread_exit = 0x12,
  19:src/../h/kernel.h ****         thread_dispatch = 0x13,
  20:src/../h/kernel.h ****         thread_start = 0x14,
  21:src/../h/kernel.h ****         sem_open = 0x21,
  22:src/../h/kernel.h ****         sem_close = 0x22,
  23:src/../h/kernel.h ****         sem_wait = 0x23,
  24:src/../h/kernel.h ****         sem_signal = 0x24,
  25:src/../h/kernel.h ****         time_sleep = 0x31,
  26:src/../h/kernel.h ****         getc = 0x41,
  27:src/../h/kernel.h ****         putc = 0x42,
  28:src/../h/kernel.h ****         userMode = 0x43
  29:src/../h/kernel.h ****     };
  30:src/../h/kernel.h **** 
  31:src/../h/kernel.h ****     // pop sstatus.spp and sstatus.spie bits (has to be a non inline function)
  32:src/../h/kernel.h ****     static void popSppSpie();
  33:src/../h/kernel.h **** 
  34:src/../h/kernel.h ****     // cita registar scause (uzrok nastanka prekida)
  35:src/../h/kernel.h ****     static size_t r_scause() {
  36:src/../h/kernel.h ****         size_t volatile scause;
  37:src/../h/kernel.h ****         __asm__ volatile ("csrr %[scause], scause" : [scause] "=r"(scause));
  38:src/../h/kernel.h ****         return scause;
  39:src/../h/kernel.h ****     }
  40:src/../h/kernel.h **** 
  41:src/../h/kernel.h ****     // upisuje u registar scause (uzrok nastanka prekida)
  42:src/../h/kernel.h ****     static void w_scause(size_t scause) {
  43:src/../h/kernel.h ****         __asm__ volatile ("csrw scause, %[scause]" : : [scause] "r"(scause));
  44:src/../h/kernel.h ****     }
  45:src/../h/kernel.h **** 
  46:src/../h/kernel.h ****     // cita registar sepc
  47:src/../h/kernel.h ****     static size_t r_sepc() {
  48:src/../h/kernel.h ****         size_t volatile sepc;
  49:src/../h/kernel.h ****         __asm__ volatile ("csrr %[sepc], sepc" : [sepc] "=r"(sepc));
  50:src/../h/kernel.h ****         return sepc;
  51:src/../h/kernel.h ****     }
  52:src/../h/kernel.h **** 
  53:src/../h/kernel.h ****     // upisuje u registar sepc
  54:src/../h/kernel.h ****     static void w_sepc(size_t sepc) {
  55:src/../h/kernel.h ****         __asm__ volatile ("csrw sepc, %[sepc]" : : [sepc] "r"(sepc));
  56:src/../h/kernel.h ****     }
GAS LISTING /tmp/cclLaGkf.s 			page 8


  57:src/../h/kernel.h **** 
  58:src/../h/kernel.h ****     // read register stvec
  59:src/../h/kernel.h ****     static size_t r_stvec() {
  60:src/../h/kernel.h ****         size_t volatile stvec;
  61:src/../h/kernel.h ****         __asm__ volatile ("csrr %[stvec], stvec" : [stvec] "=r"(stvec));
  62:src/../h/kernel.h ****         return stvec;
  63:src/../h/kernel.h ****     }
  64:src/../h/kernel.h **** 
  65:src/../h/kernel.h ****     // write register stvec
  66:src/../h/kernel.h ****     static void w_stvec(size_t stvec) {
  67:src/../h/kernel.h ****         __asm__ volatile ("csrw stvec, %[stvec]" : : [stvec] "r"(stvec));
  68:src/../h/kernel.h ****     }
  69:src/../h/kernel.h **** 
  70:src/../h/kernel.h ****     // read register stval
  71:src/../h/kernel.h ****     static size_t r_stval() {
  72:src/../h/kernel.h ****         size_t volatile stval;
  73:src/../h/kernel.h ****         __asm__ volatile ("csrr %[stval], stval" : [stval] "=r"(stval));
  74:src/../h/kernel.h ****         return stval;
  75:src/../h/kernel.h ****     }
  76:src/../h/kernel.h **** 
  77:src/../h/kernel.h ****     // write register stval
  78:src/../h/kernel.h ****     static void w_stval(size_t stval) {
  79:src/../h/kernel.h ****         __asm__ volatile ("csrw stval, %[stval]" : : [stval] "r"(stval));
  80:src/../h/kernel.h ****     }
  81:src/../h/kernel.h **** 
  82:src/../h/kernel.h ****     enum BitMaskSip
  83:src/../h/kernel.h ****     {
  84:src/../h/kernel.h ****         SIP_SSIE = (1 << 1), // da li su dozvoljeni softverski prekidi
  85:src/../h/kernel.h ****         SIP_SEIE = (1 << 9), // da li su dozvoljeni spoljasnji hardverski prekidi
  86:src/../h/kernel.h ****     };
  87:src/../h/kernel.h **** 
  88:src/../h/kernel.h ****     // postavljanje odredjenih bitova (BitMaskSip) u registar sip
  89:src/../h/kernel.h ****     static void ms_sip(size_t mask) {
  90:src/../h/kernel.h ****         __asm__ volatile ("csrs sip, %[mask]" : : [mask] "r"(mask));
  91:src/../h/kernel.h ****     }
  92:src/../h/kernel.h **** 
  93:src/../h/kernel.h ****     // brisanje odredjenih bitova (BitMaskSip) iz registra sip
  94:src/../h/kernel.h ****     static void mc_sip(size_t mask) {
  95:src/../h/kernel.h ****         __asm__ volatile ("csrc sip, %[mask]" : : [mask] "r"(mask));
  96:src/../h/kernel.h ****     }
  97:src/../h/kernel.h **** 
  98:src/../h/kernel.h ****     // citanje iz registra sip
  99:src/../h/kernel.h ****     static size_t r_sip() {
 100:src/../h/kernel.h ****         size_t volatile sip;
 101:src/../h/kernel.h ****         __asm__ volatile ("csrr %[sip], sip" : [sip] "=r"(sip));
 102:src/../h/kernel.h ****         return sip;
 103:src/../h/kernel.h ****     }
 104:src/../h/kernel.h **** 
 105:src/../h/kernel.h ****     // upis u registar sip
 106:src/../h/kernel.h ****     static void w_sip(size_t sip) {
 107:src/../h/kernel.h ****         __asm__ volatile ("csrw sip, %[sip]" : : [sip] "r"(sip));
 108:src/../h/kernel.h ****     }
 109:src/../h/kernel.h **** 
 110:src/../h/kernel.h ****     enum BitMaskSstatus
 111:src/../h/kernel.h ****     {
 112:src/../h/kernel.h ****         SSTATUS_SIE = (1 << 1), // ako je 0 - maskiranje spoljasnjih prekida u sistemskom rezimu
 113:src/../h/kernel.h ****         SSTATUS_SPIE = (1 << 5), // prethodna vrednost sie
GAS LISTING /tmp/cclLaGkf.s 			page 9


 114:src/../h/kernel.h ****         SSTATUS_SPP = (1 << 8), // u kom rezimu se desio prekid
 115:src/../h/kernel.h ****     };
 116:src/../h/kernel.h **** 
 117:src/../h/kernel.h ****     // mask set register sstatus
 118:src/../h/kernel.h ****     static void ms_sstatus(size_t mask) {
 119:src/../h/kernel.h ****         __asm__ volatile ("csrs sstatus, %[mask]" : : [mask] "r"(mask));
 206              		.loc 4 119 9
 207              		.loc 4 119 72 is_stmt 0
 208 0158 93072000 		li	a5,2
 209              	#APP
 210              	# 119 "src/../h/kernel.h" 1
 120              	    }
 211              		csrs sstatus, a5
 212              	# 0 "" 2
 213              	.LVL14:
 214              	#NO_APP
 215              	.LBE17:
 216              	.LBE16:
  45:src/main.cpp  **** 
  46:src/main.cpp  ****     thread_create(&userProcess, userMainWrapper, nullptr);
 217              		.loc 1 46 5 is_stmt 1
 218              		.loc 1 46 18 is_stmt 0
 219 0160 13060000 		li	a2,0
 220 0164 97050000 		lla	a1,_Z15userMainWrapperPv
 220      93850500 
 221 016c 17050000 		lla	a0,.LANCHOR0
 221      13050500 
 222 0174 97000000 		call	_Z13thread_createPP3PCBPFvPvES2_@plt
 222      E7800000 
 223              	.LVL15:
 224              	.L10:
  47:src/main.cpp  ****     // ----
  48:src/main.cpp  ****     //kmem_cache_info(PCB::pcbCache);
  49:src/main.cpp  ****     //kmem_cache_info(SCB::scbCache);
  50:src/main.cpp  ****     while(!userProcess->isFinished()) {
 225              		.loc 1 50 5 is_stmt 1
 226              		.loc 1 50 11
 227              		.loc 1 50 35 is_stmt 0
 228 017c 97070000 		ld	a5,.LANCHOR0
 228      83B70700 
 229              	.LVL16:
 230              	.LBB18:
 231              	.LBB19:
  17:src/../h/PCB.h ****     }
 232              		.loc 3 17 9 is_stmt 1
  17:src/../h/PCB.h ****     }
 233              		.loc 3 17 16 is_stmt 0
 234 0184 83C78702 		lbu	a5,40(a5)
 235              	.LVL17:
 236              	.LBE19:
 237              	.LBE18:
 238              		.loc 1 50 11
 239 0188 63980700 		bnez	a5,.L9
  51:src/main.cpp  ****         thread_dispatch();
 240              		.loc 1 51 9 is_stmt 1
 241              		.loc 1 51 24 is_stmt 0
 242 018c 97000000 		call	_Z15thread_dispatchv@plt
GAS LISTING /tmp/cclLaGkf.s 			page 10


 242      E7800000 
 243              	.LVL18:
  50:src/main.cpp  ****         thread_dispatch();
 244              		.loc 1 50 5
 245 0194 6FF09FFE 		j	.L10
 246              	.L9:
  52:src/main.cpp  ****     }
  53:src/main.cpp  **** 
  54:src/main.cpp  ****     while(CCB::semOutput->getSemValue() != 0) {
 247              		.loc 1 54 5 is_stmt 1
 248              		.loc 1 54 41
 249              		.loc 1 54 38 is_stmt 0
 250 0198 97070000 		la	a5,_ZN3CCB9semOutputE
 250      83B70700 
 251 01a0 83B70700 		ld	a5,0(a5)
 252              	.LVL19:
 253              	.LBB20:
 254              	.LBB21:
 255              		.file 5 "src/../h/SCB.h"
   1:src/../h/SCB.h **** #ifndef PROJECT_BASE_SCB_H
   2:src/../h/SCB.h **** #define PROJECT_BASE_SCB_H
   3:src/../h/SCB.h **** 
   4:src/../h/SCB.h **** #include "PCB.h"
   5:src/../h/SCB.h **** #include "Scheduler.h"
   6:src/../h/SCB.h **** 
   7:src/../h/SCB.h **** class SCB { // Semaphore Control Block
   8:src/../h/SCB.h **** public:
   9:src/../h/SCB.h ****     int getSemValue() const {
  10:src/../h/SCB.h ****         return semValue;
 256              		.loc 5 10 9 is_stmt 1
 257              		.loc 5 10 16 is_stmt 0
 258 01a4 83A70701 		lw	a5,16(a5)
 259              	.LVL20:
 260              	.LBE21:
 261              	.LBE20:
 262              		.loc 1 54 41
 263 01a8 63880700 		beqz	a5,.L11
  55:src/main.cpp  ****         thread_dispatch();
 264              		.loc 1 55 9 is_stmt 1
 265              		.loc 1 55 24 is_stmt 0
 266 01ac 97000000 		call	_Z15thread_dispatchv@plt
 266      E7800000 
 267              	.LVL21:
  54:src/main.cpp  ****         thread_dispatch();
 268              		.loc 1 54 5
 269 01b4 6FF05FFE 		j	.L9
 270              	.L11:
  56:src/main.cpp  ****     }
  57:src/main.cpp  ****     return 0;
 271              		.loc 1 57 5 is_stmt 1
  58:src/main.cpp  **** }...
 272              		.loc 1 58 1 is_stmt 0
 273 01b8 13050000 		li	a0,0
 274 01bc 83308100 		ld	ra,8(sp)
 275              		.cfi_restore 1
 276 01c0 03340100 		ld	s0,0(sp)
 277              		.cfi_restore 8
GAS LISTING /tmp/cclLaGkf.s 			page 11


 278              		.cfi_def_cfa 2, 16
 279 01c4 13010101 		addi	sp,sp,16
 280              		.cfi_def_cfa_offset 0
 281 01c8 67800000 		jr	ra
 282              		.cfi_endproc
 283              	.LFE36:
 285              		.globl	userProcess
 286              		.bss
 287              		.align	3
 288              		.set	.LANCHOR0,. + 0
 291              	userProcess:
 292 0000 00000000 		.zero	8
 292      00000000 
 293              		.text
 294              	.Letext0:
 295              		.file 6 "src/../h/hw.h"
 296              		.file 7 "src/../h/slab.h"
 297              		.file 8 "src/../h/syscall_c.h"
GAS LISTING /tmp/cclLaGkf.s 			page 12


DEFINED SYMBOLS
                            *ABS*:0000000000000000 main.cpp
     /tmp/cclLaGkf.s:9      .text:0000000000000000 idleProcess
     /tmp/cclLaGkf.s:13     .text:0000000000000000 .L0 
     /tmp/cclLaGkf.s:14     .text:0000000000000000 .L0 
     /tmp/cclLaGkf.s:15     .text:0000000000000004 .L0 
     /tmp/cclLaGkf.s:17     .text:0000000000000008 .L0 
     /tmp/cclLaGkf.s:19     .text:000000000000000c .L0 
     /tmp/cclLaGkf.s:22     .text:000000000000000c .L0 
     /tmp/cclLaGkf.s:23     .text:000000000000000c .L0 
     /tmp/cclLaGkf.s:24     .text:0000000000000010 .L0 
     /tmp/cclLaGkf.s:30     .text:0000000000000010 _Z15userMainWrapperPv
     /tmp/cclLaGkf.s:34     .text:0000000000000010 .L0 
     /tmp/cclLaGkf.s:35     .text:0000000000000010 .L0 
     /tmp/cclLaGkf.s:36     .text:0000000000000014 .L0 
     /tmp/cclLaGkf.s:39     .text:000000000000001c .L0 
     /tmp/cclLaGkf.s:40     .text:000000000000001c .L0 
     /tmp/cclLaGkf.s:42     .text:0000000000000020 .L0 
     /tmp/cclLaGkf.s:44     .text:0000000000000020 .L0 
     /tmp/cclLaGkf.s:45     .text:0000000000000020 .L0 
     /tmp/cclLaGkf.s:48     .text:0000000000000028 .L0 
     /tmp/cclLaGkf.s:49     .text:000000000000002c .L0 
     /tmp/cclLaGkf.s:51     .text:0000000000000030 .L0 
     /tmp/cclLaGkf.s:52     .text:0000000000000030 .L0 
     /tmp/cclLaGkf.s:54     .text:0000000000000034 .L0 
     /tmp/cclLaGkf.s:56     .text:0000000000000038 .L0 
     /tmp/cclLaGkf.s:62     .text:0000000000000038 _Z8userModev
     /tmp/cclLaGkf.s:65     .text:0000000000000038 .L0 
     /tmp/cclLaGkf.s:66     .text:0000000000000038 .L0 
     /tmp/cclLaGkf.s:67     .text:000000000000003c .L0 
     /tmp/cclLaGkf.s:69     .text:0000000000000040 .L0 
     /tmp/cclLaGkf.s:71     .text:0000000000000044 .L0 
     /tmp/cclLaGkf.s:74     .text:0000000000000044 .L0 
     /tmp/cclLaGkf.s:75     .text:0000000000000044 .L0 
     /tmp/cclLaGkf.s:76     .text:0000000000000044 .L0 
     /tmp/cclLaGkf.s:82     .text:000000000000004c .L0 
 src/../h/userMain.h:10     .text:000000000000004c .L0 
     /tmp/cclLaGkf.s:88     .text:0000000000000050 .L0 
     /tmp/cclLaGkf.s:89     .text:0000000000000054 .L0 
     /tmp/cclLaGkf.s:90     .text:0000000000000054 .L0 
     /tmp/cclLaGkf.s:92     .text:0000000000000058 .L0 
     /tmp/cclLaGkf.s:94     .text:000000000000005c .L0 
     /tmp/cclLaGkf.s:100    .text:000000000000005c main
     /tmp/cclLaGkf.s:103    .text:000000000000005c .L0 
     /tmp/cclLaGkf.s:104    .text:000000000000005c .L0 
     /tmp/cclLaGkf.s:105    .text:0000000000000060 .L0 
     /tmp/cclLaGkf.s:108    .text:0000000000000068 .L0 
     /tmp/cclLaGkf.s:109    .text:0000000000000068 .L0 
     /tmp/cclLaGkf.s:111    .text:000000000000006c .L0 
     /tmp/cclLaGkf.s:113    .text:000000000000006c .L0 
     /tmp/cclLaGkf.s:114    .text:000000000000006c .L0 
     /tmp/cclLaGkf.s:120    .text:0000000000000078 .L0 
     /tmp/cclLaGkf.s:122    .text:0000000000000078 .L0 
     /tmp/cclLaGkf.s:128    .text:0000000000000090 .L0 
     /tmp/cclLaGkf.s:129    .text:0000000000000090 .L0 
     /tmp/cclLaGkf.s:134    .text:00000000000000a0 .L0 
     /tmp/cclLaGkf.s:135    .text:00000000000000a0 .L0 
GAS LISTING /tmp/cclLaGkf.s 			page 13


     /tmp/cclLaGkf.s:138    .text:00000000000000ac .L0 
     /tmp/cclLaGkf.s:139    .text:00000000000000ac .L0 
     /tmp/cclLaGkf.s:146    .text:00000000000000c8 .L0 
     /tmp/cclLaGkf.s:147    .text:00000000000000c8 .L0 
     /tmp/cclLaGkf.s:153    .text:00000000000000e4 .L0 
     /tmp/cclLaGkf.s:154    .text:00000000000000e4 .L0 
     /tmp/cclLaGkf.s:160    .text:0000000000000100 .L0 
     /tmp/cclLaGkf.s:161    .text:0000000000000100 .L0 
     /tmp/cclLaGkf.s:168    .text:000000000000010c .L0 
     /tmp/cclLaGkf.s:169    .text:000000000000010c .L0 
     /tmp/cclLaGkf.s:177    .text:0000000000000114 .L0 
     /tmp/cclLaGkf.s:178    .text:0000000000000114 .L0 
     /tmp/cclLaGkf.s:179    .text:0000000000000114 .L0 
     /tmp/cclLaGkf.s:185    .text:000000000000011c .L0 
     /tmp/cclLaGkf.s:186    .text:000000000000011c .L0 
     /tmp/cclLaGkf.s:191    .text:0000000000000130 .L0 
     /tmp/cclLaGkf.s:192    .text:0000000000000130 .L0 
     /tmp/cclLaGkf.s:197    .text:0000000000000144 .L0 
     /tmp/cclLaGkf.s:198    .text:0000000000000144 .L0 
     /tmp/cclLaGkf.s:206    .text:0000000000000158 .L0 
     /tmp/cclLaGkf.s:207    .text:0000000000000158 .L0 
     /tmp/cclLaGkf.s:208    .text:0000000000000158 .L0 
     /tmp/cclLaGkf.s:218    .text:0000000000000160 .L0 
     /tmp/cclLaGkf.s:219    .text:0000000000000160 .L0 
     /tmp/cclLaGkf.s:226    .text:000000000000017c .L0 
     /tmp/cclLaGkf.s:227    .text:000000000000017c .L0 
     /tmp/cclLaGkf.s:228    .text:000000000000017c .L0 
     /tmp/cclLaGkf.s:233    .text:0000000000000184 .L0 
     /tmp/cclLaGkf.s:234    .text:0000000000000184 .L0 
     /tmp/cclLaGkf.s:239    .text:0000000000000188 .L0 
     /tmp/cclLaGkf.s:241    .text:000000000000018c .L0 
     /tmp/cclLaGkf.s:242    .text:000000000000018c .L0 
     /tmp/cclLaGkf.s:245    .text:0000000000000194 .L0 
     /tmp/cclLaGkf.s:248    .text:0000000000000198 .L0 
     /tmp/cclLaGkf.s:249    .text:0000000000000198 .L0 
     /tmp/cclLaGkf.s:250    .text:0000000000000198 .L0 
     /tmp/cclLaGkf.s:257    .text:00000000000001a4 .L0 
     /tmp/cclLaGkf.s:258    .text:00000000000001a4 .L0 
     /tmp/cclLaGkf.s:263    .text:00000000000001a8 .L0 
     /tmp/cclLaGkf.s:265    .text:00000000000001ac .L0 
     /tmp/cclLaGkf.s:266    .text:00000000000001ac .L0 
     /tmp/cclLaGkf.s:269    .text:00000000000001b4 .L0 
     /tmp/cclLaGkf.s:272    .text:00000000000001b8 .L0 
     /tmp/cclLaGkf.s:273    .text:00000000000001b8 .L0 
     /tmp/cclLaGkf.s:275    .text:00000000000001c0 .L0 
     /tmp/cclLaGkf.s:277    .text:00000000000001c4 .L0 
     /tmp/cclLaGkf.s:278    .text:00000000000001c4 .L0 
     /tmp/cclLaGkf.s:280    .text:00000000000001c8 .L0 
     /tmp/cclLaGkf.s:282    .text:00000000000001cc .L0 
     /tmp/cclLaGkf.s:291    .bss:0000000000000000 userProcess
     /tmp/cclLaGkf.s:288    .bss:0000000000000000 .LANCHOR0
     /tmp/cclLaGkf.s:298    .text:00000000000001cc .L0 
     /tmp/cclLaGkf.s:114    .text:000000000000006c .L0 
     /tmp/cclLaGkf.s:123    .text:000000000000007c .L0 
     /tmp/cclLaGkf.s:135    .text:00000000000000a0 .L0 
     /tmp/cclLaGkf.s:140    .text:00000000000000b0 .L0 
     /tmp/cclLaGkf.s:141    .text:00000000000000b8 .L0 
GAS LISTING /tmp/cclLaGkf.s 			page 14


     /tmp/cclLaGkf.s:148    .text:00000000000000cc .L0 
     /tmp/cclLaGkf.s:149    .text:00000000000000d4 .L0 
     /tmp/cclLaGkf.s:155    .text:00000000000000e8 .L0 
     /tmp/cclLaGkf.s:156    .text:00000000000000f0 .L0 
     /tmp/cclLaGkf.s:161    .text:0000000000000100 .L0 
     /tmp/cclLaGkf.s:187    .text:0000000000000120 .L0 
     /tmp/cclLaGkf.s:193    .text:0000000000000134 .L0 
     /tmp/cclLaGkf.s:199    .text:0000000000000148 .L0 
     /tmp/cclLaGkf.s:220    .text:0000000000000164 .L0 
     /tmp/cclLaGkf.s:221    .text:000000000000016c .L0 
     /tmp/cclLaGkf.s:228    .text:000000000000017c .L0 
     /tmp/cclLaGkf.s:250    .text:0000000000000198 .L0 
     /tmp/cclLaGkf.s:20     .text:000000000000000c .L2
     /tmp/cclLaGkf.s:246    .text:0000000000000198 .L9
     /tmp/cclLaGkf.s:224    .text:000000000000017c .L10
     /tmp/cclLaGkf.s:270    .text:00000000000001b8 .L11
     /tmp/cclLaGkf.s:1766   .debug_abbrev:0000000000000000 .Ldebug_abbrev0
     /tmp/cclLaGkf.s:2721   .debug_str:000000000000008c .LASF192
     /tmp/cclLaGkf.s:2787   .debug_str:0000000000000382 .LASF193
     /tmp/cclLaGkf.s:2815   .debug_str:0000000000000448 .LASF194
     /tmp/cclLaGkf.s:5      .text:0000000000000000 .Ltext0
     /tmp/cclLaGkf.s:294    .text:00000000000001cc .Letext0
     /tmp/cclLaGkf.s:2701   .debug_line:0000000000000000 .Ldebug_line0
     /tmp/cclLaGkf.s:2823   .debug_str:0000000000000490 .LASF0
     /tmp/cclLaGkf.s:2853   .debug_str:000000000000056d .LASF1
     /tmp/cclLaGkf.s:2963   .debug_str:0000000000000885 .LASF2
     /tmp/cclLaGkf.s:2971   .debug_str:00000000000008cc .LASF4
     /tmp/cclLaGkf.s:2837   .debug_str:00000000000004e6 .LASF3
     /tmp/cclLaGkf.s:2711   .debug_str:0000000000000032 .LASF5
     /tmp/cclLaGkf.s:2929   .debug_str:0000000000000798 .LASF6
     /tmp/cclLaGkf.s:2921   .debug_str:000000000000075b .LASF7
     /tmp/cclLaGkf.s:2845   .debug_str:000000000000052e .LASF8
     /tmp/cclLaGkf.s:2793   .debug_str:00000000000003a0 .LASF9
     /tmp/cclLaGkf.s:2803   .debug_str:00000000000003f4 .LASF10
     /tmp/cclLaGkf.s:2735   .debug_str:00000000000001c9 .LASF11
     /tmp/cclLaGkf.s:2785   .debug_str:0000000000000373 .LASF12
     /tmp/cclLaGkf.s:2737   .debug_str:00000000000001d8 .LASF13
     /tmp/cclLaGkf.s:2733   .debug_str:00000000000001b9 .LASF14
     /tmp/cclLaGkf.s:3005   .debug_str:00000000000009c2 .LASF15
     /tmp/cclLaGkf.s:2765   .debug_str:00000000000002bd .LASF16
     /tmp/cclLaGkf.s:2995   .debug_str:0000000000000988 .LASF17
     /tmp/cclLaGkf.s:2783   .debug_str:0000000000000366 .LASF18
     /tmp/cclLaGkf.s:2781   .debug_str:0000000000000359 .LASF195
     /tmp/cclLaGkf.s:3015   .debug_str:00000000000009f9 .LASF19
     /tmp/cclLaGkf.s:3067   .debug_str:0000000000000b74 .LASF21
     /tmp/cclLaGkf.s:2757   .debug_str:0000000000000272 .LASF20
     /tmp/cclLaGkf.s:3037   .debug_str:0000000000000a7d .LASF22
     /tmp/cclLaGkf.s:3013   .debug_str:00000000000009e9 .LASF23
     /tmp/cclLaGkf.s:2839   .debug_str:00000000000004f8 .LASF24
     /tmp/cclLaGkf.s:2775   .debug_str:0000000000000326 .LASF27
     /tmp/cclLaGkf.s:3097   .debug_str:0000000000000c60 .LASF29
     /tmp/cclLaGkf.s:2805   .debug_str:0000000000000402 .LASF25
     /tmp/cclLaGkf.s:2859   .debug_str:00000000000005ac .LASF26
     /tmp/cclLaGkf.s:2891   .debug_str:0000000000000681 .LASF28
     /tmp/cclLaGkf.s:3095   .debug_str:0000000000000c45 .LASF30
     /tmp/cclLaGkf.s:3019   .debug_str:0000000000000a09 .LASF31
     /tmp/cclLaGkf.s:3079   .debug_str:0000000000000bdf .LASF32
GAS LISTING /tmp/cclLaGkf.s 			page 15


     /tmp/cclLaGkf.s:3043   .debug_str:0000000000000ac3 .LASF33
     /tmp/cclLaGkf.s:3027   .debug_str:0000000000000a35 .LASF34
     /tmp/cclLaGkf.s:2751   .debug_str:000000000000024e .LASF35
     /tmp/cclLaGkf.s:2967   .debug_str:00000000000008a6 .LASF36
     /tmp/cclLaGkf.s:2727   .debug_str:0000000000000189 .LASF37
     /tmp/cclLaGkf.s:2807   .debug_str:0000000000000410 .LASF38
     /tmp/cclLaGkf.s:3087   .debug_str:0000000000000c13 .LASF39
     /tmp/cclLaGkf.s:2715   .debug_str:0000000000000044 .LASF40
     /tmp/cclLaGkf.s:2991   .debug_str:0000000000000973 .LASF196
     /tmp/cclLaGkf.s:3053   .debug_str:0000000000000b04 .LASF41
     /tmp/cclLaGkf.s:2983   .debug_str:0000000000000937 .LASF42
     /tmp/cclLaGkf.s:2857   .debug_str:00000000000005a6 .LASF47
     /tmp/cclLaGkf.s:2861   .debug_str:00000000000005c6 .LASF49
     /tmp/cclLaGkf.s:3023   .debug_str:0000000000000a20 .LASF51
     /tmp/cclLaGkf.s:2851   .debug_str:0000000000000568 .LASF43
     /tmp/cclLaGkf.s:3081   .debug_str:0000000000000bf5 .LASF44
     /tmp/cclLaGkf.s:3085   .debug_str:0000000000000c06 .LASF45
     /tmp/cclLaGkf.s:2769   .debug_str:00000000000002ec .LASF46
     /tmp/cclLaGkf.s:2703   .debug_str:0000000000000000 .LASF53
     /tmp/cclLaGkf.s:2833   .debug_str:00000000000004c6 .LASF59
     /tmp/cclLaGkf.s:2813   .debug_str:000000000000043d .LASF138
     /tmp/cclLaGkf.s:2725   .debug_str:0000000000000173 .LASF140
     /tmp/cclLaGkf.s:2917   .debug_str:0000000000000735 .LASF48
     /tmp/cclLaGkf.s:2729   .debug_str:0000000000000195 .LASF50
     /tmp/cclLaGkf.s:2947   .debug_str:000000000000080e .LASF52
     /tmp/cclLaGkf.s:2743   .debug_str:0000000000000206 .LASF105
     /tmp/cclLaGkf.s:2773   .debug_str:0000000000000319 .LASF54
     /tmp/cclLaGkf.s:2763   .debug_str:00000000000002a4 .LASF56
     /tmp/cclLaGkf.s:2887   .debug_str:0000000000000669 .LASF55
     /tmp/cclLaGkf.s:2749   .debug_str:0000000000000237 .LASF57
     /tmp/cclLaGkf.s:2985   .debug_str:0000000000000959 .LASF58
     /tmp/cclLaGkf.s:2849   .debug_str:000000000000054b .LASF60
     /tmp/cclLaGkf.s:2707   .debug_str:0000000000000018 .LASF61
     /tmp/cclLaGkf.s:2989   .debug_str:000000000000096d .LASF62
     /tmp/cclLaGkf.s:3061   .debug_str:0000000000000b57 .LASF63
     /tmp/cclLaGkf.s:2847   .debug_str:0000000000000541 .LASF64
     /tmp/cclLaGkf.s:3083   .debug_str:0000000000000c01 .LASF65
     /tmp/cclLaGkf.s:2993   .debug_str:000000000000097f .LASF66
     /tmp/cclLaGkf.s:2915   .debug_str:000000000000072d .LASF67
     /tmp/cclLaGkf.s:2869   .debug_str:000000000000060d .LASF68
     /tmp/cclLaGkf.s:3069   .debug_str:0000000000000b8b .LASF69
     /tmp/cclLaGkf.s:2755   .debug_str:0000000000000264 .LASF70
     /tmp/cclLaGkf.s:3031   .debug_str:0000000000000a53 .LASF71
     /tmp/cclLaGkf.s:2981   .debug_str:0000000000000926 .LASF197
     /tmp/cclLaGkf.s:2753   .debug_str:000000000000025b .LASF77
     /tmp/cclLaGkf.s:2719   .debug_str:0000000000000079 .LASF79
     /tmp/cclLaGkf.s:2825   .debug_str:000000000000049d .LASF72
     /tmp/cclLaGkf.s:3055   .debug_str:0000000000000b15 .LASF73
     /tmp/cclLaGkf.s:2827   .debug_str:00000000000004ac .LASF74
     /tmp/cclLaGkf.s:2975   .debug_str:00000000000008da .LASF75
     /tmp/cclLaGkf.s:2865   .debug_str:00000000000005eb .LASF76
     /tmp/cclLaGkf.s:2939   .debug_str:00000000000007ce .LASF78
     /tmp/cclLaGkf.s:3071   .debug_str:0000000000000b98 .LASF80
     /tmp/cclLaGkf.s:2877   .debug_str:000000000000063a .LASF81
     /tmp/cclLaGkf.s:2731   .debug_str:00000000000001ad .LASF82
     /tmp/cclLaGkf.s:2797   .debug_str:00000000000003c7 .LASF83
     /tmp/cclLaGkf.s:3029   .debug_str:0000000000000a4e .LASF84
GAS LISTING /tmp/cclLaGkf.s 			page 16


     /tmp/cclLaGkf.s:3065   .debug_str:0000000000000b65 .LASF85
     /tmp/cclLaGkf.s:3011   .debug_str:00000000000009e2 .LASF86
     /tmp/cclLaGkf.s:2843   .debug_str:000000000000051d .LASF87
     /tmp/cclLaGkf.s:2709   .debug_str:0000000000000023 .LASF88
     /tmp/cclLaGkf.s:3059   .debug_str:0000000000000b3d .LASF89
     /tmp/cclLaGkf.s:3021   .debug_str:0000000000000a14 .LASF90
     /tmp/cclLaGkf.s:3009   .debug_str:00000000000009d5 .LASF91
     /tmp/cclLaGkf.s:2957   .debug_str:0000000000000854 .LASF92
     /tmp/cclLaGkf.s:3077   .debug_str:0000000000000bc4 .LASF93
     /tmp/cclLaGkf.s:2835   .debug_str:00000000000004d3 .LASF94
     /tmp/cclLaGkf.s:3039   .debug_str:0000000000000a9c .LASF95
     /tmp/cclLaGkf.s:2969   .debug_str:00000000000008be .LASF96
     /tmp/cclLaGkf.s:2761   .debug_str:000000000000028b .LASF97
     /tmp/cclLaGkf.s:2767   .debug_str:00000000000002d3 .LASF98
     /tmp/cclLaGkf.s:2795   .debug_str:00000000000003b0 .LASF99
     /tmp/cclLaGkf.s:3075   .debug_str:0000000000000bbb .LASF100
     /tmp/cclLaGkf.s:2955   .debug_str:0000000000000847 .LASF101
     /tmp/cclLaGkf.s:2867   .debug_str:00000000000005f5 .LASF102
     /tmp/cclLaGkf.s:2799   .debug_str:00000000000003df .LASF103
     /tmp/cclLaGkf.s:2747   .debug_str:0000000000000225 .LASF104
     /tmp/cclLaGkf.s:2935   .debug_str:00000000000007bb .LASF106
     /tmp/cclLaGkf.s:2821   .debug_str:000000000000048a .LASF107
     /tmp/cclLaGkf.s:2931   .debug_str:000000000000079f .LASF108
     /tmp/cclLaGkf.s:2705   .debug_str:0000000000000010 .LASF109
     /tmp/cclLaGkf.s:3089   .debug_str:0000000000000c22 .LASF110
     /tmp/cclLaGkf.s:2999   .debug_str:00000000000009a8 .LASF111
     /tmp/cclLaGkf.s:2901   .debug_str:00000000000006c9 .LASF112
     /tmp/cclLaGkf.s:2817   .debug_str:000000000000046d .LASF113
     /tmp/cclLaGkf.s:3007   .debug_str:00000000000009ce .LASF114
     /tmp/cclLaGkf.s:2801   .debug_str:00000000000003e7 .LASF129
     /tmp/cclLaGkf.s:3033   .debug_str:0000000000000a5d .LASF115
     /tmp/cclLaGkf.s:2885   .debug_str:0000000000000660 .LASF116
     /tmp/cclLaGkf.s:3003   .debug_str:00000000000009b4 .LASF117
     /tmp/cclLaGkf.s:2879   .debug_str:000000000000063f .LASF118
     /tmp/cclLaGkf.s:2945   .debug_str:00000000000007fe .LASF119
     /tmp/cclLaGkf.s:2923   .debug_str:000000000000076e .LASF120
     /tmp/cclLaGkf.s:2951   .debug_str:000000000000082a .LASF121
     /tmp/cclLaGkf.s:2943   .debug_str:00000000000007f4 .LASF122
     /tmp/cclLaGkf.s:2987   .debug_str:0000000000000964 .LASF123
     /tmp/cclLaGkf.s:2809   .debug_str:0000000000000427 .LASF124
     /tmp/cclLaGkf.s:2741   .debug_str:00000000000001fb .LASF125
     /tmp/cclLaGkf.s:2829   .debug_str:00000000000004bb .LASF126
     /tmp/cclLaGkf.s:2881   .debug_str:000000000000064b .LASF127
     /tmp/cclLaGkf.s:2841   .debug_str:0000000000000514 .LASF128
     /tmp/cclLaGkf.s:3045   .debug_str:0000000000000ad1 .LASF130
     /tmp/cclLaGkf.s:2777   .debug_str:0000000000000336 .LASF131
     /tmp/cclLaGkf.s:3025   .debug_str:0000000000000a28 .LASF132
     /tmp/cclLaGkf.s:2745   .debug_str:0000000000000219 .LASF133
     /tmp/cclLaGkf.s:3073   .debug_str:0000000000000bb3 .LASF134
     /tmp/cclLaGkf.s:3049   .debug_str:0000000000000ae5 .LASF135
     /tmp/cclLaGkf.s:2811   .debug_str:0000000000000432 .LASF136
     /tmp/cclLaGkf.s:2919   .debug_str:0000000000000742 .LASF137
     /tmp/cclLaGkf.s:3041   .debug_str:0000000000000aba .LASF139
     /tmp/cclLaGkf.s:2959   .debug_str:0000000000000864 .LASF141
     /tmp/cclLaGkf.s:3091   .debug_str:0000000000000c34 .LASF142
     /tmp/cclLaGkf.s:2941   .debug_str:00000000000007de .LASF143
     /tmp/cclLaGkf.s:2937   .debug_str:00000000000007c7 .LASF144
GAS LISTING /tmp/cclLaGkf.s 			page 17


     /tmp/cclLaGkf.s:2911   .debug_str:000000000000070e .LASF145
     /tmp/cclLaGkf.s:2909   .debug_str:0000000000000707 .LASF146
     /tmp/cclLaGkf.s:2953   .debug_str:0000000000000833 .LASF147
     /tmp/cclLaGkf.s:2897   .debug_str:00000000000006b9 .LASF148
     /tmp/cclLaGkf.s:2977   .debug_str:00000000000008f8 .LASF149
     /tmp/cclLaGkf.s:2899   .debug_str:00000000000006c1 .LASF150
     /tmp/cclLaGkf.s:2863   .debug_str:00000000000005d6 .LASF151
     /tmp/cclLaGkf.s:2873   .debug_str:0000000000000622 .LASF152
     /tmp/cclLaGkf.s:2895   .debug_str:00000000000006a4 .LASF153
     /tmp/cclLaGkf.s:3093   .debug_str:0000000000000c3d .LASF154
     /tmp/cclLaGkf.s:2893   .debug_str:000000000000068f .LASF155
     /tmp/cclLaGkf.s:3001   .debug_str:00000000000009ad .LASF156
     /tmp/cclLaGkf.s:2927   .debug_str:0000000000000784 .LASF157
     /tmp/cclLaGkf.s:2973   .debug_str:00000000000008d3 .LASF158
     /tmp/cclLaGkf.s:2819   .debug_str:0000000000000476 .LASF159
     /tmp/cclLaGkf.s:2759   .debug_str:0000000000000285 .LASF160
     /tmp/cclLaGkf.s:2965   .debug_str:0000000000000893 .LASF161
     /tmp/cclLaGkf.s:2831   .debug_str:00000000000004c0 .LASF162
     /tmp/cclLaGkf.s:2907   .debug_str:00000000000006f4 .LASF163
     /tmp/cclLaGkf.s:2713   .debug_str:0000000000000039 .LASF164
     /tmp/cclLaGkf.s:2979   .debug_str:000000000000090d .LASF165
     /tmp/cclLaGkf.s:2961   .debug_str:000000000000087a .LASF166
     /tmp/cclLaGkf.s:2903   .debug_str:00000000000006ce .LASF167
     /tmp/cclLaGkf.s:3057   .debug_str:0000000000000b33 .LASF168
     /tmp/cclLaGkf.s:2779   .debug_str:0000000000000342 .LASF169
     /tmp/cclLaGkf.s:3051   .debug_str:0000000000000afa .LASF170
     /tmp/cclLaGkf.s:2723   .debug_str:000000000000015c .LASF171
     /tmp/cclLaGkf.s:3017   .debug_str:0000000000000a04 .LASF172
     /tmp/cclLaGkf.s:2791   .debug_str:0000000000000394 .LASF173
     /tmp/cclLaGkf.s:101    .text:000000000000005c .LFB36
     /tmp/cclLaGkf.s:283    .text:00000000000001cc .LFE36
     /tmp/cclLaGkf.s:2629   .debug_loc:0000000000000000 .LLST0
     /tmp/cclLaGkf.s:164    .text:000000000000010c .LBB12
     /tmp/cclLaGkf.s:173    .text:0000000000000114 .LBE12
     /tmp/cclLaGkf.s:2636   .debug_loc:0000000000000023 .LLST1
     /tmp/cclLaGkf.s:2644   .debug_loc:0000000000000047 .LLST2
     /tmp/cclLaGkf.s:175    .text:0000000000000114 .LBB14
     /tmp/cclLaGkf.s:183    .text:000000000000011c .LBE14
     /tmp/cclLaGkf.s:2651   .debug_loc:000000000000006a .LLST3
     /tmp/cclLaGkf.s:2659   .debug_loc:000000000000008e .LLST4
     /tmp/cclLaGkf.s:203    .text:0000000000000158 .LBB16
     /tmp/cclLaGkf.s:216    .text:0000000000000160 .LBE16
     /tmp/cclLaGkf.s:2666   .debug_loc:00000000000000b1 .LLST5
     /tmp/cclLaGkf.s:230    .text:0000000000000184 .LBB18
     /tmp/cclLaGkf.s:237    .text:0000000000000188 .LBE18
     /tmp/cclLaGkf.s:2674   .debug_loc:00000000000000d5 .LLST6
     /tmp/cclLaGkf.s:253    .text:00000000000001a4 .LBB20
     /tmp/cclLaGkf.s:261    .text:00000000000001a8 .LBE20
     /tmp/cclLaGkf.s:2681   .debug_loc:00000000000000f8 .LLST7
     /tmp/cclLaGkf.s:126    .text:0000000000000090 .LVL2
     /tmp/cclLaGkf.s:132    .text:00000000000000a0 .LVL3
     /tmp/cclLaGkf.s:144    .text:00000000000000c8 .LVL5
     /tmp/cclLaGkf.s:151    .text:00000000000000e4 .LVL6
     /tmp/cclLaGkf.s:158    .text:0000000000000100 .LVL7
     /tmp/cclLaGkf.s:189    .text:0000000000000130 .LVL11
     /tmp/cclLaGkf.s:195    .text:0000000000000144 .LVL12
     /tmp/cclLaGkf.s:201    .text:0000000000000158 .LVL13
GAS LISTING /tmp/cclLaGkf.s 			page 18


     /tmp/cclLaGkf.s:223    .text:000000000000017c .LVL15
     /tmp/cclLaGkf.s:243    .text:0000000000000194 .LVL18
     /tmp/cclLaGkf.s:267    .text:00000000000001b4 .LVL21
     /tmp/cclLaGkf.s:2933   .debug_str:00000000000007af .LASF174
     /tmp/cclLaGkf.s:10     .text:0000000000000000 .LFB35
     /tmp/cclLaGkf.s:25     .text:0000000000000010 .LFE35
     /tmp/cclLaGkf.s:2883   .debug_str:0000000000000650 .LASF175
     /tmp/cclLaGkf.s:3035   .debug_str:0000000000000a67 .LASF176
     /tmp/cclLaGkf.s:31     .text:0000000000000010 .LFB34
     /tmp/cclLaGkf.s:57     .text:0000000000000038 .LFE34
     /tmp/cclLaGkf.s:46     .text:0000000000000028 .LVL0
     /tmp/cclLaGkf.s:2905   .debug_str:00000000000006e7 .LASF177
     /tmp/cclLaGkf.s:63     .text:0000000000000038 .LFB33
     /tmp/cclLaGkf.s:95     .text:000000000000005c .LFE33
     /tmp/cclLaGkf.s:3063   .debug_str:0000000000000b60 .LASF178
     /tmp/cclLaGkf.s:3047   .debug_str:0000000000000ae0 .LASF180
     /tmp/cclLaGkf.s:2789   .debug_str:000000000000038f .LASF179
     /tmp/cclLaGkf.s:2997   .debug_str:000000000000099e .LASF181
     /tmp/cclLaGkf.s:2913   .debug_str:0000000000000722 .LASF182
     /tmp/cclLaGkf.s:2875   .debug_str:000000000000062a .LASF183
     /tmp/cclLaGkf.s:2871   .debug_str:0000000000000618 .LASF185
     /tmp/cclLaGkf.s:2771   .debug_str:00000000000002f8 .LASF184
     /tmp/cclLaGkf.s:2855   .debug_str:0000000000000580 .LASF186
     /tmp/cclLaGkf.s:2739   .debug_str:00000000000001e8 .LASF187
     /tmp/cclLaGkf.s:2949   .debug_str:0000000000000817 .LASF188
     /tmp/cclLaGkf.s:2717   .debug_str:0000000000000064 .LASF189
     /tmp/cclLaGkf.s:2889   .debug_str:0000000000000674 .LASF190
     /tmp/cclLaGkf.s:2925   .debug_str:000000000000077b .LASF191
     /tmp/cclLaGkf.s:142    .text:00000000000000c0 .LVL4
     /tmp/cclLaGkf.s:163    .text:000000000000010c .LVL8
     /tmp/cclLaGkf.s:171    .text:0000000000000114 .LVL9
     /tmp/cclLaGkf.s:181    .text:000000000000011c .LVL10
     /tmp/cclLaGkf.s:213    .text:0000000000000160 .LVL14
     /tmp/cclLaGkf.s:229    .text:0000000000000184 .LVL16
     /tmp/cclLaGkf.s:235    .text:0000000000000188 .LVL17
     /tmp/cclLaGkf.s:252    .text:00000000000001a4 .LVL19
     /tmp/cclLaGkf.s:259    .text:00000000000001a8 .LVL20
     /tmp/cclLaGkf.s:299    .debug_info:0000000000000000 .Ldebug_info0

UNDEFINED SYMBOLS
_Z8userMainv
interrupt
HEAP_START_ADDR
_Z9kmem_initPvi
_ZN3PCB16createSysProcessEPFvvEPv
_ZN3PCB7runningE
_ZN3CCB9inputBodyEPv
_ZN3CCB12inputProccesE
_Z13thread_createPP3PCBPFvPvES2_
_ZN3CCB10outputBodyEPv
_ZN3CCB13outputProcessE
_ZN9Scheduler11idleProcessE
_Z18thread_create_onlyPP3PCBPFvPvES2_
_ZN3CCB8semInputE
_Z8sem_openPP3SCBj
_ZN3CCB9semOutputE
_ZN3CCB16inputBufferEmptyE
GAS LISTING /tmp/cclLaGkf.s 			page 19


_Z15thread_dispatchv
