GAS LISTING /tmp/ccAzxSGZ.s 			page 1


   1              		.file	"main.cpp"
   2              		.option pic
   3              		.option norelax
   4              		.text
   5              	.Ltext0:
   6              		.section	.rodata.str1.8,"aMS",@progbits,1
   7              		.align	3
   8              	.LC0:
   9 0000 413A2069 		.string	"A: i="
   9      3D00
  10 0006 0000     		.align	3
  11              	.LC1:
  12 0008 0A00     		.string	"\n"
  13              		.text
  14              		.align	2
  15              		.globl	_Z11workerBodyAv
  17              	_Z11workerBodyAv:
  18              	.LFB28:
  19              		.file 1 "src/main.cpp"
   1:src/main.cpp  **** #include "../h/hw.h"
   2:src/main.cpp  **** #include "../h/console.h"
   3:src/main.cpp  **** #include "../h/MemoryAllocator.h"
   4:src/main.cpp  **** #include "../h/syscall_c.h"
   5:src/main.cpp  **** #include "../h/print.h"
   6:src/main.cpp  **** #include "../h/PCB.h"
   7:src/main.cpp  **** #include "../h/kernel.h"
   8:src/main.cpp  **** 
   9:src/main.cpp  **** 
  10:src/main.cpp  **** void workerBodyA()
  11:src/main.cpp  **** {
  20              		.loc 1 11 1
  21              		.cfi_startproc
  22 0000 130101FE 		addi	sp,sp,-32
  23              		.cfi_def_cfa_offset 32
  24 0004 233C1100 		sd	ra,24(sp)
  25 0008 23388100 		sd	s0,16(sp)
  26 000c 23349100 		sd	s1,8(sp)
  27              		.cfi_offset 1, -8
  28              		.cfi_offset 8, -16
  29              		.cfi_offset 9, -24
  30 0010 13040102 		addi	s0,sp,32
  31              		.cfi_def_cfa 8, 0
  12:src/main.cpp  ****     for (size_t i = 0; i < 10; i++)
  32              		.loc 1 12 5
  33              	.LVL0:
  34              	.LBB13:
  35              		.loc 1 12 17 is_stmt 0
  36 0014 93040000 		li	s1,0
  37 0018 6F000003 		j	.L7
  38              	.LVL1:
  39              	.L4:
  40              	.LBB14:
  41              	.LBB15:
  13:src/main.cpp  ****     {
  14:src/main.cpp  ****         printString("A: i=");
  15:src/main.cpp  ****         printInteger(i);
  16:src/main.cpp  ****         printString("\n");
GAS LISTING /tmp/ccAzxSGZ.s 			page 2


  17:src/main.cpp  ****         for (size_t j = 0; j < 10000; j++)
  42              		.loc 1 17 9 is_stmt 1 discriminator 2
  43 001c 93861600 		addi	a3,a3,1
  44              	.LVL2:
  45              	.L6:
  46              		.loc 1 17 30 discriminator 1
  47 0020 B7270000 		li	a5,8192
  48 0024 9387F770 		addi	a5,a5,1807
  49 0028 63EED700 		bgtu	a3,a5,.L3
  50              	.LBB16:
  18:src/main.cpp  ****         {
  19:src/main.cpp  ****             for (size_t k = 0; k < 30000; k++)
  51              		.loc 1 19 25 is_stmt 0
  52 002c 13070000 		li	a4,0
  53              	.L5:
  54              	.LVL3:
  55              		.loc 1 19 34 is_stmt 1 discriminator 3
  56 0030 B7770000 		li	a5,28672
  57 0034 9387F752 		addi	a5,a5,1327
  58 0038 E3E2E7FE 		bgtu	a4,a5,.L4
  59              		.loc 1 19 13 discriminator 2
  60 003c 13071700 		addi	a4,a4,1
  61              	.LVL4:
  62 0040 6FF01FFF 		j	.L5
  63              	.LVL5:
  64              	.L3:
  65              	.LBE16:
  66              	.LBE15:
  67              	.LBE14:
  12:src/main.cpp  ****     {
  68              		.loc 1 12 5 discriminator 2
  69 0044 93841400 		addi	s1,s1,1
  70              	.LVL6:
  71              	.L7:
  12:src/main.cpp  ****     {
  72              		.loc 1 12 26 discriminator 1
  73 0048 93079000 		li	a5,9
  74 004c 63EC9702 		bgtu	s1,a5,.L1
  75              	.LBB18:
  14:src/main.cpp  ****         printInteger(i);
  76              		.loc 1 14 9
  14:src/main.cpp  ****         printInteger(i);
  77              		.loc 1 14 20 is_stmt 0
  78 0050 17050000 		lla	a0,.LC0
  78      13050500 
  79 0058 97000000 		call	_Z11printStringPKc@plt
  79      E7800000 
  80              	.LVL7:
  15:src/main.cpp  ****         printString("\n");
  81              		.loc 1 15 9 is_stmt 1
  15:src/main.cpp  ****         printString("\n");
  82              		.loc 1 15 21 is_stmt 0
  83 0060 13850400 		mv	a0,s1
  84 0064 97000000 		call	_Z12printIntegerm@plt
  84      E7800000 
  85              	.LVL8:
  16:src/main.cpp  ****         for (size_t j = 0; j < 10000; j++)
GAS LISTING /tmp/ccAzxSGZ.s 			page 3


  86              		.loc 1 16 9 is_stmt 1
  16:src/main.cpp  ****         for (size_t j = 0; j < 10000; j++)
  87              		.loc 1 16 20 is_stmt 0
  88 006c 17050000 		lla	a0,.LC1
  88      13050500 
  89 0074 97000000 		call	_Z11printStringPKc@plt
  89      E7800000 
  90              	.LVL9:
  17:src/main.cpp  ****         {
  91              		.loc 1 17 9 is_stmt 1
  92              	.LBB17:
  17:src/main.cpp  ****         {
  93              		.loc 1 17 21 is_stmt 0
  94 007c 93060000 		li	a3,0
  95 0080 6FF01FFA 		j	.L6
  96              	.LVL10:
  97              	.L1:
  98              	.LBE17:
  99              	.LBE18:
 100              	.LBE13:
  20:src/main.cpp  ****             {
  21:src/main.cpp  ****                 // busy wait
  22:src/main.cpp  ****             }
  23:src/main.cpp  **** //            TCB::yield();
  24:src/main.cpp  ****         }
  25:src/main.cpp  ****     }
  26:src/main.cpp  **** }
 101              		.loc 1 26 1
 102 0084 83308101 		ld	ra,24(sp)
 103              		.cfi_restore 1
 104 0088 03340101 		ld	s0,16(sp)
 105              		.cfi_restore 8
 106              		.cfi_def_cfa 2, 32
 107 008c 83348100 		ld	s1,8(sp)
 108              		.cfi_restore 9
 109              	.LVL11:
 110 0090 13010102 		addi	sp,sp,32
 111              		.cfi_def_cfa_offset 0
 112 0094 67800000 		jr	ra
 113              		.cfi_endproc
 114              	.LFE28:
 116              		.section	.rodata.str1.8
 117 000a 00000000 		.align	3
 117      0000
 118              	.LC2:
 119 0010 423A2069 		.string	"B: i="
 119      3D00
 120              		.text
 121              		.align	2
 122              		.globl	_Z11workerBodyBv
 124              	_Z11workerBodyBv:
 125              	.LFB29:
  27:src/main.cpp  **** 
  28:src/main.cpp  **** void workerBodyB()
  29:src/main.cpp  **** {
 126              		.loc 1 29 1 is_stmt 1
 127              		.cfi_startproc
GAS LISTING /tmp/ccAzxSGZ.s 			page 4


 128 0098 130101FE 		addi	sp,sp,-32
 129              		.cfi_def_cfa_offset 32
 130 009c 233C1100 		sd	ra,24(sp)
 131 00a0 23388100 		sd	s0,16(sp)
 132 00a4 23349100 		sd	s1,8(sp)
 133              		.cfi_offset 1, -8
 134              		.cfi_offset 8, -16
 135              		.cfi_offset 9, -24
 136 00a8 13040102 		addi	s0,sp,32
 137              		.cfi_def_cfa 8, 0
  30:src/main.cpp  ****     for (size_t i = 0; i < 16; i++)
 138              		.loc 1 30 5
 139              	.LVL12:
 140              	.LBB19:
 141              		.loc 1 30 17 is_stmt 0
 142 00ac 93040000 		li	s1,0
 143 00b0 6F000003 		j	.L15
 144              	.LVL13:
 145              	.L12:
 146              	.LBB20:
 147              	.LBB21:
  31:src/main.cpp  ****     {
  32:src/main.cpp  ****         printString("B: i=");
  33:src/main.cpp  ****         printInteger(i);
  34:src/main.cpp  ****         printString("\n");
  35:src/main.cpp  ****         for (size_t j = 0; j < 10000; j++)
 148              		.loc 1 35 9 is_stmt 1 discriminator 2
 149 00b4 93861600 		addi	a3,a3,1
 150              	.LVL14:
 151              	.L14:
 152              		.loc 1 35 30 discriminator 1
 153 00b8 B7270000 		li	a5,8192
 154 00bc 9387F770 		addi	a5,a5,1807
 155 00c0 63EED700 		bgtu	a3,a5,.L11
 156              	.LBB22:
  36:src/main.cpp  ****         {
  37:src/main.cpp  ****             for (size_t k = 0; k < 30000; k++)
 157              		.loc 1 37 25 is_stmt 0
 158 00c4 13070000 		li	a4,0
 159              	.L13:
 160              	.LVL15:
 161              		.loc 1 37 34 is_stmt 1 discriminator 3
 162 00c8 B7770000 		li	a5,28672
 163 00cc 9387F752 		addi	a5,a5,1327
 164 00d0 E3E2E7FE 		bgtu	a4,a5,.L12
 165              		.loc 1 37 13 discriminator 2
 166 00d4 13071700 		addi	a4,a4,1
 167              	.LVL16:
 168 00d8 6FF01FFF 		j	.L13
 169              	.LVL17:
 170              	.L11:
 171              	.LBE22:
 172              	.LBE21:
 173              	.LBE20:
  30:src/main.cpp  ****     {
 174              		.loc 1 30 5 discriminator 2
 175 00dc 93841400 		addi	s1,s1,1
GAS LISTING /tmp/ccAzxSGZ.s 			page 5


 176              	.LVL18:
 177              	.L15:
  30:src/main.cpp  ****     {
 178              		.loc 1 30 26 discriminator 1
 179 00e0 9307F000 		li	a5,15
 180 00e4 63EC9702 		bgtu	s1,a5,.L9
 181              	.LBB24:
  32:src/main.cpp  ****         printInteger(i);
 182              		.loc 1 32 9
  32:src/main.cpp  ****         printInteger(i);
 183              		.loc 1 32 20 is_stmt 0
 184 00e8 17050000 		lla	a0,.LC2
 184      13050500 
 185 00f0 97000000 		call	_Z11printStringPKc@plt
 185      E7800000 
 186              	.LVL19:
  33:src/main.cpp  ****         printString("\n");
 187              		.loc 1 33 9 is_stmt 1
  33:src/main.cpp  ****         printString("\n");
 188              		.loc 1 33 21 is_stmt 0
 189 00f8 13850400 		mv	a0,s1
 190 00fc 97000000 		call	_Z12printIntegerm@plt
 190      E7800000 
 191              	.LVL20:
  34:src/main.cpp  ****         for (size_t j = 0; j < 10000; j++)
 192              		.loc 1 34 9 is_stmt 1
  34:src/main.cpp  ****         for (size_t j = 0; j < 10000; j++)
 193              		.loc 1 34 20 is_stmt 0
 194 0104 17050000 		lla	a0,.LC1
 194      13050500 
 195 010c 97000000 		call	_Z11printStringPKc@plt
 195      E7800000 
 196              	.LVL21:
  35:src/main.cpp  ****         {
 197              		.loc 1 35 9 is_stmt 1
 198              	.LBB23:
  35:src/main.cpp  ****         {
 199              		.loc 1 35 21 is_stmt 0
 200 0114 93060000 		li	a3,0
 201 0118 6FF01FFA 		j	.L14
 202              	.LVL22:
 203              	.L9:
 204              	.LBE23:
 205              	.LBE24:
 206              	.LBE19:
  38:src/main.cpp  ****             {
  39:src/main.cpp  ****                 // busy wait
  40:src/main.cpp  ****             }
  41:src/main.cpp  ****         }
  42:src/main.cpp  ****     }
  43:src/main.cpp  **** }
 207              		.loc 1 43 1
 208 011c 83308101 		ld	ra,24(sp)
 209              		.cfi_restore 1
 210 0120 03340101 		ld	s0,16(sp)
 211              		.cfi_restore 8
 212              		.cfi_def_cfa 2, 32
GAS LISTING /tmp/ccAzxSGZ.s 			page 6


 213 0124 83348100 		ld	s1,8(sp)
 214              		.cfi_restore 9
 215              	.LVL23:
 216 0128 13010102 		addi	sp,sp,32
 217              		.cfi_def_cfa_offset 0
 218 012c 67800000 		jr	ra
 219              		.cfi_endproc
 220              	.LFE29:
 222              		.align	2
 224              	_ZL9fibonaccim:
 225              	.LFB30:
  44:src/main.cpp  **** 
  45:src/main.cpp  **** static size_t fibonacci(size_t n)
  46:src/main.cpp  **** {
 226              		.loc 1 46 1 is_stmt 1
 227              		.cfi_startproc
 228              	.LVL24:
 229 0130 130101FE 		addi	sp,sp,-32
 230              		.cfi_def_cfa_offset 32
 231 0134 233C1100 		sd	ra,24(sp)
 232 0138 23388100 		sd	s0,16(sp)
 233 013c 23349100 		sd	s1,8(sp)
 234 0140 23302101 		sd	s2,0(sp)
 235              		.cfi_offset 1, -8
 236              		.cfi_offset 8, -16
 237              		.cfi_offset 9, -24
 238              		.cfi_offset 18, -32
 239 0144 13040102 		addi	s0,sp,32
 240              		.cfi_def_cfa 8, 0
 241 0148 93040500 		mv	s1,a0
  47:src/main.cpp  ****     if (n == 0 || n == 1) { return n; }
 242              		.loc 1 47 5
 243 014c 93071000 		li	a5,1
 244 0150 63F8A702 		bleu	a0,a5,.L17
  48:src/main.cpp  ****     if (n % 10 == 0) { PCB::yield(); }
 245              		.loc 1 48 5
 246              		.loc 1 48 11 is_stmt 0
 247 0154 9307A000 		li	a5,10
 248 0158 B377F502 		remu	a5,a0,a5
 249              		.loc 1 48 5
 250 015c 638E0702 		beqz	a5,.L22
 251              	.LVL25:
 252              	.L19:
  49:src/main.cpp  ****     return fibonacci(n - 1) + fibonacci(n - 2);
 253              		.loc 1 49 5 is_stmt 1
 254              		.loc 1 49 21 is_stmt 0
 255 0160 1385F4FF 		addi	a0,s1,-1
 256 0164 97000000 		call	_ZL9fibonaccim
 256      E7800000 
 257              	.LVL26:
 258 016c 13090500 		mv	s2,a0
 259              		.loc 1 49 40
 260 0170 1385E4FF 		addi	a0,s1,-2
 261 0174 97000000 		call	_ZL9fibonaccim
 261      E7800000 
 262              	.LVL27:
 263              		.loc 1 49 46
GAS LISTING /tmp/ccAzxSGZ.s 			page 7


 264 017c 3305A900 		add	a0,s2,a0
 265              	.L17:
  50:src/main.cpp  **** }
 266              		.loc 1 50 1
 267 0180 83308101 		ld	ra,24(sp)
 268              		.cfi_remember_state
 269              		.cfi_restore 1
 270 0184 03340101 		ld	s0,16(sp)
 271              		.cfi_restore 8
 272              		.cfi_def_cfa 2, 32
 273 0188 83348100 		ld	s1,8(sp)
 274              		.cfi_restore 9
 275              	.LVL28:
 276 018c 03390100 		ld	s2,0(sp)
 277              		.cfi_restore 18
 278 0190 13010102 		addi	sp,sp,32
 279              		.cfi_def_cfa_offset 0
 280 0194 67800000 		jr	ra
 281              	.LVL29:
 282              	.L22:
 283              		.cfi_restore_state
  48:src/main.cpp  ****     if (n % 10 == 0) { PCB::yield(); }
 284              		.loc 1 48 24 is_stmt 1 discriminator 1
  48:src/main.cpp  ****     if (n % 10 == 0) { PCB::yield(); }
 285              		.loc 1 48 34 is_stmt 0 discriminator 1
 286 0198 97000000 		call	_ZN3PCB5yieldEv@plt
 286      E7800000 
 287              	.LVL30:
 288 01a0 6FF01FFC 		j	.L19
 289              		.cfi_endproc
 290              	.LFE30:
 292              		.section	.rodata.str1.8
 293 0016 0000     		.align	3
 294              	.LC3:
 295 0018 433A2069 		.string	"C: i="
 295      3D00
 296 001e 0000     		.align	3
 297              	.LC4:
 298 0020 433A2079 		.string	"C: yield\n"
 298      69656C64 
 298      0A00
 299 002a 00000000 		.align	3
 299      0000
 300              	.LC5:
 301 0030 433A2074 		.string	"C: t1="
 301      313D00
 302 0037 00       		.align	3
 303              	.LC6:
 304 0038 433A2066 		.string	"C: fibonaci="
 304      69626F6E 
 304      6163693D 
 304      00
 305              		.text
 306              		.align	2
 307              		.globl	_Z11workerBodyCv
 309              	_Z11workerBodyCv:
 310              	.LFB31:
GAS LISTING /tmp/ccAzxSGZ.s 			page 8


  51:src/main.cpp  **** 
  52:src/main.cpp  **** void workerBodyC()
  53:src/main.cpp  **** {
 311              		.loc 1 53 1 is_stmt 1
 312              		.cfi_startproc
 313 01a4 130101FE 		addi	sp,sp,-32
 314              		.cfi_def_cfa_offset 32
 315 01a8 233C1100 		sd	ra,24(sp)
 316 01ac 23388100 		sd	s0,16(sp)
 317 01b0 23349100 		sd	s1,8(sp)
 318 01b4 23302101 		sd	s2,0(sp)
 319              		.cfi_offset 1, -8
 320              		.cfi_offset 8, -16
 321              		.cfi_offset 9, -24
 322              		.cfi_offset 18, -32
 323 01b8 13040102 		addi	s0,sp,32
 324              		.cfi_def_cfa 8, 0
  54:src/main.cpp  ****     uint8 i = 0;
 325              		.loc 1 54 5
 326              	.LVL31:
 327              		.loc 1 54 11 is_stmt 0
 328 01bc 93040000 		li	s1,0
 329 01c0 6F008003 		j	.L25
 330              	.LVL32:
 331              	.L29:
  55:src/main.cpp  ****     for (; i < 3; i++)
  56:src/main.cpp  ****     {
  57:src/main.cpp  ****         printString("C: i=");
 332              		.loc 1 57 9 is_stmt 1 discriminator 1
 333              		.loc 1 57 20 is_stmt 0 discriminator 1
 334 01c4 17050000 		lla	a0,.LC3
 334      13050500 
 335 01cc 97000000 		call	_Z11printStringPKc@plt
 335      E7800000 
 336              	.LVL33:
  58:src/main.cpp  ****         printInteger(i);
 337              		.loc 1 58 9 is_stmt 1 discriminator 1
 338              		.loc 1 58 21 is_stmt 0 discriminator 1
 339 01d4 13850400 		mv	a0,s1
 340 01d8 97000000 		call	_Z12printIntegerm@plt
 340      E7800000 
 341              	.LVL34:
  59:src/main.cpp  ****         printString("\n");
 342              		.loc 1 59 9 is_stmt 1 discriminator 1
 343              		.loc 1 59 20 is_stmt 0 discriminator 1
 344 01e0 17050000 		lla	a0,.LC1
 344      13050500 
 345 01e8 97000000 		call	_Z11printStringPKc@plt
 345      E7800000 
 346              	.LVL35:
  55:src/main.cpp  ****     for (; i < 3; i++)
 347              		.loc 1 55 5 is_stmt 1 discriminator 1
 348 01f0 9B841400 		addiw	s1,s1,1
 349              	.LVL36:
 350 01f4 93F4F40F 		andi	s1,s1,0xff
 351              	.LVL37:
 352              	.L25:
GAS LISTING /tmp/ccAzxSGZ.s 			page 9


  55:src/main.cpp  ****     for (; i < 3; i++)
 353              		.loc 1 55 5 discriminator 2
  55:src/main.cpp  ****     for (; i < 3; i++)
 354              		.loc 1 55 14 discriminator 2
 355 01f8 93072000 		li	a5,2
 356 01fc E3F497FC 		bleu	s1,a5,.L29
  60:src/main.cpp  ****     }
  61:src/main.cpp  **** 
  62:src/main.cpp  ****     printString("C: yield\n");
 357              		.loc 1 62 5
 358              		.loc 1 62 16 is_stmt 0
 359 0200 17050000 		lla	a0,.LC4
 359      13050500 
 360 0208 97000000 		call	_Z11printStringPKc@plt
 360      E7800000 
 361              	.LVL38:
  63:src/main.cpp  ****     __asm__ ("li t1, 7");
 362              		.loc 1 63 5 is_stmt 1
 363              		.loc 1 63 25 is_stmt 0
 364              	#APP
 365              	# 63 "src/main.cpp" 1
  64              	    PCB::yield();
 366              		li t1, 7
 367              	# 0 "" 2
 368              		.loc 1 64 5 is_stmt 1
 369              		.loc 1 64 15 is_stmt 0
 370              	#NO_APP
 371 0214 97000000 		call	_ZN3PCB5yieldEv@plt
 371      E7800000 
 372              	.LVL39:
  65:src/main.cpp  **** 
  66:src/main.cpp  ****     size_t t1 = 0;
 373              		.loc 1 66 5 is_stmt 1
  67:src/main.cpp  ****     __asm__ ("mv %[t1], t1" : [t1] "=r"(t1));
 374              		.loc 1 67 5
 375              		.loc 1 67 45 is_stmt 0
 376              	#APP
 377              	# 67 "src/main.cpp" 1
  68              	
 378              		mv s2, t1
 379              	# 0 "" 2
 380              	.LVL40:
  69:src/main.cpp  ****     printString("C: t1=");
 381              		.loc 1 69 5 is_stmt 1
 382              		.loc 1 69 16 is_stmt 0
 383              	#NO_APP
 384 0220 17050000 		lla	a0,.LC5
 384      13050500 
 385 0228 97000000 		call	_Z11printStringPKc@plt
 385      E7800000 
 386              	.LVL41:
  70:src/main.cpp  ****     printInteger(t1);
 387              		.loc 1 70 5 is_stmt 1
 388              		.loc 1 70 17 is_stmt 0
 389 0230 13050900 		mv	a0,s2
 390 0234 97000000 		call	_Z12printIntegerm@plt
 390      E7800000 
GAS LISTING /tmp/ccAzxSGZ.s 			page 10


 391              	.LVL42:
  71:src/main.cpp  ****     printString("\n");
 392              		.loc 1 71 5 is_stmt 1
 393              		.loc 1 71 16 is_stmt 0
 394 023c 17050000 		lla	a0,.LC1
 394      13050500 
 395 0244 97000000 		call	_Z11printStringPKc@plt
 395      E7800000 
 396              	.LVL43:
  72:src/main.cpp  **** 
  73:src/main.cpp  ****     size_t result = fibonacci(12);
 397              		.loc 1 73 5 is_stmt 1
 398              		.loc 1 73 30 is_stmt 0
 399 024c 1305C000 		li	a0,12
 400 0250 97000000 		call	_ZL9fibonaccim
 400      E7800000 
 401              	.LVL44:
 402 0258 13090500 		mv	s2,a0
 403              	.LVL45:
  74:src/main.cpp  ****     printString("C: fibonaci=");
 404              		.loc 1 74 5 is_stmt 1
 405              		.loc 1 74 16 is_stmt 0
 406 025c 17050000 		lla	a0,.LC6
 406      13050500 
 407              	.LVL46:
 408 0264 97000000 		call	_Z11printStringPKc@plt
 408      E7800000 
 409              	.LVL47:
  75:src/main.cpp  ****     printInteger(result);
 410              		.loc 1 75 5 is_stmt 1
 411              		.loc 1 75 17 is_stmt 0
 412 026c 13050900 		mv	a0,s2
 413 0270 97000000 		call	_Z12printIntegerm@plt
 413      E7800000 
 414              	.LVL48:
  76:src/main.cpp  ****     printString("\n");
 415              		.loc 1 76 5 is_stmt 1
 416              		.loc 1 76 16 is_stmt 0
 417 0278 17050000 		lla	a0,.LC1
 417      13050500 
 418 0280 97000000 		call	_Z11printStringPKc@plt
 418      E7800000 
 419              	.LVL49:
 420 0288 6F008003 		j	.L27
 421              	.L30:
  77:src/main.cpp  **** 
  78:src/main.cpp  ****     for (; i < 6; i++)
  79:src/main.cpp  ****     {
  80:src/main.cpp  ****         printString("C: i=");
 422              		.loc 1 80 9 is_stmt 1 discriminator 1
 423              		.loc 1 80 20 is_stmt 0 discriminator 1
 424 028c 17050000 		lla	a0,.LC3
 424      13050500 
 425 0294 97000000 		call	_Z11printStringPKc@plt
 425      E7800000 
 426              	.LVL50:
  81:src/main.cpp  ****         printInteger(i);
GAS LISTING /tmp/ccAzxSGZ.s 			page 11


 427              		.loc 1 81 9 is_stmt 1 discriminator 1
 428              		.loc 1 81 21 is_stmt 0 discriminator 1
 429 029c 13850400 		mv	a0,s1
 430 02a0 97000000 		call	_Z12printIntegerm@plt
 430      E7800000 
 431              	.LVL51:
  82:src/main.cpp  ****         printString("\n");
 432              		.loc 1 82 9 is_stmt 1 discriminator 1
 433              		.loc 1 82 20 is_stmt 0 discriminator 1
 434 02a8 17050000 		lla	a0,.LC1
 434      13050500 
 435 02b0 97000000 		call	_Z11printStringPKc@plt
 435      E7800000 
 436              	.LVL52:
  78:src/main.cpp  ****     {
 437              		.loc 1 78 5 is_stmt 1 discriminator 1
 438 02b8 9B841400 		addiw	s1,s1,1
 439              	.LVL53:
 440 02bc 93F4F40F 		andi	s1,s1,0xff
 441              	.LVL54:
 442              	.L27:
  78:src/main.cpp  ****     {
 443              		.loc 1 78 5 discriminator 2
  78:src/main.cpp  ****     {
 444              		.loc 1 78 14 discriminator 2
 445 02c0 93075000 		li	a5,5
 446 02c4 E3F497FC 		bleu	s1,a5,.L30
  83:src/main.cpp  ****     }
  84:src/main.cpp  **** //    TCB::yield();
  85:src/main.cpp  **** }
 447              		.loc 1 85 1 is_stmt 0
 448 02c8 83308101 		ld	ra,24(sp)
 449              		.cfi_restore 1
 450 02cc 03340101 		ld	s0,16(sp)
 451              		.cfi_restore 8
 452              		.cfi_def_cfa 2, 32
 453 02d0 83348100 		ld	s1,8(sp)
 454              		.cfi_restore 9
 455              	.LVL55:
 456 02d4 03390100 		ld	s2,0(sp)
 457              		.cfi_restore 18
 458              	.LVL56:
 459 02d8 13010102 		addi	sp,sp,32
 460              		.cfi_def_cfa_offset 0
 461 02dc 67800000 		jr	ra
 462              		.cfi_endproc
 463              	.LFE31:
 465              		.section	.rodata.str1.8
 466 0045 000000   		.align	3
 467              	.LC7:
 468 0048 443A2069 		.string	"D: i="
 468      3D00
 469 004e 0000     		.align	3
 470              	.LC8:
 471 0050 443A2079 		.string	"D: yield\n"
 471      69656C64 
 471      0A00
GAS LISTING /tmp/ccAzxSGZ.s 			page 12


 472 005a 00000000 		.align	3
 472      0000
 473              	.LC9:
 474 0060 443A2066 		.string	"D: fibonaci="
 474      69626F6E 
 474      6163693D 
 474      00
 475              		.text
 476              		.align	2
 477              		.globl	_Z11workerBodyDv
 479              	_Z11workerBodyDv:
 480              	.LFB32:
  86:src/main.cpp  **** 
  87:src/main.cpp  **** void workerBodyD()
  88:src/main.cpp  **** {
 481              		.loc 1 88 1 is_stmt 1
 482              		.cfi_startproc
 483 02e0 130101FE 		addi	sp,sp,-32
 484              		.cfi_def_cfa_offset 32
 485 02e4 233C1100 		sd	ra,24(sp)
 486 02e8 23388100 		sd	s0,16(sp)
 487 02ec 23349100 		sd	s1,8(sp)
 488 02f0 23302101 		sd	s2,0(sp)
 489              		.cfi_offset 1, -8
 490              		.cfi_offset 8, -16
 491              		.cfi_offset 9, -24
 492              		.cfi_offset 18, -32
 493 02f4 13040102 		addi	s0,sp,32
 494              		.cfi_def_cfa 8, 0
  89:src/main.cpp  ****     uint8 i = 10;
 495              		.loc 1 89 5
 496              	.LVL57:
 497              		.loc 1 89 11 is_stmt 0
 498 02f8 9304A000 		li	s1,10
 499 02fc 6F008003 		j	.L33
 500              	.LVL58:
 501              	.L37:
  90:src/main.cpp  ****     for (; i < 13; i++)
  91:src/main.cpp  ****     {
  92:src/main.cpp  ****         printString("D: i=");
 502              		.loc 1 92 9 is_stmt 1 discriminator 1
 503              		.loc 1 92 20 is_stmt 0 discriminator 1
 504 0300 17050000 		lla	a0,.LC7
 504      13050500 
 505 0308 97000000 		call	_Z11printStringPKc@plt
 505      E7800000 
 506              	.LVL59:
  93:src/main.cpp  ****         printInteger(i);
 507              		.loc 1 93 9 is_stmt 1 discriminator 1
 508              		.loc 1 93 21 is_stmt 0 discriminator 1
 509 0310 13850400 		mv	a0,s1
 510 0314 97000000 		call	_Z12printIntegerm@plt
 510      E7800000 
 511              	.LVL60:
  94:src/main.cpp  ****         printString("\n");
 512              		.loc 1 94 9 is_stmt 1 discriminator 1
 513              		.loc 1 94 20 is_stmt 0 discriminator 1
GAS LISTING /tmp/ccAzxSGZ.s 			page 13


 514 031c 17050000 		lla	a0,.LC1
 514      13050500 
 515 0324 97000000 		call	_Z11printStringPKc@plt
 515      E7800000 
 516              	.LVL61:
  90:src/main.cpp  ****     for (; i < 13; i++)
 517              		.loc 1 90 5 is_stmt 1 discriminator 1
 518 032c 9B841400 		addiw	s1,s1,1
 519              	.LVL62:
 520 0330 93F4F40F 		andi	s1,s1,0xff
 521              	.LVL63:
 522              	.L33:
  90:src/main.cpp  ****     for (; i < 13; i++)
 523              		.loc 1 90 5 discriminator 2
  90:src/main.cpp  ****     for (; i < 13; i++)
 524              		.loc 1 90 14 discriminator 2
 525 0334 9307C000 		li	a5,12
 526 0338 E3F497FC 		bleu	s1,a5,.L37
  95:src/main.cpp  ****     }
  96:src/main.cpp  **** 
  97:src/main.cpp  ****     printString("D: yield\n");
 527              		.loc 1 97 5
 528              		.loc 1 97 16 is_stmt 0
 529 033c 17050000 		lla	a0,.LC8
 529      13050500 
 530 0344 97000000 		call	_Z11printStringPKc@plt
 530      E7800000 
 531              	.LVL64:
  98:src/main.cpp  ****     __asm__ ("li t1, 5");
 532              		.loc 1 98 5 is_stmt 1
 533              		.loc 1 98 25 is_stmt 0
 534              	#APP
 535              	# 98 "src/main.cpp" 1
  99              	    PCB::yield();
 536              		li t1, 5
 537              	# 0 "" 2
 538              		.loc 1 99 5 is_stmt 1
 539              		.loc 1 99 15 is_stmt 0
 540              	#NO_APP
 541 0350 97000000 		call	_ZN3PCB5yieldEv@plt
 541      E7800000 
 542              	.LVL65:
 100:src/main.cpp  **** 
 101:src/main.cpp  ****     size_t result = fibonacci(16);
 543              		.loc 1 101 5 is_stmt 1
 544              		.loc 1 101 30 is_stmt 0
 545 0358 13050001 		li	a0,16
 546 035c 97000000 		call	_ZL9fibonaccim
 546      E7800000 
 547              	.LVL66:
 548 0364 13090500 		mv	s2,a0
 549              	.LVL67:
 102:src/main.cpp  ****     printString("D: fibonaci=");
 550              		.loc 1 102 5 is_stmt 1
 551              		.loc 1 102 16 is_stmt 0
 552 0368 17050000 		lla	a0,.LC9
 552      13050500 
GAS LISTING /tmp/ccAzxSGZ.s 			page 14


 553              	.LVL68:
 554 0370 97000000 		call	_Z11printStringPKc@plt
 554      E7800000 
 555              	.LVL69:
 103:src/main.cpp  ****     printInteger(result);
 556              		.loc 1 103 5 is_stmt 1
 557              		.loc 1 103 17 is_stmt 0
 558 0378 13050900 		mv	a0,s2
 559 037c 97000000 		call	_Z12printIntegerm@plt
 559      E7800000 
 560              	.LVL70:
 104:src/main.cpp  ****     printString("\n");
 561              		.loc 1 104 5 is_stmt 1
 562              		.loc 1 104 16 is_stmt 0
 563 0384 17050000 		lla	a0,.LC1
 563      13050500 
 564 038c 97000000 		call	_Z11printStringPKc@plt
 564      E7800000 
 565              	.LVL71:
 566 0394 6F008003 		j	.L35
 567              	.L38:
 105:src/main.cpp  **** 
 106:src/main.cpp  ****     for (; i < 16; i++)
 107:src/main.cpp  ****     {
 108:src/main.cpp  ****         printString("D: i=");
 568              		.loc 1 108 9 is_stmt 1 discriminator 1
 569              		.loc 1 108 20 is_stmt 0 discriminator 1
 570 0398 17050000 		lla	a0,.LC7
 570      13050500 
 571 03a0 97000000 		call	_Z11printStringPKc@plt
 571      E7800000 
 572              	.LVL72:
 109:src/main.cpp  ****         printInteger(i);
 573              		.loc 1 109 9 is_stmt 1 discriminator 1
 574              		.loc 1 109 21 is_stmt 0 discriminator 1
 575 03a8 13850400 		mv	a0,s1
 576 03ac 97000000 		call	_Z12printIntegerm@plt
 576      E7800000 
 577              	.LVL73:
 110:src/main.cpp  ****         printString("\n");
 578              		.loc 1 110 9 is_stmt 1 discriminator 1
 579              		.loc 1 110 20 is_stmt 0 discriminator 1
 580 03b4 17050000 		lla	a0,.LC1
 580      13050500 
 581 03bc 97000000 		call	_Z11printStringPKc@plt
 581      E7800000 
 582              	.LVL74:
 106:src/main.cpp  ****     {
 583              		.loc 1 106 5 is_stmt 1 discriminator 1
 584 03c4 9B841400 		addiw	s1,s1,1
 585              	.LVL75:
 586 03c8 93F4F40F 		andi	s1,s1,0xff
 587              	.LVL76:
 588              	.L35:
 106:src/main.cpp  ****     {
 589              		.loc 1 106 5 discriminator 2
 106:src/main.cpp  ****     {
GAS LISTING /tmp/ccAzxSGZ.s 			page 15


 590              		.loc 1 106 14 discriminator 2
 591 03cc 9307F000 		li	a5,15
 592 03d0 E3F497FC 		bleu	s1,a5,.L38
 111:src/main.cpp  ****     }
 112:src/main.cpp  **** //    TCB::yield();
 113:src/main.cpp  **** }
 593              		.loc 1 113 1 is_stmt 0
 594 03d4 83308101 		ld	ra,24(sp)
 595              		.cfi_restore 1
 596 03d8 03340101 		ld	s0,16(sp)
 597              		.cfi_restore 8
 598              		.cfi_def_cfa 2, 32
 599 03dc 83348100 		ld	s1,8(sp)
 600              		.cfi_restore 9
 601              	.LVL77:
 602 03e0 03390100 		ld	s2,0(sp)
 603              		.cfi_restore 18
 604              	.LVL78:
 605 03e4 13010102 		addi	sp,sp,32
 606              		.cfi_def_cfa_offset 0
 607 03e8 67800000 		jr	ra
 608              		.cfi_endproc
 609              	.LFE32:
 611              		.align	2
 612              		.globl	main
 614              	main:
 615              	.LFB33:
 114:src/main.cpp  **** 
 115:src/main.cpp  **** extern "C" void interrupt();
 116:src/main.cpp  **** int main() {
 616              		.loc 1 116 12 is_stmt 1
 617              		.cfi_startproc
 618 03ec 130101FC 		addi	sp,sp,-64
 619              		.cfi_def_cfa_offset 64
 620 03f0 233C1102 		sd	ra,56(sp)
 621 03f4 23388102 		sd	s0,48(sp)
 622 03f8 23349102 		sd	s1,40(sp)
 623 03fc 23302103 		sd	s2,32(sp)
 624              		.cfi_offset 1, -8
 625              		.cfi_offset 8, -16
 626              		.cfi_offset 9, -24
 627              		.cfi_offset 18, -32
 628 0400 13040104 		addi	s0,sp,64
 629              		.cfi_def_cfa 8, 0
 117:src/main.cpp  ****     asm volatile("csrw stvec, %0" : : "r" (&interrupt));
 630              		.loc 1 117 5
 631              		.loc 1 117 56 is_stmt 0
 632 0404 97070000 		la	a5,interrupt
 632      83B70700 
 633              	#APP
 634              	# 117 "src/main.cpp" 1
 118              	    PCB* main = PCB::createProccess(nullptr, nullptr); // main
 635              		csrw stvec, a5
 636              	# 0 "" 2
 637              		.loc 1 118 5 is_stmt 1
 638              		.loc 1 118 36 is_stmt 0
 639              	#NO_APP
GAS LISTING /tmp/ccAzxSGZ.s 			page 16


 640 0410 93050000 		li	a1,0
 641 0414 13050000 		li	a0,0
 642 0418 97000000 		call	_ZN3PCB14createProccessEPFvvEPv@plt
 642      E7800000 
 643              	.LVL79:
 119:src/main.cpp  ****     PCB::running = main;
 644              		.loc 1 119 5 is_stmt 1
 645              		.loc 1 119 18 is_stmt 0
 646 0420 97070000 		la	a5,_ZN3PCB7runningE
 646      83B70700 
 647 0428 23B0A700 		sd	a0,0(a5)
 120:src/main.cpp  ****     Kernel::ms_sstatus(Kernel::SSTATUS_SIE); // dozvoljavaju se prekidi
 648              		.loc 1 120 5 is_stmt 1
 649              	.LVL80:
 650              	.LBB25:
 651              	.LBB26:
 652              		.file 2 "src/../h/kernel.h"
   1:src/../h/kernel.h **** #ifndef KERNEL_H
   2:src/../h/kernel.h **** #define KERNEL_H
   3:src/../h/kernel.h **** 
   4:src/../h/kernel.h **** #include "hw.h"
   5:src/../h/kernel.h **** 
   6:src/../h/kernel.h **** class Kernel {
   7:src/../h/kernel.h **** public:
   8:src/../h/kernel.h **** 
   9:src/../h/kernel.h ****     // postavlja code u registar a0
  10:src/../h/kernel.h ****     static size_t setCode(size_t code) {
  11:src/../h/kernel.h ****         return code;
  12:src/../h/kernel.h ****     }
  13:src/../h/kernel.h **** 
  14:src/../h/kernel.h ****     // kodovi po kojima se prepoznaju sistemski pozivi
  15:src/../h/kernel.h ****     enum sysCallCodes {
  16:src/../h/kernel.h ****         mem_alloc = 0x01,
  17:src/../h/kernel.h ****         mem_free = 0x02,
  18:src/../h/kernel.h ****         thread_create = 0x11,
  19:src/../h/kernel.h ****         thread_exit = 0x12,
  20:src/../h/kernel.h ****         thread_dispatch = 0x13,
  21:src/../h/kernel.h ****         sem_open = 0x21,
  22:src/../h/kernel.h ****         sem_close = 0x22,
  23:src/../h/kernel.h ****         sem_wait = 0x23,
  24:src/../h/kernel.h ****         sem_signal = 0x24,
  25:src/../h/kernel.h ****         tim_sleep = 0x31,
  26:src/../h/kernel.h ****         getc = 0x41,
  27:src/../h/kernel.h ****         putc = 0x42
  28:src/../h/kernel.h ****     };
  29:src/../h/kernel.h **** 
  30:src/../h/kernel.h ****     // pop sstatus.spp and sstatus.spie bits (has to be a non inline function)
  31:src/../h/kernel.h ****     static void popSppSpie();
  32:src/../h/kernel.h **** 
  33:src/../h/kernel.h ****     // cita registar scause (uzrok nastanka prekida)
  34:src/../h/kernel.h ****     static size_t r_scause() {
  35:src/../h/kernel.h ****         size_t volatile scause;
  36:src/../h/kernel.h ****         __asm__ volatile ("csrr %[scause], scause" : [scause] "=r"(scause));
  37:src/../h/kernel.h ****         return scause;
  38:src/../h/kernel.h ****     }
  39:src/../h/kernel.h **** 
  40:src/../h/kernel.h ****     // upisuje u registar scause (uzrok nastanka prekida)
GAS LISTING /tmp/ccAzxSGZ.s 			page 17


  41:src/../h/kernel.h ****     static void w_scause(size_t scause) {
  42:src/../h/kernel.h ****         __asm__ volatile ("csrw scause, %[scause]" : : [scause] "r"(scause));
  43:src/../h/kernel.h ****     }
  44:src/../h/kernel.h **** 
  45:src/../h/kernel.h ****     // cita registar sepc
  46:src/../h/kernel.h ****     static size_t r_sepc() {
  47:src/../h/kernel.h ****         size_t volatile sepc;
  48:src/../h/kernel.h ****         __asm__ volatile ("csrr %[sepc], sepc" : [sepc] "=r"(sepc));
  49:src/../h/kernel.h ****         return sepc;
  50:src/../h/kernel.h ****     }
  51:src/../h/kernel.h **** 
  52:src/../h/kernel.h ****     // upisuje u registar sepc
  53:src/../h/kernel.h ****     static void w_sepc(size_t sepc) {
  54:src/../h/kernel.h ****         __asm__ volatile ("csrw sepc, %[sepc]" : : [sepc] "r"(sepc));
  55:src/../h/kernel.h ****     }
  56:src/../h/kernel.h **** 
  57:src/../h/kernel.h ****     // read register stvec
  58:src/../h/kernel.h ****     static size_t r_stvec() {
  59:src/../h/kernel.h ****         size_t volatile stvec;
  60:src/../h/kernel.h ****         __asm__ volatile ("csrr %[stvec], stvec" : [stvec] "=r"(stvec));
  61:src/../h/kernel.h ****         return stvec;
  62:src/../h/kernel.h ****     }
  63:src/../h/kernel.h **** 
  64:src/../h/kernel.h ****     // write register stvec
  65:src/../h/kernel.h ****     static void w_stvec(size_t stvec) {
  66:src/../h/kernel.h ****         __asm__ volatile ("csrw stvec, %[stvec]" : : [stvec] "r"(stvec));
  67:src/../h/kernel.h ****     }
  68:src/../h/kernel.h **** 
  69:src/../h/kernel.h ****     // read register stval
  70:src/../h/kernel.h ****     static size_t r_stval() {
  71:src/../h/kernel.h ****         size_t volatile stval;
  72:src/../h/kernel.h ****         __asm__ volatile ("csrr %[stval], stval" : [stval] "=r"(stval));
  73:src/../h/kernel.h ****         return stval;
  74:src/../h/kernel.h ****     }
  75:src/../h/kernel.h **** 
  76:src/../h/kernel.h ****     // write register stval
  77:src/../h/kernel.h ****     static void w_stval(size_t stval) {
  78:src/../h/kernel.h ****         __asm__ volatile ("csrw stval, %[stval]" : : [stval] "r"(stval));
  79:src/../h/kernel.h ****     }
  80:src/../h/kernel.h **** 
  81:src/../h/kernel.h ****     enum BitMaskSip
  82:src/../h/kernel.h ****     {
  83:src/../h/kernel.h ****         SIP_SSIE = (1 << 1), // da li su dozvoljeni softverski prekidi
  84:src/../h/kernel.h ****         SIP_SEIE = (1 << 9), // da li su dozvoljeni spoljasnji hardverski prekidi
  85:src/../h/kernel.h ****     };
  86:src/../h/kernel.h **** 
  87:src/../h/kernel.h ****     // postavljanje odredjenih bitova (BitMaskSip) u registar sip
  88:src/../h/kernel.h ****     static void ms_sip(size_t mask) {
  89:src/../h/kernel.h ****         __asm__ volatile ("csrs sip, %[mask]" : : [mask] "r"(mask));
  90:src/../h/kernel.h ****     }
  91:src/../h/kernel.h **** 
  92:src/../h/kernel.h ****     // brisanje odredjenih bitova (BitMaskSip) iz registra sip
  93:src/../h/kernel.h ****     static void mc_sip(size_t mask) {
  94:src/../h/kernel.h ****         __asm__ volatile ("csrc sip, %[mask]" : : [mask] "r"(mask));
  95:src/../h/kernel.h ****     }
  96:src/../h/kernel.h **** 
  97:src/../h/kernel.h ****     // citanje iz registra sip
GAS LISTING /tmp/ccAzxSGZ.s 			page 18


  98:src/../h/kernel.h ****     static size_t r_sip() {
  99:src/../h/kernel.h ****         size_t volatile sip;
 100:src/../h/kernel.h ****         __asm__ volatile ("csrr %[sip], sip" : [sip] "=r"(sip));
 101:src/../h/kernel.h ****         return sip;
 102:src/../h/kernel.h ****     }
 103:src/../h/kernel.h **** 
 104:src/../h/kernel.h ****     // upis u registar sip
 105:src/../h/kernel.h ****     static void w_sip(size_t sip) {
 106:src/../h/kernel.h ****         __asm__ volatile ("csrw sip, %[sip]" : : [sip] "r"(sip));
 107:src/../h/kernel.h ****     }
 108:src/../h/kernel.h **** 
 109:src/../h/kernel.h ****     enum BitMaskSstatus
 110:src/../h/kernel.h ****     {
 111:src/../h/kernel.h ****         SSTATUS_SIE = (1 << 1),
 112:src/../h/kernel.h ****         SSTATUS_SPIE = (1 << 5),
 113:src/../h/kernel.h ****         SSTATUS_SPP = (1 << 8),
 114:src/../h/kernel.h ****     };
 115:src/../h/kernel.h **** 
 116:src/../h/kernel.h ****     // mask set register sstatus
 117:src/../h/kernel.h ****     static void ms_sstatus(size_t mask) {
 118:src/../h/kernel.h ****         __asm__ volatile ("csrs sstatus, %[mask]" : : [mask] "r"(mask));
 653              		.loc 2 118 9
 654              		.loc 2 118 72 is_stmt 0
 655 042c 93072000 		li	a5,2
 656              	#APP
 657              	# 118 "src/../h/kernel.h" 1
 119              	    }
 658              		csrs sstatus, a5
 659              	# 0 "" 2
 660              	.LVL81:
 661              	#NO_APP
 662              	.LBE26:
 663              	.LBE25:
 121:src/main.cpp  **** 
 122:src/main.cpp  ****     PCB* procesi[4];
 664              		.loc 1 122 5 is_stmt 1
 123:src/main.cpp  ****     using pf = void(*)(void*);
 665              		.loc 1 123 5
 124:src/main.cpp  ****     thread_create(&procesi[0], (pf)workerBodyA, nullptr);
 666              		.loc 1 124 5
 667              		.loc 1 124 18 is_stmt 0
 668 0434 13060000 		li	a2,0
 669 0438 97050000 		lla	a1,_Z11workerBodyAv
 669      93850500 
 670 0440 130504FC 		addi	a0,s0,-64
 671              	.LVL82:
 672 0444 97000000 		call	_Z13thread_createPP3PCBPFvPvES2_@plt
 672      E7800000 
 673              	.LVL83:
 125:src/main.cpp  ****     thread_create(&procesi[1], (pf)workerBodyB, nullptr);
 674              		.loc 1 125 5 is_stmt 1
 675              		.loc 1 125 18 is_stmt 0
 676 044c 13060000 		li	a2,0
 677 0450 97050000 		lla	a1,_Z11workerBodyBv
 677      93850500 
 678 0458 130584FC 		addi	a0,s0,-56
 679 045c 97000000 		call	_Z13thread_createPP3PCBPFvPvES2_@plt
GAS LISTING /tmp/ccAzxSGZ.s 			page 19


 679      E7800000 
 680              	.LVL84:
 126:src/main.cpp  ****     thread_create(&procesi[2], (pf)workerBodyC, nullptr);
 681              		.loc 1 126 5 is_stmt 1
 682              		.loc 1 126 18 is_stmt 0
 683 0464 13060000 		li	a2,0
 684 0468 97050000 		lla	a1,_Z11workerBodyCv
 684      93850500 
 685 0470 130504FD 		addi	a0,s0,-48
 686 0474 97000000 		call	_Z13thread_createPP3PCBPFvPvES2_@plt
 686      E7800000 
 687              	.LVL85:
 127:src/main.cpp  ****     thread_create(&procesi[3], (pf)workerBodyD, nullptr);
 688              		.loc 1 127 5 is_stmt 1
 689              		.loc 1 127 18 is_stmt 0
 690 047c 13060000 		li	a2,0
 691 0480 97050000 		lla	a1,_Z11workerBodyDv
 691      93850500 
 692 0488 130584FD 		addi	a0,s0,-40
 693 048c 97000000 		call	_Z13thread_createPP3PCBPFvPvES2_@plt
 693      E7800000 
 694              	.LVL86:
 695 0494 6F00C000 		j	.L42
 696              	.L40:
 128:src/main.cpp  **** 
 129:src/main.cpp  **** 
 130:src/main.cpp  ****     while(!procesi[0]->isFinished() || !procesi[1]->isFinished() || !procesi[2]->isFinished() || !p
 131:src/main.cpp  ****         PCB::yield();
 697              		.loc 1 131 9 is_stmt 1 discriminator 7
 698              		.loc 1 131 19 is_stmt 0 discriminator 7
 699 0498 97000000 		call	_ZN3PCB5yieldEv@plt
 699      E7800000 
 700              	.LVL87:
 701              	.L42:
 130:src/main.cpp  ****         PCB::yield();
 702              		.loc 1 130 5 is_stmt 1
 130:src/main.cpp  ****         PCB::yield();
 703              		.loc 1 130 95
 130:src/main.cpp  ****         PCB::yield();
 704              		.loc 1 130 21 is_stmt 0
 705 04a0 833704FC 		ld	a5,-64(s0)
 706              	.LVL88:
 707              	.LBB27:
 708              	.LBB28:
 709              		.file 3 "src/../h/PCB.h"
   1:src/../h/PCB.h **** #ifndef PCB_H
   2:src/../h/PCB.h **** #define PCB_H
   3:src/../h/PCB.h **** 
   4:src/../h/PCB.h **** #include "hw.h"
   5:src/../h/PCB.h **** 
   6:src/../h/PCB.h **** extern "C" void interruptHandler();
   7:src/../h/PCB.h **** 
   8:src/../h/PCB.h **** class PCB {
   9:src/../h/PCB.h **** friend class Scheduler;
  10:src/../h/PCB.h **** friend void interruptHandler();
  11:src/../h/PCB.h **** friend class Kernel;
  12:src/../h/PCB.h **** public:
GAS LISTING /tmp/ccAzxSGZ.s 			page 20


  13:src/../h/PCB.h ****     // vraca true ako se proces zavrsio, false ako nije
  14:src/../h/PCB.h ****     bool isFinished() const {
  15:src/../h/PCB.h ****         return finished;
 710              		.loc 3 15 9 is_stmt 1
 711              		.loc 3 15 16 is_stmt 0
 712 04a4 83C78702 		lbu	a5,40(a5)
 713              	.LVL89:
 714              	.LBE28:
 715              	.LBE27:
 130:src/main.cpp  ****         PCB::yield();
 716              		.loc 1 130 95
 717 04a8 E38807FE 		beqz	a5,.L40
 130:src/main.cpp  ****         PCB::yield();
 718              		.loc 1 130 50 discriminator 2
 719 04ac 833784FC 		ld	a5,-56(s0)
 720              	.LVL90:
 721              	.LBB29:
 722              	.LBB30:
 723              		.loc 3 15 9 is_stmt 1 discriminator 2
 724              		.loc 3 15 16 is_stmt 0 discriminator 2
 725 04b0 83C78702 		lbu	a5,40(a5)
 726              	.LVL91:
 727              	.LBE30:
 728              	.LBE29:
 130:src/main.cpp  ****         PCB::yield();
 729              		.loc 1 130 37 discriminator 2
 730 04b4 E38207FE 		beqz	a5,.L40
 130:src/main.cpp  ****         PCB::yield();
 731              		.loc 1 130 79 discriminator 4
 732 04b8 833704FD 		ld	a5,-48(s0)
 733              	.LVL92:
 734              	.LBB31:
 735              	.LBB32:
 736              		.loc 3 15 9 is_stmt 1 discriminator 4
 737              		.loc 3 15 16 is_stmt 0 discriminator 4
 738 04bc 83C78702 		lbu	a5,40(a5)
 739              	.LVL93:
 740              	.LBE32:
 741              	.LBE31:
 130:src/main.cpp  ****         PCB::yield();
 742              		.loc 1 130 66 discriminator 4
 743 04c0 E38C07FC 		beqz	a5,.L40
 130:src/main.cpp  ****         PCB::yield();
 744              		.loc 1 130 108 discriminator 6
 745 04c4 833784FD 		ld	a5,-40(s0)
 746              	.LVL94:
 747              	.LBB33:
 748              	.LBB34:
 749              		.loc 3 15 9 is_stmt 1 discriminator 6
 750              		.loc 3 15 16 is_stmt 0 discriminator 6
 751 04c8 83C78702 		lbu	a5,40(a5)
 752              	.LVL95:
 753              	.LBE34:
 754              	.LBE33:
 130:src/main.cpp  ****         PCB::yield();
 755              		.loc 1 130 95 discriminator 6
 756 04cc E38607FC 		beqz	a5,.L40
GAS LISTING /tmp/ccAzxSGZ.s 			page 21


 757 04d0 930404FC 		addi	s1,s0,-64
 758 04d4 6F008000 		j	.L41
 759              	.LVL96:
 760              	.L44:
 761              	.LBB35:
 132:src/main.cpp  ****     }
 133:src/main.cpp  **** 
 134:src/main.cpp  ****     for(auto& proces : procesi) {
 762              		.loc 1 134 5 is_stmt 1 discriminator 3
 763 04d8 93848400 		addi	s1,s1,8
 764              	.LVL97:
 765              	.L41:
 766              		.loc 1 134 24 discriminator 1
 767 04dc 930704FE 		addi	a5,s0,-32
 768 04e0 6384F402 		beq	s1,a5,.L43
 769              	.LVL98:
 135:src/main.cpp  ****         delete proces;
 770              		.loc 1 135 9 discriminator 2
 771              		.loc 1 135 16 is_stmt 0 discriminator 2
 772 04e4 03B90400 		ld	s2,0(s1)
 773              		.loc 1 135 22 discriminator 2
 774 04e8 E30809FE 		beqz	s2,.L44
 775              		.loc 1 135 16 discriminator 1
 776 04ec 13050900 		mv	a0,s2
 777 04f0 97000000 		call	_ZN3PCBD1Ev@plt
 777      E7800000 
 778              	.LVL99:
 779 04f8 13050900 		mv	a0,s2
 780 04fc 97000000 		call	_ZN3PCBdlEPv@plt
 780      E7800000 
 781              	.LVL100:
 782 0504 6FF05FFD 		j	.L44
 783              	.LVL101:
 784              	.L43:
 785              	.LBE35:
 136:src/main.cpp  ****     }
 137:src/main.cpp  **** 
 138:src/main.cpp  ****     return 0;
 786              		.loc 1 138 5 is_stmt 1
 139:src/main.cpp  **** }
 787              		.loc 1 139 1 is_stmt 0
 788 0508 13050000 		li	a0,0
 789 050c 83308103 		ld	ra,56(sp)
 790              		.cfi_restore 1
 791 0510 03340103 		ld	s0,48(sp)
 792              		.cfi_restore 8
 793              		.cfi_def_cfa 2, 64
 794 0514 83348102 		ld	s1,40(sp)
 795              		.cfi_restore 9
 796              	.LVL102:
 797 0518 03390102 		ld	s2,32(sp)
 798              		.cfi_restore 18
 799 051c 13010104 		addi	sp,sp,64
 800              		.cfi_def_cfa_offset 0
 801 0520 67800000 		jr	ra
 802              		.cfi_endproc
 803              	.LFE33:
GAS LISTING /tmp/ccAzxSGZ.s 			page 22


 805              	.Letext0:
 806              		.file 4 "src/../h/hw.h"
 807              		.file 5 "src/../h/syscall_c.h"
 808              		.file 6 "src/../h/print.h"
GAS LISTING /tmp/ccAzxSGZ.s 			page 23


DEFINED SYMBOLS
                            *ABS*:0000000000000000 main.cpp
     /tmp/ccAzxSGZ.s:17     .text:0000000000000000 _Z11workerBodyAv
     /tmp/ccAzxSGZ.s:21     .text:0000000000000000 .L0 
     /tmp/ccAzxSGZ.s:22     .text:0000000000000000 .L0 
     /tmp/ccAzxSGZ.s:23     .text:0000000000000004 .L0 
     /tmp/ccAzxSGZ.s:27     .text:0000000000000010 .L0 
     /tmp/ccAzxSGZ.s:28     .text:0000000000000010 .L0 
     /tmp/ccAzxSGZ.s:29     .text:0000000000000010 .L0 
     /tmp/ccAzxSGZ.s:31     .text:0000000000000014 .L0 
     /tmp/ccAzxSGZ.s:35     .text:0000000000000014 .L0 
     /tmp/ccAzxSGZ.s:36     .text:0000000000000014 .L0 
     /tmp/ccAzxSGZ.s:43     .text:000000000000001c .L0 
     /tmp/ccAzxSGZ.s:47     .text:0000000000000020 .L0 
     /tmp/ccAzxSGZ.s:52     .text:000000000000002c .L0 
     /tmp/ccAzxSGZ.s:56     .text:0000000000000030 .L0 
     /tmp/ccAzxSGZ.s:60     .text:000000000000003c .L0 
     /tmp/ccAzxSGZ.s:69     .text:0000000000000044 .L0 
     /tmp/ccAzxSGZ.s:73     .text:0000000000000048 .L0 
     /tmp/ccAzxSGZ.s:77     .text:0000000000000050 .L0 
     /tmp/ccAzxSGZ.s:78     .text:0000000000000050 .L0 
     /tmp/ccAzxSGZ.s:82     .text:0000000000000060 .L0 
     /tmp/ccAzxSGZ.s:83     .text:0000000000000060 .L0 
     /tmp/ccAzxSGZ.s:87     .text:000000000000006c .L0 
     /tmp/ccAzxSGZ.s:88     .text:000000000000006c .L0 
     /tmp/ccAzxSGZ.s:93     .text:000000000000007c .L0 
     /tmp/ccAzxSGZ.s:94     .text:000000000000007c .L0 
     /tmp/ccAzxSGZ.s:102    .text:0000000000000084 .L0 
     /tmp/ccAzxSGZ.s:103    .text:0000000000000088 .L0 
     /tmp/ccAzxSGZ.s:105    .text:000000000000008c .L0 
     /tmp/ccAzxSGZ.s:106    .text:000000000000008c .L0 
     /tmp/ccAzxSGZ.s:108    .text:0000000000000090 .L0 
     /tmp/ccAzxSGZ.s:111    .text:0000000000000094 .L0 
     /tmp/ccAzxSGZ.s:113    .text:0000000000000098 .L0 
     /tmp/ccAzxSGZ.s:124    .text:0000000000000098 _Z11workerBodyBv
     /tmp/ccAzxSGZ.s:127    .text:0000000000000098 .L0 
     /tmp/ccAzxSGZ.s:128    .text:0000000000000098 .L0 
     /tmp/ccAzxSGZ.s:129    .text:000000000000009c .L0 
     /tmp/ccAzxSGZ.s:133    .text:00000000000000a8 .L0 
     /tmp/ccAzxSGZ.s:134    .text:00000000000000a8 .L0 
     /tmp/ccAzxSGZ.s:135    .text:00000000000000a8 .L0 
     /tmp/ccAzxSGZ.s:137    .text:00000000000000ac .L0 
     /tmp/ccAzxSGZ.s:141    .text:00000000000000ac .L0 
     /tmp/ccAzxSGZ.s:142    .text:00000000000000ac .L0 
     /tmp/ccAzxSGZ.s:149    .text:00000000000000b4 .L0 
     /tmp/ccAzxSGZ.s:153    .text:00000000000000b8 .L0 
     /tmp/ccAzxSGZ.s:158    .text:00000000000000c4 .L0 
     /tmp/ccAzxSGZ.s:162    .text:00000000000000c8 .L0 
     /tmp/ccAzxSGZ.s:166    .text:00000000000000d4 .L0 
     /tmp/ccAzxSGZ.s:175    .text:00000000000000dc .L0 
     /tmp/ccAzxSGZ.s:179    .text:00000000000000e0 .L0 
     /tmp/ccAzxSGZ.s:183    .text:00000000000000e8 .L0 
     /tmp/ccAzxSGZ.s:184    .text:00000000000000e8 .L0 
     /tmp/ccAzxSGZ.s:188    .text:00000000000000f8 .L0 
     /tmp/ccAzxSGZ.s:189    .text:00000000000000f8 .L0 
     /tmp/ccAzxSGZ.s:193    .text:0000000000000104 .L0 
     /tmp/ccAzxSGZ.s:194    .text:0000000000000104 .L0 
GAS LISTING /tmp/ccAzxSGZ.s 			page 24


     /tmp/ccAzxSGZ.s:199    .text:0000000000000114 .L0 
     /tmp/ccAzxSGZ.s:200    .text:0000000000000114 .L0 
     /tmp/ccAzxSGZ.s:208    .text:000000000000011c .L0 
     /tmp/ccAzxSGZ.s:209    .text:0000000000000120 .L0 
     /tmp/ccAzxSGZ.s:211    .text:0000000000000124 .L0 
     /tmp/ccAzxSGZ.s:212    .text:0000000000000124 .L0 
     /tmp/ccAzxSGZ.s:214    .text:0000000000000128 .L0 
     /tmp/ccAzxSGZ.s:217    .text:000000000000012c .L0 
     /tmp/ccAzxSGZ.s:219    .text:0000000000000130 .L0 
     /tmp/ccAzxSGZ.s:224    .text:0000000000000130 _ZL9fibonaccim
     /tmp/ccAzxSGZ.s:227    .text:0000000000000130 .L0 
     /tmp/ccAzxSGZ.s:229    .text:0000000000000130 .L0 
     /tmp/ccAzxSGZ.s:230    .text:0000000000000134 .L0 
     /tmp/ccAzxSGZ.s:235    .text:0000000000000144 .L0 
     /tmp/ccAzxSGZ.s:236    .text:0000000000000144 .L0 
     /tmp/ccAzxSGZ.s:237    .text:0000000000000144 .L0 
     /tmp/ccAzxSGZ.s:238    .text:0000000000000144 .L0 
     /tmp/ccAzxSGZ.s:240    .text:0000000000000148 .L0 
     /tmp/ccAzxSGZ.s:243    .text:000000000000014c .L0 
     /tmp/ccAzxSGZ.s:246    .text:0000000000000154 .L0 
     /tmp/ccAzxSGZ.s:247    .text:0000000000000154 .L0 
     /tmp/ccAzxSGZ.s:250    .text:000000000000015c .L0 
     /tmp/ccAzxSGZ.s:254    .text:0000000000000160 .L0 
     /tmp/ccAzxSGZ.s:255    .text:0000000000000160 .L0 
     /tmp/ccAzxSGZ.s:260    .text:0000000000000170 .L0 
     /tmp/ccAzxSGZ.s:264    .text:000000000000017c .L0 
     /tmp/ccAzxSGZ.s:267    .text:0000000000000180 .L0 
     /tmp/ccAzxSGZ.s:268    .text:0000000000000184 .L0 
     /tmp/ccAzxSGZ.s:269    .text:0000000000000184 .L0 
     /tmp/ccAzxSGZ.s:271    .text:0000000000000188 .L0 
     /tmp/ccAzxSGZ.s:272    .text:0000000000000188 .L0 
     /tmp/ccAzxSGZ.s:274    .text:000000000000018c .L0 
     /tmp/ccAzxSGZ.s:277    .text:0000000000000190 .L0 
     /tmp/ccAzxSGZ.s:279    .text:0000000000000194 .L0 
     /tmp/ccAzxSGZ.s:283    .text:0000000000000198 .L0 
     /tmp/ccAzxSGZ.s:285    .text:0000000000000198 .L0 
     /tmp/ccAzxSGZ.s:286    .text:0000000000000198 .L0 
     /tmp/ccAzxSGZ.s:289    .text:00000000000001a4 .L0 
     /tmp/ccAzxSGZ.s:309    .text:00000000000001a4 _Z11workerBodyCv
     /tmp/ccAzxSGZ.s:312    .text:00000000000001a4 .L0 
     /tmp/ccAzxSGZ.s:313    .text:00000000000001a4 .L0 
     /tmp/ccAzxSGZ.s:314    .text:00000000000001a8 .L0 
     /tmp/ccAzxSGZ.s:319    .text:00000000000001b8 .L0 
     /tmp/ccAzxSGZ.s:320    .text:00000000000001b8 .L0 
     /tmp/ccAzxSGZ.s:321    .text:00000000000001b8 .L0 
     /tmp/ccAzxSGZ.s:322    .text:00000000000001b8 .L0 
     /tmp/ccAzxSGZ.s:324    .text:00000000000001bc .L0 
     /tmp/ccAzxSGZ.s:327    .text:00000000000001bc .L0 
     /tmp/ccAzxSGZ.s:328    .text:00000000000001bc .L0 
     /tmp/ccAzxSGZ.s:333    .text:00000000000001c4 .L0 
     /tmp/ccAzxSGZ.s:334    .text:00000000000001c4 .L0 
     /tmp/ccAzxSGZ.s:338    .text:00000000000001d4 .L0 
     /tmp/ccAzxSGZ.s:339    .text:00000000000001d4 .L0 
     /tmp/ccAzxSGZ.s:343    .text:00000000000001e0 .L0 
     /tmp/ccAzxSGZ.s:344    .text:00000000000001e0 .L0 
     /tmp/ccAzxSGZ.s:348    .text:00000000000001f0 .L0 
     /tmp/ccAzxSGZ.s:354    .text:00000000000001f8 .L0 
GAS LISTING /tmp/ccAzxSGZ.s 			page 25


     /tmp/ccAzxSGZ.s:355    .text:00000000000001f8 .L0 
     /tmp/ccAzxSGZ.s:358    .text:0000000000000200 .L0 
     /tmp/ccAzxSGZ.s:359    .text:0000000000000200 .L0 
     /tmp/ccAzxSGZ.s:363    .text:0000000000000210 .L0 
        src/main.cpp:63     .text:0000000000000210 .L0 
     /tmp/ccAzxSGZ.s:369    .text:0000000000000214 .L0 
     /tmp/ccAzxSGZ.s:371    .text:0000000000000214 .L0 
     /tmp/ccAzxSGZ.s:374    .text:000000000000021c .L0 
     /tmp/ccAzxSGZ.s:375    .text:000000000000021c .L0 
        src/main.cpp:67     .text:000000000000021c .L0 
     /tmp/ccAzxSGZ.s:382    .text:0000000000000220 .L0 
     /tmp/ccAzxSGZ.s:384    .text:0000000000000220 .L0 
     /tmp/ccAzxSGZ.s:388    .text:0000000000000230 .L0 
     /tmp/ccAzxSGZ.s:389    .text:0000000000000230 .L0 
     /tmp/ccAzxSGZ.s:393    .text:000000000000023c .L0 
     /tmp/ccAzxSGZ.s:394    .text:000000000000023c .L0 
     /tmp/ccAzxSGZ.s:398    .text:000000000000024c .L0 
     /tmp/ccAzxSGZ.s:399    .text:000000000000024c .L0 
     /tmp/ccAzxSGZ.s:405    .text:000000000000025c .L0 
     /tmp/ccAzxSGZ.s:406    .text:000000000000025c .L0 
     /tmp/ccAzxSGZ.s:411    .text:000000000000026c .L0 
     /tmp/ccAzxSGZ.s:412    .text:000000000000026c .L0 
     /tmp/ccAzxSGZ.s:416    .text:0000000000000278 .L0 
     /tmp/ccAzxSGZ.s:417    .text:0000000000000278 .L0 
     /tmp/ccAzxSGZ.s:423    .text:000000000000028c .L0 
     /tmp/ccAzxSGZ.s:424    .text:000000000000028c .L0 
     /tmp/ccAzxSGZ.s:428    .text:000000000000029c .L0 
     /tmp/ccAzxSGZ.s:429    .text:000000000000029c .L0 
     /tmp/ccAzxSGZ.s:433    .text:00000000000002a8 .L0 
     /tmp/ccAzxSGZ.s:434    .text:00000000000002a8 .L0 
     /tmp/ccAzxSGZ.s:438    .text:00000000000002b8 .L0 
     /tmp/ccAzxSGZ.s:444    .text:00000000000002c0 .L0 
     /tmp/ccAzxSGZ.s:445    .text:00000000000002c0 .L0 
     /tmp/ccAzxSGZ.s:448    .text:00000000000002c8 .L0 
     /tmp/ccAzxSGZ.s:449    .text:00000000000002cc .L0 
     /tmp/ccAzxSGZ.s:451    .text:00000000000002d0 .L0 
     /tmp/ccAzxSGZ.s:452    .text:00000000000002d0 .L0 
     /tmp/ccAzxSGZ.s:454    .text:00000000000002d4 .L0 
     /tmp/ccAzxSGZ.s:457    .text:00000000000002d8 .L0 
     /tmp/ccAzxSGZ.s:460    .text:00000000000002dc .L0 
     /tmp/ccAzxSGZ.s:462    .text:00000000000002e0 .L0 
     /tmp/ccAzxSGZ.s:479    .text:00000000000002e0 _Z11workerBodyDv
     /tmp/ccAzxSGZ.s:482    .text:00000000000002e0 .L0 
     /tmp/ccAzxSGZ.s:483    .text:00000000000002e0 .L0 
     /tmp/ccAzxSGZ.s:484    .text:00000000000002e4 .L0 
     /tmp/ccAzxSGZ.s:489    .text:00000000000002f4 .L0 
     /tmp/ccAzxSGZ.s:490    .text:00000000000002f4 .L0 
     /tmp/ccAzxSGZ.s:491    .text:00000000000002f4 .L0 
     /tmp/ccAzxSGZ.s:492    .text:00000000000002f4 .L0 
     /tmp/ccAzxSGZ.s:494    .text:00000000000002f8 .L0 
     /tmp/ccAzxSGZ.s:497    .text:00000000000002f8 .L0 
     /tmp/ccAzxSGZ.s:498    .text:00000000000002f8 .L0 
     /tmp/ccAzxSGZ.s:503    .text:0000000000000300 .L0 
     /tmp/ccAzxSGZ.s:504    .text:0000000000000300 .L0 
     /tmp/ccAzxSGZ.s:508    .text:0000000000000310 .L0 
     /tmp/ccAzxSGZ.s:509    .text:0000000000000310 .L0 
     /tmp/ccAzxSGZ.s:513    .text:000000000000031c .L0 
GAS LISTING /tmp/ccAzxSGZ.s 			page 26


     /tmp/ccAzxSGZ.s:514    .text:000000000000031c .L0 
     /tmp/ccAzxSGZ.s:518    .text:000000000000032c .L0 
     /tmp/ccAzxSGZ.s:524    .text:0000000000000334 .L0 
     /tmp/ccAzxSGZ.s:525    .text:0000000000000334 .L0 
     /tmp/ccAzxSGZ.s:528    .text:000000000000033c .L0 
     /tmp/ccAzxSGZ.s:529    .text:000000000000033c .L0 
     /tmp/ccAzxSGZ.s:533    .text:000000000000034c .L0 
        src/main.cpp:98     .text:000000000000034c .L0 
     /tmp/ccAzxSGZ.s:539    .text:0000000000000350 .L0 
     /tmp/ccAzxSGZ.s:541    .text:0000000000000350 .L0 
     /tmp/ccAzxSGZ.s:544    .text:0000000000000358 .L0 
     /tmp/ccAzxSGZ.s:545    .text:0000000000000358 .L0 
     /tmp/ccAzxSGZ.s:551    .text:0000000000000368 .L0 
     /tmp/ccAzxSGZ.s:552    .text:0000000000000368 .L0 
     /tmp/ccAzxSGZ.s:557    .text:0000000000000378 .L0 
     /tmp/ccAzxSGZ.s:558    .text:0000000000000378 .L0 
     /tmp/ccAzxSGZ.s:562    .text:0000000000000384 .L0 
     /tmp/ccAzxSGZ.s:563    .text:0000000000000384 .L0 
     /tmp/ccAzxSGZ.s:569    .text:0000000000000398 .L0 
     /tmp/ccAzxSGZ.s:570    .text:0000000000000398 .L0 
     /tmp/ccAzxSGZ.s:574    .text:00000000000003a8 .L0 
     /tmp/ccAzxSGZ.s:575    .text:00000000000003a8 .L0 
     /tmp/ccAzxSGZ.s:579    .text:00000000000003b4 .L0 
     /tmp/ccAzxSGZ.s:580    .text:00000000000003b4 .L0 
     /tmp/ccAzxSGZ.s:584    .text:00000000000003c4 .L0 
     /tmp/ccAzxSGZ.s:590    .text:00000000000003cc .L0 
     /tmp/ccAzxSGZ.s:591    .text:00000000000003cc .L0 
     /tmp/ccAzxSGZ.s:594    .text:00000000000003d4 .L0 
     /tmp/ccAzxSGZ.s:595    .text:00000000000003d8 .L0 
     /tmp/ccAzxSGZ.s:597    .text:00000000000003dc .L0 
     /tmp/ccAzxSGZ.s:598    .text:00000000000003dc .L0 
     /tmp/ccAzxSGZ.s:600    .text:00000000000003e0 .L0 
     /tmp/ccAzxSGZ.s:603    .text:00000000000003e4 .L0 
     /tmp/ccAzxSGZ.s:606    .text:00000000000003e8 .L0 
     /tmp/ccAzxSGZ.s:608    .text:00000000000003ec .L0 
     /tmp/ccAzxSGZ.s:614    .text:00000000000003ec main
     /tmp/ccAzxSGZ.s:617    .text:00000000000003ec .L0 
     /tmp/ccAzxSGZ.s:618    .text:00000000000003ec .L0 
     /tmp/ccAzxSGZ.s:619    .text:00000000000003f0 .L0 
     /tmp/ccAzxSGZ.s:624    .text:0000000000000400 .L0 
     /tmp/ccAzxSGZ.s:625    .text:0000000000000400 .L0 
     /tmp/ccAzxSGZ.s:626    .text:0000000000000400 .L0 
     /tmp/ccAzxSGZ.s:627    .text:0000000000000400 .L0 
     /tmp/ccAzxSGZ.s:629    .text:0000000000000404 .L0 
     /tmp/ccAzxSGZ.s:631    .text:0000000000000404 .L0 
     /tmp/ccAzxSGZ.s:632    .text:0000000000000404 .L0 
     /tmp/ccAzxSGZ.s:638    .text:0000000000000410 .L0 
     /tmp/ccAzxSGZ.s:640    .text:0000000000000410 .L0 
     /tmp/ccAzxSGZ.s:645    .text:0000000000000420 .L0 
     /tmp/ccAzxSGZ.s:646    .text:0000000000000420 .L0 
     /tmp/ccAzxSGZ.s:653    .text:000000000000042c .L0 
     /tmp/ccAzxSGZ.s:654    .text:000000000000042c .L0 
     /tmp/ccAzxSGZ.s:655    .text:000000000000042c .L0 
     /tmp/ccAzxSGZ.s:665    .text:0000000000000434 .L0 
     /tmp/ccAzxSGZ.s:666    .text:0000000000000434 .L0 
     /tmp/ccAzxSGZ.s:667    .text:0000000000000434 .L0 
     /tmp/ccAzxSGZ.s:668    .text:0000000000000434 .L0 
GAS LISTING /tmp/ccAzxSGZ.s 			page 27


     /tmp/ccAzxSGZ.s:675    .text:000000000000044c .L0 
     /tmp/ccAzxSGZ.s:676    .text:000000000000044c .L0 
     /tmp/ccAzxSGZ.s:682    .text:0000000000000464 .L0 
     /tmp/ccAzxSGZ.s:683    .text:0000000000000464 .L0 
     /tmp/ccAzxSGZ.s:689    .text:000000000000047c .L0 
     /tmp/ccAzxSGZ.s:690    .text:000000000000047c .L0 
     /tmp/ccAzxSGZ.s:698    .text:0000000000000498 .L0 
     /tmp/ccAzxSGZ.s:699    .text:0000000000000498 .L0 
     /tmp/ccAzxSGZ.s:703    .text:00000000000004a0 .L0 
     /tmp/ccAzxSGZ.s:704    .text:00000000000004a0 .L0 
     /tmp/ccAzxSGZ.s:705    .text:00000000000004a0 .L0 
     /tmp/ccAzxSGZ.s:711    .text:00000000000004a4 .L0 
     /tmp/ccAzxSGZ.s:712    .text:00000000000004a4 .L0 
     /tmp/ccAzxSGZ.s:717    .text:00000000000004a8 .L0 
     /tmp/ccAzxSGZ.s:719    .text:00000000000004ac .L0 
     /tmp/ccAzxSGZ.s:724    .text:00000000000004b0 .L0 
     /tmp/ccAzxSGZ.s:725    .text:00000000000004b0 .L0 
     /tmp/ccAzxSGZ.s:730    .text:00000000000004b4 .L0 
     /tmp/ccAzxSGZ.s:732    .text:00000000000004b8 .L0 
     /tmp/ccAzxSGZ.s:737    .text:00000000000004bc .L0 
     /tmp/ccAzxSGZ.s:738    .text:00000000000004bc .L0 
     /tmp/ccAzxSGZ.s:743    .text:00000000000004c0 .L0 
     /tmp/ccAzxSGZ.s:745    .text:00000000000004c4 .L0 
     /tmp/ccAzxSGZ.s:750    .text:00000000000004c8 .L0 
     /tmp/ccAzxSGZ.s:751    .text:00000000000004c8 .L0 
     /tmp/ccAzxSGZ.s:756    .text:00000000000004cc .L0 
     /tmp/ccAzxSGZ.s:763    .text:00000000000004d8 .L0 
     /tmp/ccAzxSGZ.s:767    .text:00000000000004dc .L0 
     /tmp/ccAzxSGZ.s:771    .text:00000000000004e4 .L0 
     /tmp/ccAzxSGZ.s:772    .text:00000000000004e4 .L0 
     /tmp/ccAzxSGZ.s:774    .text:00000000000004e8 .L0 
     /tmp/ccAzxSGZ.s:776    .text:00000000000004ec .L0 
     /tmp/ccAzxSGZ.s:787    .text:0000000000000508 .L0 
     /tmp/ccAzxSGZ.s:788    .text:0000000000000508 .L0 
     /tmp/ccAzxSGZ.s:790    .text:0000000000000510 .L0 
     /tmp/ccAzxSGZ.s:792    .text:0000000000000514 .L0 
     /tmp/ccAzxSGZ.s:793    .text:0000000000000514 .L0 
     /tmp/ccAzxSGZ.s:795    .text:0000000000000518 .L0 
     /tmp/ccAzxSGZ.s:798    .text:000000000000051c .L0 
     /tmp/ccAzxSGZ.s:800    .text:0000000000000520 .L0 
     /tmp/ccAzxSGZ.s:802    .text:0000000000000524 .L0 
     /tmp/ccAzxSGZ.s:809    .text:0000000000000524 .L0 
     /tmp/ccAzxSGZ.s:8      .rodata.str1.8:0000000000000000 .LC0
     /tmp/ccAzxSGZ.s:78     .text:0000000000000050 .L0 
     /tmp/ccAzxSGZ.s:11     .rodata.str1.8:0000000000000008 .LC1
     /tmp/ccAzxSGZ.s:88     .text:000000000000006c .L0 
     /tmp/ccAzxSGZ.s:118    .rodata.str1.8:0000000000000010 .LC2
     /tmp/ccAzxSGZ.s:184    .text:00000000000000e8 .L0 
     /tmp/ccAzxSGZ.s:194    .text:0000000000000104 .L0 
     /tmp/ccAzxSGZ.s:294    .rodata.str1.8:0000000000000018 .LC3
     /tmp/ccAzxSGZ.s:334    .text:00000000000001c4 .L0 
     /tmp/ccAzxSGZ.s:344    .text:00000000000001e0 .L0 
     /tmp/ccAzxSGZ.s:297    .rodata.str1.8:0000000000000020 .LC4
     /tmp/ccAzxSGZ.s:359    .text:0000000000000200 .L0 
     /tmp/ccAzxSGZ.s:300    .rodata.str1.8:0000000000000030 .LC5
     /tmp/ccAzxSGZ.s:384    .text:0000000000000220 .L0 
     /tmp/ccAzxSGZ.s:394    .text:000000000000023c .L0 
GAS LISTING /tmp/ccAzxSGZ.s 			page 28


     /tmp/ccAzxSGZ.s:303    .rodata.str1.8:0000000000000038 .LC6
     /tmp/ccAzxSGZ.s:406    .text:000000000000025c .L0 
     /tmp/ccAzxSGZ.s:417    .text:0000000000000278 .L0 
     /tmp/ccAzxSGZ.s:424    .text:000000000000028c .L0 
     /tmp/ccAzxSGZ.s:434    .text:00000000000002a8 .L0 
     /tmp/ccAzxSGZ.s:467    .rodata.str1.8:0000000000000048 .LC7
     /tmp/ccAzxSGZ.s:504    .text:0000000000000300 .L0 
     /tmp/ccAzxSGZ.s:514    .text:000000000000031c .L0 
     /tmp/ccAzxSGZ.s:470    .rodata.str1.8:0000000000000050 .LC8
     /tmp/ccAzxSGZ.s:529    .text:000000000000033c .L0 
     /tmp/ccAzxSGZ.s:473    .rodata.str1.8:0000000000000060 .LC9
     /tmp/ccAzxSGZ.s:552    .text:0000000000000368 .L0 
     /tmp/ccAzxSGZ.s:563    .text:0000000000000384 .L0 
     /tmp/ccAzxSGZ.s:570    .text:0000000000000398 .L0 
     /tmp/ccAzxSGZ.s:580    .text:00000000000003b4 .L0 
     /tmp/ccAzxSGZ.s:632    .text:0000000000000404 .L0 
     /tmp/ccAzxSGZ.s:646    .text:0000000000000420 .L0 
     /tmp/ccAzxSGZ.s:669    .text:0000000000000438 .L0 
     /tmp/ccAzxSGZ.s:677    .text:0000000000000450 .L0 
     /tmp/ccAzxSGZ.s:684    .text:0000000000000468 .L0 
     /tmp/ccAzxSGZ.s:691    .text:0000000000000480 .L0 
     /tmp/ccAzxSGZ.s:71     .text:0000000000000048 .L7
     /tmp/ccAzxSGZ.s:64     .text:0000000000000044 .L3
     /tmp/ccAzxSGZ.s:39     .text:000000000000001c .L4
     /tmp/ccAzxSGZ.s:53     .text:0000000000000030 .L5
     /tmp/ccAzxSGZ.s:97     .text:0000000000000084 .L1
     /tmp/ccAzxSGZ.s:45     .text:0000000000000020 .L6
     /tmp/ccAzxSGZ.s:177    .text:00000000000000e0 .L15
     /tmp/ccAzxSGZ.s:170    .text:00000000000000dc .L11
     /tmp/ccAzxSGZ.s:145    .text:00000000000000b4 .L12
     /tmp/ccAzxSGZ.s:159    .text:00000000000000c8 .L13
     /tmp/ccAzxSGZ.s:203    .text:000000000000011c .L9
     /tmp/ccAzxSGZ.s:151    .text:00000000000000b8 .L14
     /tmp/ccAzxSGZ.s:265    .text:0000000000000180 .L17
     /tmp/ccAzxSGZ.s:282    .text:0000000000000198 .L22
     /tmp/ccAzxSGZ.s:252    .text:0000000000000160 .L19
     /tmp/ccAzxSGZ.s:352    .text:00000000000001f8 .L25
     /tmp/ccAzxSGZ.s:331    .text:00000000000001c4 .L29
     /tmp/ccAzxSGZ.s:442    .text:00000000000002c0 .L27
     /tmp/ccAzxSGZ.s:421    .text:000000000000028c .L30
     /tmp/ccAzxSGZ.s:522    .text:0000000000000334 .L33
     /tmp/ccAzxSGZ.s:501    .text:0000000000000300 .L37
     /tmp/ccAzxSGZ.s:588    .text:00000000000003cc .L35
     /tmp/ccAzxSGZ.s:567    .text:0000000000000398 .L38
     /tmp/ccAzxSGZ.s:701    .text:00000000000004a0 .L42
     /tmp/ccAzxSGZ.s:696    .text:0000000000000498 .L40
     /tmp/ccAzxSGZ.s:765    .text:00000000000004dc .L41
     /tmp/ccAzxSGZ.s:784    .text:0000000000000508 .L43
     /tmp/ccAzxSGZ.s:760    .text:00000000000004d8 .L44
     /tmp/ccAzxSGZ.s:2237   .debug_abbrev:0000000000000000 .Ldebug_abbrev0
     /tmp/ccAzxSGZ.s:3641   .debug_str:0000000000000624 .LASF110
     /tmp/ccAzxSGZ.s:3525   .debug_str:00000000000002c8 .LASF111
     /tmp/ccAzxSGZ.s:3623   .debug_str:0000000000000587 .LASF112
     /tmp/ccAzxSGZ.s:5      .text:0000000000000000 .Ltext0
     /tmp/ccAzxSGZ.s:805    .text:0000000000000524 .Letext0
     /tmp/ccAzxSGZ.s:3419   .debug_line:0000000000000000 .Ldebug_line0
     /tmp/ccAzxSGZ.s:3555   .debug_str:00000000000003b2 .LASF0
GAS LISTING /tmp/ccAzxSGZ.s 			page 29


     /tmp/ccAzxSGZ.s:3571   .debug_str:000000000000041e .LASF1
     /tmp/ccAzxSGZ.s:3537   .debug_str:0000000000000338 .LASF2
     /tmp/ccAzxSGZ.s:3483   .debug_str:00000000000001a8 .LASF3
     /tmp/ccAzxSGZ.s:3447   .debug_str:00000000000000a4 .LASF4
     /tmp/ccAzxSGZ.s:3605   .debug_str:0000000000000526 .LASF5
     /tmp/ccAzxSGZ.s:3573   .debug_str:0000000000000431 .LASF6
     /tmp/ccAzxSGZ.s:3553   .debug_str:000000000000039f .LASF7
     /tmp/ccAzxSGZ.s:3633   .debug_str:00000000000005e3 .LASF8
     /tmp/ccAzxSGZ.s:3503   .debug_str:000000000000021c .LASF9
     /tmp/ccAzxSGZ.s:3583   .debug_str:0000000000000477 .LASF10
     /tmp/ccAzxSGZ.s:3625   .debug_str:00000000000005a5 .LASF11
     /tmp/ccAzxSGZ.s:3451   .debug_str:00000000000000b7 .LASF12
     /tmp/ccAzxSGZ.s:3429   .debug_str:0000000000000028 .LASF13
     /tmp/ccAzxSGZ.s:3459   .debug_str:00000000000000eb .LASF14
     /tmp/ccAzxSGZ.s:3601   .debug_str:000000000000050a .LASF15
     /tmp/ccAzxSGZ.s:3469   .debug_str:0000000000000133 .LASF16
     /tmp/ccAzxSGZ.s:3493   .debug_str:00000000000001e9 .LASF17
     /tmp/ccAzxSGZ.s:3575   .debug_str:0000000000000444 .LASF89
     /tmp/ccAzxSGZ.s:3577   .debug_str:000000000000044f .LASF95
     /tmp/ccAzxSGZ.s:3539   .debug_str:0000000000000346 .LASF18
     /tmp/ccAzxSGZ.s:3433   .debug_str:0000000000000041 .LASF20
     /tmp/ccAzxSGZ.s:3497   .debug_str:00000000000001f6 .LASF19
     /tmp/ccAzxSGZ.s:3653   .debug_str:0000000000000709 .LASF21
     /tmp/ccAzxSGZ.s:3581   .debug_str:000000000000046b .LASF113
     /tmp/ccAzxSGZ.s:3603   .debug_str:0000000000000520 .LASF50
     /tmp/ccAzxSGZ.s:3637   .debug_str:00000000000005fd .LASF52
     /tmp/ccAzxSGZ.s:3487   .debug_str:00000000000001b7 .LASF114
     /tmp/ccAzxSGZ.s:3597   .debug_str:00000000000004fa .LASF22
     /tmp/ccAzxSGZ.s:3547   .debug_str:0000000000000373 .LASF23
     /tmp/ccAzxSGZ.s:3645   .debug_str:00000000000006e4 .LASF24
     /tmp/ccAzxSGZ.s:3513   .debug_str:000000000000026b .LASF25
     /tmp/ccAzxSGZ.s:3611   .debug_str:0000000000000546 .LASF26
     /tmp/ccAzxSGZ.s:3615   .debug_str:000000000000055d .LASF59
     /tmp/ccAzxSGZ.s:3455   .debug_str:00000000000000d6 .LASF54
     /tmp/ccAzxSGZ.s:3477   .debug_str:0000000000000176 .LASF56
     /tmp/ccAzxSGZ.s:3435   .debug_str:0000000000000058 .LASF115
     /tmp/ccAzxSGZ.s:3657   .debug_str:000000000000073c .LASF27
     /tmp/ccAzxSGZ.s:3559   .debug_str:00000000000003c8 .LASF28
     /tmp/ccAzxSGZ.s:3629   .debug_str:00000000000005c6 .LASF29
     /tmp/ccAzxSGZ.s:3461   .debug_str:00000000000000f7 .LASF30
     /tmp/ccAzxSGZ.s:3579   .debug_str:0000000000000466 .LASF31
     /tmp/ccAzxSGZ.s:3517   .debug_str:000000000000028b .LASF32
     /tmp/ccAzxSGZ.s:3479   .debug_str:000000000000018c .LASF33
     /tmp/ccAzxSGZ.s:3565   .debug_str:00000000000003f8 .LASF34
     /tmp/ccAzxSGZ.s:3511   .debug_str:000000000000025a .LASF116
     /tmp/ccAzxSGZ.s:3557   .debug_str:00000000000003bf .LASF40
     /tmp/ccAzxSGZ.s:3507   .debug_str:000000000000023f .LASF42
     /tmp/ccAzxSGZ.s:3445   .debug_str:0000000000000095 .LASF35
     /tmp/ccAzxSGZ.s:3643   .debug_str:00000000000006c6 .LASF37
     /tmp/ccAzxSGZ.s:3453   .debug_str:00000000000000c7 .LASF36
     /tmp/ccAzxSGZ.s:3531   .debug_str:00000000000002ec .LASF38
     /tmp/ccAzxSGZ.s:3543   .debug_str:000000000000035c .LASF39
     /tmp/ccAzxSGZ.s:3463   .debug_str:0000000000000101 .LASF41
     /tmp/ccAzxSGZ.s:3591   .debug_str:00000000000004b2 .LASF43
     /tmp/ccAzxSGZ.s:3647   .debug_str:00000000000006f1 .LASF44
     /tmp/ccAzxSGZ.s:3471   .debug_str:0000000000000149 .LASF117
     /tmp/ccAzxSGZ.s:3465   .debug_str:0000000000000111 .LASF45
GAS LISTING /tmp/ccAzxSGZ.s 			page 30


     /tmp/ccAzxSGZ.s:3529   .debug_str:00000000000002df .LASF46
     /tmp/ccAzxSGZ.s:3449   .debug_str:00000000000000ab .LASF47
     /tmp/ccAzxSGZ.s:3423   .debug_str:0000000000000008 .LASF48
     /tmp/ccAzxSGZ.s:3489   .debug_str:00000000000001bf .LASF49
     /tmp/ccAzxSGZ.s:3599   .debug_str:00000000000004ff .LASF51
     /tmp/ccAzxSGZ.s:3587   .debug_str:0000000000000492 .LASF53
     /tmp/ccAzxSGZ.s:3431   .debug_str:0000000000000038 .LASF55
     /tmp/ccAzxSGZ.s:3475   .debug_str:0000000000000160 .LASF57
     /tmp/ccAzxSGZ.s:3485   .debug_str:00000000000001ae .LASF58
     /tmp/ccAzxSGZ.s:3467   .debug_str:000000000000011d .LASF60
     /tmp/ccAzxSGZ.s:3609   .debug_str:000000000000053f .LASF61
     /tmp/ccAzxSGZ.s:3551   .debug_str:000000000000038b .LASF62
     /tmp/ccAzxSGZ.s:3613   .debug_str:0000000000000556 .LASF63
     /tmp/ccAzxSGZ.s:3515   .debug_str:0000000000000277 .LASF64
     /tmp/ccAzxSGZ.s:3495   .debug_str:00000000000001ee .LASF65
     /tmp/ccAzxSGZ.s:3491   .debug_str:00000000000001d4 .LASF66
     /tmp/ccAzxSGZ.s:3421   .debug_str:0000000000000000 .LASF67
     /tmp/ccAzxSGZ.s:3523   .debug_str:00000000000002b3 .LASF68
     /tmp/ccAzxSGZ.s:3509   .debug_str:0000000000000252 .LASF69
     /tmp/ccAzxSGZ.s:3533   .debug_str:000000000000030a .LASF70
     /tmp/ccAzxSGZ.s:3661   .debug_str:0000000000000751 .LASF71
     /tmp/ccAzxSGZ.s:3505   .debug_str:000000000000022a .LASF72
     /tmp/ccAzxSGZ.s:3589   .debug_str:00000000000004ab .LASF73
     /tmp/ccAzxSGZ.s:3631   .debug_str:00000000000005cf .LASF74
     /tmp/ccAzxSGZ.s:3439   .debug_str:0000000000000071 .LASF75
     /tmp/ccAzxSGZ.s:3595   .debug_str:00000000000004e6 .LASF76
     /tmp/ccAzxSGZ.s:3499   .debug_str:0000000000000205 .LASF77
     /tmp/ccAzxSGZ.s:3561   .debug_str:00000000000003ce .LASF78
     /tmp/ccAzxSGZ.s:3437   .debug_str:000000000000006b .LASF79
     /tmp/ccAzxSGZ.s:3519   .debug_str:0000000000000294 .LASF80
     /tmp/ccAzxSGZ.s:3659   .debug_str:0000000000000746 .LASF81
     /tmp/ccAzxSGZ.s:3535   .debug_str:000000000000031f .LASF82
     /tmp/ccAzxSGZ.s:3569   .debug_str:0000000000000413 .LASF83
     /tmp/ccAzxSGZ.s:3593   .debug_str:00000000000004cd .LASF84
     /tmp/ccAzxSGZ.s:3457   .debug_str:00000000000000e1 .LASF85
     /tmp/ccAzxSGZ.s:3639   .debug_str:000000000000060d .LASF86
     /tmp/ccAzxSGZ.s:3541   .debug_str:0000000000000352 .LASF87
     /tmp/ccAzxSGZ.s:3563   .debug_str:00000000000003e1 .LASF88
     /tmp/ccAzxSGZ.s:615    .text:00000000000003ec .LFB33
     /tmp/ccAzxSGZ.s:803    .text:0000000000000524 .LFE33
     /tmp/ccAzxSGZ.s:3169   .debug_loc:0000000000000000 .LLST12
     /tmp/ccAzxSGZ.s:3473   .debug_str:0000000000000158 .LASF90
     /tmp/ccAzxSGZ.s:761    .text:00000000000004d8 .LBB35
     /tmp/ccAzxSGZ.s:785    .text:0000000000000508 .LBE35
     /tmp/ccAzxSGZ.s:3619   .debug_str:000000000000057b .LASF91
     /tmp/ccAzxSGZ.s:3176   .debug_loc:0000000000000023 .LLST18
     /tmp/ccAzxSGZ.s:3649   .debug_str:00000000000006f8 .LASF92
     /tmp/ccAzxSGZ.s:3585   .debug_str:0000000000000486 .LASF118
     /tmp/ccAzxSGZ.s:3187   .debug_loc:0000000000000059 .LLST19
     /tmp/ccAzxSGZ.s:3527   .debug_str:00000000000002d5 .LASF93
     /tmp/ccAzxSGZ.s:778    .text:00000000000004f8 .LVL99
     /tmp/ccAzxSGZ.s:781    .text:0000000000000504 .LVL100
     /tmp/ccAzxSGZ.s:650    .text:000000000000042c .LBB25
     /tmp/ccAzxSGZ.s:663    .text:0000000000000434 .LBE25
     /tmp/ccAzxSGZ.s:3194   .debug_loc:000000000000007c .LLST13
     /tmp/ccAzxSGZ.s:707    .text:00000000000004a4 .LBB27
     /tmp/ccAzxSGZ.s:715    .text:00000000000004a8 .LBE27
GAS LISTING /tmp/ccAzxSGZ.s 			page 31


     /tmp/ccAzxSGZ.s:3202   .debug_loc:00000000000000a0 .LLST14
     /tmp/ccAzxSGZ.s:721    .text:00000000000004b0 .LBB29
     /tmp/ccAzxSGZ.s:728    .text:00000000000004b4 .LBE29
     /tmp/ccAzxSGZ.s:3209   .debug_loc:00000000000000c3 .LLST15
     /tmp/ccAzxSGZ.s:734    .text:00000000000004bc .LBB31
     /tmp/ccAzxSGZ.s:741    .text:00000000000004c0 .LBE31
     /tmp/ccAzxSGZ.s:3216   .debug_loc:00000000000000e6 .LLST16
     /tmp/ccAzxSGZ.s:747    .text:00000000000004c8 .LBB33
     /tmp/ccAzxSGZ.s:754    .text:00000000000004cc .LBE33
     /tmp/ccAzxSGZ.s:3223   .debug_loc:0000000000000109 .LLST17
     /tmp/ccAzxSGZ.s:643    .text:0000000000000420 .LVL79
     /tmp/ccAzxSGZ.s:673    .text:000000000000044c .LVL83
     /tmp/ccAzxSGZ.s:680    .text:0000000000000464 .LVL84
     /tmp/ccAzxSGZ.s:687    .text:000000000000047c .LVL85
     /tmp/ccAzxSGZ.s:694    .text:0000000000000494 .LVL86
     /tmp/ccAzxSGZ.s:700    .text:00000000000004a0 .LVL87
     /tmp/ccAzxSGZ.s:3443   .debug_str:0000000000000089 .LASF94
     /tmp/ccAzxSGZ.s:3567   .debug_str:0000000000000402 .LASF96
     /tmp/ccAzxSGZ.s:480    .text:00000000000002e0 .LFB32
     /tmp/ccAzxSGZ.s:609    .text:00000000000003ec .LFE32
     /tmp/ccAzxSGZ.s:3230   .debug_loc:000000000000012c .LLST10
     /tmp/ccAzxSGZ.s:3607   .debug_str:0000000000000538 .LASF97
     /tmp/ccAzxSGZ.s:3250   .debug_loc:0000000000000189 .LLST11
     /tmp/ccAzxSGZ.s:506    .text:0000000000000310 .LVL59
     /tmp/ccAzxSGZ.s:511    .text:000000000000031c .LVL60
     /tmp/ccAzxSGZ.s:516    .text:000000000000032c .LVL61
     /tmp/ccAzxSGZ.s:531    .text:000000000000034c .LVL64
     /tmp/ccAzxSGZ.s:542    .text:0000000000000358 .LVL65
     /tmp/ccAzxSGZ.s:547    .text:0000000000000364 .LVL66
     /tmp/ccAzxSGZ.s:555    .text:0000000000000378 .LVL69
     /tmp/ccAzxSGZ.s:560    .text:0000000000000384 .LVL70
     /tmp/ccAzxSGZ.s:565    .text:0000000000000394 .LVL71
     /tmp/ccAzxSGZ.s:572    .text:00000000000003a8 .LVL72
     /tmp/ccAzxSGZ.s:577    .text:00000000000003b4 .LVL73
     /tmp/ccAzxSGZ.s:582    .text:00000000000003c4 .LVL74
     /tmp/ccAzxSGZ.s:3427   .debug_str:000000000000001c .LASF98
     /tmp/ccAzxSGZ.s:3501   .debug_str:000000000000020b .LASF99
     /tmp/ccAzxSGZ.s:310    .text:00000000000001a4 .LFB31
     /tmp/ccAzxSGZ.s:463    .text:00000000000002e0 .LFE31
     /tmp/ccAzxSGZ.s:3261   .debug_loc:00000000000001bf .LLST7
     /tmp/ccAzxSGZ.s:3281   .debug_loc:000000000000021c .LLST8
     /tmp/ccAzxSGZ.s:3289   .debug_loc:0000000000000240 .LLST9
     /tmp/ccAzxSGZ.s:336    .text:00000000000001d4 .LVL33
     /tmp/ccAzxSGZ.s:341    .text:00000000000001e0 .LVL34
     /tmp/ccAzxSGZ.s:346    .text:00000000000001f0 .LVL35
     /tmp/ccAzxSGZ.s:361    .text:0000000000000210 .LVL38
     /tmp/ccAzxSGZ.s:372    .text:000000000000021c .LVL39
     /tmp/ccAzxSGZ.s:386    .text:0000000000000230 .LVL41
     /tmp/ccAzxSGZ.s:391    .text:000000000000023c .LVL42
     /tmp/ccAzxSGZ.s:396    .text:000000000000024c .LVL43
     /tmp/ccAzxSGZ.s:401    .text:0000000000000258 .LVL44
     /tmp/ccAzxSGZ.s:409    .text:000000000000026c .LVL47
     /tmp/ccAzxSGZ.s:414    .text:0000000000000278 .LVL48
     /tmp/ccAzxSGZ.s:419    .text:0000000000000288 .LVL49
     /tmp/ccAzxSGZ.s:426    .text:000000000000029c .LVL50
     /tmp/ccAzxSGZ.s:431    .text:00000000000002a8 .LVL51
     /tmp/ccAzxSGZ.s:436    .text:00000000000002b8 .LVL52
GAS LISTING /tmp/ccAzxSGZ.s 			page 32


     /tmp/ccAzxSGZ.s:3635   .debug_str:00000000000005f3 .LASF119
     /tmp/ccAzxSGZ.s:225    .text:0000000000000130 .LFB30
     /tmp/ccAzxSGZ.s:290    .text:00000000000001a4 .LFE30
     /tmp/ccAzxSGZ.s:3300   .debug_loc:0000000000000276 .LLST6
     /tmp/ccAzxSGZ.s:257    .text:000000000000016c .LVL26
     /tmp/ccAzxSGZ.s:262    .text:000000000000017c .LVL27
     /tmp/ccAzxSGZ.s:287    .text:00000000000001a0 .LVL30
     /tmp/ccAzxSGZ.s:3425   .debug_str:0000000000000010 .LASF100
     /tmp/ccAzxSGZ.s:3441   .debug_str:0000000000000078 .LASF101
     /tmp/ccAzxSGZ.s:125    .text:0000000000000098 .LFB29
     /tmp/ccAzxSGZ.s:220    .text:0000000000000130 .LFE29
     /tmp/ccAzxSGZ.s:140    .text:00000000000000ac .LBB19
     /tmp/ccAzxSGZ.s:206    .text:000000000000011c .LBE19
     /tmp/ccAzxSGZ.s:3322   .debug_loc:00000000000002d5 .LLST3
     /tmp/ccAzxSGZ.s:3405   .debug_ranges:0000000000000000 .Ldebug_ranges0
     /tmp/ccAzxSGZ.s:3334   .debug_loc:000000000000030c .LLST4
     /tmp/ccAzxSGZ.s:156    .text:00000000000000c4 .LBB22
     /tmp/ccAzxSGZ.s:171    .text:00000000000000dc .LBE22
     /tmp/ccAzxSGZ.s:3346   .debug_loc:0000000000000343 .LLST5
     /tmp/ccAzxSGZ.s:186    .text:00000000000000f8 .LVL19
     /tmp/ccAzxSGZ.s:191    .text:0000000000000104 .LVL20
     /tmp/ccAzxSGZ.s:196    .text:0000000000000114 .LVL21
     /tmp/ccAzxSGZ.s:3549   .debug_str:000000000000037f .LASF102
     /tmp/ccAzxSGZ.s:3617   .debug_str:000000000000056a .LASF103
     /tmp/ccAzxSGZ.s:18     .text:0000000000000000 .LFB28
     /tmp/ccAzxSGZ.s:114    .text:0000000000000098 .LFE28
     /tmp/ccAzxSGZ.s:34     .text:0000000000000014 .LBB13
     /tmp/ccAzxSGZ.s:100    .text:0000000000000084 .LBE13
     /tmp/ccAzxSGZ.s:3357   .debug_loc:0000000000000379 .LLST0
     /tmp/ccAzxSGZ.s:3369   .debug_loc:00000000000003b0 .LLST1
     /tmp/ccAzxSGZ.s:50     .text:000000000000002c .LBB16
     /tmp/ccAzxSGZ.s:65     .text:0000000000000044 .LBE16
     /tmp/ccAzxSGZ.s:3381   .debug_loc:00000000000003e7 .LLST2
     /tmp/ccAzxSGZ.s:80     .text:0000000000000060 .LVL7
     /tmp/ccAzxSGZ.s:85     .text:000000000000006c .LVL8
     /tmp/ccAzxSGZ.s:90     .text:000000000000007c .LVL9
     /tmp/ccAzxSGZ.s:3621   .debug_str:0000000000000582 .LASF120
     /tmp/ccAzxSGZ.s:3651   .debug_str:0000000000000704 .LASF121
     /tmp/ccAzxSGZ.s:3663   .debug_str:0000000000000759 .LASF104
     /tmp/ccAzxSGZ.s:3481   .debug_str:000000000000019a .LASF106
     /tmp/ccAzxSGZ.s:3655   .debug_str:0000000000000729 .LASF105
     /tmp/ccAzxSGZ.s:3521   .debug_str:00000000000002a7 .LASF107
     /tmp/ccAzxSGZ.s:3627   .debug_str:00000000000005b4 .LASF108
     /tmp/ccAzxSGZ.s:3545   .debug_str:0000000000000366 .LASF109
     /tmp/ccAzxSGZ.s:671    .text:0000000000000444 .LVL82
     /tmp/ccAzxSGZ.s:759    .text:00000000000004d8 .LVL96
     /tmp/ccAzxSGZ.s:764    .text:00000000000004dc .LVL97
     /tmp/ccAzxSGZ.s:769    .text:00000000000004e4 .LVL98
     /tmp/ccAzxSGZ.s:783    .text:0000000000000508 .LVL101
     /tmp/ccAzxSGZ.s:796    .text:0000000000000518 .LVL102
     /tmp/ccAzxSGZ.s:649    .text:000000000000042c .LVL80
     /tmp/ccAzxSGZ.s:660    .text:0000000000000434 .LVL81
     /tmp/ccAzxSGZ.s:706    .text:00000000000004a4 .LVL88
     /tmp/ccAzxSGZ.s:713    .text:00000000000004a8 .LVL89
     /tmp/ccAzxSGZ.s:720    .text:00000000000004b0 .LVL90
     /tmp/ccAzxSGZ.s:726    .text:00000000000004b4 .LVL91
     /tmp/ccAzxSGZ.s:733    .text:00000000000004bc .LVL92
GAS LISTING /tmp/ccAzxSGZ.s 			page 33


     /tmp/ccAzxSGZ.s:739    .text:00000000000004c0 .LVL93
     /tmp/ccAzxSGZ.s:746    .text:00000000000004c8 .LVL94
     /tmp/ccAzxSGZ.s:752    .text:00000000000004cc .LVL95
     /tmp/ccAzxSGZ.s:496    .text:00000000000002f8 .LVL57
     /tmp/ccAzxSGZ.s:500    .text:0000000000000300 .LVL58
     /tmp/ccAzxSGZ.s:519    .text:0000000000000330 .LVL62
     /tmp/ccAzxSGZ.s:521    .text:0000000000000334 .LVL63
     /tmp/ccAzxSGZ.s:585    .text:00000000000003c8 .LVL75
     /tmp/ccAzxSGZ.s:587    .text:00000000000003cc .LVL76
     /tmp/ccAzxSGZ.s:601    .text:00000000000003e0 .LVL77
     /tmp/ccAzxSGZ.s:549    .text:0000000000000368 .LVL67
     /tmp/ccAzxSGZ.s:553    .text:0000000000000370 .LVL68
     /tmp/ccAzxSGZ.s:604    .text:00000000000003e4 .LVL78
     /tmp/ccAzxSGZ.s:326    .text:00000000000001bc .LVL31
     /tmp/ccAzxSGZ.s:330    .text:00000000000001c4 .LVL32
     /tmp/ccAzxSGZ.s:349    .text:00000000000001f4 .LVL36
     /tmp/ccAzxSGZ.s:351    .text:00000000000001f8 .LVL37
     /tmp/ccAzxSGZ.s:439    .text:00000000000002bc .LVL53
     /tmp/ccAzxSGZ.s:441    .text:00000000000002c0 .LVL54
     /tmp/ccAzxSGZ.s:455    .text:00000000000002d4 .LVL55
     /tmp/ccAzxSGZ.s:380    .text:0000000000000220 .LVL40
     /tmp/ccAzxSGZ.s:403    .text:000000000000025c .LVL45
     /tmp/ccAzxSGZ.s:407    .text:0000000000000264 .LVL46
     /tmp/ccAzxSGZ.s:458    .text:00000000000002d8 .LVL56
     /tmp/ccAzxSGZ.s:228    .text:0000000000000130 .LVL24
     /tmp/ccAzxSGZ.s:251    .text:0000000000000160 .LVL25
     /tmp/ccAzxSGZ.s:275    .text:000000000000018c .LVL28
     /tmp/ccAzxSGZ.s:281    .text:0000000000000198 .LVL29
     /tmp/ccAzxSGZ.s:139    .text:00000000000000ac .LVL12
     /tmp/ccAzxSGZ.s:144    .text:00000000000000b4 .LVL13
     /tmp/ccAzxSGZ.s:215    .text:0000000000000128 .LVL23
     /tmp/ccAzxSGZ.s:176    .text:00000000000000e0 .LVL18
     /tmp/ccAzxSGZ.s:202    .text:000000000000011c .LVL22
     /tmp/ccAzxSGZ.s:150    .text:00000000000000b8 .LVL14
     /tmp/ccAzxSGZ.s:160    .text:00000000000000c8 .LVL15
     /tmp/ccAzxSGZ.s:169    .text:00000000000000dc .LVL17
     /tmp/ccAzxSGZ.s:33     .text:0000000000000014 .LVL0
     /tmp/ccAzxSGZ.s:38     .text:000000000000001c .LVL1
     /tmp/ccAzxSGZ.s:109    .text:0000000000000090 .LVL11
     /tmp/ccAzxSGZ.s:70     .text:0000000000000048 .LVL6
     /tmp/ccAzxSGZ.s:96     .text:0000000000000084 .LVL10
     /tmp/ccAzxSGZ.s:44     .text:0000000000000020 .LVL2
     /tmp/ccAzxSGZ.s:54     .text:0000000000000030 .LVL3
     /tmp/ccAzxSGZ.s:63     .text:0000000000000044 .LVL5
     /tmp/ccAzxSGZ.s:810    .debug_info:0000000000000000 .Ldebug_info0
     /tmp/ccAzxSGZ.s:41     .text:000000000000001c .LBB15
     /tmp/ccAzxSGZ.s:66     .text:0000000000000044 .LBE15
     /tmp/ccAzxSGZ.s:92     .text:000000000000007c .LBB17
     /tmp/ccAzxSGZ.s:98     .text:0000000000000084 .LBE17
     /tmp/ccAzxSGZ.s:147    .text:00000000000000b4 .LBB21
     /tmp/ccAzxSGZ.s:172    .text:00000000000000dc .LBE21
     /tmp/ccAzxSGZ.s:198    .text:0000000000000114 .LBB23
     /tmp/ccAzxSGZ.s:204    .text:000000000000011c .LBE23

UNDEFINED SYMBOLS
_Z11printStringPKc
_Z12printIntegerm
GAS LISTING /tmp/ccAzxSGZ.s 			page 34


_ZN3PCB5yieldEv
interrupt
_ZN3PCB14createProccessEPFvvEPv
_ZN3PCB7runningE
_Z13thread_createPP3PCBPFvPvES2_
_ZN3PCBD1Ev
_ZN3PCBdlEPv
