GAS LISTING /tmp/ccZGc2Jr.s 			page 1


   1              		.file	"main.cpp"
   2              		.option pic
   3              		.option norelax
   4              		.text
   5              	.Ltext0:
   6              		.align	2
   7              		.globl	idleProcess
   9              	idleProcess:
  10              	.LFB34:
  11              		.file 1 "src/main.cpp"
   1:src/main.cpp  **** #include "../h/hw.h"
   2:src/main.cpp  **** #include "../h/syscall_c.h"
   3:src/main.cpp  **** #include "../h/PCB.h"
   4:src/main.cpp  **** #include "../h/kernel.h"
   5:src/main.cpp  **** #include "../h/SCB.h"
   6:src/main.cpp  **** #include "../h/CCB.h"
   7:src/main.cpp  **** #include "../h/userMain.h"
   8:src/main.cpp  **** #include "../h/Cache.h"
   9:src/main.cpp  **** #include "../h/slab.h"
  10:src/main.cpp  **** 
  11:src/main.cpp  **** // Kernel inicijalizacija
  12:src/main.cpp  **** extern "C" void interrupt();
  13:src/main.cpp  **** extern "C" void idleProcess(void*) {
  12              		.loc 1 13 36
  13              		.cfi_startproc
  14 0000 130101FF 		addi	sp,sp,-16
  15              		.cfi_def_cfa_offset 16
  16 0004 23348100 		sd	s0,8(sp)
  17              		.cfi_offset 8, -8
  18 0008 13040101 		addi	s0,sp,16
  19              		.cfi_def_cfa 8, 0
  20              	.L2:
  14:src/main.cpp  ****     while(true) {}
  21              		.loc 1 14 5 discriminator 1
  22              		.loc 1 14 5 discriminator 1
  23 000c 6F000000 		j	.L2
  24              		.cfi_endproc
  25              	.LFE34:
  27              		.align	2
  28              		.globl	_Z15userMainWrapperPv
  30              	_Z15userMainWrapperPv:
  31              	.LFB33:
  32              		.file 2 "src/../h/userMain.h"
   1:src/../h/userMain.h **** #ifndef USERMAIN_H
   2:src/../h/userMain.h **** #define USERMAIN_H
   3:src/../h/userMain.h **** 
   4:src/../h/userMain.h **** PCB* userProcess = nullptr;
   5:src/../h/userMain.h **** 
   6:src/../h/userMain.h **** extern "C" void interrupt();
   7:src/../h/userMain.h **** void userMode() {
   8:src/../h/userMain.h ****     size_t code = Kernel::sysCallCodes::userMode;
   9:src/../h/userMain.h ****     asm volatile("mv a0, %0" : : "r" (code));
  10:src/../h/userMain.h ****     asm volatile("ecall");
  11:src/../h/userMain.h **** 
  12:src/../h/userMain.h **** }
  13:src/../h/userMain.h **** void userMain();
  14:src/../h/userMain.h **** void userMainWrapper(void*) {
GAS LISTING /tmp/ccZGc2Jr.s 			page 2


  33              		.loc 2 14 29
  34              		.cfi_startproc
  35 0010 130101FF 		addi	sp,sp,-16
  36              		.cfi_def_cfa_offset 16
  37 0014 23341100 		sd	ra,8(sp)
  38 0018 23308100 		sd	s0,0(sp)
  39              		.cfi_offset 1, -8
  40              		.cfi_offset 8, -16
  41 001c 13040101 		addi	s0,sp,16
  42              		.cfi_def_cfa 8, 0
  15:src/../h/userMain.h ****     //userMode(); // prelazak u user mod
  16:src/../h/userMain.h ****     userMain();
  43              		.loc 2 16 5
  44              		.loc 2 16 13 is_stmt 0
  45 0020 97000000 		call	_Z8userMainv@plt
  45      E7800000 
  46              	.LVL0:
  17:src/../h/userMain.h **** }
  47              		.loc 2 17 1
  48 0028 83308100 		ld	ra,8(sp)
  49              		.cfi_restore 1
  50 002c 03340100 		ld	s0,0(sp)
  51              		.cfi_restore 8
  52              		.cfi_def_cfa 2, 16
  53 0030 13010101 		addi	sp,sp,16
  54              		.cfi_def_cfa_offset 0
  55 0034 67800000 		jr	ra
  56              		.cfi_endproc
  57              	.LFE33:
  59              		.align	2
  60              		.globl	_Z8userModev
  62              	_Z8userModev:
  63              	.LFB32:
   7:src/../h/userMain.h ****     size_t code = Kernel::sysCallCodes::userMode;
  64              		.loc 2 7 17 is_stmt 1
  65              		.cfi_startproc
  66 0038 130101FF 		addi	sp,sp,-16
  67              		.cfi_def_cfa_offset 16
  68 003c 23348100 		sd	s0,8(sp)
  69              		.cfi_offset 8, -8
  70 0040 13040101 		addi	s0,sp,16
  71              		.cfi_def_cfa 8, 0
   8:src/../h/userMain.h ****     asm volatile("mv a0, %0" : : "r" (code));
  72              		.loc 2 8 5
  73              	.LVL1:
   9:src/../h/userMain.h ****     asm volatile("ecall");
  74              		.loc 2 9 5
   9:src/../h/userMain.h ****     asm volatile("ecall");
  75              		.loc 2 9 45 is_stmt 0
  76 0044 93073004 		li	a5,67
  77              	#APP
  78              	# 9 "src/../h/userMain.h" 1
  10:src/../h/userMain.h **** 
  79              		mv a0, a5
  80              	# 0 "" 2
  81              		.loc 2 10 5 is_stmt 1
  10:src/../h/userMain.h **** 
GAS LISTING /tmp/ccZGc2Jr.s 			page 3


  82              		.loc 2 10 26 is_stmt 0
  83              	# 10 "src/../h/userMain.h" 1
  12:src/../h/userMain.h **** void userMain();
  84              		ecall
  85              	# 0 "" 2
  86              		.loc 2 12 1
  87              	#NO_APP
  88 0050 03348100 		ld	s0,8(sp)
  89              		.cfi_restore 8
  90              		.cfi_def_cfa 2, 16
  91 0054 13010101 		addi	sp,sp,16
  92              		.cfi_def_cfa_offset 0
  93 0058 67800000 		jr	ra
  94              		.cfi_endproc
  95              	.LFE32:
  97              		.align	2
  98              		.globl	main
 100              	main:
 101              	.LFB35:
  15:src/main.cpp  **** }
  16:src/main.cpp  **** // ------------
  17:src/main.cpp  **** 
  18:src/main.cpp  **** int main() {
 102              		.loc 1 18 12 is_stmt 1
 103              		.cfi_startproc
 104 005c 130101FF 		addi	sp,sp,-16
 105              		.cfi_def_cfa_offset 16
 106 0060 23341100 		sd	ra,8(sp)
 107 0064 23308100 		sd	s0,0(sp)
 108              		.cfi_offset 1, -8
 109              		.cfi_offset 8, -16
 110 0068 13040101 		addi	s0,sp,16
 111              		.cfi_def_cfa 8, 0
  19:src/main.cpp  ****     // Kernel inicijalizacija
  20:src/main.cpp  ****     asm volatile("csrw stvec, %0" : : "r" (&interrupt));
 112              		.loc 1 20 5
 113              		.loc 1 20 56 is_stmt 0
 114 006c 97070000 		la	a5,interrupt
 114      83B70700 
 115              	#APP
 116              	# 20 "src/main.cpp" 1
  21              	    kmem_init((void*)HEAP_START_ADDR, 1 << 24);
 117              		csrw stvec, a5
 118              	# 0 "" 2
 119              		.loc 1 21 5 is_stmt 1
 120              		.loc 1 21 14 is_stmt 0
 121              	#NO_APP
 122 0078 B7050001 		li	a1,16777216
 123 007c 97070000 		la	a5,HEAP_START_ADDR
 123      83B70700 
 124 0084 03B50700 		ld	a0,0(a5)
 125 0088 97000000 		call	_Z9kmem_initPvi@plt
 125      E7800000 
 126              	.LVL2:
  22:src/main.cpp  ****     PCB::initPCBCache();
 127              		.loc 1 22 5 is_stmt 1
 128              		.loc 1 22 22 is_stmt 0
GAS LISTING /tmp/ccZGc2Jr.s 			page 4


 129 0090 97000000 		call	_ZN3PCB12initPCBCacheEv@plt
 129      E7800000 
 130              	.LVL3:
  23:src/main.cpp  **** 
  24:src/main.cpp  ****     PCB* main = PCB::createSysProcess(nullptr, nullptr); // main proces(ne pravimo stek)
 131              		.loc 1 24 5 is_stmt 1
 132              		.loc 1 24 38 is_stmt 0
 133 0098 93050000 		li	a1,0
 134 009c 13050000 		li	a0,0
 135 00a0 97000000 		call	_ZN3PCB16createSysProcessEPFvvEPv@plt
 135      E7800000 
 136              	.LVL4:
  25:src/main.cpp  ****     PCB::running = main;
 137              		.loc 1 25 5 is_stmt 1
 138              		.loc 1 25 18 is_stmt 0
 139 00a8 97070000 		la	a5,_ZN3PCB7runningE
 139      83B70700 
 140 00b0 23B0A700 		sd	a0,0(a5)
  26:src/main.cpp  **** /*
  27:src/main.cpp  ****     CCB::inputProcces = PCB::createSysProcess(CCB::inputBody, nullptr);
  28:src/main.cpp  ****     CCB::outputProcess = PCB::createSysProcess(CCB::outputBody, nullptr);
  29:src/main.cpp  ****     Scheduler::put(CCB::inputProcces);
  30:src/main.cpp  ****     Scheduler::put(CCB::outputProcess);
  31:src/main.cpp  ****     Scheduler::idleProcess = PCB::createSysProcess(idleProcess, nullptr);*/
  32:src/main.cpp  ****     thread_create(&CCB::inputProcces, CCB::inputBody, nullptr); // getc nit (stavljamo je prvi put 
 141              		.loc 1 32 5 is_stmt 1
 142              		.loc 1 32 18 is_stmt 0
 143 00b4 13060000 		li	a2,0
 144 00b8 97050000 		la	a1,_ZN3CCB9inputBodyEPv
 144      83B50500 
 145 00c0 17050000 		la	a0,_ZN3CCB12inputProccesE
 145      03350500 
 146              	.LVL5:
 147 00c8 97000000 		call	_Z13thread_createPP3PCBPFvPvES2_@plt
 147      E7800000 
 148              	.LVL6:
  33:src/main.cpp  ****     thread_create(&CCB::outputProcess, CCB::outputBody, nullptr); // putc nit ( stavljamo je prvi p
 149              		.loc 1 33 5 is_stmt 1
 150              		.loc 1 33 18 is_stmt 0
 151 00d0 13060000 		li	a2,0
 152 00d4 97050000 		la	a1,_ZN3CCB10outputBodyEPv
 152      83B50500 
 153 00dc 17050000 		la	a0,_ZN3CCB13outputProcessE
 153      03350500 
 154 00e4 97000000 		call	_Z13thread_createPP3PCBPFvPvES2_@plt
 154      E7800000 
 155              	.LVL7:
  34:src/main.cpp  ****     thread_create_only(&Scheduler::idleProcess, idleProcess, nullptr); // idle nit
 156              		.loc 1 34 5 is_stmt 1
 157              		.loc 1 34 23 is_stmt 0
 158 00ec 13060000 		li	a2,0
 159 00f0 97050000 		lla	a1,idleProcess
 159      93850500 
 160 00f8 17050000 		la	a0,_ZN9Scheduler11idleProcessE
 160      03350500 
 161 0100 97000000 		call	_Z18thread_create_onlyPP3PCBPFvPvES2_@plt
 161      E7800000 
GAS LISTING /tmp/ccZGc2Jr.s 			page 5


 162              	.LVL8:
  35:src/main.cpp  ****     Scheduler::idleProcess->setFinished(true);
 163              		.loc 1 35 5 is_stmt 1
 164              		.loc 1 35 40 is_stmt 0
 165 0108 97070000 		la	a5,_ZN9Scheduler11idleProcessE
 165      83B70700 
 166 0110 83B70700 		ld	a5,0(a5)
 167              	.LVL9:
 168              	.LBB12:
 169              	.LBB13:
 170              		.file 3 "src/../h/PCB.h"
   1:src/../h/PCB.h **** #ifndef PCB_H
   2:src/../h/PCB.h **** #define PCB_H
   3:src/../h/PCB.h **** 
   4:src/../h/PCB.h **** #include "hw.h"
   5:src/../h/PCB.h **** #include "slab.h"
   6:src/../h/PCB.h **** 
   7:src/../h/PCB.h **** extern "C" void interruptHandler();
   8:src/../h/PCB.h **** 
   9:src/../h/PCB.h **** class PCB {
  10:src/../h/PCB.h **** friend class Scheduler;
  11:src/../h/PCB.h **** friend void interruptHandler();
  12:src/../h/PCB.h **** friend class Kernel;
  13:src/../h/PCB.h **** friend class SCB;
  14:src/../h/PCB.h **** public:
  15:src/../h/PCB.h ****     // vraca true ako se proces zavrsio, false ako nije
  16:src/../h/PCB.h ****     bool isFinished() const {
  17:src/../h/PCB.h ****         return finished;
  18:src/../h/PCB.h ****     }
  19:src/../h/PCB.h ****     // vraca true ako je semafor obrisan pre nego sto je proces odblokiran
  20:src/../h/PCB.h ****     bool isSemaphoreDeleted() const {
  21:src/../h/PCB.h ****         return semDeleted;
  22:src/../h/PCB.h ****     }
  23:src/../h/PCB.h **** 
  24:src/../h/PCB.h ****     size_t getTimeSleeping() const {
  25:src/../h/PCB.h ****         return timeSleeping;
  26:src/../h/PCB.h ****     }
  27:src/../h/PCB.h **** 
  28:src/../h/PCB.h ****     void setTimeSleeping(size_t newTime) {
  29:src/../h/PCB.h ****         timeSleeping = newTime;
  30:src/../h/PCB.h ****     }
  31:src/../h/PCB.h **** 
  32:src/../h/PCB.h ****     PCB* getNextInList() const {
  33:src/../h/PCB.h ****         return nextInList;
  34:src/../h/PCB.h ****     }
  35:src/../h/PCB.h **** 
  36:src/../h/PCB.h ****     void setNextInList(PCB* next) {
  37:src/../h/PCB.h ****         nextInList = next;
  38:src/../h/PCB.h ****     }
  39:src/../h/PCB.h **** 
  40:src/../h/PCB.h ****     void setBlocked(bool newState) {
  41:src/../h/PCB.h ****         blocked = newState;
  42:src/../h/PCB.h ****     }
  43:src/../h/PCB.h **** 
  44:src/../h/PCB.h ****     void setSemDeleted(bool newState) {
  45:src/../h/PCB.h ****         semDeleted = newState;
  46:src/../h/PCB.h ****     }
GAS LISTING /tmp/ccZGc2Jr.s 			page 6


  47:src/../h/PCB.h **** 
  48:src/../h/PCB.h ****     void setTimeSlice(time_t timeSlice_) {
  49:src/../h/PCB.h ****         timeSlice = timeSlice_;
  50:src/../h/PCB.h ****     }
  51:src/../h/PCB.h **** 
  52:src/../h/PCB.h ****     void setFinished(bool finished_) {
  53:src/../h/PCB.h ****         finished = finished_;
 171              		.loc 3 53 9 is_stmt 1
 172              		.loc 3 53 18 is_stmt 0
 173 0114 13071000 		li	a4,1
 174 0118 2384E702 		sb	a4,40(a5)
 175              	.LVL10:
 176              	.LBE13:
 177              	.LBE12:
  36:src/main.cpp  ****     Scheduler::idleProcess->setTimeSlice(1);
 178              		.loc 1 36 5 is_stmt 1
 179              	.LBB14:
 180              	.LBB15:
  49:src/../h/PCB.h ****     }
 181              		.loc 3 49 9
  49:src/../h/PCB.h ****     }
 182              		.loc 3 49 19 is_stmt 0
 183 011c 13071000 		li	a4,1
 184 0120 23B0E704 		sd	a4,64(a5)
 185              	.LVL11:
 186              	.LBE15:
 187              	.LBE14:
  37:src/main.cpp  **** 
  38:src/main.cpp  ****     //CCB::semInput = SCB::createSemaphore(0);
  39:src/main.cpp  ****     sem_open(&CCB::semInput, 0);
 188              		.loc 1 39 5 is_stmt 1
 189              		.loc 1 39 13 is_stmt 0
 190 0124 93050000 		li	a1,0
 191 0128 17050000 		la	a0,_ZN3CCB8semInputE
 191      03350500 
 192 0130 97000000 		call	_Z8sem_openPP3SCBj@plt
 192      E7800000 
 193              	.LVL12:
  40:src/main.cpp  ****     //CCB::semOutput = SCB::createSemaphore(0);
  41:src/main.cpp  ****     sem_open(&CCB::semOutput, 0);
 194              		.loc 1 41 5 is_stmt 1
 195              		.loc 1 41 13 is_stmt 0
 196 0138 93050000 		li	a1,0
 197 013c 17050000 		la	a0,_ZN3CCB9semOutputE
 197      03350500 
 198 0144 97000000 		call	_Z8sem_openPP3SCBj@plt
 198      E7800000 
 199              	.LVL13:
  42:src/main.cpp  ****     //CCB::inputBufferEmpty = SCB::createSemaphore(0);
  43:src/main.cpp  ****     sem_open(&CCB::inputBufferEmpty, 0);
 200              		.loc 1 43 5 is_stmt 1
 201              		.loc 1 43 13 is_stmt 0
 202 014c 93050000 		li	a1,0
 203 0150 17050000 		la	a0,_ZN3CCB16inputBufferEmptyE
 203      03350500 
 204 0158 97000000 		call	_Z8sem_openPP3SCBj@plt
 204      E7800000 
GAS LISTING /tmp/ccZGc2Jr.s 			page 7


 205              	.LVL14:
  44:src/main.cpp  **** 
  45:src/main.cpp  ****     Kernel::ms_sstatus(Kernel::SSTATUS_SIE); // dozvoljavaju se prekidi
 206              		.loc 1 45 5 is_stmt 1
 207              	.LBB16:
 208              	.LBB17:
 209              		.file 4 "src/../h/kernel.h"
   1:src/../h/kernel.h **** #ifndef KERNEL_H
   2:src/../h/kernel.h **** #define KERNEL_H
   3:src/../h/kernel.h **** 
   4:src/../h/kernel.h **** #include "hw.h"
   5:src/../h/kernel.h **** 
   6:src/../h/kernel.h **** class Kernel {
   7:src/../h/kernel.h **** public:
   8:src/../h/kernel.h ****     // postavlja code u registar a0
   9:src/../h/kernel.h ****     static size_t setCode(size_t code) {
  10:src/../h/kernel.h ****         return code;
  11:src/../h/kernel.h ****     }
  12:src/../h/kernel.h **** 
  13:src/../h/kernel.h ****     // kodovi po kojima se prepoznaju sistemski pozivi
  14:src/../h/kernel.h ****     enum sysCallCodes {
  15:src/../h/kernel.h ****         mem_alloc = 0x01,
  16:src/../h/kernel.h ****         mem_free = 0x02,
  17:src/../h/kernel.h ****         thread_create = 0x11,
  18:src/../h/kernel.h ****         thread_exit = 0x12,
  19:src/../h/kernel.h ****         thread_dispatch = 0x13,
  20:src/../h/kernel.h ****         thread_start = 0x14,
  21:src/../h/kernel.h ****         sem_open = 0x21,
  22:src/../h/kernel.h ****         sem_close = 0x22,
  23:src/../h/kernel.h ****         sem_wait = 0x23,
  24:src/../h/kernel.h ****         sem_signal = 0x24,
  25:src/../h/kernel.h ****         time_sleep = 0x31,
  26:src/../h/kernel.h ****         getc = 0x41,
  27:src/../h/kernel.h ****         putc = 0x42,
  28:src/../h/kernel.h ****         userMode = 0x43
  29:src/../h/kernel.h ****     };
  30:src/../h/kernel.h **** 
  31:src/../h/kernel.h ****     // pop sstatus.spp and sstatus.spie bits (has to be a non inline function)
  32:src/../h/kernel.h ****     static void popSppSpie();
  33:src/../h/kernel.h **** 
  34:src/../h/kernel.h ****     // cita registar scause (uzrok nastanka prekida)
  35:src/../h/kernel.h ****     static size_t r_scause() {
  36:src/../h/kernel.h ****         size_t volatile scause;
  37:src/../h/kernel.h ****         __asm__ volatile ("csrr %[scause], scause" : [scause] "=r"(scause));
  38:src/../h/kernel.h ****         return scause;
  39:src/../h/kernel.h ****     }
  40:src/../h/kernel.h **** 
  41:src/../h/kernel.h ****     // upisuje u registar scause (uzrok nastanka prekida)
  42:src/../h/kernel.h ****     static void w_scause(size_t scause) {
  43:src/../h/kernel.h ****         __asm__ volatile ("csrw scause, %[scause]" : : [scause] "r"(scause));
  44:src/../h/kernel.h ****     }
  45:src/../h/kernel.h **** 
  46:src/../h/kernel.h ****     // cita registar sepc
  47:src/../h/kernel.h ****     static size_t r_sepc() {
  48:src/../h/kernel.h ****         size_t volatile sepc;
  49:src/../h/kernel.h ****         __asm__ volatile ("csrr %[sepc], sepc" : [sepc] "=r"(sepc));
  50:src/../h/kernel.h ****         return sepc;
GAS LISTING /tmp/ccZGc2Jr.s 			page 8


  51:src/../h/kernel.h ****     }
  52:src/../h/kernel.h **** 
  53:src/../h/kernel.h ****     // upisuje u registar sepc
  54:src/../h/kernel.h ****     static void w_sepc(size_t sepc) {
  55:src/../h/kernel.h ****         __asm__ volatile ("csrw sepc, %[sepc]" : : [sepc] "r"(sepc));
  56:src/../h/kernel.h ****     }
  57:src/../h/kernel.h **** 
  58:src/../h/kernel.h ****     // read register stvec
  59:src/../h/kernel.h ****     static size_t r_stvec() {
  60:src/../h/kernel.h ****         size_t volatile stvec;
  61:src/../h/kernel.h ****         __asm__ volatile ("csrr %[stvec], stvec" : [stvec] "=r"(stvec));
  62:src/../h/kernel.h ****         return stvec;
  63:src/../h/kernel.h ****     }
  64:src/../h/kernel.h **** 
  65:src/../h/kernel.h ****     // write register stvec
  66:src/../h/kernel.h ****     static void w_stvec(size_t stvec) {
  67:src/../h/kernel.h ****         __asm__ volatile ("csrw stvec, %[stvec]" : : [stvec] "r"(stvec));
  68:src/../h/kernel.h ****     }
  69:src/../h/kernel.h **** 
  70:src/../h/kernel.h ****     // read register stval
  71:src/../h/kernel.h ****     static size_t r_stval() {
  72:src/../h/kernel.h ****         size_t volatile stval;
  73:src/../h/kernel.h ****         __asm__ volatile ("csrr %[stval], stval" : [stval] "=r"(stval));
  74:src/../h/kernel.h ****         return stval;
  75:src/../h/kernel.h ****     }
  76:src/../h/kernel.h **** 
  77:src/../h/kernel.h ****     // write register stval
  78:src/../h/kernel.h ****     static void w_stval(size_t stval) {
  79:src/../h/kernel.h ****         __asm__ volatile ("csrw stval, %[stval]" : : [stval] "r"(stval));
  80:src/../h/kernel.h ****     }
  81:src/../h/kernel.h **** 
  82:src/../h/kernel.h ****     enum BitMaskSip
  83:src/../h/kernel.h ****     {
  84:src/../h/kernel.h ****         SIP_SSIE = (1 << 1), // da li su dozvoljeni softverski prekidi
  85:src/../h/kernel.h ****         SIP_SEIE = (1 << 9), // da li su dozvoljeni spoljasnji hardverski prekidi
  86:src/../h/kernel.h ****     };
  87:src/../h/kernel.h **** 
  88:src/../h/kernel.h ****     // postavljanje odredjenih bitova (BitMaskSip) u registar sip
  89:src/../h/kernel.h ****     static void ms_sip(size_t mask) {
  90:src/../h/kernel.h ****         __asm__ volatile ("csrs sip, %[mask]" : : [mask] "r"(mask));
  91:src/../h/kernel.h ****     }
  92:src/../h/kernel.h **** 
  93:src/../h/kernel.h ****     // brisanje odredjenih bitova (BitMaskSip) iz registra sip
  94:src/../h/kernel.h ****     static void mc_sip(size_t mask) {
  95:src/../h/kernel.h ****         __asm__ volatile ("csrc sip, %[mask]" : : [mask] "r"(mask));
  96:src/../h/kernel.h ****     }
  97:src/../h/kernel.h **** 
  98:src/../h/kernel.h ****     // citanje iz registra sip
  99:src/../h/kernel.h ****     static size_t r_sip() {
 100:src/../h/kernel.h ****         size_t volatile sip;
 101:src/../h/kernel.h ****         __asm__ volatile ("csrr %[sip], sip" : [sip] "=r"(sip));
 102:src/../h/kernel.h ****         return sip;
 103:src/../h/kernel.h ****     }
 104:src/../h/kernel.h **** 
 105:src/../h/kernel.h ****     // upis u registar sip
 106:src/../h/kernel.h ****     static void w_sip(size_t sip) {
 107:src/../h/kernel.h ****         __asm__ volatile ("csrw sip, %[sip]" : : [sip] "r"(sip));
GAS LISTING /tmp/ccZGc2Jr.s 			page 9


 108:src/../h/kernel.h ****     }
 109:src/../h/kernel.h **** 
 110:src/../h/kernel.h ****     enum BitMaskSstatus
 111:src/../h/kernel.h ****     {
 112:src/../h/kernel.h ****         SSTATUS_SIE = (1 << 1), // ako je 0 - maskiranje spoljasnjih prekida u sistemskom rezimu
 113:src/../h/kernel.h ****         SSTATUS_SPIE = (1 << 5), // prethodna vrednost sie
 114:src/../h/kernel.h ****         SSTATUS_SPP = (1 << 8), // u kom rezimu se desio prekid
 115:src/../h/kernel.h ****     };
 116:src/../h/kernel.h **** 
 117:src/../h/kernel.h ****     // mask set register sstatus
 118:src/../h/kernel.h ****     static void ms_sstatus(size_t mask) {
 119:src/../h/kernel.h ****         __asm__ volatile ("csrs sstatus, %[mask]" : : [mask] "r"(mask));
 210              		.loc 4 119 9
 211              		.loc 4 119 72 is_stmt 0
 212 0160 93072000 		li	a5,2
 213              	#APP
 214              	# 119 "src/../h/kernel.h" 1
 120              	    }
 215              		csrs sstatus, a5
 216              	# 0 "" 2
 217              	.LVL15:
 218              	#NO_APP
 219              	.LBE17:
 220              	.LBE16:
  46:src/main.cpp  **** 
  47:src/main.cpp  **** 
  48:src/main.cpp  ****     thread_create(&userProcess, userMainWrapper, nullptr);
 221              		.loc 1 48 5 is_stmt 1
 222              		.loc 1 48 18 is_stmt 0
 223 0168 13060000 		li	a2,0
 224 016c 97050000 		lla	a1,_Z15userMainWrapperPv
 224      93850500 
 225 0174 17050000 		lla	a0,.LANCHOR0
 225      13050500 
 226 017c 97000000 		call	_Z13thread_createPP3PCBPFvPvES2_@plt
 226      E7800000 
 227              	.LVL16:
 228              	.L10:
  49:src/main.cpp  ****     // ----
  50:src/main.cpp  **** 
  51:src/main.cpp  ****     while(!userProcess->isFinished()) {
 229              		.loc 1 51 5 is_stmt 1
 230              		.loc 1 51 11
 231              		.loc 1 51 35 is_stmt 0
 232 0184 97070000 		ld	a5,.LANCHOR0
 232      83B70700 
 233              	.LVL17:
 234              	.LBB18:
 235              	.LBB19:
  17:src/../h/PCB.h ****     }
 236              		.loc 3 17 9 is_stmt 1
  17:src/../h/PCB.h ****     }
 237              		.loc 3 17 16 is_stmt 0
 238 018c 83C78702 		lbu	a5,40(a5)
 239              	.LVL18:
 240              	.LBE19:
 241              	.LBE18:
GAS LISTING /tmp/ccZGc2Jr.s 			page 10


 242              		.loc 1 51 11
 243 0190 63980700 		bnez	a5,.L9
  52:src/main.cpp  ****         thread_dispatch();
 244              		.loc 1 52 9 is_stmt 1
 245              		.loc 1 52 24 is_stmt 0
 246 0194 97000000 		call	_Z15thread_dispatchv@plt
 246      E7800000 
 247              	.LVL19:
  51:src/main.cpp  ****         thread_dispatch();
 248              		.loc 1 51 5
 249 019c 6FF09FFE 		j	.L10
 250              	.L9:
  53:src/main.cpp  ****     }
  54:src/main.cpp  **** 
  55:src/main.cpp  ****     while(CCB::semOutput->getSemValue() != 0) {
 251              		.loc 1 55 5 is_stmt 1
 252              		.loc 1 55 41
 253              		.loc 1 55 38 is_stmt 0
 254 01a0 97070000 		la	a5,_ZN3CCB9semOutputE
 254      83B70700 
 255 01a8 83B70700 		ld	a5,0(a5)
 256              	.LVL20:
 257              	.LBB20:
 258              	.LBB21:
 259              		.file 5 "src/../h/SCB.h"
   1:src/../h/SCB.h **** #ifndef PROJECT_BASE_SCB_H
   2:src/../h/SCB.h **** #define PROJECT_BASE_SCB_H
   3:src/../h/SCB.h **** 
   4:src/../h/SCB.h **** #include "PCB.h"
   5:src/../h/SCB.h **** #include "Scheduler.h"
   6:src/../h/SCB.h **** 
   7:src/../h/SCB.h **** class SCB { // Semaphore Control Block
   8:src/../h/SCB.h **** public:
   9:src/../h/SCB.h ****     int getSemValue() const {
  10:src/../h/SCB.h ****         return semValue;
 260              		.loc 5 10 9 is_stmt 1
 261              		.loc 5 10 16 is_stmt 0
 262 01ac 83A70701 		lw	a5,16(a5)
 263              	.LVL21:
 264              	.LBE21:
 265              	.LBE20:
 266              		.loc 1 55 41
 267 01b0 63880700 		beqz	a5,.L11
  56:src/main.cpp  ****         thread_dispatch();
 268              		.loc 1 56 9 is_stmt 1
 269              		.loc 1 56 24 is_stmt 0
 270 01b4 97000000 		call	_Z15thread_dispatchv@plt
 270      E7800000 
 271              	.LVL22:
  55:src/main.cpp  ****         thread_dispatch();
 272              		.loc 1 55 5
 273 01bc 6FF05FFE 		j	.L9
 274              	.L11:
  57:src/main.cpp  ****     }
  58:src/main.cpp  ****     return 0;
 275              		.loc 1 58 5 is_stmt 1
  59:src/main.cpp  **** }...
GAS LISTING /tmp/ccZGc2Jr.s 			page 11


 276              		.loc 1 59 1 is_stmt 0
 277 01c0 13050000 		li	a0,0
 278 01c4 83308100 		ld	ra,8(sp)
 279              		.cfi_restore 1
 280 01c8 03340100 		ld	s0,0(sp)
 281              		.cfi_restore 8
 282              		.cfi_def_cfa 2, 16
 283 01cc 13010101 		addi	sp,sp,16
 284              		.cfi_def_cfa_offset 0
 285 01d0 67800000 		jr	ra
 286              		.cfi_endproc
 287              	.LFE35:
 289              		.globl	userProcess
 290              		.bss
 291              		.align	3
 292              		.set	.LANCHOR0,. + 0
 295              	userProcess:
 296 0000 00000000 		.zero	8
 296      00000000 
 297              		.text
 298              	.Letext0:
 299              		.file 6 "src/../h/hw.h"
 300              		.file 7 "src/../h/slab.h"
 301              		.file 8 "src/../h/syscall_c.h"
GAS LISTING /tmp/ccZGc2Jr.s 			page 12


DEFINED SYMBOLS
                            *ABS*:0000000000000000 main.cpp
     /tmp/ccZGc2Jr.s:9      .text:0000000000000000 idleProcess
     /tmp/ccZGc2Jr.s:13     .text:0000000000000000 .L0 
     /tmp/ccZGc2Jr.s:14     .text:0000000000000000 .L0 
     /tmp/ccZGc2Jr.s:15     .text:0000000000000004 .L0 
     /tmp/ccZGc2Jr.s:17     .text:0000000000000008 .L0 
     /tmp/ccZGc2Jr.s:19     .text:000000000000000c .L0 
     /tmp/ccZGc2Jr.s:22     .text:000000000000000c .L0 
     /tmp/ccZGc2Jr.s:23     .text:000000000000000c .L0 
     /tmp/ccZGc2Jr.s:24     .text:0000000000000010 .L0 
     /tmp/ccZGc2Jr.s:30     .text:0000000000000010 _Z15userMainWrapperPv
     /tmp/ccZGc2Jr.s:34     .text:0000000000000010 .L0 
     /tmp/ccZGc2Jr.s:35     .text:0000000000000010 .L0 
     /tmp/ccZGc2Jr.s:36     .text:0000000000000014 .L0 
     /tmp/ccZGc2Jr.s:39     .text:000000000000001c .L0 
     /tmp/ccZGc2Jr.s:40     .text:000000000000001c .L0 
     /tmp/ccZGc2Jr.s:42     .text:0000000000000020 .L0 
     /tmp/ccZGc2Jr.s:44     .text:0000000000000020 .L0 
     /tmp/ccZGc2Jr.s:45     .text:0000000000000020 .L0 
     /tmp/ccZGc2Jr.s:48     .text:0000000000000028 .L0 
     /tmp/ccZGc2Jr.s:49     .text:000000000000002c .L0 
     /tmp/ccZGc2Jr.s:51     .text:0000000000000030 .L0 
     /tmp/ccZGc2Jr.s:52     .text:0000000000000030 .L0 
     /tmp/ccZGc2Jr.s:54     .text:0000000000000034 .L0 
     /tmp/ccZGc2Jr.s:56     .text:0000000000000038 .L0 
     /tmp/ccZGc2Jr.s:62     .text:0000000000000038 _Z8userModev
     /tmp/ccZGc2Jr.s:65     .text:0000000000000038 .L0 
     /tmp/ccZGc2Jr.s:66     .text:0000000000000038 .L0 
     /tmp/ccZGc2Jr.s:67     .text:000000000000003c .L0 
     /tmp/ccZGc2Jr.s:69     .text:0000000000000040 .L0 
     /tmp/ccZGc2Jr.s:71     .text:0000000000000044 .L0 
     /tmp/ccZGc2Jr.s:74     .text:0000000000000044 .L0 
     /tmp/ccZGc2Jr.s:75     .text:0000000000000044 .L0 
     /tmp/ccZGc2Jr.s:76     .text:0000000000000044 .L0 
     /tmp/ccZGc2Jr.s:82     .text:000000000000004c .L0 
 src/../h/userMain.h:10     .text:000000000000004c .L0 
     /tmp/ccZGc2Jr.s:88     .text:0000000000000050 .L0 
     /tmp/ccZGc2Jr.s:89     .text:0000000000000054 .L0 
     /tmp/ccZGc2Jr.s:90     .text:0000000000000054 .L0 
     /tmp/ccZGc2Jr.s:92     .text:0000000000000058 .L0 
     /tmp/ccZGc2Jr.s:94     .text:000000000000005c .L0 
     /tmp/ccZGc2Jr.s:100    .text:000000000000005c main
     /tmp/ccZGc2Jr.s:103    .text:000000000000005c .L0 
     /tmp/ccZGc2Jr.s:104    .text:000000000000005c .L0 
     /tmp/ccZGc2Jr.s:105    .text:0000000000000060 .L0 
     /tmp/ccZGc2Jr.s:108    .text:0000000000000068 .L0 
     /tmp/ccZGc2Jr.s:109    .text:0000000000000068 .L0 
     /tmp/ccZGc2Jr.s:111    .text:000000000000006c .L0 
     /tmp/ccZGc2Jr.s:113    .text:000000000000006c .L0 
     /tmp/ccZGc2Jr.s:114    .text:000000000000006c .L0 
     /tmp/ccZGc2Jr.s:120    .text:0000000000000078 .L0 
     /tmp/ccZGc2Jr.s:122    .text:0000000000000078 .L0 
     /tmp/ccZGc2Jr.s:128    .text:0000000000000090 .L0 
     /tmp/ccZGc2Jr.s:129    .text:0000000000000090 .L0 
     /tmp/ccZGc2Jr.s:132    .text:0000000000000098 .L0 
     /tmp/ccZGc2Jr.s:133    .text:0000000000000098 .L0 
GAS LISTING /tmp/ccZGc2Jr.s 			page 13


     /tmp/ccZGc2Jr.s:138    .text:00000000000000a8 .L0 
     /tmp/ccZGc2Jr.s:139    .text:00000000000000a8 .L0 
     /tmp/ccZGc2Jr.s:142    .text:00000000000000b4 .L0 
     /tmp/ccZGc2Jr.s:143    .text:00000000000000b4 .L0 
     /tmp/ccZGc2Jr.s:150    .text:00000000000000d0 .L0 
     /tmp/ccZGc2Jr.s:151    .text:00000000000000d0 .L0 
     /tmp/ccZGc2Jr.s:157    .text:00000000000000ec .L0 
     /tmp/ccZGc2Jr.s:158    .text:00000000000000ec .L0 
     /tmp/ccZGc2Jr.s:164    .text:0000000000000108 .L0 
     /tmp/ccZGc2Jr.s:165    .text:0000000000000108 .L0 
     /tmp/ccZGc2Jr.s:172    .text:0000000000000114 .L0 
     /tmp/ccZGc2Jr.s:173    .text:0000000000000114 .L0 
     /tmp/ccZGc2Jr.s:181    .text:000000000000011c .L0 
     /tmp/ccZGc2Jr.s:182    .text:000000000000011c .L0 
     /tmp/ccZGc2Jr.s:183    .text:000000000000011c .L0 
     /tmp/ccZGc2Jr.s:189    .text:0000000000000124 .L0 
     /tmp/ccZGc2Jr.s:190    .text:0000000000000124 .L0 
     /tmp/ccZGc2Jr.s:195    .text:0000000000000138 .L0 
     /tmp/ccZGc2Jr.s:196    .text:0000000000000138 .L0 
     /tmp/ccZGc2Jr.s:201    .text:000000000000014c .L0 
     /tmp/ccZGc2Jr.s:202    .text:000000000000014c .L0 
     /tmp/ccZGc2Jr.s:210    .text:0000000000000160 .L0 
     /tmp/ccZGc2Jr.s:211    .text:0000000000000160 .L0 
     /tmp/ccZGc2Jr.s:212    .text:0000000000000160 .L0 
     /tmp/ccZGc2Jr.s:222    .text:0000000000000168 .L0 
     /tmp/ccZGc2Jr.s:223    .text:0000000000000168 .L0 
     /tmp/ccZGc2Jr.s:230    .text:0000000000000184 .L0 
     /tmp/ccZGc2Jr.s:231    .text:0000000000000184 .L0 
     /tmp/ccZGc2Jr.s:232    .text:0000000000000184 .L0 
     /tmp/ccZGc2Jr.s:237    .text:000000000000018c .L0 
     /tmp/ccZGc2Jr.s:238    .text:000000000000018c .L0 
     /tmp/ccZGc2Jr.s:243    .text:0000000000000190 .L0 
     /tmp/ccZGc2Jr.s:245    .text:0000000000000194 .L0 
     /tmp/ccZGc2Jr.s:246    .text:0000000000000194 .L0 
     /tmp/ccZGc2Jr.s:249    .text:000000000000019c .L0 
     /tmp/ccZGc2Jr.s:252    .text:00000000000001a0 .L0 
     /tmp/ccZGc2Jr.s:253    .text:00000000000001a0 .L0 
     /tmp/ccZGc2Jr.s:254    .text:00000000000001a0 .L0 
     /tmp/ccZGc2Jr.s:261    .text:00000000000001ac .L0 
     /tmp/ccZGc2Jr.s:262    .text:00000000000001ac .L0 
     /tmp/ccZGc2Jr.s:267    .text:00000000000001b0 .L0 
     /tmp/ccZGc2Jr.s:269    .text:00000000000001b4 .L0 
     /tmp/ccZGc2Jr.s:270    .text:00000000000001b4 .L0 
     /tmp/ccZGc2Jr.s:273    .text:00000000000001bc .L0 
     /tmp/ccZGc2Jr.s:276    .text:00000000000001c0 .L0 
     /tmp/ccZGc2Jr.s:277    .text:00000000000001c0 .L0 
     /tmp/ccZGc2Jr.s:279    .text:00000000000001c8 .L0 
     /tmp/ccZGc2Jr.s:281    .text:00000000000001cc .L0 
     /tmp/ccZGc2Jr.s:282    .text:00000000000001cc .L0 
     /tmp/ccZGc2Jr.s:284    .text:00000000000001d0 .L0 
     /tmp/ccZGc2Jr.s:286    .text:00000000000001d4 .L0 
     /tmp/ccZGc2Jr.s:295    .bss:0000000000000000 userProcess
     /tmp/ccZGc2Jr.s:292    .bss:0000000000000000 .LANCHOR0
     /tmp/ccZGc2Jr.s:302    .text:00000000000001d4 .L0 
     /tmp/ccZGc2Jr.s:114    .text:000000000000006c .L0 
     /tmp/ccZGc2Jr.s:123    .text:000000000000007c .L0 
     /tmp/ccZGc2Jr.s:139    .text:00000000000000a8 .L0 
GAS LISTING /tmp/ccZGc2Jr.s 			page 14


     /tmp/ccZGc2Jr.s:144    .text:00000000000000b8 .L0 
     /tmp/ccZGc2Jr.s:145    .text:00000000000000c0 .L0 
     /tmp/ccZGc2Jr.s:152    .text:00000000000000d4 .L0 
     /tmp/ccZGc2Jr.s:153    .text:00000000000000dc .L0 
     /tmp/ccZGc2Jr.s:159    .text:00000000000000f0 .L0 
     /tmp/ccZGc2Jr.s:160    .text:00000000000000f8 .L0 
     /tmp/ccZGc2Jr.s:165    .text:0000000000000108 .L0 
     /tmp/ccZGc2Jr.s:191    .text:0000000000000128 .L0 
     /tmp/ccZGc2Jr.s:197    .text:000000000000013c .L0 
     /tmp/ccZGc2Jr.s:203    .text:0000000000000150 .L0 
     /tmp/ccZGc2Jr.s:224    .text:000000000000016c .L0 
     /tmp/ccZGc2Jr.s:225    .text:0000000000000174 .L0 
     /tmp/ccZGc2Jr.s:232    .text:0000000000000184 .L0 
     /tmp/ccZGc2Jr.s:254    .text:00000000000001a0 .L0 
     /tmp/ccZGc2Jr.s:20     .text:000000000000000c .L2
     /tmp/ccZGc2Jr.s:250    .text:00000000000001a0 .L9
     /tmp/ccZGc2Jr.s:228    .text:0000000000000184 .L10
     /tmp/ccZGc2Jr.s:274    .text:00000000000001c0 .L11
     /tmp/ccZGc2Jr.s:1712   .debug_abbrev:0000000000000000 .Ldebug_abbrev0
     /tmp/ccZGc2Jr.s:2957   .debug_str:00000000000008cf .LASF183
     /tmp/ccZGc2Jr.s:2729   .debug_str:0000000000000295 .LASF184
     /tmp/ccZGc2Jr.s:2753   .debug_str:000000000000033c .LASF185
     /tmp/ccZGc2Jr.s:5      .text:0000000000000000 .Ltext0
     /tmp/ccZGc2Jr.s:298    .text:00000000000001d4 .Letext0
     /tmp/ccZGc2Jr.s:2647   .debug_line:0000000000000000 .Ldebug_line0
     /tmp/ccZGc2Jr.s:2759   .debug_str:0000000000000370 .LASF0
     /tmp/ccZGc2Jr.s:2789   .debug_str:000000000000044f .LASF1
     /tmp/ccZGc2Jr.s:2895   .debug_str:0000000000000738 .LASF2
     /tmp/ccZGc2Jr.s:2903   .debug_str:000000000000077f .LASF4
     /tmp/ccZGc2Jr.s:2773   .debug_str:00000000000003c8 .LASF3
     /tmp/ccZGc2Jr.s:2657   .debug_str:0000000000000032 .LASF5
     /tmp/ccZGc2Jr.s:2861   .debug_str:000000000000064d .LASF6
     /tmp/ccZGc2Jr.s:2853   .debug_str:0000000000000610 .LASF7
     /tmp/ccZGc2Jr.s:2781   .debug_str:0000000000000410 .LASF8
     /tmp/ccZGc2Jr.s:2735   .debug_str:00000000000002b3 .LASF9
     /tmp/ccZGc2Jr.s:2741   .debug_str:00000000000002e8 .LASF10
     /tmp/ccZGc2Jr.s:2679   .debug_str:00000000000000f9 .LASF11
     /tmp/ccZGc2Jr.s:2727   .debug_str:0000000000000286 .LASF12
     /tmp/ccZGc2Jr.s:2681   .debug_str:0000000000000108 .LASF13
     /tmp/ccZGc2Jr.s:2677   .debug_str:00000000000000e9 .LASF14
     /tmp/ccZGc2Jr.s:2935   .debug_str:000000000000085c .LASF15
     /tmp/ccZGc2Jr.s:2707   .debug_str:00000000000001e4 .LASF16
     /tmp/ccZGc2Jr.s:2925   .debug_str:0000000000000822 .LASF17
     /tmp/ccZGc2Jr.s:2725   .debug_str:0000000000000279 .LASF18
     /tmp/ccZGc2Jr.s:2723   .debug_str:000000000000026c .LASF186
     /tmp/ccZGc2Jr.s:2945   .debug_str:0000000000000893 .LASF19
     /tmp/ccZGc2Jr.s:2997   .debug_str:0000000000000ac8 .LASF21
     /tmp/ccZGc2Jr.s:2699   .debug_str:0000000000000199 .LASF20
     /tmp/ccZGc2Jr.s:2969   .debug_str:00000000000009db .LASF22
     /tmp/ccZGc2Jr.s:2943   .debug_str:0000000000000883 .LASF23
     /tmp/ccZGc2Jr.s:2775   .debug_str:00000000000003da .LASF24
     /tmp/ccZGc2Jr.s:2717   .debug_str:0000000000000239 .LASF27
     /tmp/ccZGc2Jr.s:3025   .debug_str:0000000000000bab .LASF29
     /tmp/ccZGc2Jr.s:2743   .debug_str:00000000000002f6 .LASF25
     /tmp/ccZGc2Jr.s:2795   .debug_str:000000000000048e .LASF26
     /tmp/ccZGc2Jr.s:2825   .debug_str:000000000000054b .LASF28
     /tmp/ccZGc2Jr.s:3023   .debug_str:0000000000000b90 .LASF30
GAS LISTING /tmp/ccZGc2Jr.s 			page 15


     /tmp/ccZGc2Jr.s:2949   .debug_str:00000000000008a3 .LASF31
     /tmp/ccZGc2Jr.s:3007   .debug_str:0000000000000b2a .LASF32
     /tmp/ccZGc2Jr.s:2975   .debug_str:0000000000000a18 .LASF33
     /tmp/ccZGc2Jr.s:2959   .debug_str:0000000000000993 .LASF34
     /tmp/ccZGc2Jr.s:2693   .debug_str:0000000000000175 .LASF35
     /tmp/ccZGc2Jr.s:2899   .debug_str:0000000000000759 .LASF36
     /tmp/ccZGc2Jr.s:2671   .debug_str:00000000000000b9 .LASF37
     /tmp/ccZGc2Jr.s:2745   .debug_str:0000000000000304 .LASF38
     /tmp/ccZGc2Jr.s:3015   .debug_str:0000000000000b5e .LASF39
     /tmp/ccZGc2Jr.s:2661   .debug_str:0000000000000044 .LASF40
     /tmp/ccZGc2Jr.s:2921   .debug_str:000000000000080d .LASF187
     /tmp/ccZGc2Jr.s:2985   .debug_str:0000000000000a5d .LASF41
     /tmp/ccZGc2Jr.s:2913   .debug_str:00000000000007d1 .LASF42
     /tmp/ccZGc2Jr.s:2793   .debug_str:0000000000000488 .LASF47
     /tmp/ccZGc2Jr.s:2797   .debug_str:00000000000004a8 .LASF49
     /tmp/ccZGc2Jr.s:2953   .debug_str:00000000000008ba .LASF51
     /tmp/ccZGc2Jr.s:2787   .debug_str:000000000000044a .LASF43
     /tmp/ccZGc2Jr.s:3009   .debug_str:0000000000000b40 .LASF44
     /tmp/ccZGc2Jr.s:3013   .debug_str:0000000000000b51 .LASF45
     /tmp/ccZGc2Jr.s:2711   .debug_str:00000000000001ff .LASF46
     /tmp/ccZGc2Jr.s:2649   .debug_str:0000000000000000 .LASF53
     /tmp/ccZGc2Jr.s:2769   .debug_str:00000000000003a6 .LASF59
     /tmp/ccZGc2Jr.s:2751   .debug_str:0000000000000331 .LASF129
     /tmp/ccZGc2Jr.s:2669   .debug_str:00000000000000a3 .LASF131
     /tmp/ccZGc2Jr.s:2849   .debug_str:00000000000005ea .LASF48
     /tmp/ccZGc2Jr.s:2673   .debug_str:00000000000000c5 .LASF50
     /tmp/ccZGc2Jr.s:2879   .debug_str:00000000000006c3 .LASF52
     /tmp/ccZGc2Jr.s:2685   .debug_str:000000000000012b .LASF96
     /tmp/ccZGc2Jr.s:2715   .debug_str:000000000000022c .LASF54
     /tmp/ccZGc2Jr.s:2705   .debug_str:00000000000001cb .LASF56
     /tmp/ccZGc2Jr.s:2821   .debug_str:0000000000000533 .LASF55
     /tmp/ccZGc2Jr.s:2691   .debug_str:000000000000015e .LASF57
     /tmp/ccZGc2Jr.s:2915   .debug_str:00000000000007f3 .LASF58
     /tmp/ccZGc2Jr.s:2785   .debug_str:000000000000042d .LASF60
     /tmp/ccZGc2Jr.s:2653   .debug_str:0000000000000018 .LASF61
     /tmp/ccZGc2Jr.s:2919   .debug_str:0000000000000807 .LASF62
     /tmp/ccZGc2Jr.s:2993   .debug_str:0000000000000ab0 .LASF63
     /tmp/ccZGc2Jr.s:2783   .debug_str:0000000000000423 .LASF64
     /tmp/ccZGc2Jr.s:3011   .debug_str:0000000000000b4c .LASF65
     /tmp/ccZGc2Jr.s:2923   .debug_str:0000000000000819 .LASF66
     /tmp/ccZGc2Jr.s:2847   .debug_str:00000000000005e2 .LASF67
     /tmp/ccZGc2Jr.s:2803   .debug_str:00000000000004d7 .LASF68
     /tmp/ccZGc2Jr.s:2999   .debug_str:0000000000000adf .LASF69
     /tmp/ccZGc2Jr.s:2697   .debug_str:000000000000018b .LASF70
     /tmp/ccZGc2Jr.s:2963   .debug_str:00000000000009b1 .LASF71
     /tmp/ccZGc2Jr.s:2911   .debug_str:00000000000007c0 .LASF188
     /tmp/ccZGc2Jr.s:2695   .debug_str:0000000000000182 .LASF77
     /tmp/ccZGc2Jr.s:2665   .debug_str:0000000000000079 .LASF79
     /tmp/ccZGc2Jr.s:2761   .debug_str:000000000000037d .LASF72
     /tmp/ccZGc2Jr.s:2987   .debug_str:0000000000000a6e .LASF73
     /tmp/ccZGc2Jr.s:2763   .debug_str:000000000000038c .LASF74
     /tmp/ccZGc2Jr.s:2907   .debug_str:000000000000078d .LASF75
     /tmp/ccZGc2Jr.s:2801   .debug_str:00000000000004cd .LASF76
     /tmp/ccZGc2Jr.s:2871   .debug_str:0000000000000683 .LASF78
     /tmp/ccZGc2Jr.s:3001   .debug_str:0000000000000aec .LASF80
     /tmp/ccZGc2Jr.s:2811   .debug_str:0000000000000504 .LASF81
     /tmp/ccZGc2Jr.s:2675   .debug_str:00000000000000dd .LASF82
GAS LISTING /tmp/ccZGc2Jr.s 			page 16


     /tmp/ccZGc2Jr.s:2737   .debug_str:00000000000002c3 .LASF83
     /tmp/ccZGc2Jr.s:2961   .debug_str:00000000000009ac .LASF84
     /tmp/ccZGc2Jr.s:2995   .debug_str:0000000000000ab9 .LASF85
     /tmp/ccZGc2Jr.s:2941   .debug_str:000000000000087c .LASF86
     /tmp/ccZGc2Jr.s:2779   .debug_str:00000000000003ff .LASF87
     /tmp/ccZGc2Jr.s:2655   .debug_str:0000000000000023 .LASF88
     /tmp/ccZGc2Jr.s:2991   .debug_str:0000000000000a96 .LASF89
     /tmp/ccZGc2Jr.s:2951   .debug_str:00000000000008ae .LASF90
     /tmp/ccZGc2Jr.s:2939   .debug_str:000000000000086f .LASF91
     /tmp/ccZGc2Jr.s:2889   .debug_str:0000000000000707 .LASF92
     /tmp/ccZGc2Jr.s:3005   .debug_str:0000000000000b0f .LASF93
     /tmp/ccZGc2Jr.s:2901   .debug_str:0000000000000771 .LASF94
     /tmp/ccZGc2Jr.s:2703   .debug_str:00000000000001b2 .LASF95
     /tmp/ccZGc2Jr.s:2867   .debug_str:0000000000000670 .LASF97
     /tmp/ccZGc2Jr.s:2757   .debug_str:000000000000036a .LASF98
     /tmp/ccZGc2Jr.s:2863   .debug_str:0000000000000654 .LASF99
     /tmp/ccZGc2Jr.s:2651   .debug_str:0000000000000010 .LASF100
     /tmp/ccZGc2Jr.s:3017   .debug_str:0000000000000b6d .LASF101
     /tmp/ccZGc2Jr.s:2929   .debug_str:0000000000000842 .LASF102
     /tmp/ccZGc2Jr.s:2833   .debug_str:000000000000057e .LASF103
     /tmp/ccZGc2Jr.s:2755   .debug_str:0000000000000361 .LASF104
     /tmp/ccZGc2Jr.s:2937   .debug_str:0000000000000868 .LASF105
     /tmp/ccZGc2Jr.s:2739   .debug_str:00000000000002db .LASF120
     /tmp/ccZGc2Jr.s:2965   .debug_str:00000000000009bb .LASF106
     /tmp/ccZGc2Jr.s:2819   .debug_str:000000000000052a .LASF107
     /tmp/ccZGc2Jr.s:2933   .debug_str:000000000000084e .LASF108
     /tmp/ccZGc2Jr.s:2813   .debug_str:0000000000000509 .LASF109
     /tmp/ccZGc2Jr.s:2877   .debug_str:00000000000006b3 .LASF110
     /tmp/ccZGc2Jr.s:2855   .debug_str:0000000000000623 .LASF111
     /tmp/ccZGc2Jr.s:2883   .debug_str:00000000000006df .LASF112
     /tmp/ccZGc2Jr.s:2875   .debug_str:00000000000006a9 .LASF113
     /tmp/ccZGc2Jr.s:2917   .debug_str:00000000000007fe .LASF114
     /tmp/ccZGc2Jr.s:2747   .debug_str:000000000000031b .LASF115
     /tmp/ccZGc2Jr.s:2887   .debug_str:00000000000006fc .LASF116
     /tmp/ccZGc2Jr.s:2765   .debug_str:000000000000039b .LASF117
     /tmp/ccZGc2Jr.s:2815   .debug_str:0000000000000515 .LASF118
     /tmp/ccZGc2Jr.s:2777   .debug_str:00000000000003f6 .LASF119
     /tmp/ccZGc2Jr.s:2977   .debug_str:0000000000000a26 .LASF121
     /tmp/ccZGc2Jr.s:2719   .debug_str:0000000000000249 .LASF122
     /tmp/ccZGc2Jr.s:2955   .debug_str:00000000000008c2 .LASF123
     /tmp/ccZGc2Jr.s:2687   .debug_str:000000000000013e .LASF124
     /tmp/ccZGc2Jr.s:3003   .debug_str:0000000000000b07 .LASF125
     /tmp/ccZGc2Jr.s:2771   .debug_str:00000000000003b3 .LASF126
     /tmp/ccZGc2Jr.s:2749   .debug_str:0000000000000326 .LASF127
     /tmp/ccZGc2Jr.s:2851   .debug_str:00000000000005f7 .LASF128
     /tmp/ccZGc2Jr.s:2973   .debug_str:0000000000000a0f .LASF130
     /tmp/ccZGc2Jr.s:2891   .debug_str:0000000000000717 .LASF132
     /tmp/ccZGc2Jr.s:3019   .debug_str:0000000000000b7f .LASF133
     /tmp/ccZGc2Jr.s:2873   .debug_str:0000000000000693 .LASF134
     /tmp/ccZGc2Jr.s:2869   .debug_str:000000000000067c .LASF135
     /tmp/ccZGc2Jr.s:2843   .debug_str:00000000000005c3 .LASF136
     /tmp/ccZGc2Jr.s:2841   .debug_str:00000000000005bc .LASF137
     /tmp/ccZGc2Jr.s:2885   .debug_str:00000000000006e8 .LASF138
     /tmp/ccZGc2Jr.s:2829   .debug_str:000000000000056e .LASF139
     /tmp/ccZGc2Jr.s:2909   .debug_str:00000000000007ab .LASF140
     /tmp/ccZGc2Jr.s:2831   .debug_str:0000000000000576 .LASF141
     /tmp/ccZGc2Jr.s:2799   .debug_str:00000000000004b8 .LASF142
GAS LISTING /tmp/ccZGc2Jr.s 			page 17


     /tmp/ccZGc2Jr.s:2807   .debug_str:00000000000004ec .LASF143
     /tmp/ccZGc2Jr.s:2827   .debug_str:0000000000000559 .LASF144
     /tmp/ccZGc2Jr.s:3021   .debug_str:0000000000000b88 .LASF145
     /tmp/ccZGc2Jr.s:2971   .debug_str:00000000000009fa .LASF146
     /tmp/ccZGc2Jr.s:2931   .debug_str:0000000000000847 .LASF147
     /tmp/ccZGc2Jr.s:2859   .debug_str:0000000000000639 .LASF148
     /tmp/ccZGc2Jr.s:2905   .debug_str:0000000000000786 .LASF149
     /tmp/ccZGc2Jr.s:2689   .debug_str:000000000000014a .LASF150
     /tmp/ccZGc2Jr.s:2701   .debug_str:00000000000001ac .LASF151
     /tmp/ccZGc2Jr.s:2897   .debug_str:0000000000000746 .LASF152
     /tmp/ccZGc2Jr.s:2767   .debug_str:00000000000003a0 .LASF153
     /tmp/ccZGc2Jr.s:2839   .debug_str:00000000000005a9 .LASF154
     /tmp/ccZGc2Jr.s:2659   .debug_str:0000000000000039 .LASF155
     /tmp/ccZGc2Jr.s:2981   .debug_str:0000000000000a3a .LASF156
     /tmp/ccZGc2Jr.s:2893   .debug_str:000000000000072d .LASF157
     /tmp/ccZGc2Jr.s:2835   .debug_str:0000000000000583 .LASF158
     /tmp/ccZGc2Jr.s:2989   .debug_str:0000000000000a8c .LASF159
     /tmp/ccZGc2Jr.s:2721   .debug_str:0000000000000255 .LASF160
     /tmp/ccZGc2Jr.s:2983   .debug_str:0000000000000a53 .LASF161
     /tmp/ccZGc2Jr.s:2667   .debug_str:000000000000008c .LASF162
     /tmp/ccZGc2Jr.s:2947   .debug_str:000000000000089e .LASF163
     /tmp/ccZGc2Jr.s:2733   .debug_str:00000000000002a7 .LASF164
     /tmp/ccZGc2Jr.s:101    .text:000000000000005c .LFB35
     /tmp/ccZGc2Jr.s:287    .text:00000000000001d4 .LFE35
     /tmp/ccZGc2Jr.s:2575   .debug_loc:0000000000000000 .LLST0
     /tmp/ccZGc2Jr.s:168    .text:0000000000000114 .LBB12
     /tmp/ccZGc2Jr.s:177    .text:000000000000011c .LBE12
     /tmp/ccZGc2Jr.s:2582   .debug_loc:0000000000000023 .LLST1
     /tmp/ccZGc2Jr.s:2590   .debug_loc:0000000000000047 .LLST2
     /tmp/ccZGc2Jr.s:179    .text:000000000000011c .LBB14
     /tmp/ccZGc2Jr.s:187    .text:0000000000000124 .LBE14
     /tmp/ccZGc2Jr.s:2597   .debug_loc:000000000000006a .LLST3
     /tmp/ccZGc2Jr.s:2605   .debug_loc:000000000000008e .LLST4
     /tmp/ccZGc2Jr.s:207    .text:0000000000000160 .LBB16
     /tmp/ccZGc2Jr.s:220    .text:0000000000000168 .LBE16
     /tmp/ccZGc2Jr.s:2612   .debug_loc:00000000000000b1 .LLST5
     /tmp/ccZGc2Jr.s:234    .text:000000000000018c .LBB18
     /tmp/ccZGc2Jr.s:241    .text:0000000000000190 .LBE18
     /tmp/ccZGc2Jr.s:2620   .debug_loc:00000000000000d5 .LLST6
     /tmp/ccZGc2Jr.s:257    .text:00000000000001ac .LBB20
     /tmp/ccZGc2Jr.s:265    .text:00000000000001b0 .LBE20
     /tmp/ccZGc2Jr.s:2627   .debug_loc:00000000000000f8 .LLST7
     /tmp/ccZGc2Jr.s:126    .text:0000000000000090 .LVL2
     /tmp/ccZGc2Jr.s:130    .text:0000000000000098 .LVL3
     /tmp/ccZGc2Jr.s:136    .text:00000000000000a8 .LVL4
     /tmp/ccZGc2Jr.s:148    .text:00000000000000d0 .LVL6
     /tmp/ccZGc2Jr.s:155    .text:00000000000000ec .LVL7
     /tmp/ccZGc2Jr.s:162    .text:0000000000000108 .LVL8
     /tmp/ccZGc2Jr.s:193    .text:0000000000000138 .LVL12
     /tmp/ccZGc2Jr.s:199    .text:000000000000014c .LVL13
     /tmp/ccZGc2Jr.s:205    .text:0000000000000160 .LVL14
     /tmp/ccZGc2Jr.s:227    .text:0000000000000184 .LVL16
     /tmp/ccZGc2Jr.s:247    .text:000000000000019c .LVL19
     /tmp/ccZGc2Jr.s:271    .text:00000000000001bc .LVL22
     /tmp/ccZGc2Jr.s:2865   .debug_str:0000000000000664 .LASF165
     /tmp/ccZGc2Jr.s:10     .text:0000000000000000 .LFB34
     /tmp/ccZGc2Jr.s:25     .text:0000000000000010 .LFE34
GAS LISTING /tmp/ccZGc2Jr.s 			page 18


     /tmp/ccZGc2Jr.s:2817   .debug_str:000000000000051a .LASF166
     /tmp/ccZGc2Jr.s:2967   .debug_str:00000000000009c5 .LASF167
     /tmp/ccZGc2Jr.s:31     .text:0000000000000010 .LFB33
     /tmp/ccZGc2Jr.s:57     .text:0000000000000038 .LFE33
     /tmp/ccZGc2Jr.s:46     .text:0000000000000028 .LVL0
     /tmp/ccZGc2Jr.s:2837   .debug_str:000000000000059c .LASF168
     /tmp/ccZGc2Jr.s:63     .text:0000000000000038 .LFB32
     /tmp/ccZGc2Jr.s:95     .text:000000000000005c .LFE32
     /tmp/ccZGc2Jr.s:2709   .debug_str:00000000000001fa .LASF169
     /tmp/ccZGc2Jr.s:2979   .debug_str:0000000000000a35 .LASF171
     /tmp/ccZGc2Jr.s:2731   .debug_str:00000000000002a2 .LASF170
     /tmp/ccZGc2Jr.s:2927   .debug_str:0000000000000838 .LASF172
     /tmp/ccZGc2Jr.s:2845   .debug_str:00000000000005d7 .LASF173
     /tmp/ccZGc2Jr.s:2809   .debug_str:00000000000004f4 .LASF174
     /tmp/ccZGc2Jr.s:2805   .debug_str:00000000000004e2 .LASF176
     /tmp/ccZGc2Jr.s:2713   .debug_str:000000000000020b .LASF175
     /tmp/ccZGc2Jr.s:2791   .debug_str:0000000000000462 .LASF177
     /tmp/ccZGc2Jr.s:2683   .debug_str:0000000000000118 .LASF178
     /tmp/ccZGc2Jr.s:2881   .debug_str:00000000000006cc .LASF179
     /tmp/ccZGc2Jr.s:2663   .debug_str:0000000000000064 .LASF180
     /tmp/ccZGc2Jr.s:2823   .debug_str:000000000000053e .LASF181
     /tmp/ccZGc2Jr.s:2857   .debug_str:0000000000000630 .LASF182
     /tmp/ccZGc2Jr.s:146    .text:00000000000000c8 .LVL5
     /tmp/ccZGc2Jr.s:167    .text:0000000000000114 .LVL9
     /tmp/ccZGc2Jr.s:175    .text:000000000000011c .LVL10
     /tmp/ccZGc2Jr.s:185    .text:0000000000000124 .LVL11
     /tmp/ccZGc2Jr.s:217    .text:0000000000000168 .LVL15
     /tmp/ccZGc2Jr.s:233    .text:000000000000018c .LVL17
     /tmp/ccZGc2Jr.s:239    .text:0000000000000190 .LVL18
     /tmp/ccZGc2Jr.s:256    .text:00000000000001ac .LVL20
     /tmp/ccZGc2Jr.s:263    .text:00000000000001b0 .LVL21
     /tmp/ccZGc2Jr.s:303    .debug_info:0000000000000000 .Ldebug_info0

UNDEFINED SYMBOLS
_Z8userMainv
interrupt
HEAP_START_ADDR
_Z9kmem_initPvi
_ZN3PCB12initPCBCacheEv
_ZN3PCB16createSysProcessEPFvvEPv
_ZN3PCB7runningE
_ZN3CCB9inputBodyEPv
_ZN3CCB12inputProccesE
_Z13thread_createPP3PCBPFvPvES2_
_ZN3CCB10outputBodyEPv
_ZN3CCB13outputProcessE
_ZN9Scheduler11idleProcessE
_Z18thread_create_onlyPP3PCBPFvPvES2_
_ZN3CCB8semInputE
_Z8sem_openPP3SCBj
_ZN3CCB9semOutputE
_ZN3CCB16inputBufferEmptyE
_Z15thread_dispatchv
