GAS LISTING /tmp/ccFDOYjH.s 			page 1


   1              		.file	"main.cpp"
   2              		.option pic
   3              		.option norelax
   4              		.text
   5              	.Ltext0:
   6              		.align	2
   7              		.globl	main
   9              	main:
  10              	.LFB9:
  11              		.file 1 "src/main.cpp"
   1:src/main.cpp  **** #include "../lib/hw.h"
   2:src/main.cpp  **** #include "../lib/console.h"
   3:src/main.cpp  **** #include "../h/MemoryAllocator.h"
   4:src/main.cpp  **** 
   5:src/main.cpp  **** int main() {
  12              		.loc 1 5 12
  13              		.cfi_startproc
  14 0000 130101FE 		addi	sp,sp,-32
  15              		.cfi_def_cfa_offset 32
  16 0004 233C1100 		sd	ra,24(sp)
  17 0008 23388100 		sd	s0,16(sp)
  18 000c 23349100 		sd	s1,8(sp)
  19 0010 23302101 		sd	s2,0(sp)
  20              		.cfi_offset 1, -8
  21              		.cfi_offset 8, -16
  22              		.cfi_offset 9, -24
  23              		.cfi_offset 18, -32
  24 0014 13040102 		addi	s0,sp,32
  25              		.cfi_def_cfa 8, 0
   6:src/main.cpp  **** 
   7:src/main.cpp  ****     int* par = (int*)MemoryAllocator::mem_alloc(3*sizeof(int));
  26              		.loc 1 7 5
  27              		.loc 1 7 48 is_stmt 0
  28 0018 1305C000 		li	a0,12
  29 001c 97000000 		call	_ZN15MemoryAllocator9mem_allocEm@plt
  29      E7800000 
  30              	.LVL0:
  31 0024 13090500 		mv	s2,a0
  32              	.LVL1:
   8:src/main.cpp  ****     for(int i = 1; i < 4; i++) {
  33              		.loc 1 8 5 is_stmt 1
  34              	.LBB2:
  35              		.loc 1 8 13 is_stmt 0
  36 0028 13071000 		li	a4,1
  37 002c 6F008001 		j	.L3
  38              	.LVL2:
  39              	.L7:
   9:src/main.cpp  ****         par[i-1] = i;
  40              		.loc 1 9 9 is_stmt 1 discriminator 2
  41              		.loc 1 9 16 is_stmt 0 discriminator 2
  42 0030 93172700 		slli	a5,a4,2
  43 0034 9387C7FF 		addi	a5,a5,-4
  44 0038 B307F900 		add	a5,s2,a5
  45              		.loc 1 9 18 discriminator 2
  46 003c 23A0E700 		sw	a4,0(a5)
   8:src/main.cpp  ****     for(int i = 1; i < 4; i++) {
  47              		.loc 1 8 5 is_stmt 1 discriminator 2
GAS LISTING /tmp/ccFDOYjH.s 			page 2


  48 0040 1B071700 		addiw	a4,a4,1
  49              	.LVL3:
  50              	.L3:
   8:src/main.cpp  ****     for(int i = 1; i < 4; i++) {
  51              		.loc 1 8 22 discriminator 3
  52 0044 93073000 		li	a5,3
  53 0048 E3D4E7FE 		ble	a4,a5,.L7
  54              	.LBE2:
  10:src/main.cpp  ****     }
  11:src/main.cpp  **** 
  12:src/main.cpp  ****     size_t t = *(size_t*)((char*)par - MemoryAllocator::SegmentOffset);
  55              		.loc 1 12 5
  56              	.LVL4:
  13:src/main.cpp  ****     __putc(t);
  57              		.loc 1 13 5
  58              		.loc 1 13 11 is_stmt 0
  59 004c 034589FF 		lbu	a0,-8(s2)
  60              	.LVL5:
  61 0050 97000000 		call	__putc@plt
  61      E7800000 
  62              	.LVL6:
  14:src/main.cpp  **** 
  15:src/main.cpp  ****     for(int i = 0; i < 3; i++) {
  63              		.loc 1 15 5 is_stmt 1
  64              	.LBB3:
  65              		.loc 1 15 13 is_stmt 0
  66 0058 93040000 		li	s1,0
  67 005c 6F000003 		j	.L5
  68              	.LVL7:
  69              	.L8:
  16:src/main.cpp  ****         __putc('0' + par[i]);
  70              		.loc 1 16 9 is_stmt 1 discriminator 2
  71              		.loc 1 16 27 is_stmt 0 discriminator 2
  72 0060 93972400 		slli	a5,s1,2
  73 0064 B307F900 		add	a5,s2,a5
  74 0068 03A50700 		lw	a0,0(a5)
  75              		.loc 1 16 15 discriminator 2
  76 006c 1B050503 		addiw	a0,a0,48
  77 0070 1375F50F 		andi	a0,a0,0xff
  78 0074 97000000 		call	__putc@plt
  78      E7800000 
  79              	.LVL8:
  17:src/main.cpp  ****         __putc('\n');
  80              		.loc 1 17 9 is_stmt 1 discriminator 2
  81              		.loc 1 17 15 is_stmt 0 discriminator 2
  82 007c 1305A000 		li	a0,10
  83 0080 97000000 		call	__putc@plt
  83      E7800000 
  84              	.LVL9:
  15:src/main.cpp  ****         __putc('0' + par[i]);
  85              		.loc 1 15 5 is_stmt 1 discriminator 2
  86 0088 9B841400 		addiw	s1,s1,1
  87              	.LVL10:
  88              	.L5:
  15:src/main.cpp  ****         __putc('0' + par[i]);
  89              		.loc 1 15 22 discriminator 3
  90 008c 93072000 		li	a5,2
GAS LISTING /tmp/ccFDOYjH.s 			page 3


  91 0090 E3D897FC 		ble	s1,a5,.L8
  92              	.LBE3:
  18:src/main.cpp  ****     }
  19:src/main.cpp  **** 
  20:src/main.cpp  ****     return 0;
  93              		.loc 1 20 5
  21:src/main.cpp  **** }...
  94              		.loc 1 21 1 is_stmt 0
  95 0094 13050000 		li	a0,0
  96 0098 83308101 		ld	ra,24(sp)
  97              		.cfi_restore 1
  98 009c 03340101 		ld	s0,16(sp)
  99              		.cfi_restore 8
 100              		.cfi_def_cfa 2, 32
 101 00a0 83348100 		ld	s1,8(sp)
 102              		.cfi_restore 9
 103              	.LVL11:
 104 00a4 03390100 		ld	s2,0(sp)
 105              		.cfi_restore 18
 106              	.LVL12:
 107 00a8 13010102 		addi	sp,sp,32
 108              		.cfi_def_cfa_offset 0
 109 00ac 67800000 		jr	ra
 110              		.cfi_endproc
 111              	.LFE9:
 113              	.Letext0:
 114              		.file 2 "src/../lib/hw.h"
 115              		.file 3 "src/../h/MemoryAllocator.h"
 116              		.file 4 "src/../lib/console.h"
GAS LISTING /tmp/ccFDOYjH.s 			page 4


DEFINED SYMBOLS
                            *ABS*:0000000000000000 main.cpp
     /tmp/ccFDOYjH.s:9      .text:0000000000000000 main
     /tmp/ccFDOYjH.s:13     .text:0000000000000000 .L0 
     /tmp/ccFDOYjH.s:14     .text:0000000000000000 .L0 
     /tmp/ccFDOYjH.s:15     .text:0000000000000004 .L0 
     /tmp/ccFDOYjH.s:20     .text:0000000000000014 .L0 
     /tmp/ccFDOYjH.s:21     .text:0000000000000014 .L0 
     /tmp/ccFDOYjH.s:22     .text:0000000000000014 .L0 
     /tmp/ccFDOYjH.s:23     .text:0000000000000014 .L0 
     /tmp/ccFDOYjH.s:25     .text:0000000000000018 .L0 
     /tmp/ccFDOYjH.s:27     .text:0000000000000018 .L0 
     /tmp/ccFDOYjH.s:28     .text:0000000000000018 .L0 
     /tmp/ccFDOYjH.s:35     .text:0000000000000028 .L0 
     /tmp/ccFDOYjH.s:36     .text:0000000000000028 .L0 
     /tmp/ccFDOYjH.s:41     .text:0000000000000030 .L0 
     /tmp/ccFDOYjH.s:42     .text:0000000000000030 .L0 
     /tmp/ccFDOYjH.s:46     .text:000000000000003c .L0 
     /tmp/ccFDOYjH.s:48     .text:0000000000000040 .L0 
     /tmp/ccFDOYjH.s:52     .text:0000000000000044 .L0 
     /tmp/ccFDOYjH.s:57     .text:000000000000004c .L0 
     /tmp/ccFDOYjH.s:58     .text:000000000000004c .L0 
     /tmp/ccFDOYjH.s:59     .text:000000000000004c .L0 
     /tmp/ccFDOYjH.s:65     .text:0000000000000058 .L0 
     /tmp/ccFDOYjH.s:66     .text:0000000000000058 .L0 
     /tmp/ccFDOYjH.s:71     .text:0000000000000060 .L0 
     /tmp/ccFDOYjH.s:72     .text:0000000000000060 .L0 
     /tmp/ccFDOYjH.s:76     .text:000000000000006c .L0 
     /tmp/ccFDOYjH.s:81     .text:000000000000007c .L0 
     /tmp/ccFDOYjH.s:82     .text:000000000000007c .L0 
     /tmp/ccFDOYjH.s:86     .text:0000000000000088 .L0 
     /tmp/ccFDOYjH.s:90     .text:000000000000008c .L0 
     /tmp/ccFDOYjH.s:94     .text:0000000000000094 .L0 
     /tmp/ccFDOYjH.s:95     .text:0000000000000094 .L0 
     /tmp/ccFDOYjH.s:97     .text:000000000000009c .L0 
     /tmp/ccFDOYjH.s:99     .text:00000000000000a0 .L0 
     /tmp/ccFDOYjH.s:100    .text:00000000000000a0 .L0 
     /tmp/ccFDOYjH.s:102    .text:00000000000000a4 .L0 
     /tmp/ccFDOYjH.s:105    .text:00000000000000a8 .L0 
     /tmp/ccFDOYjH.s:108    .text:00000000000000ac .L0 
     /tmp/ccFDOYjH.s:110    .text:00000000000000b0 .L0 
     /tmp/ccFDOYjH.s:117    .text:00000000000000b0 .L0 
     /tmp/ccFDOYjH.s:50     .text:0000000000000044 .L3
     /tmp/ccFDOYjH.s:39     .text:0000000000000030 .L7
     /tmp/ccFDOYjH.s:88     .text:000000000000008c .L5
     /tmp/ccFDOYjH.s:69     .text:0000000000000060 .L8
     /tmp/ccFDOYjH.s:492    .debug_abbrev:0000000000000000 .Ldebug_abbrev0
     /tmp/ccFDOYjH.s:1042   .debug_str:0000000000000049 .LASF35
     /tmp/ccFDOYjH.s:1078   .debug_str:0000000000000220 .LASF36
     /tmp/ccFDOYjH.s:1112   .debug_str:0000000000000391 .LASF37
     /tmp/ccFDOYjH.s:5      .text:0000000000000000 .Ltext0
     /tmp/ccFDOYjH.s:113    .text:00000000000000b0 .Letext0
     /tmp/ccFDOYjH.s:1026   .debug_line:0000000000000000 .Ldebug_line0
     /tmp/ccFDOYjH.s:1080   .debug_str:000000000000022d .LASF0
     /tmp/ccFDOYjH.s:1064   .debug_str:00000000000001b2 .LASF1
     /tmp/ccFDOYjH.s:1056   .debug_str:0000000000000179 .LASF2
     /tmp/ccFDOYjH.s:1038   .debug_str:000000000000003d .LASF4
GAS LISTING /tmp/ccFDOYjH.s 			page 5


     /tmp/ccFDOYjH.s:1060   .debug_str:0000000000000194 .LASF3
     /tmp/ccFDOYjH.s:1032   .debug_str:0000000000000023 .LASF5
     /tmp/ccFDOYjH.s:1028   .debug_str:0000000000000000 .LASF6
     /tmp/ccFDOYjH.s:1050   .debug_str:0000000000000136 .LASF7
     /tmp/ccFDOYjH.s:1086   .debug_str:0000000000000250 .LASF8
     /tmp/ccFDOYjH.s:1036   .debug_str:000000000000002f .LASF9
     /tmp/ccFDOYjH.s:1118   .debug_str:00000000000003be .LASF10
     /tmp/ccFDOYjH.s:1052   .debug_str:0000000000000149 .LASF11
     /tmp/ccFDOYjH.s:1110   .debug_str:0000000000000381 .LASF12
     /tmp/ccFDOYjH.s:1094   .debug_str:00000000000002a7 .LASF13
     /tmp/ccFDOYjH.s:1066   .debug_str:00000000000001c5 .LASF14
     /tmp/ccFDOYjH.s:1044   .debug_str:00000000000000eb .LASF15
     /tmp/ccFDOYjH.s:1090   .debug_str:0000000000000288 .LASF16
     /tmp/ccFDOYjH.s:1030   .debug_str:0000000000000013 .LASF24
     /tmp/ccFDOYjH.s:1062   .debug_str:00000000000001a6 .LASF38
     /tmp/ccFDOYjH.s:1092   .debug_str:000000000000029e .LASF17
     /tmp/ccFDOYjH.s:1116   .debug_str:00000000000003b9 .LASF18
     /tmp/ccFDOYjH.s:1034   .debug_str:000000000000002a .LASF19
     /tmp/ccFDOYjH.s:1068   .debug_str:00000000000001d1 .LASF39
     /tmp/ccFDOYjH.s:1100   .debug_str:00000000000002e9 .LASF40
     /tmp/ccFDOYjH.s:1108   .debug_str:0000000000000353 .LASF41
     /tmp/ccFDOYjH.s:1114   .debug_str:00000000000003af .LASF20
     /tmp/ccFDOYjH.s:1106   .debug_str:0000000000000332 .LASF22
     /tmp/ccFDOYjH.s:1096   .debug_str:00000000000002b7 .LASF21
     /tmp/ccFDOYjH.s:1054   .debug_str:0000000000000158 .LASF23
     /tmp/ccFDOYjH.s:1074   .debug_str:0000000000000202 .LASF26
     /tmp/ccFDOYjH.s:1076   .debug_str:000000000000021b .LASF42
     /tmp/ccFDOYjH.s:1104   .debug_str:0000000000000325 .LASF25
     /tmp/ccFDOYjH.s:1070   .debug_str:00000000000001d8 .LASF27
     /tmp/ccFDOYjH.s:1058   .debug_str:0000000000000187 .LASF28
     /tmp/ccFDOYjH.s:1048   .debug_str:0000000000000111 .LASF29
     /tmp/ccFDOYjH.s:1046   .debug_str:0000000000000101 .LASF30
     /tmp/ccFDOYjH.s:1098   .debug_str:00000000000002c0 .LASF31
     /tmp/ccFDOYjH.s:1082   .debug_str:000000000000023a .LASF32
     /tmp/ccFDOYjH.s:1088   .debug_str:0000000000000260 .LASF33
     /tmp/ccFDOYjH.s:1102   .debug_str:0000000000000317 .LASF43
     /tmp/ccFDOYjH.s:1040   .debug_str:0000000000000044 .LASF34
     /tmp/ccFDOYjH.s:1072   .debug_str:00000000000001fd .LASF44
     /tmp/ccFDOYjH.s:10     .text:0000000000000000 .LFB9
     /tmp/ccFDOYjH.s:111    .text:00000000000000b0 .LFE9
     /tmp/ccFDOYjH.s:965    .debug_loc:0000000000000000 .LLST0
     /tmp/ccFDOYjH.s:976    .debug_loc:0000000000000036 .LLST1
     /tmp/ccFDOYjH.s:34     .text:0000000000000028 .LBB2
     /tmp/ccFDOYjH.s:54     .text:000000000000004c .LBE2
     /tmp/ccFDOYjH.s:989    .debug_loc:000000000000006e .LLST2
     /tmp/ccFDOYjH.s:64     .text:0000000000000058 .LBB3
     /tmp/ccFDOYjH.s:92     .text:0000000000000094 .LBE3
     /tmp/ccFDOYjH.s:1001   .debug_loc:00000000000000a5 .LLST3
     /tmp/ccFDOYjH.s:79     .text:000000000000007c .LVL8
     /tmp/ccFDOYjH.s:84     .text:0000000000000088 .LVL9
     /tmp/ccFDOYjH.s:30     .text:0000000000000024 .LVL0
     /tmp/ccFDOYjH.s:62     .text:0000000000000058 .LVL6
     /tmp/ccFDOYjH.s:1084   .debug_str:0000000000000249 .LASF45
     /tmp/ccFDOYjH.s:32     .text:0000000000000028 .LVL1
     /tmp/ccFDOYjH.s:60     .text:0000000000000050 .LVL5
     /tmp/ccFDOYjH.s:106    .text:00000000000000a8 .LVL12
     /tmp/ccFDOYjH.s:56     .text:000000000000004c .LVL4
GAS LISTING /tmp/ccFDOYjH.s 			page 6


     /tmp/ccFDOYjH.s:38     .text:0000000000000030 .LVL2
     /tmp/ccFDOYjH.s:68     .text:0000000000000060 .LVL7
     /tmp/ccFDOYjH.s:103    .text:00000000000000a4 .LVL11
     /tmp/ccFDOYjH.s:118    .debug_info:0000000000000000 .Ldebug_info0

UNDEFINED SYMBOLS
_ZN15MemoryAllocator9mem_allocEm
__putc
