GAS LISTING /tmp/ccCfp1ds.s 			page 1


   1              		.file	"MemoryAllocator.cpp"
   2              		.option pic
   3              		.option norelax
   4              		.text
   5              	.Ltext0:
   6              		.align	2
   7              		.globl	_ZN15MemoryAllocator17userHeapStartAddrEv
   9              	_ZN15MemoryAllocator17userHeapStartAddrEv:
  10              	.LFB11:
  11              		.file 1 "src/MemoryAllocator.cpp"
   1:src/MemoryAllocator.cpp **** #include "../h/MemoryAllocator.h"
   2:src/MemoryAllocator.cpp **** 
   3:src/MemoryAllocator.cpp **** MemoryAllocator::FreeSegment* MemoryAllocator::head = nullptr;
   4:src/MemoryAllocator.cpp **** void *MemoryAllocator::mem_alloc(size_t size) {
   5:src/MemoryAllocator.cpp ****     if(head == nullptr) { // ako prvi put alociramo memoriju, alociracemo head na pocetak mem segme
   6:src/MemoryAllocator.cpp ****         head = (FreeSegment*)userHeapStartAddr();
   7:src/MemoryAllocator.cpp ****         head->baseAddr = (void*)((char*)userHeapStartAddr());
   8:src/MemoryAllocator.cpp ****         head->size = ((size_t)userHeapEndAddr() - (size_t)userHeapStartAddr()); // HEAP_END_ADDR je
   9:src/MemoryAllocator.cpp ****         head->next = nullptr;
  10:src/MemoryAllocator.cpp ****     }
  11:src/MemoryAllocator.cpp ****     else if(head == (FreeSegment*)userHeapEndAddr()) { // ako ne postoji slobodan prostor
  12:src/MemoryAllocator.cpp ****         return nullptr;
  13:src/MemoryAllocator.cpp ****     }
  14:src/MemoryAllocator.cpp **** 
  15:src/MemoryAllocator.cpp ****     size += SegmentOffset; // dodajemo zaglavlje
  16:src/MemoryAllocator.cpp ****     size_t numOfBlocksToAllocate = sizeInBlocks(size);
  17:src/MemoryAllocator.cpp **** 
  18:src/MemoryAllocator.cpp ****     FreeSegment *curr = head, *prev = nullptr;
  19:src/MemoryAllocator.cpp ****     while(curr) {
  20:src/MemoryAllocator.cpp ****         size_t freeSegSizeInBlocks = (curr->size/MEM_BLOCK_SIZE); // zaokruzujemo da donji ceo deo
  21:src/MemoryAllocator.cpp ****         size_t allocatedSize;
  22:src/MemoryAllocator.cpp ****         void* startOfAllocatedSpace = curr->baseAddr;
  23:src/MemoryAllocator.cpp ****         if(curr->size >= size && freeSegSizeInBlocks >= numOfBlocksToAllocate) {
  24:src/MemoryAllocator.cpp ****             if(freeSegSizeInBlocks == numOfBlocksToAllocate) { // ako ce preostali slobodan segment
  25:src/MemoryAllocator.cpp ****                 allocatedSize = curr->size;
  26:src/MemoryAllocator.cpp **** 
  27:src/MemoryAllocator.cpp ****                 if(prev == nullptr) { // ako smo na head pokazivacu
  28:src/MemoryAllocator.cpp ****                     if(curr->next == nullptr) { // ako ne postoji slobodan prostor nakon alokacije
  29:src/MemoryAllocator.cpp ****                         head = (FreeSegment*)userHeapEndAddr();
  30:src/MemoryAllocator.cpp ****                     }
  31:src/MemoryAllocator.cpp ****                     else {
  32:src/MemoryAllocator.cpp ****                         head = curr->next;
  33:src/MemoryAllocator.cpp ****                     }
  34:src/MemoryAllocator.cpp ****                 }
  35:src/MemoryAllocator.cpp ****                 else {
  36:src/MemoryAllocator.cpp ****                     FreeSegment::remove(prev);
  37:src/MemoryAllocator.cpp ****                 }
  38:src/MemoryAllocator.cpp ****             }
  39:src/MemoryAllocator.cpp ****             else {
  40:src/MemoryAllocator.cpp ****                 allocatedSize = blocksInSize(numOfBlocksToAllocate);
  41:src/MemoryAllocator.cpp ****                 void* newBaseAddr = ((char*)startOfAllocatedSpace + allocatedSize);
  42:src/MemoryAllocator.cpp ****                 size_t newSize = curr->size - allocatedSize;
  43:src/MemoryAllocator.cpp **** 
  44:src/MemoryAllocator.cpp ****                 FreeSegment* newSeg = (FreeSegment*)newBaseAddr;
  45:src/MemoryAllocator.cpp ****                 newSeg->baseAddr = newBaseAddr;
  46:src/MemoryAllocator.cpp ****                 newSeg->size = newSize;
  47:src/MemoryAllocator.cpp ****                 newSeg->next = curr->next;
GAS LISTING /tmp/ccCfp1ds.s 			page 2


  48:src/MemoryAllocator.cpp **** 
  49:src/MemoryAllocator.cpp ****                 if(!prev) {
  50:src/MemoryAllocator.cpp ****                     head = newSeg;
  51:src/MemoryAllocator.cpp ****                 }
  52:src/MemoryAllocator.cpp ****                 else {
  53:src/MemoryAllocator.cpp ****                     FreeSegment::remove(prev);
  54:src/MemoryAllocator.cpp ****                     FreeSegment::add(prev, curr);
  55:src/MemoryAllocator.cpp ****                 }
  56:src/MemoryAllocator.cpp ****             }
  57:src/MemoryAllocator.cpp **** 
  58:src/MemoryAllocator.cpp ****             ((AllocatedSpaceHeader*)startOfAllocatedSpace)->size = allocatedSize;
  59:src/MemoryAllocator.cpp ****             return (void*)((char*)startOfAllocatedSpace + SegmentOffset);
  60:src/MemoryAllocator.cpp ****         }
  61:src/MemoryAllocator.cpp **** 
  62:src/MemoryAllocator.cpp ****         prev = curr;
  63:src/MemoryAllocator.cpp ****         curr = curr->next;
  64:src/MemoryAllocator.cpp ****     }
  65:src/MemoryAllocator.cpp **** 
  66:src/MemoryAllocator.cpp ****     return nullptr; // ne postoji dovoljan slobodan prostor
  67:src/MemoryAllocator.cpp **** }
  68:src/MemoryAllocator.cpp **** 
  69:src/MemoryAllocator.cpp **** int MemoryAllocator::mem_free(void *memSegment) {
  70:src/MemoryAllocator.cpp ****     if(!memSegment || (size_t)memSegment - SegmentOffset < (size_t)userHeapStartAddr()) return BAD_
  71:src/MemoryAllocator.cpp **** 
  72:src/MemoryAllocator.cpp ****     size_t size = *(size_t*)((char*)memSegment - MemoryAllocator::SegmentOffset); // velicina koja 
  73:src/MemoryAllocator.cpp ****     memSegment = (void*)((char*)memSegment - MemoryAllocator::SegmentOffset); // pocetak segmenta u
  74:src/MemoryAllocator.cpp ****     if((char*)memSegment + size - 1 >= (char*)userHeapEndAddr() || memSegment == nullptr
  75:src/MemoryAllocator.cpp ****         || !isStartOfBlock(memSegment) || size < MEM_BLOCK_SIZE) {
  76:src/MemoryAllocator.cpp ****         return BAD_POINTER;
  77:src/MemoryAllocator.cpp ****     }
  78:src/MemoryAllocator.cpp **** 
  79:src/MemoryAllocator.cpp ****     if(head == (FreeSegment*)userHeapEndAddr()) { // ako je memorija puna onda samo oslobadja dati 
  80:src/MemoryAllocator.cpp ****         FreeSegment* newFreeSegment = (FreeSegment*)memSegment;
  81:src/MemoryAllocator.cpp ****         newFreeSegment->size = size;
  82:src/MemoryAllocator.cpp ****         newFreeSegment->baseAddr = memSegment;
  83:src/MemoryAllocator.cpp ****         newFreeSegment->next = nullptr;
  84:src/MemoryAllocator.cpp **** 
  85:src/MemoryAllocator.cpp ****         head = newFreeSegment;
  86:src/MemoryAllocator.cpp ****         return 0;
  87:src/MemoryAllocator.cpp ****     }
  88:src/MemoryAllocator.cpp **** 
  89:src/MemoryAllocator.cpp ****     FreeSegment* curr = head, *prev = nullptr;
  90:src/MemoryAllocator.cpp ****     // Ako nema greske posle while: ((char*)prev->baseAddr + prev->size) <= memSegment < curr->base
  91:src/MemoryAllocator.cpp ****     while(curr != nullptr && (char*)curr->baseAddr < (char*)memSegment) {
  92:src/MemoryAllocator.cpp ****         prev = curr;
  93:src/MemoryAllocator.cpp ****         curr = curr->next;
  94:src/MemoryAllocator.cpp ****     }
  95:src/MemoryAllocator.cpp **** 
  96:src/MemoryAllocator.cpp ****     if(prev == nullptr) {
  97:src/MemoryAllocator.cpp ****         if(curr == nullptr) { // nije se nijednom pozvao mem_alloc
  98:src/MemoryAllocator.cpp ****             return BAD_POINTER;
  99:src/MemoryAllocator.cpp ****         }
 100:src/MemoryAllocator.cpp ****         else {
 101:src/MemoryAllocator.cpp ****             FreeSegment* newFreeSegment = (FreeSegment*)memSegment;
 102:src/MemoryAllocator.cpp ****             newFreeSegment->size = size;
 103:src/MemoryAllocator.cpp ****             newFreeSegment->baseAddr = memSegment;
 104:src/MemoryAllocator.cpp **** 
GAS LISTING /tmp/ccCfp1ds.s 			page 3


 105:src/MemoryAllocator.cpp ****             if((char*)head->baseAddr == ((char*)newFreeSegment->baseAddr + newFreeSegment->size)) {
 106:src/MemoryAllocator.cpp ****                 newFreeSegment->size += head->size;
 107:src/MemoryAllocator.cpp ****                 newFreeSegment->next = head->next;
 108:src/MemoryAllocator.cpp ****             }
 109:src/MemoryAllocator.cpp ****             else {
 110:src/MemoryAllocator.cpp ****                 newFreeSegment->next = head;
 111:src/MemoryAllocator.cpp ****             }
 112:src/MemoryAllocator.cpp ****             head = newFreeSegment;
 113:src/MemoryAllocator.cpp **** 
 114:src/MemoryAllocator.cpp ****             return 0;
 115:src/MemoryAllocator.cpp ****         }
 116:src/MemoryAllocator.cpp ****     }
 117:src/MemoryAllocator.cpp ****     else {
 118:src/MemoryAllocator.cpp ****         if((char*)prev->baseAddr + prev->size == (char*)memSegment) { // spajamo prethodni i novi s
 119:src/MemoryAllocator.cpp ****             prev->size += size;
 120:src/MemoryAllocator.cpp ****         }
 121:src/MemoryAllocator.cpp ****         else {
 122:src/MemoryAllocator.cpp ****             FreeSegment *newFreeSegment = (FreeSegment *) memSegment;
 123:src/MemoryAllocator.cpp ****             newFreeSegment->size = size;
 124:src/MemoryAllocator.cpp ****             newFreeSegment->baseAddr = memSegment;
 125:src/MemoryAllocator.cpp **** 
 126:src/MemoryAllocator.cpp ****             FreeSegment::add(prev, newFreeSegment); // ulancavamo prev i newFreeSegment
 127:src/MemoryAllocator.cpp ****             prev = newFreeSegment;
 128:src/MemoryAllocator.cpp ****         }
 129:src/MemoryAllocator.cpp **** 
 130:src/MemoryAllocator.cpp ****         if(curr && (char*)curr->baseAddr == ((char*)prev->baseAddr + prev->size)) { // ako postoji 
 131:src/MemoryAllocator.cpp ****             prev->size += curr->size;
 132:src/MemoryAllocator.cpp ****             prev->next = curr->next;
 133:src/MemoryAllocator.cpp ****         }
 134:src/MemoryAllocator.cpp ****     }
 135:src/MemoryAllocator.cpp **** 
 136:src/MemoryAllocator.cpp ****     return 0;
 137:src/MemoryAllocator.cpp **** }
 138:src/MemoryAllocator.cpp **** 
 139:src/MemoryAllocator.cpp **** void *MemoryAllocator::userHeapStartAddr() {
  12              		.loc 1 139 44
  13              		.cfi_startproc
  14 0000 130101FF 		addi	sp,sp,-16
  15              		.cfi_def_cfa_offset 16
  16 0004 23348100 		sd	s0,8(sp)
  17              		.cfi_offset 8, -8
  18 0008 13040101 		addi	s0,sp,16
  19              		.cfi_def_cfa 8, 0
 140:src/MemoryAllocator.cpp ****     return (void*)((char*)HEAP_START_ADDR + (1<<24));
  20              		.loc 1 140 5
  21              		.loc 1 140 12 is_stmt 0
  22 000c 97070000 		la	a5,HEAP_START_ADDR
  22      83B70700 
  23 0014 03B50700 		ld	a0,0(a5)
 141:src/MemoryAllocator.cpp **** }
  24              		.loc 1 141 1
  25 0018 B7070001 		li	a5,16777216
  26 001c 3305F500 		add	a0,a0,a5
  27 0020 03348100 		ld	s0,8(sp)
  28              		.cfi_restore 8
  29              		.cfi_def_cfa 2, 16
  30 0024 13010101 		addi	sp,sp,16
GAS LISTING /tmp/ccCfp1ds.s 			page 4


  31              		.cfi_def_cfa_offset 0
  32 0028 67800000 		jr	ra
  33              		.cfi_endproc
  34              	.LFE11:
  36              		.align	2
  37              		.globl	_ZN15MemoryAllocator15userHeapEndAddrEv
  39              	_ZN15MemoryAllocator15userHeapEndAddrEv:
  40              	.LFB12:
 142:src/MemoryAllocator.cpp **** 
 143:src/MemoryAllocator.cpp **** void *MemoryAllocator::userHeapEndAddr() {
  41              		.loc 1 143 42 is_stmt 1
  42              		.cfi_startproc
  43 002c 130101FF 		addi	sp,sp,-16
  44              		.cfi_def_cfa_offset 16
  45 0030 23348100 		sd	s0,8(sp)
  46              		.cfi_offset 8, -8
  47 0034 13040101 		addi	s0,sp,16
  48              		.cfi_def_cfa 8, 0
 144:src/MemoryAllocator.cpp ****     return (void*)((char*)HEAP_END_ADDR);
  49              		.loc 1 144 5
 145:src/MemoryAllocator.cpp **** }
  50              		.loc 1 145 1 is_stmt 0
  51 0038 97070000 		la	a5,HEAP_END_ADDR
  51      83B70700 
  52 0040 03B50700 		ld	a0,0(a5)
  53 0044 03348100 		ld	s0,8(sp)
  54              		.cfi_restore 8
  55              		.cfi_def_cfa 2, 16
  56 0048 13010101 		addi	sp,sp,16
  57              		.cfi_def_cfa_offset 0
  58 004c 67800000 		jr	ra
  59              		.cfi_endproc
  60              	.LFE12:
  62              		.align	2
  63              		.globl	_ZN15MemoryAllocator9mem_allocEm
  65              	_ZN15MemoryAllocator9mem_allocEm:
  66              	.LFB9:
   4:src/MemoryAllocator.cpp ****     if(head == nullptr) { // ako prvi put alociramo memoriju, alociracemo head na pocetak mem segme
  67              		.loc 1 4 47 is_stmt 1
  68              		.cfi_startproc
  69              	.LVL0:
  70 0050 130101FD 		addi	sp,sp,-48
  71              		.cfi_def_cfa_offset 48
  72 0054 23341102 		sd	ra,40(sp)
  73 0058 23308102 		sd	s0,32(sp)
  74 005c 233C9100 		sd	s1,24(sp)
  75 0060 23382101 		sd	s2,16(sp)
  76 0064 23343101 		sd	s3,8(sp)
  77              		.cfi_offset 1, -8
  78              		.cfi_offset 8, -16
  79              		.cfi_offset 9, -24
  80              		.cfi_offset 18, -32
  81              		.cfi_offset 19, -40
  82 0068 13040103 		addi	s0,sp,48
  83              		.cfi_def_cfa 8, 0
  84 006c 13090500 		mv	s2,a0
   5:src/MemoryAllocator.cpp ****         head = (FreeSegment*)userHeapStartAddr();
GAS LISTING /tmp/ccCfp1ds.s 			page 5


  85              		.loc 1 5 5
   5:src/MemoryAllocator.cpp ****         head = (FreeSegment*)userHeapStartAddr();
  86              		.loc 1 5 13 is_stmt 0
  87 0070 97040000 		ld	s1,.LANCHOR0
  87      83B40400 
   5:src/MemoryAllocator.cpp ****         head = (FreeSegment*)userHeapStartAddr();
  88              		.loc 1 5 5
  89 0078 638A0402 		beqz	s1,.L20
  11:src/MemoryAllocator.cpp ****         return nullptr;
  90              		.loc 1 11 10 is_stmt 1
  11:src/MemoryAllocator.cpp ****         return nullptr;
  91              		.loc 1 11 50 is_stmt 0
  92 007c 97000000 		call	_ZN15MemoryAllocator15userHeapEndAddrEv
  92      E7800000 
  93              	.LVL1:
  11:src/MemoryAllocator.cpp ****         return nullptr;
  94              		.loc 1 11 10
  95 0084 638CA414 		beq	s1,a0,.L17
  96              	.L7:
  15:src/MemoryAllocator.cpp ****     size_t numOfBlocksToAllocate = sizeInBlocks(size);
  97              		.loc 1 15 5 is_stmt 1
  15:src/MemoryAllocator.cpp ****     size_t numOfBlocksToAllocate = sizeInBlocks(size);
  98              		.loc 1 15 10 is_stmt 0
  99 0088 13078900 		addi	a4,s2,8
 100              	.LVL2:
  16:src/MemoryAllocator.cpp **** 
 101              		.loc 1 16 5 is_stmt 1
 102              	.LBB33:
 103              	.LBB34:
 104              		.file 2 "src/../h/MemoryAllocator.h"
   1:src/../h/MemoryAllocator.h **** #ifndef PROJECT_BASE_MEMORYALLOCATOR_H
   2:src/../h/MemoryAllocator.h **** #define PROJECT_BASE_MEMORYALLOCATOR_H
   3:src/../h/MemoryAllocator.h **** 
   4:src/../h/MemoryAllocator.h **** #include "hw.h"
   5:src/../h/MemoryAllocator.h **** 
   6:src/../h/MemoryAllocator.h **** class MemoryAllocator {
   7:src/../h/MemoryAllocator.h **** public:
   8:src/../h/MemoryAllocator.h ****     /*
   9:src/../h/MemoryAllocator.h ****     Alocira (najmanje) size bajtova memorije, zaokruženo i poravnato na blokove veličine MEM_BLOC
  10:src/../h/MemoryAllocator.h ****     Svaki alocirani segment ima zaglavlje sa velicinom tog segmenta(vraca se adresa nakon tog zagla
  11:src/../h/MemoryAllocator.h **** 
  12:src/../h/MemoryAllocator.h ****     Vraća:
  13:src/../h/MemoryAllocator.h ****     pokazivač na alocirani deo memorije u slučaju uspeha, nullptr u slučaju neuspeha
  14:src/../h/MemoryAllocator.h **** 
  15:src/../h/MemoryAllocator.h ****     Radi se po algoritmu first fit(alociramo prvi segment koji je >= size). Ako je preostao prostor
  16:src/../h/MemoryAllocator.h ****     jednog bloka, taj preostali prostor se pridruzuje ovom koji smo sad alocirali(jer nema poente d
  17:src/../h/MemoryAllocator.h ****     */
  18:src/../h/MemoryAllocator.h ****     static void* mem_alloc(size_t size);
  19:src/../h/MemoryAllocator.h ****     /*
  20:src/../h/MemoryAllocator.h ****     Oslobađa prostor prethodno zauzet pomoću mem_alloc.
  21:src/../h/MemoryAllocator.h ****     Vraća 0 u slučaju uspeha, BAD_POINTER  flag ako je dostavljen los pokazivac.
  22:src/../h/MemoryAllocator.h ****     Ako je moguce, spaja dva susedna slobodna segmenta u jedan veci
  23:src/../h/MemoryAllocator.h ****     */
  24:src/../h/MemoryAllocator.h ****     static int mem_free(void* memSegment);
  25:src/../h/MemoryAllocator.h **** 
  26:src/../h/MemoryAllocator.h ****     enum memFreeFlags {
  27:src/../h/MemoryAllocator.h ****         BAD_POINTER = -1 // nije koriscen pokazviac iz mem_alloc
GAS LISTING /tmp/ccCfp1ds.s 			page 6


  28:src/../h/MemoryAllocator.h ****     };
  29:src/../h/MemoryAllocator.h **** 
  30:src/../h/MemoryAllocator.h ****     // Vraca minimalan potreban broj blokova za alokaciju memorije velicine size bajtova
  31:src/../h/MemoryAllocator.h ****     static inline size_t sizeInBlocks(size_t size) {
  32:src/../h/MemoryAllocator.h ****         return (size / MEM_BLOCK_SIZE) + (size % MEM_BLOCK_SIZE > 0);
 105              		.loc 2 32 9
 106              		.loc 2 32 22 is_stmt 0
 107 008c 93576700 		srli	a5,a4,6
 108              		.loc 2 32 48
 109 0090 1376F703 		andi	a2,a4,63
 110              		.loc 2 32 65
 111 0094 3336C000 		snez	a2,a2
 112              		.loc 2 32 68
 113 0098 3306F600 		add	a2,a2,a5
 114              	.LVL3:
 115              	.LBE34:
 116              	.LBE33:
  18:src/MemoryAllocator.cpp ****     while(curr) {
 117              		.loc 1 18 5 is_stmt 1
  18:src/MemoryAllocator.cpp ****     while(curr) {
 118              		.loc 1 18 18 is_stmt 0
 119 009c 17050000 		ld	a0,.LANCHOR0
 119      03350500 
 120              	.LVL4:
  18:src/MemoryAllocator.cpp ****     while(curr) {
 121              		.loc 1 18 32
 122 00a4 93060000 		li	a3,0
 123 00a8 6F00800B 		j	.L16
 124              	.LVL5:
 125              	.L20:
   6:src/MemoryAllocator.cpp ****         head->baseAddr = (void*)((char*)userHeapStartAddr());
 126              		.loc 1 6 9 is_stmt 1
   6:src/MemoryAllocator.cpp ****         head->baseAddr = (void*)((char*)userHeapStartAddr());
 127              		.loc 1 6 47 is_stmt 0
 128 00ac 97000000 		call	_ZN15MemoryAllocator17userHeapStartAddrEv
 128      E7800000 
 129              	.LVL6:
 130 00b4 93040500 		mv	s1,a0
   6:src/MemoryAllocator.cpp ****         head->baseAddr = (void*)((char*)userHeapStartAddr());
 131              		.loc 1 6 14
 132 00b8 97090000 		lla	s3,.LANCHOR0
 132      93890900 
 133 00c0 23B0A900 		sd	a0,0(s3)
   7:src/MemoryAllocator.cpp ****         head->size = ((size_t)userHeapEndAddr() - (size_t)userHeapStartAddr()); // HEAP_END_ADDR je
 134              		.loc 1 7 9 is_stmt 1
   7:src/MemoryAllocator.cpp ****         head->size = ((size_t)userHeapEndAddr() - (size_t)userHeapStartAddr()); // HEAP_END_ADDR je
 135              		.loc 1 7 58 is_stmt 0
 136 00c4 97000000 		call	_ZN15MemoryAllocator17userHeapStartAddrEv
 136      E7800000 
 137              	.LVL7:
   7:src/MemoryAllocator.cpp ****         head->size = ((size_t)userHeapEndAddr() - (size_t)userHeapStartAddr()); // HEAP_END_ADDR je
 138              		.loc 1 7 24
 139 00cc 23B0A400 		sd	a0,0(s1)
   8:src/MemoryAllocator.cpp ****         head->next = nullptr;
 140              		.loc 1 8 9 is_stmt 1
   8:src/MemoryAllocator.cpp ****         head->next = nullptr;
 141              		.loc 1 8 46 is_stmt 0
GAS LISTING /tmp/ccCfp1ds.s 			page 7


 142 00d0 97000000 		call	_ZN15MemoryAllocator15userHeapEndAddrEv
 142      E7800000 
 143              	.LVL8:
 144 00d8 93040500 		mv	s1,a0
   8:src/MemoryAllocator.cpp ****         head->next = nullptr;
 145              		.loc 1 8 76
 146 00dc 97000000 		call	_ZN15MemoryAllocator17userHeapStartAddrEv
 146      E7800000 
 147              	.LVL9:
   8:src/MemoryAllocator.cpp ****         head->next = nullptr;
 148              		.loc 1 8 15
 149 00e4 83B70900 		ld	a5,0(s3)
   8:src/MemoryAllocator.cpp ****         head->next = nullptr;
 150              		.loc 1 8 49
 151 00e8 B384A440 		sub	s1,s1,a0
   8:src/MemoryAllocator.cpp ****         head->next = nullptr;
 152              		.loc 1 8 20
 153 00ec 23B49700 		sd	s1,8(a5)
   9:src/MemoryAllocator.cpp ****     }
 154              		.loc 1 9 9 is_stmt 1
   9:src/MemoryAllocator.cpp ****     }
 155              		.loc 1 9 20 is_stmt 0
 156 00f0 23B80700 		sd	zero,16(a5)
 157 00f4 6FF05FF9 		j	.L7
 158              	.LVL10:
 159              	.L23:
 160              	.LBB35:
 161              	.LBB36:
 162              	.LBB37:
 163              	.LBB38:
  25:src/MemoryAllocator.cpp **** 
 164              		.loc 1 25 17 is_stmt 1
  27:src/MemoryAllocator.cpp ****                     if(curr->next == nullptr) { // ako ne postoji slobodan prostor nakon alokacije
 165              		.loc 1 27 17
 166 00f8 638E0600 		beqz	a3,.L21
  36:src/MemoryAllocator.cpp ****                 }
 167              		.loc 1 36 21
 168              	.LVL11:
 169              	.LBB39:
 170              	.LBB40:
  33:src/../h/MemoryAllocator.h ****     }
  34:src/../h/MemoryAllocator.h **** 
  35:src/../h/MemoryAllocator.h ****     // Vraca velicinu numOfBlocks blokova u bajtovima
  36:src/../h/MemoryAllocator.h ****     static inline size_t blocksInSize(size_t numOfBlocks) {
  37:src/../h/MemoryAllocator.h ****         return numOfBlocks * MEM_BLOCK_SIZE;
  38:src/../h/MemoryAllocator.h ****     }
  39:src/../h/MemoryAllocator.h **** 
  40:src/../h/MemoryAllocator.h **** private:
  41:src/../h/MemoryAllocator.h ****     MemoryAllocator() {} // da bi se zabranilo pravljenje objekata
  42:src/../h/MemoryAllocator.h **** 
  43:src/../h/MemoryAllocator.h ****     struct FreeSegment { // Jednostruko ulancana lista slobodnih segmenata
  44:src/../h/MemoryAllocator.h ****         void* baseAddr; // pocetna adresa u segmentu
  45:src/../h/MemoryAllocator.h ****         size_t size; // velicina segmenta
  46:src/../h/MemoryAllocator.h ****         FreeSegment* next; // sledeci element u ulancanoj listi
  47:src/../h/MemoryAllocator.h **** 
  48:src/../h/MemoryAllocator.h ****         // brise element iz ulancane liste koji se nalazi posle elementa prev
  49:src/../h/MemoryAllocator.h ****         static void remove(FreeSegment* prev) {
GAS LISTING /tmp/ccCfp1ds.s 			page 8


  50:src/../h/MemoryAllocator.h ****             if(!prev->next) return;
 171              		.loc 2 50 13
 172              		.loc 2 50 23 is_stmt 0
 173 00fc 83B70601 		ld	a5,16(a3)
 174              	.LVL12:
 175              		.loc 2 50 13
 176 0100 63880704 		beqz	a5,.L18
  51:src/../h/MemoryAllocator.h **** 
  52:src/../h/MemoryAllocator.h ****             FreeSegment* curr = prev->next;
 177              		.loc 2 52 13 is_stmt 1
 178              	.LVL13:
  53:src/../h/MemoryAllocator.h ****             prev->next = curr->next;
 179              		.loc 2 53 13
 180              		.loc 2 53 32 is_stmt 0
 181 0104 83B70701 		ld	a5,16(a5)
 182              	.LVL14:
 183              		.loc 2 53 24
 184 0108 23B8F600 		sd	a5,16(a3)
 185              	.LVL15:
 186              	.LBE40:
 187              	.LBE39:
  25:src/MemoryAllocator.cpp **** 
 188              		.loc 1 25 31
 189 010c 13860400 		mv	a2,s1
 190              	.LVL16:
 191 0110 6F00800A 		j	.L13
 192              	.LVL17:
 193              	.L21:
  28:src/MemoryAllocator.cpp ****                         head = (FreeSegment*)userHeapEndAddr();
 194              		.loc 1 28 21 is_stmt 1
  28:src/MemoryAllocator.cpp ****                         head = (FreeSegment*)userHeapEndAddr();
 195              		.loc 1 28 30 is_stmt 0
 196 0114 83370501 		ld	a5,16(a0)
 197              	.LVL18:
  28:src/MemoryAllocator.cpp ****                         head = (FreeSegment*)userHeapEndAddr();
 198              		.loc 1 28 21
 199 0118 638A0700 		beqz	a5,.L22
  32:src/MemoryAllocator.cpp ****                     }
 200              		.loc 1 32 25 is_stmt 1
  32:src/MemoryAllocator.cpp ****                     }
 201              		.loc 1 32 30 is_stmt 0
 202 011c 17070000 		sd	a5,.LANCHOR0,a4
 202      2330F700 
 203              	.LVL19:
  25:src/MemoryAllocator.cpp **** 
 204              		.loc 1 25 31
 205 0124 13860400 		mv	a2,s1
 206              	.LVL20:
 207 0128 6F000009 		j	.L13
 208              	.LVL21:
 209              	.L22:
  29:src/MemoryAllocator.cpp ****                     }
 210              		.loc 1 29 25 is_stmt 1
  29:src/MemoryAllocator.cpp ****                     }
 211              		.loc 1 29 61 is_stmt 0
 212 012c 97000000 		call	_ZN15MemoryAllocator15userHeapEndAddrEv
 212      E7800000 
GAS LISTING /tmp/ccCfp1ds.s 			page 9


 213              	.LVL22:
  29:src/MemoryAllocator.cpp ****                     }
 214              		.loc 1 29 30
 215 0134 97070000 		sd	a0,.LANCHOR0,a5
 215      23B0A700 
  25:src/MemoryAllocator.cpp **** 
 216              		.loc 1 25 31
 217 013c 13860400 		mv	a2,s1
 218 0140 6F008007 		j	.L13
 219              	.LVL23:
 220              	.L24:
 221              	.LBB41:
  50:src/MemoryAllocator.cpp ****                 }
 222              		.loc 1 50 21 is_stmt 1
  50:src/MemoryAllocator.cpp ****                 }
 223              		.loc 1 50 26 is_stmt 0
 224 0144 17070000 		sd	a5,.LANCHOR0,a4
 224      2330F700 
 225 014c 6F00C006 		j	.L13
 226              	.LVL24:
 227              	.L18:
 228              	.LBE41:
  25:src/MemoryAllocator.cpp **** 
 229              		.loc 1 25 31
 230 0150 13860400 		mv	a2,s1
 231              	.LVL25:
 232 0154 6F004006 		j	.L13
 233              	.LVL26:
 234              	.L9:
 235              	.LBE38:
 236              	.LBE37:
 237              	.LBE36:
  62:src/MemoryAllocator.cpp ****         curr = curr->next;
 238              		.loc 1 62 9 is_stmt 1
  63:src/MemoryAllocator.cpp ****     }
 239              		.loc 1 63 9
  62:src/MemoryAllocator.cpp ****         curr = curr->next;
 240              		.loc 1 62 14 is_stmt 0
 241 0158 93060500 		mv	a3,a0
  63:src/MemoryAllocator.cpp ****     }
 242              		.loc 1 63 14
 243 015c 03350501 		ld	a0,16(a0)
 244              	.LVL27:
 245              	.L16:
 246              	.LBE35:
  19:src/MemoryAllocator.cpp ****         size_t freeSegSizeInBlocks = (curr->size/MEM_BLOCK_SIZE); // zaokruzujemo da donji ceo deo
 247              		.loc 1 19 5 is_stmt 1
  19:src/MemoryAllocator.cpp ****         size_t freeSegSizeInBlocks = (curr->size/MEM_BLOCK_SIZE); // zaokruzujemo da donji ceo deo
 248              		.loc 1 19 11
 249 0160 63000506 		beqz	a0,.L5
 250              	.LBB52:
  20:src/MemoryAllocator.cpp ****         size_t allocatedSize;
 251              		.loc 1 20 9
  20:src/MemoryAllocator.cpp ****         size_t allocatedSize;
 252              		.loc 1 20 45 is_stmt 0
 253 0164 83348500 		ld	s1,8(a0)
  20:src/MemoryAllocator.cpp ****         size_t allocatedSize;
GAS LISTING /tmp/ccCfp1ds.s 			page 10


 254              		.loc 1 20 16
 255 0168 93D76400 		srli	a5,s1,6
 256              	.LVL28:
  21:src/MemoryAllocator.cpp ****         void* startOfAllocatedSpace = curr->baseAddr;
 257              		.loc 1 21 9 is_stmt 1
  22:src/MemoryAllocator.cpp ****         if(curr->size >= size && freeSegSizeInBlocks >= numOfBlocksToAllocate) {
 258              		.loc 1 22 9
  22:src/MemoryAllocator.cpp ****         if(curr->size >= size && freeSegSizeInBlocks >= numOfBlocksToAllocate) {
 259              		.loc 1 22 15 is_stmt 0
 260 016c 03390500 		ld	s2,0(a0)
 261              	.LVL29:
  23:src/MemoryAllocator.cpp ****             if(freeSegSizeInBlocks == numOfBlocksToAllocate) { // ako ce preostali slobodan segment
 262              		.loc 1 23 9 is_stmt 1
 263              	.LBB51:
 264 0170 E3E4E4FE 		bltu	s1,a4,.L9
  23:src/MemoryAllocator.cpp ****             if(freeSegSizeInBlocks == numOfBlocksToAllocate) { // ako ce preostali slobodan segment
 265              		.loc 1 23 31 is_stmt 0 discriminator 1
 266 0174 E3E2C7FE 		bgtu	a2,a5,.L9
 267              	.LBB50:
  24:src/MemoryAllocator.cpp ****                 allocatedSize = curr->size;
 268              		.loc 1 24 13 is_stmt 1
 269              	.LBB49:
 270 0178 E300F6F8 		beq	a2,a5,.L23
 271              	.LBB48:
  40:src/MemoryAllocator.cpp ****                 void* newBaseAddr = ((char*)startOfAllocatedSpace + allocatedSize);
 272              		.loc 1 40 17
 273              	.LVL30:
 274              	.LBB42:
 275              	.LBB43:
  37:src/../h/MemoryAllocator.h ****     }
 276              		.loc 2 37 9
  37:src/../h/MemoryAllocator.h ****     }
 277              		.loc 2 37 30 is_stmt 0
 278 017c 13166600 		slli	a2,a2,6
 279              	.LVL31:
 280              	.LBE43:
 281              	.LBE42:
  41:src/MemoryAllocator.cpp ****                 size_t newSize = curr->size - allocatedSize;
 282              		.loc 1 41 17 is_stmt 1
  41:src/MemoryAllocator.cpp ****                 size_t newSize = curr->size - allocatedSize;
 283              		.loc 1 41 23 is_stmt 0
 284 0180 B307C900 		add	a5,s2,a2
 285              	.LVL32:
  42:src/MemoryAllocator.cpp **** 
 286              		.loc 1 42 17 is_stmt 1
  42:src/MemoryAllocator.cpp **** 
 287              		.loc 1 42 24 is_stmt 0
 288 0184 B384C440 		sub	s1,s1,a2
 289              	.LVL33:
  44:src/MemoryAllocator.cpp ****                 newSeg->baseAddr = newBaseAddr;
 290              		.loc 1 44 17 is_stmt 1
  45:src/MemoryAllocator.cpp ****                 newSeg->size = newSize;
 291              		.loc 1 45 17
  45:src/MemoryAllocator.cpp ****                 newSeg->size = newSize;
 292              		.loc 1 45 34 is_stmt 0
 293 0188 23B0F700 		sd	a5,0(a5)
 294              	.LVL34:
GAS LISTING /tmp/ccCfp1ds.s 			page 11


  46:src/MemoryAllocator.cpp ****                 newSeg->next = curr->next;
 295              		.loc 1 46 17 is_stmt 1
  46:src/MemoryAllocator.cpp ****                 newSeg->next = curr->next;
 296              		.loc 1 46 30 is_stmt 0
 297 018c 23B49700 		sd	s1,8(a5)
  47:src/MemoryAllocator.cpp **** 
 298              		.loc 1 47 17 is_stmt 1
  47:src/MemoryAllocator.cpp **** 
 299              		.loc 1 47 38 is_stmt 0
 300 0190 03370501 		ld	a4,16(a0)
 301              	.LVL35:
  47:src/MemoryAllocator.cpp **** 
 302              		.loc 1 47 30
 303 0194 23B8E700 		sd	a4,16(a5)
  49:src/MemoryAllocator.cpp ****                     head = newSeg;
 304              		.loc 1 49 17 is_stmt 1
 305 0198 E38606FA 		beqz	a3,.L24
  53:src/MemoryAllocator.cpp ****                     FreeSegment::add(prev, curr);
 306              		.loc 1 53 21
 307              	.LVL36:
 308              	.LBB44:
 309              	.LBB45:
  50:src/../h/MemoryAllocator.h **** 
 310              		.loc 2 50 13
  50:src/../h/MemoryAllocator.h **** 
 311              		.loc 2 50 23 is_stmt 0
 312 019c 83B70601 		ld	a5,16(a3)
 313              	.LVL37:
  50:src/../h/MemoryAllocator.h **** 
 314              		.loc 2 50 13
 315 01a0 63860700 		beqz	a5,.L15
  52:src/../h/MemoryAllocator.h ****             prev->next = curr->next;
 316              		.loc 2 52 13 is_stmt 1
 317              	.LVL38:
 318              		.loc 2 53 13
 319              		.loc 2 53 32 is_stmt 0
 320 01a4 83B70701 		ld	a5,16(a5)
 321              	.LVL39:
 322              		.loc 2 53 24
 323 01a8 23B8F600 		sd	a5,16(a3)
 324              	.LVL40:
 325              	.L15:
 326              	.LBE45:
 327              	.LBE44:
  54:src/MemoryAllocator.cpp ****                 }
 328              		.loc 1 54 21 is_stmt 1
 329              	.LBB46:
 330              	.LBB47:
  54:src/../h/MemoryAllocator.h ****         }
  55:src/../h/MemoryAllocator.h **** 
  56:src/../h/MemoryAllocator.h ****         // dodaje element curr u ulancanu listu nakon elementa prev(samo menja prev->next curr->nex
  57:src/../h/MemoryAllocator.h ****         static void add(FreeSegment* prev, FreeSegment* curr) {
  58:src/../h/MemoryAllocator.h ****             curr->next = prev->next;
 331              		.loc 2 58 13
 332              		.loc 2 58 32 is_stmt 0
 333 01ac 83B70601 		ld	a5,16(a3)
 334              		.loc 2 58 24
GAS LISTING /tmp/ccCfp1ds.s 			page 12


 335 01b0 2338F500 		sd	a5,16(a0)
  59:src/../h/MemoryAllocator.h ****             prev->next = curr;
 336              		.loc 2 59 13 is_stmt 1
 337              		.loc 2 59 24 is_stmt 0
 338 01b4 23B8A600 		sd	a0,16(a3)
 339              	.LVL41:
 340              	.L13:
 341              	.LBE47:
 342              	.LBE46:
 343              	.LBE48:
 344              	.LBE49:
  58:src/MemoryAllocator.cpp ****             return (void*)((char*)startOfAllocatedSpace + SegmentOffset);
 345              		.loc 1 58 13 is_stmt 1
  58:src/MemoryAllocator.cpp ****             return (void*)((char*)startOfAllocatedSpace + SegmentOffset);
 346              		.loc 1 58 66 is_stmt 0
 347 01b8 2330C900 		sd	a2,0(s2)
  59:src/MemoryAllocator.cpp ****         }
 348              		.loc 1 59 13 is_stmt 1
  59:src/MemoryAllocator.cpp ****         }
 349              		.loc 1 59 72 is_stmt 0
 350 01bc 13058900 		addi	a0,s2,8
 351              	.LVL42:
 352              	.L5:
 353              	.LBE50:
 354              	.LBE51:
 355              	.LBE52:
  67:src/MemoryAllocator.cpp **** 
 356              		.loc 1 67 1
 357 01c0 83308102 		ld	ra,40(sp)
 358              		.cfi_remember_state
 359              		.cfi_restore 1
 360 01c4 03340102 		ld	s0,32(sp)
 361              		.cfi_restore 8
 362              		.cfi_def_cfa 2, 48
 363 01c8 83348101 		ld	s1,24(sp)
 364              		.cfi_restore 9
 365 01cc 03390101 		ld	s2,16(sp)
 366              		.cfi_restore 18
 367 01d0 83398100 		ld	s3,8(sp)
 368              		.cfi_restore 19
 369 01d4 13010103 		addi	sp,sp,48
 370              		.cfi_def_cfa_offset 0
 371 01d8 67800000 		jr	ra
 372              	.LVL43:
 373              	.L17:
 374              		.cfi_restore_state
  12:src/MemoryAllocator.cpp ****     }
 375              		.loc 1 12 16
 376 01dc 13050000 		li	a0,0
 377 01e0 6FF01FFE 		j	.L5
 378              		.cfi_endproc
 379              	.LFE9:
 381              		.align	2
 382              		.globl	_ZN15MemoryAllocator8mem_freeEPv
 384              	_ZN15MemoryAllocator8mem_freeEPv:
 385              	.LFB10:
  69:src/MemoryAllocator.cpp ****     if(!memSegment || (size_t)memSegment - SegmentOffset < (size_t)userHeapStartAddr()) return BAD_
GAS LISTING /tmp/ccCfp1ds.s 			page 13


 386              		.loc 1 69 49 is_stmt 1
 387              		.cfi_startproc
 388              	.LVL44:
  70:src/MemoryAllocator.cpp **** 
 389              		.loc 1 70 5
  70:src/MemoryAllocator.cpp **** 
 390              		.loc 1 70 20 is_stmt 0
 391 01e4 630E0518 		beqz	a0,.L34
  69:src/MemoryAllocator.cpp ****     if(!memSegment || (size_t)memSegment - SegmentOffset < (size_t)userHeapStartAddr()) return BAD_
 392              		.loc 1 69 49 discriminator 2
 393 01e8 130101FC 		addi	sp,sp,-64
 394              		.cfi_def_cfa_offset 64
 395 01ec 233C1102 		sd	ra,56(sp)
 396 01f0 23388102 		sd	s0,48(sp)
 397 01f4 23349102 		sd	s1,40(sp)
 398 01f8 23302103 		sd	s2,32(sp)
 399 01fc 233C3101 		sd	s3,24(sp)
 400 0200 23384101 		sd	s4,16(sp)
 401 0204 23345101 		sd	s5,8(sp)
 402              		.cfi_offset 1, -8
 403              		.cfi_offset 8, -16
 404              		.cfi_offset 9, -24
 405              		.cfi_offset 18, -32
 406              		.cfi_offset 19, -40
 407              		.cfi_offset 20, -48
 408              		.cfi_offset 21, -56
 409 0208 13040104 		addi	s0,sp,64
 410              		.cfi_def_cfa 8, 0
 411 020c 13090500 		mv	s2,a0
  70:src/MemoryAllocator.cpp **** 
 412              		.loc 1 70 42 discriminator 2
 413 0210 930485FF 		addi	s1,a0,-8
  70:src/MemoryAllocator.cpp **** 
 414              		.loc 1 70 85 discriminator 2
 415 0214 97000000 		call	_ZN15MemoryAllocator17userHeapStartAddrEv
 415      E7800000 
 416              	.LVL45:
 417 021c 93090500 		mv	s3,a0
  70:src/MemoryAllocator.cpp **** 
 418              		.loc 1 70 20 discriminator 2
 419 0220 63E4A416 		bltu	s1,a0,.L35
  72:src/MemoryAllocator.cpp ****     memSegment = (void*)((char*)memSegment - MemoryAllocator::SegmentOffset); // pocetak segmenta u
 420              		.loc 1 72 5 is_stmt 1
  72:src/MemoryAllocator.cpp ****     memSegment = (void*)((char*)memSegment - MemoryAllocator::SegmentOffset); // pocetak segmenta u
 421              		.loc 1 72 12 is_stmt 0
 422 0224 033A89FF 		ld	s4,-8(s2)
 423              	.LVL46:
  73:src/MemoryAllocator.cpp ****     if((char*)memSegment + size - 1 >= (char*)userHeapEndAddr() || memSegment == nullptr
 424              		.loc 1 73 5 is_stmt 1
  74:src/MemoryAllocator.cpp ****         || !isStartOfBlock(memSegment) || size < MEM_BLOCK_SIZE) {
 425              		.loc 1 74 5
  74:src/MemoryAllocator.cpp ****         || !isStartOfBlock(memSegment) || size < MEM_BLOCK_SIZE) {
 426              		.loc 1 74 33 is_stmt 0
 427 0228 930AFAFF 		addi	s5,s4,-1
 428 022c B38A5401 		add	s5,s1,s5
  74:src/MemoryAllocator.cpp ****         || !isStartOfBlock(memSegment) || size < MEM_BLOCK_SIZE) {
 429              		.loc 1 74 62
GAS LISTING /tmp/ccCfp1ds.s 			page 14


 430 0230 97000000 		call	_ZN15MemoryAllocator15userHeapEndAddrEv
 430      E7800000 
 431              	.LVL47:
  75:src/MemoryAllocator.cpp ****         return BAD_POINTER;
 432              		.loc 1 75 40
 433 0238 63FCAA14 		bgeu	s5,a0,.L36
  74:src/MemoryAllocator.cpp ****         || !isStartOfBlock(memSegment) || size < MEM_BLOCK_SIZE) {
 434              		.loc 1 74 65
 435 023c 638E0414 		beqz	s1,.L37
 436              	.LVL48:
 437              	.LBB53:
 438              	.LBB54:
  60:src/../h/MemoryAllocator.h ****         }
  61:src/../h/MemoryAllocator.h ****     };
  62:src/../h/MemoryAllocator.h **** 
  63:src/../h/MemoryAllocator.h ****     struct AllocatedSpaceHeader { // Zaglavlje zauzetog segmenta
  64:src/../h/MemoryAllocator.h ****         size_t size; // velicina segmenta(ukljucujuci i zaglavlje)
  65:src/../h/MemoryAllocator.h ****     };
  66:src/../h/MemoryAllocator.h **** 
  67:src/../h/MemoryAllocator.h ****     static const size_t SegmentOffset = sizeof(AllocatedSpaceHeader);
  68:src/../h/MemoryAllocator.h **** 
  69:src/../h/MemoryAllocator.h ****     static FreeSegment* head; // pocetak ulancane liste slobodnih segmenata
  70:src/../h/MemoryAllocator.h **** 
  71:src/../h/MemoryAllocator.h ****     // vraca relativnu adresu u odnosu na pocetak HEAP-a
  72:src/../h/MemoryAllocator.h ****     static inline size_t relativeAddress(void* address) {
  73:src/../h/MemoryAllocator.h ****         return (size_t)address - (size_t)userHeapStartAddr();
  74:src/../h/MemoryAllocator.h ****     }
  75:src/../h/MemoryAllocator.h **** 
  76:src/../h/MemoryAllocator.h ****     // vraca true ako je adresa pocetak bloka(relativno u odnosu na pocetak heap-a)
  77:src/../h/MemoryAllocator.h ****     static inline bool isStartOfBlock(void* address) {
  78:src/../h/MemoryAllocator.h ****         return relativeAddress(address) % MEM_BLOCK_SIZE == 0;
 439              		.loc 2 78 9 is_stmt 1
 440              	.LBB55:
 441              	.LBB56:
  73:src/../h/MemoryAllocator.h ****     }
 442              		.loc 2 73 9
  73:src/../h/MemoryAllocator.h ****     }
 443              		.loc 2 73 60 is_stmt 0
 444 0240 B3893441 		sub	s3,s1,s3
 445              	.LVL49:
 446              	.LBE56:
 447              	.LBE55:
 448              		.loc 2 78 41
 449 0244 93F9F903 		andi	s3,s3,63
 450              	.LVL50:
 451              	.LBE54:
 452              	.LBE53:
  75:src/MemoryAllocator.cpp ****         return BAD_POINTER;
 453              		.loc 1 75 9
 454 0248 639C0914 		bnez	s3,.L38
  75:src/MemoryAllocator.cpp ****         return BAD_POINTER;
 455              		.loc 1 75 40 discriminator 3
 456 024c 9307F003 		li	a5,63
 457 0250 63FC4715 		bleu	s4,a5,.L39
  79:src/MemoryAllocator.cpp ****         FreeSegment* newFreeSegment = (FreeSegment*)memSegment;
 458              		.loc 1 79 5 is_stmt 1
 459              	.LBB57:
GAS LISTING /tmp/ccCfp1ds.s 			page 15


  79:src/MemoryAllocator.cpp ****         FreeSegment* newFreeSegment = (FreeSegment*)memSegment;
 460              		.loc 1 79 13 is_stmt 0
 461 0254 97070000 		ld	a5,.LANCHOR0
 461      83B70700 
  79:src/MemoryAllocator.cpp ****         FreeSegment* newFreeSegment = (FreeSegment*)memSegment;
 462              		.loc 1 79 5
 463 025c 6300F502 		beq	a0,a5,.L48
 464              	.LBE57:
  89:src/MemoryAllocator.cpp ****     // Ako nema greske posle while: ((char*)prev->baseAddr + prev->size) <= memSegment < curr->base
 465              		.loc 1 89 32
 466 0260 93060000 		li	a3,0
 467              	.L27:
 468              	.LVL51:
  91:src/MemoryAllocator.cpp ****         prev = curr;
 469              		.loc 1 91 5 is_stmt 1
  91:src/MemoryAllocator.cpp ****         prev = curr;
 470              		.loc 1 91 27
 471 0264 638A0702 		beqz	a5,.L28
  91:src/MemoryAllocator.cpp ****         prev = curr;
 472              		.loc 1 91 43 is_stmt 0 discriminator 1
 473 0268 03B70700 		ld	a4,0(a5)
  91:src/MemoryAllocator.cpp ****         prev = curr;
 474              		.loc 1 91 27 discriminator 1
 475 026c 63769702 		bgeu	a4,s1,.L28
  92:src/MemoryAllocator.cpp ****         curr = curr->next;
 476              		.loc 1 92 9 is_stmt 1
 477              	.LVL52:
  93:src/MemoryAllocator.cpp ****     }
 478              		.loc 1 93 9
  92:src/MemoryAllocator.cpp ****         curr = curr->next;
 479              		.loc 1 92 14 is_stmt 0
 480 0270 93860700 		mv	a3,a5
  93:src/MemoryAllocator.cpp ****     }
 481              		.loc 1 93 14
 482 0274 83B70701 		ld	a5,16(a5)
 483              	.LVL53:
  91:src/MemoryAllocator.cpp ****         prev = curr;
 484              		.loc 1 91 5
 485 0278 6FF0DFFE 		j	.L27
 486              	.LVL54:
 487              	.L48:
 488              	.LBB59:
 489              	.LBB58:
  80:src/MemoryAllocator.cpp ****         newFreeSegment->size = size;
 490              		.loc 1 80 9 is_stmt 1
  81:src/MemoryAllocator.cpp ****         newFreeSegment->baseAddr = memSegment;
 491              		.loc 1 81 9
  81:src/MemoryAllocator.cpp ****         newFreeSegment->baseAddr = memSegment;
 492              		.loc 1 81 30 is_stmt 0
 493 027c 23304901 		sd	s4,0(s2)
  82:src/MemoryAllocator.cpp ****         newFreeSegment->next = nullptr;
 494              		.loc 1 82 9 is_stmt 1
  82:src/MemoryAllocator.cpp ****         newFreeSegment->next = nullptr;
 495              		.loc 1 82 34 is_stmt 0
 496 0280 233C99FE 		sd	s1,-8(s2)
  83:src/MemoryAllocator.cpp **** 
 497              		.loc 1 83 9 is_stmt 1
GAS LISTING /tmp/ccCfp1ds.s 			page 16


  83:src/MemoryAllocator.cpp **** 
 498              		.loc 1 83 30 is_stmt 0
 499 0284 23340900 		sd	zero,8(s2)
  85:src/MemoryAllocator.cpp ****         return 0;
 500              		.loc 1 85 9 is_stmt 1
  85:src/MemoryAllocator.cpp ****         return 0;
 501              		.loc 1 85 14 is_stmt 0
 502 0288 97070000 		sd	s1,.LANCHOR0,a5
 502      23B09700 
  86:src/MemoryAllocator.cpp ****     }
 503              		.loc 1 86 9 is_stmt 1
  86:src/MemoryAllocator.cpp ****     }
 504              		.loc 1 86 16 is_stmt 0
 505 0290 13050000 		li	a0,0
 506 0294 6F008004 		j	.L26
 507              	.LVL55:
 508              	.L28:
 509              	.LBE58:
 510              	.LBE59:
  96:src/MemoryAllocator.cpp ****         if(curr == nullptr) { // nije se nijednom pozvao mem_alloc
 511              		.loc 1 96 5 is_stmt 1
 512              	.LBB60:
 513 0298 63840606 		beqz	a3,.L49
 514              	.LBB61:
 118:src/MemoryAllocator.cpp ****             prev->size += size;
 515              		.loc 1 118 9
 516              	.LBB62:
 118:src/MemoryAllocator.cpp ****             prev->size += size;
 517              		.loc 1 118 25 is_stmt 0
 518 029c 03B70600 		ld	a4,0(a3)
 118:src/MemoryAllocator.cpp ****             prev->size += size;
 519              		.loc 1 118 42
 520 02a0 03B68600 		ld	a2,8(a3)
 118:src/MemoryAllocator.cpp ****             prev->size += size;
 521              		.loc 1 118 34
 522 02a4 3307C700 		add	a4,a4,a2
 118:src/MemoryAllocator.cpp ****             prev->size += size;
 523              		.loc 1 118 9
 524 02a8 6306970A 		beq	a4,s1,.L50
 525              	.LBB63:
 122:src/MemoryAllocator.cpp ****             newFreeSegment->size = size;
 526              		.loc 1 122 13 is_stmt 1
 527              	.LVL56:
 123:src/MemoryAllocator.cpp ****             newFreeSegment->baseAddr = memSegment;
 528              		.loc 1 123 13
 123:src/MemoryAllocator.cpp ****             newFreeSegment->baseAddr = memSegment;
 529              		.loc 1 123 34 is_stmt 0
 530 02ac 23304901 		sd	s4,0(s2)
 124:src/MemoryAllocator.cpp **** 
 531              		.loc 1 124 13 is_stmt 1
 124:src/MemoryAllocator.cpp **** 
 532              		.loc 1 124 38 is_stmt 0
 533 02b0 233C99FE 		sd	s1,-8(s2)
 126:src/MemoryAllocator.cpp ****             prev = newFreeSegment;
 534              		.loc 1 126 13 is_stmt 1
 535              	.LVL57:
 536              	.LBB64:
GAS LISTING /tmp/ccCfp1ds.s 			page 17


 537              	.LBB65:
  58:src/../h/MemoryAllocator.h ****             prev->next = curr;
 538              		.loc 2 58 13
  58:src/../h/MemoryAllocator.h ****             prev->next = curr;
 539              		.loc 2 58 32 is_stmt 0
 540 02b4 03B70601 		ld	a4,16(a3)
  58:src/../h/MemoryAllocator.h ****             prev->next = curr;
 541              		.loc 2 58 24
 542 02b8 2334E900 		sd	a4,8(s2)
  59:src/../h/MemoryAllocator.h ****         }
 543              		.loc 2 59 13 is_stmt 1
  59:src/../h/MemoryAllocator.h ****         }
 544              		.loc 2 59 24 is_stmt 0
 545 02bc 23B89600 		sd	s1,16(a3)
 546              	.LVL58:
 547              	.LBE65:
 548              	.LBE64:
 127:src/MemoryAllocator.cpp ****         }
 549              		.loc 1 127 13 is_stmt 1
 550              	.L33:
 551              	.LBE63:
 552              	.LBE62:
 130:src/MemoryAllocator.cpp ****             prev->size += curr->size;
 553              		.loc 1 130 9
 554 02c0 638C070E 		beqz	a5,.L42
 130:src/MemoryAllocator.cpp ****             prev->size += curr->size;
 555              		.loc 1 130 33 is_stmt 0 discriminator 1
 556 02c4 03B60700 		ld	a2,0(a5)
 130:src/MemoryAllocator.cpp ****             prev->size += curr->size;
 557              		.loc 1 130 59 discriminator 1
 558 02c8 03B70400 		ld	a4,0(s1)
 130:src/MemoryAllocator.cpp ****             prev->size += curr->size;
 559              		.loc 1 130 76 discriminator 1
 560 02cc 83B68400 		ld	a3,8(s1)
 130:src/MemoryAllocator.cpp ****             prev->size += curr->size;
 561              		.loc 1 130 68 discriminator 1
 562 02d0 3307D700 		add	a4,a4,a3
 130:src/MemoryAllocator.cpp ****             prev->size += curr->size;
 563              		.loc 1 130 17 discriminator 1
 564 02d4 6308E608 		beq	a2,a4,.L51
 565              	.LBE61:
 566              	.LBE60:
 136:src/MemoryAllocator.cpp **** }
 567              		.loc 1 136 12
 568 02d8 13050000 		li	a0,0
 569              	.LVL59:
 570              	.L26:
 137:src/MemoryAllocator.cpp **** 
 571              		.loc 1 137 1
 572 02dc 83308103 		ld	ra,56(sp)
 573              		.cfi_remember_state
 574              		.cfi_restore 1
 575 02e0 03340103 		ld	s0,48(sp)
 576              		.cfi_restore 8
 577              		.cfi_def_cfa 2, 64
 578 02e4 83348102 		ld	s1,40(sp)
 579              		.cfi_restore 9
GAS LISTING /tmp/ccCfp1ds.s 			page 18


 580 02e8 03390102 		ld	s2,32(sp)
 581              		.cfi_restore 18
 582 02ec 83398101 		ld	s3,24(sp)
 583              		.cfi_restore 19
 584 02f0 033A0101 		ld	s4,16(sp)
 585              		.cfi_restore 20
 586 02f4 833A8100 		ld	s5,8(sp)
 587              		.cfi_restore 21
 588 02f8 13010104 		addi	sp,sp,64
 589              		.cfi_def_cfa_offset 0
 590 02fc 67800000 		jr	ra
 591              	.LVL60:
 592              	.L49:
 593              		.cfi_restore_state
  97:src/MemoryAllocator.cpp ****             return BAD_POINTER;
 594              		.loc 1 97 9 is_stmt 1
 595              	.LBB72:
 596              	.LBB67:
 597 0300 6388070A 		beqz	a5,.L41
 598              	.LBB68:
 101:src/MemoryAllocator.cpp ****             newFreeSegment->size = size;
 599              		.loc 1 101 13
 600              	.LVL61:
 102:src/MemoryAllocator.cpp ****             newFreeSegment->baseAddr = memSegment;
 601              		.loc 1 102 13
 102:src/MemoryAllocator.cpp ****             newFreeSegment->baseAddr = memSegment;
 602              		.loc 1 102 34 is_stmt 0
 603 0304 23304901 		sd	s4,0(s2)
 103:src/MemoryAllocator.cpp **** 
 604              		.loc 1 103 13 is_stmt 1
 103:src/MemoryAllocator.cpp **** 
 605              		.loc 1 103 38 is_stmt 0
 606 0308 233C99FE 		sd	s1,-8(s2)
 105:src/MemoryAllocator.cpp ****                 newFreeSegment->size += head->size;
 607              		.loc 1 105 13 is_stmt 1
 105:src/MemoryAllocator.cpp ****                 newFreeSegment->size += head->size;
 608              		.loc 1 105 16 is_stmt 0
 609 030c 97070000 		ld	a5,.LANCHOR0
 609      83B70700 
 610              	.LVL62:
 105:src/MemoryAllocator.cpp ****                 newFreeSegment->size += head->size;
 611              		.loc 1 105 29
 612 0314 83B60700 		ld	a3,0(a5)
 613              	.LVL63:
 105:src/MemoryAllocator.cpp ****                 newFreeSegment->size += head->size;
 614              		.loc 1 105 74
 615 0318 33874401 		add	a4,s1,s4
 105:src/MemoryAllocator.cpp ****                 newFreeSegment->size += head->size;
 616              		.loc 1 105 13
 617 031c 638CE600 		beq	a3,a4,.L52
 110:src/MemoryAllocator.cpp ****             }
 618              		.loc 1 110 17 is_stmt 1
 110:src/MemoryAllocator.cpp ****             }
 619              		.loc 1 110 38 is_stmt 0
 620 0320 2334F900 		sd	a5,8(s2)
 621              	.LVL64:
 622              	.L31:
GAS LISTING /tmp/ccCfp1ds.s 			page 19


 112:src/MemoryAllocator.cpp **** 
 623              		.loc 1 112 13 is_stmt 1
 112:src/MemoryAllocator.cpp **** 
 624              		.loc 1 112 18 is_stmt 0
 625 0324 97070000 		sd	s1,.LANCHOR0,a5
 625      23B09700 
 114:src/MemoryAllocator.cpp ****         }
 626              		.loc 1 114 13 is_stmt 1
 114:src/MemoryAllocator.cpp ****         }
 627              		.loc 1 114 20 is_stmt 0
 628 032c 13050000 		li	a0,0
 629 0330 6FF0DFFA 		j	.L26
 630              	.LVL65:
 631              	.L52:
 106:src/MemoryAllocator.cpp ****                 newFreeSegment->next = head->next;
 632              		.loc 1 106 17 is_stmt 1
 106:src/MemoryAllocator.cpp ****                 newFreeSegment->next = head->next;
 633              		.loc 1 106 47 is_stmt 0
 634 0334 83B78700 		ld	a5,8(a5)
 106:src/MemoryAllocator.cpp ****                 newFreeSegment->next = head->next;
 635              		.loc 1 106 38
 636 0338 338A4701 		add	s4,a5,s4
 637              	.LVL66:
 638 033c 23304901 		sd	s4,0(s2)
 639              	.LVL67:
 107:src/MemoryAllocator.cpp ****             }
 640              		.loc 1 107 17 is_stmt 1
 107:src/MemoryAllocator.cpp ****             }
 641              		.loc 1 107 46 is_stmt 0
 642 0340 97070000 		ld	a5,.LANCHOR0
 642      83B70700 
 643 0348 83B70701 		ld	a5,16(a5)
 107:src/MemoryAllocator.cpp ****             }
 644              		.loc 1 107 38
 645 034c 2334F900 		sd	a5,8(s2)
 646 0350 6FF05FFD 		j	.L31
 647              	.LVL68:
 648              	.L50:
 649              	.LBE68:
 650              	.LBE67:
 651              	.LBB69:
 652              	.LBB66:
 119:src/MemoryAllocator.cpp ****         }
 653              		.loc 1 119 13 is_stmt 1
 119:src/MemoryAllocator.cpp ****         }
 654              		.loc 1 119 24 is_stmt 0
 655 0354 330A4601 		add	s4,a2,s4
 656              	.LVL69:
 657 0358 23B44601 		sd	s4,8(a3)
 658 035c 93840600 		mv	s1,a3
 659              	.LVL70:
 660 0360 6FF01FF6 		j	.L33
 661              	.LVL71:
 662              	.L51:
 663              	.LBE66:
 131:src/MemoryAllocator.cpp ****             prev->next = curr->next;
 664              		.loc 1 131 13 is_stmt 1
GAS LISTING /tmp/ccCfp1ds.s 			page 20


 131:src/MemoryAllocator.cpp ****             prev->next = curr->next;
 665              		.loc 1 131 33 is_stmt 0
 666 0364 03B78700 		ld	a4,8(a5)
 131:src/MemoryAllocator.cpp ****             prev->next = curr->next;
 667              		.loc 1 131 24
 668 0368 B386E600 		add	a3,a3,a4
 669 036c 23B4D400 		sd	a3,8(s1)
 132:src/MemoryAllocator.cpp ****         }
 670              		.loc 1 132 13 is_stmt 1
 132:src/MemoryAllocator.cpp ****         }
 671              		.loc 1 132 32 is_stmt 0
 672 0370 83B70701 		ld	a5,16(a5)
 673              	.LVL72:
 132:src/MemoryAllocator.cpp ****         }
 674              		.loc 1 132 24
 675 0374 23B8F400 		sd	a5,16(s1)
 676              	.LBE69:
 677              	.LBE72:
 136:src/MemoryAllocator.cpp **** }
 678              		.loc 1 136 12
 679 0378 13050000 		li	a0,0
 680              	.LBB73:
 681              	.LBB70:
 682 037c 6FF01FF6 		j	.L26
 683              	.LVL73:
 684              	.L34:
 685              		.cfi_def_cfa_register 2
 686              		.cfi_restore 1
 687              		.cfi_restore 8
 688              		.cfi_restore 9
 689              		.cfi_restore 18
 690              		.cfi_restore 19
 691              		.cfi_restore 20
 692              		.cfi_restore 21
 693              	.LBE70:
 694              	.LBE73:
  70:src/MemoryAllocator.cpp **** 
 695              		.loc 1 70 96
 696 0380 1305F0FF 		li	a0,-1
 697              	.LVL74:
 137:src/MemoryAllocator.cpp **** 
 698              		.loc 1 137 1
 699 0384 67800000 		ret
 700              	.LVL75:
 701              	.L35:
 702              		.cfi_def_cfa_register 8
 703              		.cfi_offset 1, -8
 704              		.cfi_offset 8, -16
 705              		.cfi_offset 9, -24
 706              		.cfi_offset 18, -32
 707              		.cfi_offset 19, -40
 708              		.cfi_offset 20, -48
 709              		.cfi_offset 21, -56
  70:src/MemoryAllocator.cpp **** 
 710              		.loc 1 70 96
 711 0388 1305F0FF 		li	a0,-1
 712 038c 6FF01FF5 		j	.L26
GAS LISTING /tmp/ccCfp1ds.s 			page 21


 713              	.LVL76:
 714              	.L36:
  76:src/MemoryAllocator.cpp ****     }
 715              		.loc 1 76 16
 716 0390 1305F0FF 		li	a0,-1
 717 0394 6FF09FF4 		j	.L26
 718              	.L37:
 719 0398 1305F0FF 		li	a0,-1
 720 039c 6FF01FF4 		j	.L26
 721              	.L38:
 722 03a0 1305F0FF 		li	a0,-1
 723 03a4 6FF09FF3 		j	.L26
 724              	.L39:
 725 03a8 1305F0FF 		li	a0,-1
 726 03ac 6FF01FF3 		j	.L26
 727              	.LVL77:
 728              	.L41:
 729              	.LBB74:
 730              	.LBB71:
  98:src/MemoryAllocator.cpp ****         }
 731              		.loc 1 98 20
 732 03b0 1305F0FF 		li	a0,-1
 733 03b4 6FF09FF2 		j	.L26
 734              	.LVL78:
 735              	.L42:
 736              	.LBE71:
 737              	.LBE74:
 136:src/MemoryAllocator.cpp **** }
 738              		.loc 1 136 12
 739 03b8 13050000 		li	a0,0
 740 03bc 6FF01FF2 		j	.L26
 741              		.cfi_endproc
 742              	.LFE10:
 744              		.globl	_ZN15MemoryAllocator4headE
 745              		.bss
 746              		.align	3
 747              		.set	.LANCHOR0,. + 0
 750              	_ZN15MemoryAllocator4headE:
 751 0000 00000000 		.zero	8
 751      00000000 
 752              		.text
 753              	.Letext0:
 754              		.file 3 "src/../h/hw.h"
GAS LISTING /tmp/ccCfp1ds.s 			page 22

