GAS LISTING /tmp/ccSTzYLU.s 			page 1


   1              		.file	"MemoryAllocator.cpp"
   2              		.option pic
   3              		.option norelax
   4              		.text
   5              	.Ltext0:
   6              		.align	2
   7              		.globl	_ZN15MemoryAllocator9mem_allocEm
   9              	_ZN15MemoryAllocator9mem_allocEm:
  10              	.LFB7:
  11              		.file 1 "src/MemoryAllocator.cpp"
   1:src/MemoryAllocator.cpp **** #include "../h/MemoryAllocator.h"
   2:src/MemoryAllocator.cpp **** 
   3:src/MemoryAllocator.cpp **** MemoryAllocator::FreeSegment* MemoryAllocator::head = nullptr;
   4:src/MemoryAllocator.cpp **** 
   5:src/MemoryAllocator.cpp **** void *MemoryAllocator::mem_alloc(size_t size) {
  12              		.loc 1 5 47
  13              		.cfi_startproc
  14              	.LVL0:
  15 0000 130101FF 		addi	sp,sp,-16
  16              		.cfi_def_cfa_offset 16
  17 0004 23348100 		sd	s0,8(sp)
  18              		.cfi_offset 8, -8
  19 0008 13040101 		addi	s0,sp,16
  20              		.cfi_def_cfa 8, 0
   6:src/MemoryAllocator.cpp ****     if(head == nullptr) { // ako prvi put alociramo memoriju, alociracemo head na pocetak mem segme
  21              		.loc 1 6 5
  22              		.loc 1 6 13 is_stmt 0
  23 000c 97070000 		ld	a5,.LANCHOR0
  23      83B70700 
  24              		.loc 1 6 5
  25 0014 638E0704 		beqz	a5,.L15
   7:src/MemoryAllocator.cpp ****         head = (FreeSegment*)HEAP_START_ADDR;
   8:src/MemoryAllocator.cpp ****         head->baseAddr = (void*)HEAP_START_ADDR;
   9:src/MemoryAllocator.cpp ****         head->size = ((size_t)HEAP_END_ADDR - (size_t)HEAP_START_ADDR + 1);
  10:src/MemoryAllocator.cpp ****         head->next = nullptr;
  11:src/MemoryAllocator.cpp ****     }
  12:src/MemoryAllocator.cpp ****     else if(head == (FreeSegment*)HEAP_END_ADDR) { // ako ne postoji slobodan prostor
  26              		.loc 1 12 10 is_stmt 1
  27              		.loc 1 12 21 is_stmt 0
  28 0018 17070000 		la	a4,HEAP_END_ADDR
  28      03370700 
  29 0020 03370700 		ld	a4,0(a4)
  30              		.loc 1 12 10
  31 0024 6384E712 		beq	a5,a4,.L13
  32              	.L3:
  13:src/MemoryAllocator.cpp ****         return nullptr;
  14:src/MemoryAllocator.cpp ****     }
  15:src/MemoryAllocator.cpp **** 
  16:src/MemoryAllocator.cpp ****     size_t numOfBlocksToAllocate = sizeInBlocks(size);
  33              		.loc 1 16 5 is_stmt 1
  34              	.LVL1:
  35              	.LBB19:
  36              	.LBB20:
  37              		.file 2 "src/../h/MemoryAllocator.h"
   1:src/../h/MemoryAllocator.h **** #ifndef PROJECT_BASE_MEMORYALLOCATOR_H
   2:src/../h/MemoryAllocator.h **** #define PROJECT_BASE_MEMORYALLOCATOR_H
   3:src/../h/MemoryAllocator.h **** 
GAS LISTING /tmp/ccSTzYLU.s 			page 2


   4:src/../h/MemoryAllocator.h **** #include "../lib/hw.h"
   5:src/../h/MemoryAllocator.h **** 
   6:src/../h/MemoryAllocator.h **** class MemoryAllocator {
   7:src/../h/MemoryAllocator.h **** public:
   8:src/../h/MemoryAllocator.h ****     /*
   9:src/../h/MemoryAllocator.h ****     Alocira (najmanje) size bajtova memorije, zaokruženo i poravnato na blokove veličine MEM_BLOC
  10:src/../h/MemoryAllocator.h **** 
  11:src/../h/MemoryAllocator.h ****     Vraća:
  12:src/../h/MemoryAllocator.h ****     pokazivač na alocirani deo memorije u slučaju uspeha, nullptr u slučaju neuspeha
  13:src/../h/MemoryAllocator.h **** 
  14:src/../h/MemoryAllocator.h ****     Radi se po algoritmu first fit(alociramo prvi segment koji je >= size). Ako je preostao prostor
  15:src/../h/MemoryAllocator.h ****     jednog bloka, taj preostali prostor se pridruzuje ovom koji smo sad alocirali(jer nema poente d
  16:src/../h/MemoryAllocator.h ****     */
  17:src/../h/MemoryAllocator.h ****     static void* mem_alloc(size_t size);
  18:src/../h/MemoryAllocator.h ****     /*
  19:src/../h/MemoryAllocator.h ****     Oslobađa prostor prethodno zauzet pomoću mem_alloc.
  20:src/../h/MemoryAllocator.h ****     Vraća 0 u slučaju uspeha, negativnu vrednost u slučaju greške
  21:src/../h/MemoryAllocator.h **** 
  22:src/../h/MemoryAllocator.h ****     */
  23:src/../h/MemoryAllocator.h ****     static int mem_free(void* memSegment);
  24:src/../h/MemoryAllocator.h **** 
  25:src/../h/MemoryAllocator.h ****     struct FreeSegment { // Jednostruko ulancana lista slobodnih segmenata
  26:src/../h/MemoryAllocator.h ****         void* baseAddr; // pocetna adresa u segmentu
  27:src/../h/MemoryAllocator.h ****         size_t size; // velicina segmenta
  28:src/../h/MemoryAllocator.h ****         FreeSegment* next; // sledeci element u ulancanoj listi
  29:src/../h/MemoryAllocator.h **** 
  30:src/../h/MemoryAllocator.h ****         static void remove(FreeSegment* prev) { // brise element iz ulancane liste koji se nalazi p
  31:src/../h/MemoryAllocator.h ****             if(!prev->next) return;
  32:src/../h/MemoryAllocator.h **** 
  33:src/../h/MemoryAllocator.h ****             FreeSegment* curr = prev->next;
  34:src/../h/MemoryAllocator.h ****             prev->next = curr->next;
  35:src/../h/MemoryAllocator.h ****         }
  36:src/../h/MemoryAllocator.h **** 
  37:src/../h/MemoryAllocator.h ****         static void add(FreeSegment* prev, FreeSegment* curr) { // dodaje element curr u ulancanu l
  38:src/../h/MemoryAllocator.h ****             curr->next = prev->next;
  39:src/../h/MemoryAllocator.h ****             prev->next = curr;
  40:src/../h/MemoryAllocator.h ****         }
  41:src/../h/MemoryAllocator.h ****     };
  42:src/../h/MemoryAllocator.h **** 
  43:src/../h/MemoryAllocator.h ****     enum memFreeFlags {
  44:src/../h/MemoryAllocator.h ****         BAD_POINTER = -1 // nije koriscen pokazviac iz mem_alloc
  45:src/../h/MemoryAllocator.h ****     };
  46:src/../h/MemoryAllocator.h **** 
  47:src/../h/MemoryAllocator.h **** private:
  48:src/../h/MemoryAllocator.h ****     static FreeSegment* head; // pocetak ulancane liste slobodnih segmenata
  49:src/../h/MemoryAllocator.h ****     static MemoryAllocator* memAllocator;
  50:src/../h/MemoryAllocator.h ****     MemoryAllocator() {}
  51:src/../h/MemoryAllocator.h **** 
  52:src/../h/MemoryAllocator.h ****     // Vraca minimalan potreban broj blokova za alokaciju memorije velicine size bajtova
  53:src/../h/MemoryAllocator.h ****     static inline size_t sizeInBlocks(size_t size) {
  54:src/../h/MemoryAllocator.h ****         return (size / MEM_BLOCK_SIZE) + (size % MEM_BLOCK_SIZE > 0);
  38              		.loc 2 54 9
  39              		.loc 2 54 22 is_stmt 0
  40 0028 13566500 		srli	a2,a0,6
  41              		.loc 2 54 48
  42 002c 1375F503 		andi	a0,a0,63
  43              	.LVL2:
GAS LISTING /tmp/ccSTzYLU.s 			page 3


  44              		.loc 2 54 65
  45 0030 B336A000 		snez	a3,a0
  46              		.loc 2 54 68
  47 0034 3306D600 		add	a2,a2,a3
  48              	.LVL3:
  49              	.LBE20:
  50              	.LBE19:
  17:src/MemoryAllocator.cpp **** 
  18:src/MemoryAllocator.cpp ****     FreeSegment *curr = head, *prev = nullptr;
  51              		.loc 1 18 5 is_stmt 1
  52              		.loc 1 18 18 is_stmt 0
  53 0038 17050000 		ld	a0,.LANCHOR0
  53      03350500 
  54              	.LVL4:
  55              		.loc 1 18 32
  56 0040 93050000 		li	a1,0
  57              	.LVL5:
  58              	.L12:
  19:src/MemoryAllocator.cpp ****     while(curr) {
  59              		.loc 1 19 5 is_stmt 1
  60              		.loc 1 19 11
  61 0044 6306050A 		beqz	a0,.L1
  62              	.LBB21:
  20:src/MemoryAllocator.cpp ****         size_t freeSegSizeInBlocks = sizeInBlocks(curr->size);
  63              		.loc 1 20 9
  64              		.loc 1 20 50 is_stmt 0
  65 0048 83368500 		ld	a3,8(a0)
  66              	.LVL6:
  67              	.LBB22:
  68              	.LBB23:
  69              		.loc 2 54 9 is_stmt 1
  70              		.loc 2 54 22 is_stmt 0
  71 004c 93D76600 		srli	a5,a3,6
  72              		.loc 2 54 48
  73 0050 13F7F603 		andi	a4,a3,63
  74              		.loc 2 54 65
  75 0054 3337E000 		snez	a4,a4
  76              		.loc 2 54 68
  77 0058 B387E700 		add	a5,a5,a4
  78              	.LVL7:
  79              	.LBE23:
  80              	.LBE22:
  21:src/MemoryAllocator.cpp ****         size_t allocatedSize = 0;
  81              		.loc 1 21 9 is_stmt 1
  22:src/MemoryAllocator.cpp ****         void* startOfAllocatedSpace = curr->baseAddr;
  82              		.loc 1 22 9
  83              		.loc 1 22 15 is_stmt 0
  84 005c 03370500 		ld	a4,0(a0)
  85              	.LVL8:
  23:src/MemoryAllocator.cpp ****         if(freeSegSizeInBlocks >= numOfBlocksToAllocate) {
  86              		.loc 1 23 9 is_stmt 1
  87              	.LBB24:
  88 0060 63F6C704 		bleu	a2,a5,.L16
  89              	.LBE24:
  24:src/MemoryAllocator.cpp ****             if(freeSegSizeInBlocks == numOfBlocksToAllocate) { // ako ce preostali slobodan segment
  25:src/MemoryAllocator.cpp ****                 allocatedSize = curr->size;
  26:src/MemoryAllocator.cpp **** 
GAS LISTING /tmp/ccSTzYLU.s 			page 4


  27:src/MemoryAllocator.cpp ****                 if(prev == nullptr) { // ako smo na head pokazivacu
  28:src/MemoryAllocator.cpp ****                     if(curr->next == nullptr) { // ako ne postoji slobodan prostor nakon alokacije
  29:src/MemoryAllocator.cpp ****                         head = (FreeSegment*)HEAP_END_ADDR;
  30:src/MemoryAllocator.cpp ****                     }
  31:src/MemoryAllocator.cpp ****                     else {
  32:src/MemoryAllocator.cpp ****                         head = curr->next;
  33:src/MemoryAllocator.cpp ****                     }
  34:src/MemoryAllocator.cpp ****                 }
  35:src/MemoryAllocator.cpp ****                 else {
  36:src/MemoryAllocator.cpp ****                     FreeSegment::remove(prev);
  37:src/MemoryAllocator.cpp ****                 }
  38:src/MemoryAllocator.cpp ****             }
  39:src/MemoryAllocator.cpp ****             else {
  40:src/MemoryAllocator.cpp ****                 allocatedSize = blocksInSize(numOfBlocksToAllocate);
  41:src/MemoryAllocator.cpp ****                 void* newBaseAddr = ((char*)startOfAllocatedSpace + allocatedSize);
  42:src/MemoryAllocator.cpp ****                 size_t newSize = curr->size - allocatedSize;
  43:src/MemoryAllocator.cpp **** 
  44:src/MemoryAllocator.cpp ****                 FreeSegment* newSeg = (FreeSegment*)newBaseAddr;
  45:src/MemoryAllocator.cpp ****                 newSeg->baseAddr = newBaseAddr;
  46:src/MemoryAllocator.cpp ****                 newSeg->size = newSize;
  47:src/MemoryAllocator.cpp ****                 newSeg->next = curr->next;
  48:src/MemoryAllocator.cpp **** 
  49:src/MemoryAllocator.cpp ****                 if(!prev) {
  50:src/MemoryAllocator.cpp ****                     head = newSeg;
  51:src/MemoryAllocator.cpp ****                 }
  52:src/MemoryAllocator.cpp ****                 else {
  53:src/MemoryAllocator.cpp ****                     FreeSegment::remove(prev);
  54:src/MemoryAllocator.cpp ****                     FreeSegment::add(prev, curr);
  55:src/MemoryAllocator.cpp ****                 }
  56:src/MemoryAllocator.cpp ****             }
  57:src/MemoryAllocator.cpp **** 
  58:src/MemoryAllocator.cpp ****             return startOfAllocatedSpace;
  59:src/MemoryAllocator.cpp ****         }
  60:src/MemoryAllocator.cpp **** 
  61:src/MemoryAllocator.cpp ****         prev = curr;
  90              		.loc 1 61 9
  91              	.LVL9:
  62:src/MemoryAllocator.cpp ****         curr = curr->next;
  92              		.loc 1 62 9
  61:src/MemoryAllocator.cpp ****         curr = curr->next;
  93              		.loc 1 61 14 is_stmt 0
  94 0064 93050500 		mv	a1,a0
  95              		.loc 1 62 14
  96 0068 03350501 		ld	a0,16(a0)
  97              	.LVL10:
  98              	.LBE21:
  19:src/MemoryAllocator.cpp ****         size_t freeSegSizeInBlocks = sizeInBlocks(curr->size);
  99              		.loc 1 19 5
 100 006c 6FF09FFD 		j	.L12
 101              	.LVL11:
 102              	.L15:
   7:src/MemoryAllocator.cpp ****         head->baseAddr = (void*)HEAP_START_ADDR;
 103              		.loc 1 7 9 is_stmt 1
   7:src/MemoryAllocator.cpp ****         head->baseAddr = (void*)HEAP_START_ADDR;
 104              		.loc 1 7 14 is_stmt 0
 105 0070 97060000 		la	a3,HEAP_START_ADDR
 105      83B60600 
GAS LISTING /tmp/ccSTzYLU.s 			page 5


 106 0078 83B70600 		ld	a5,0(a3)
 107 007c 17070000 		sd	a5,.LANCHOR0,a4
 107      2330F700 
   8:src/MemoryAllocator.cpp ****         head->size = ((size_t)HEAP_END_ADDR - (size_t)HEAP_START_ADDR + 1);
 108              		.loc 1 8 9 is_stmt 1
   8:src/MemoryAllocator.cpp ****         head->size = ((size_t)HEAP_END_ADDR - (size_t)HEAP_START_ADDR + 1);
 109              		.loc 1 8 24 is_stmt 0
 110 0084 23B0F700 		sd	a5,0(a5)
   9:src/MemoryAllocator.cpp ****         head->next = nullptr;
 111              		.loc 1 9 9 is_stmt 1
   9:src/MemoryAllocator.cpp ****         head->next = nullptr;
 112              		.loc 1 9 45 is_stmt 0
 113 0088 17070000 		la	a4,HEAP_END_ADDR
 113      03370700 
 114 0090 03370700 		ld	a4,0(a4)
 115 0094 83B60600 		ld	a3,0(a3)
 116 0098 3307D740 		sub	a4,a4,a3
   9:src/MemoryAllocator.cpp ****         head->next = nullptr;
 117              		.loc 1 9 71
 118 009c 13071700 		addi	a4,a4,1
   9:src/MemoryAllocator.cpp ****         head->next = nullptr;
 119              		.loc 1 9 20
 120 00a0 23B4E700 		sd	a4,8(a5)
  10:src/MemoryAllocator.cpp ****     }
 121              		.loc 1 10 9 is_stmt 1
  10:src/MemoryAllocator.cpp ****     }
 122              		.loc 1 10 20 is_stmt 0
 123 00a4 23B80700 		sd	zero,16(a5)
 124 00a8 6FF01FF8 		j	.L3
 125              	.LVL12:
 126              	.L16:
 127              	.LBB41:
 128              	.LBB39:
 129              	.LBB25:
  24:src/MemoryAllocator.cpp ****                 allocatedSize = curr->size;
 130              		.loc 1 24 13 is_stmt 1
 131              	.LBB26:
 132 00ac 6308F604 		beq	a2,a5,.L17
 133              	.LBB27:
  40:src/MemoryAllocator.cpp ****                 void* newBaseAddr = ((char*)startOfAllocatedSpace + allocatedSize);
 134              		.loc 1 40 17
 135              	.LVL13:
 136              	.LBB28:
 137              	.LBB29:
  55:src/../h/MemoryAllocator.h ****     }
  56:src/../h/MemoryAllocator.h **** 
  57:src/../h/MemoryAllocator.h ****     // Vraca velicinu numOfBlocks blokova u bajtovima
  58:src/../h/MemoryAllocator.h ****     static inline size_t blocksInSize(size_t numOfBlocks) {
  59:src/../h/MemoryAllocator.h ****         return numOfBlocks * MEM_BLOCK_SIZE;
 138              		.loc 2 59 9
 139              		.loc 2 59 30 is_stmt 0
 140 00b0 13166600 		slli	a2,a2,6
 141              	.LVL14:
 142              	.LBE29:
 143              	.LBE28:
  41:src/MemoryAllocator.cpp ****                 size_t newSize = curr->size - allocatedSize;
 144              		.loc 1 41 17 is_stmt 1
GAS LISTING /tmp/ccSTzYLU.s 			page 6


  41:src/MemoryAllocator.cpp ****                 size_t newSize = curr->size - allocatedSize;
 145              		.loc 1 41 23 is_stmt 0
 146 00b4 B307C700 		add	a5,a4,a2
 147              	.LVL15:
  42:src/MemoryAllocator.cpp **** 
 148              		.loc 1 42 17 is_stmt 1
  42:src/MemoryAllocator.cpp **** 
 149              		.loc 1 42 24 is_stmt 0
 150 00b8 B386C640 		sub	a3,a3,a2
 151              	.LVL16:
  44:src/MemoryAllocator.cpp ****                 newSeg->baseAddr = newBaseAddr;
 152              		.loc 1 44 17 is_stmt 1
  45:src/MemoryAllocator.cpp ****                 newSeg->size = newSize;
 153              		.loc 1 45 17
  45:src/MemoryAllocator.cpp ****                 newSeg->size = newSize;
 154              		.loc 1 45 34 is_stmt 0
 155 00bc 23B0F700 		sd	a5,0(a5)
 156              	.LVL17:
  46:src/MemoryAllocator.cpp ****                 newSeg->next = curr->next;
 157              		.loc 1 46 17 is_stmt 1
  46:src/MemoryAllocator.cpp ****                 newSeg->next = curr->next;
 158              		.loc 1 46 30 is_stmt 0
 159 00c0 23B4D700 		sd	a3,8(a5)
  47:src/MemoryAllocator.cpp **** 
 160              		.loc 1 47 17 is_stmt 1
  47:src/MemoryAllocator.cpp **** 
 161              		.loc 1 47 38 is_stmt 0
 162 00c4 83360501 		ld	a3,16(a0)
 163              	.LVL18:
  47:src/MemoryAllocator.cpp **** 
 164              		.loc 1 47 30
 165 00c8 23B8D700 		sd	a3,16(a5)
  49:src/MemoryAllocator.cpp ****                     head = newSeg;
 166              		.loc 1 49 17 is_stmt 1
 167 00cc 638A0506 		beqz	a1,.L18
  53:src/MemoryAllocator.cpp ****                     FreeSegment::add(prev, curr);
 168              		.loc 1 53 21
 169              	.LVL19:
 170              	.LBB30:
 171              	.LBB31:
  31:src/../h/MemoryAllocator.h **** 
 172              		.loc 2 31 13
  31:src/../h/MemoryAllocator.h **** 
 173              		.loc 2 31 23 is_stmt 0
 174 00d0 83B70501 		ld	a5,16(a1)
 175              	.LVL20:
  31:src/../h/MemoryAllocator.h **** 
 176              		.loc 2 31 13
 177 00d4 63860700 		beqz	a5,.L11
  33:src/../h/MemoryAllocator.h ****             prev->next = curr->next;
 178              		.loc 2 33 13 is_stmt 1
 179              	.LVL21:
  34:src/../h/MemoryAllocator.h ****         }
 180              		.loc 2 34 13
  34:src/../h/MemoryAllocator.h ****         }
 181              		.loc 2 34 32 is_stmt 0
 182 00d8 83B70701 		ld	a5,16(a5)
GAS LISTING /tmp/ccSTzYLU.s 			page 7


 183              	.LVL22:
  34:src/../h/MemoryAllocator.h ****         }
 184              		.loc 2 34 24
 185 00dc 23B8F500 		sd	a5,16(a1)
 186              	.LVL23:
 187              	.L11:
 188              	.LBE31:
 189              	.LBE30:
  54:src/MemoryAllocator.cpp ****                 }
 190              		.loc 1 54 21 is_stmt 1
 191              	.LBB32:
 192              	.LBB33:
  38:src/../h/MemoryAllocator.h ****             prev->next = curr;
 193              		.loc 2 38 13
  38:src/../h/MemoryAllocator.h ****             prev->next = curr;
 194              		.loc 2 38 32 is_stmt 0
 195 00e0 83B70501 		ld	a5,16(a1)
  38:src/../h/MemoryAllocator.h ****             prev->next = curr;
 196              		.loc 2 38 24
 197 00e4 2338F500 		sd	a5,16(a0)
  39:src/../h/MemoryAllocator.h ****         }
 198              		.loc 2 39 13 is_stmt 1
  39:src/../h/MemoryAllocator.h ****         }
 199              		.loc 2 39 24 is_stmt 0
 200 00e8 23B8A500 		sd	a0,16(a1)
 201              	.LVL24:
 202              	.L9:
 203              	.LBE33:
 204              	.LBE32:
 205              	.LBE27:
 206              	.LBE26:
  58:src/MemoryAllocator.cpp ****         }
 207              		.loc 1 58 13 is_stmt 1
  58:src/MemoryAllocator.cpp ****         }
 208              		.loc 1 58 20 is_stmt 0
 209 00ec 13050700 		mv	a0,a4
 210              	.LVL25:
 211              	.L1:
 212              	.LBE25:
 213              	.LBE39:
 214              	.LBE41:
  63:src/MemoryAllocator.cpp ****     }
  64:src/MemoryAllocator.cpp **** 
  65:src/MemoryAllocator.cpp ****     return nullptr; // ne postoji dovoljan slobodan prostor
  66:src/MemoryAllocator.cpp **** }
 215              		.loc 1 66 1
 216 00f0 03348100 		ld	s0,8(sp)
 217              		.cfi_remember_state
 218              		.cfi_restore 8
 219              		.cfi_def_cfa 2, 16
 220 00f4 13010101 		addi	sp,sp,16
 221              		.cfi_def_cfa_offset 0
 222 00f8 67800000 		jr	ra
 223              	.LVL26:
 224              	.L17:
 225              		.cfi_restore_state
 226              	.LBB42:
GAS LISTING /tmp/ccSTzYLU.s 			page 8


 227              	.LBB40:
 228              	.LBB38:
 229              	.LBB37:
  25:src/MemoryAllocator.cpp **** 
 230              		.loc 1 25 17 is_stmt 1
  27:src/MemoryAllocator.cpp ****                     if(curr->next == nullptr) { // ako ne postoji slobodan prostor nakon alokacije
 231              		.loc 1 27 17
 232 00fc 638C0500 		beqz	a1,.L19
  36:src/MemoryAllocator.cpp ****                 }
 233              		.loc 1 36 21
 234              	.LVL27:
 235              	.LBB34:
 236              	.LBB35:
  31:src/../h/MemoryAllocator.h **** 
 237              		.loc 2 31 13
  31:src/../h/MemoryAllocator.h **** 
 238              		.loc 2 31 23 is_stmt 0
 239 0100 83B70501 		ld	a5,16(a1)
 240              	.LVL28:
  31:src/../h/MemoryAllocator.h **** 
 241              		.loc 2 31 13
 242 0104 E38407FE 		beqz	a5,.L9
  33:src/../h/MemoryAllocator.h ****             prev->next = curr->next;
 243              		.loc 2 33 13 is_stmt 1
 244              	.LVL29:
  34:src/../h/MemoryAllocator.h ****         }
 245              		.loc 2 34 13
  34:src/../h/MemoryAllocator.h ****         }
 246              		.loc 2 34 32 is_stmt 0
 247 0108 83B70701 		ld	a5,16(a5)
 248              	.LVL30:
  34:src/../h/MemoryAllocator.h ****         }
 249              		.loc 2 34 24
 250 010c 23B8F500 		sd	a5,16(a1)
 251              	.LVL31:
 252 0110 6FF0DFFD 		j	.L9
 253              	.LVL32:
 254              	.L19:
 255              	.LBE35:
 256              	.LBE34:
  28:src/MemoryAllocator.cpp ****                         head = (FreeSegment*)HEAP_END_ADDR;
 257              		.loc 1 28 21 is_stmt 1
  28:src/MemoryAllocator.cpp ****                         head = (FreeSegment*)HEAP_END_ADDR;
 258              		.loc 1 28 30 is_stmt 0
 259 0114 83370501 		ld	a5,16(a0)
 260              	.LVL33:
  28:src/MemoryAllocator.cpp ****                         head = (FreeSegment*)HEAP_END_ADDR;
 261              		.loc 1 28 21
 262 0118 63880700 		beqz	a5,.L20
  32:src/MemoryAllocator.cpp ****                     }
 263              		.loc 1 32 25 is_stmt 1
  32:src/MemoryAllocator.cpp ****                     }
 264              		.loc 1 32 30 is_stmt 0
 265 011c 97060000 		sd	a5,.LANCHOR0,a3
 265      23B0F600 
 266              	.LVL34:
 267 0124 6FF09FFC 		j	.L9
GAS LISTING /tmp/ccSTzYLU.s 			page 9


 268              	.LVL35:
 269              	.L20:
  29:src/MemoryAllocator.cpp ****                     }
 270              		.loc 1 29 25 is_stmt 1
  29:src/MemoryAllocator.cpp ****                     }
 271              		.loc 1 29 30 is_stmt 0
 272 0128 97070000 		la	a5,HEAP_END_ADDR
 272      83B70700 
 273 0130 83B70700 		ld	a5,0(a5)
 274 0134 97060000 		sd	a5,.LANCHOR0,a3
 274      23B0F600 
 275              	.LVL36:
 276 013c 6FF01FFB 		j	.L9
 277              	.LVL37:
 278              	.L18:
 279              	.LBB36:
  50:src/MemoryAllocator.cpp ****                 }
 280              		.loc 1 50 21 is_stmt 1
  50:src/MemoryAllocator.cpp ****                 }
 281              		.loc 1 50 26 is_stmt 0
 282 0140 97060000 		sd	a5,.LANCHOR0,a3
 282      23B0F600 
 283 0148 6FF05FFA 		j	.L9
 284              	.LVL38:
 285              	.L13:
 286              	.LBE36:
 287              	.LBE37:
 288              	.LBE38:
 289              	.LBE40:
 290              	.LBE42:
  13:src/MemoryAllocator.cpp ****     }
 291              		.loc 1 13 16
 292 014c 13050000 		li	a0,0
 293              	.LVL39:
 294 0150 6FF01FFA 		j	.L1
 295              		.cfi_endproc
 296              	.LFE7:
 298              		.globl	_ZN15MemoryAllocator4headE
 299              		.bss
 300              		.align	3
 301              		.set	.LANCHOR0,. + 0
 304              	_ZN15MemoryAllocator4headE:
 305 0000 00000000 		.zero	8
 305      00000000 
 306              		.text
 307              	.Letext0:
 308              		.file 3 "src/../h/../lib/hw.h"
GAS LISTING /tmp/ccSTzYLU.s 			page 10


DEFINED SYMBOLS
                            *ABS*:0000000000000000 MemoryAllocator.cpp
     /tmp/ccSTzYLU.s:9      .text:0000000000000000 _ZN15MemoryAllocator9mem_allocEm
     /tmp/ccSTzYLU.s:13     .text:0000000000000000 .L0 
     /tmp/ccSTzYLU.s:15     .text:0000000000000000 .L0 
     /tmp/ccSTzYLU.s:16     .text:0000000000000004 .L0 
     /tmp/ccSTzYLU.s:18     .text:0000000000000008 .L0 
     /tmp/ccSTzYLU.s:20     .text:000000000000000c .L0 
     /tmp/ccSTzYLU.s:22     .text:000000000000000c .L0 
     /tmp/ccSTzYLU.s:23     .text:000000000000000c .L0 
     /tmp/ccSTzYLU.s:25     .text:0000000000000014 .L0 
     /tmp/ccSTzYLU.s:27     .text:0000000000000018 .L0 
     /tmp/ccSTzYLU.s:28     .text:0000000000000018 .L0 
     /tmp/ccSTzYLU.s:31     .text:0000000000000024 .L0 
     /tmp/ccSTzYLU.s:38     .text:0000000000000028 .L0 
     /tmp/ccSTzYLU.s:39     .text:0000000000000028 .L0 
     /tmp/ccSTzYLU.s:40     .text:0000000000000028 .L0 
     /tmp/ccSTzYLU.s:42     .text:000000000000002c .L0 
     /tmp/ccSTzYLU.s:45     .text:0000000000000030 .L0 
     /tmp/ccSTzYLU.s:47     .text:0000000000000034 .L0 
     /tmp/ccSTzYLU.s:52     .text:0000000000000038 .L0 
     /tmp/ccSTzYLU.s:53     .text:0000000000000038 .L0 
     /tmp/ccSTzYLU.s:56     .text:0000000000000040 .L0 
     /tmp/ccSTzYLU.s:60     .text:0000000000000044 .L0 
     /tmp/ccSTzYLU.s:61     .text:0000000000000044 .L0 
     /tmp/ccSTzYLU.s:64     .text:0000000000000048 .L0 
     /tmp/ccSTzYLU.s:65     .text:0000000000000048 .L0 
     /tmp/ccSTzYLU.s:70     .text:000000000000004c .L0 
     /tmp/ccSTzYLU.s:71     .text:000000000000004c .L0 
     /tmp/ccSTzYLU.s:73     .text:0000000000000050 .L0 
     /tmp/ccSTzYLU.s:75     .text:0000000000000054 .L0 
     /tmp/ccSTzYLU.s:77     .text:0000000000000058 .L0 
     /tmp/ccSTzYLU.s:82     .text:000000000000005c .L0 
     /tmp/ccSTzYLU.s:83     .text:000000000000005c .L0 
     /tmp/ccSTzYLU.s:84     .text:000000000000005c .L0 
     /tmp/ccSTzYLU.s:88     .text:0000000000000060 .L0 
     /tmp/ccSTzYLU.s:92     .text:0000000000000064 .L0 
     /tmp/ccSTzYLU.s:93     .text:0000000000000064 .L0 
     /tmp/ccSTzYLU.s:94     .text:0000000000000064 .L0 
     /tmp/ccSTzYLU.s:96     .text:0000000000000068 .L0 
     /tmp/ccSTzYLU.s:100    .text:000000000000006c .L0 
     /tmp/ccSTzYLU.s:104    .text:0000000000000070 .L0 
     /tmp/ccSTzYLU.s:105    .text:0000000000000070 .L0 
     /tmp/ccSTzYLU.s:109    .text:0000000000000084 .L0 
     /tmp/ccSTzYLU.s:110    .text:0000000000000084 .L0 
     /tmp/ccSTzYLU.s:112    .text:0000000000000088 .L0 
     /tmp/ccSTzYLU.s:113    .text:0000000000000088 .L0 
     /tmp/ccSTzYLU.s:118    .text:000000000000009c .L0 
     /tmp/ccSTzYLU.s:120    .text:00000000000000a0 .L0 
     /tmp/ccSTzYLU.s:122    .text:00000000000000a4 .L0 
     /tmp/ccSTzYLU.s:123    .text:00000000000000a4 .L0 
     /tmp/ccSTzYLU.s:132    .text:00000000000000ac .L0 
     /tmp/ccSTzYLU.s:138    .text:00000000000000b0 .L0 
     /tmp/ccSTzYLU.s:139    .text:00000000000000b0 .L0 
     /tmp/ccSTzYLU.s:140    .text:00000000000000b0 .L0 
     /tmp/ccSTzYLU.s:145    .text:00000000000000b4 .L0 
     /tmp/ccSTzYLU.s:146    .text:00000000000000b4 .L0 
GAS LISTING /tmp/ccSTzYLU.s 			page 11


     /tmp/ccSTzYLU.s:149    .text:00000000000000b8 .L0 
     /tmp/ccSTzYLU.s:150    .text:00000000000000b8 .L0 
     /tmp/ccSTzYLU.s:153    .text:00000000000000bc .L0 
     /tmp/ccSTzYLU.s:154    .text:00000000000000bc .L0 
     /tmp/ccSTzYLU.s:155    .text:00000000000000bc .L0 
     /tmp/ccSTzYLU.s:158    .text:00000000000000c0 .L0 
     /tmp/ccSTzYLU.s:159    .text:00000000000000c0 .L0 
     /tmp/ccSTzYLU.s:161    .text:00000000000000c4 .L0 
     /tmp/ccSTzYLU.s:162    .text:00000000000000c4 .L0 
     /tmp/ccSTzYLU.s:165    .text:00000000000000c8 .L0 
     /tmp/ccSTzYLU.s:167    .text:00000000000000cc .L0 
     /tmp/ccSTzYLU.s:172    .text:00000000000000d0 .L0 
     /tmp/ccSTzYLU.s:173    .text:00000000000000d0 .L0 
     /tmp/ccSTzYLU.s:174    .text:00000000000000d0 .L0 
     /tmp/ccSTzYLU.s:177    .text:00000000000000d4 .L0 
     /tmp/ccSTzYLU.s:180    .text:00000000000000d8 .L0 
     /tmp/ccSTzYLU.s:181    .text:00000000000000d8 .L0 
     /tmp/ccSTzYLU.s:182    .text:00000000000000d8 .L0 
     /tmp/ccSTzYLU.s:185    .text:00000000000000dc .L0 
     /tmp/ccSTzYLU.s:193    .text:00000000000000e0 .L0 
     /tmp/ccSTzYLU.s:194    .text:00000000000000e0 .L0 
     /tmp/ccSTzYLU.s:195    .text:00000000000000e0 .L0 
     /tmp/ccSTzYLU.s:197    .text:00000000000000e4 .L0 
     /tmp/ccSTzYLU.s:199    .text:00000000000000e8 .L0 
     /tmp/ccSTzYLU.s:200    .text:00000000000000e8 .L0 
     /tmp/ccSTzYLU.s:208    .text:00000000000000ec .L0 
     /tmp/ccSTzYLU.s:209    .text:00000000000000ec .L0 
     /tmp/ccSTzYLU.s:216    .text:00000000000000f0 .L0 
     /tmp/ccSTzYLU.s:217    .text:00000000000000f4 .L0 
     /tmp/ccSTzYLU.s:218    .text:00000000000000f4 .L0 
     /tmp/ccSTzYLU.s:219    .text:00000000000000f4 .L0 
     /tmp/ccSTzYLU.s:221    .text:00000000000000f8 .L0 
     /tmp/ccSTzYLU.s:225    .text:00000000000000fc .L0 
     /tmp/ccSTzYLU.s:231    .text:00000000000000fc .L0 
     /tmp/ccSTzYLU.s:232    .text:00000000000000fc .L0 
     /tmp/ccSTzYLU.s:237    .text:0000000000000100 .L0 
     /tmp/ccSTzYLU.s:238    .text:0000000000000100 .L0 
     /tmp/ccSTzYLU.s:239    .text:0000000000000100 .L0 
     /tmp/ccSTzYLU.s:242    .text:0000000000000104 .L0 
     /tmp/ccSTzYLU.s:245    .text:0000000000000108 .L0 
     /tmp/ccSTzYLU.s:246    .text:0000000000000108 .L0 
     /tmp/ccSTzYLU.s:247    .text:0000000000000108 .L0 
     /tmp/ccSTzYLU.s:250    .text:000000000000010c .L0 
     /tmp/ccSTzYLU.s:258    .text:0000000000000114 .L0 
     /tmp/ccSTzYLU.s:259    .text:0000000000000114 .L0 
     /tmp/ccSTzYLU.s:262    .text:0000000000000118 .L0 
     /tmp/ccSTzYLU.s:264    .text:000000000000011c .L0 
     /tmp/ccSTzYLU.s:265    .text:000000000000011c .L0 
     /tmp/ccSTzYLU.s:271    .text:0000000000000128 .L0 
     /tmp/ccSTzYLU.s:272    .text:0000000000000128 .L0 
     /tmp/ccSTzYLU.s:281    .text:0000000000000140 .L0 
     /tmp/ccSTzYLU.s:282    .text:0000000000000140 .L0 
     /tmp/ccSTzYLU.s:292    .text:000000000000014c .L0 
     /tmp/ccSTzYLU.s:295    .text:0000000000000154 .L0 
     /tmp/ccSTzYLU.s:304    .bss:0000000000000000 _ZN15MemoryAllocator4headE
     /tmp/ccSTzYLU.s:301    .bss:0000000000000000 .LANCHOR0
     /tmp/ccSTzYLU.s:309    .text:0000000000000154 .L0 
GAS LISTING /tmp/ccSTzYLU.s 			page 12


     /tmp/ccSTzYLU.s:23     .text:000000000000000c .L0 
     /tmp/ccSTzYLU.s:28     .text:0000000000000018 .L0 
     /tmp/ccSTzYLU.s:53     .text:0000000000000038 .L0 
     /tmp/ccSTzYLU.s:105    .text:0000000000000070 .L0 
     /tmp/ccSTzYLU.s:107    .text:000000000000007c .L0 
     /tmp/ccSTzYLU.s:113    .text:0000000000000088 .L0 
     /tmp/ccSTzYLU.s:265    .text:000000000000011c .L0 
     /tmp/ccSTzYLU.s:272    .text:0000000000000128 .L0 
     /tmp/ccSTzYLU.s:274    .text:0000000000000134 .L0 
     /tmp/ccSTzYLU.s:282    .text:0000000000000140 .L0 
     /tmp/ccSTzYLU.s:102    .text:0000000000000070 .L15
     /tmp/ccSTzYLU.s:285    .text:000000000000014c .L13
     /tmp/ccSTzYLU.s:211    .text:00000000000000f0 .L1
     /tmp/ccSTzYLU.s:126    .text:00000000000000ac .L16
     /tmp/ccSTzYLU.s:58     .text:0000000000000044 .L12
     /tmp/ccSTzYLU.s:32     .text:0000000000000028 .L3
     /tmp/ccSTzYLU.s:224    .text:00000000000000fc .L17
     /tmp/ccSTzYLU.s:278    .text:0000000000000140 .L18
     /tmp/ccSTzYLU.s:187    .text:00000000000000e0 .L11
     /tmp/ccSTzYLU.s:254    .text:0000000000000114 .L19
     /tmp/ccSTzYLU.s:202    .text:00000000000000ec .L9
     /tmp/ccSTzYLU.s:269    .text:0000000000000128 .L20
     /tmp/ccSTzYLU.s:804    .debug_abbrev:0000000000000000 .Ldebug_abbrev0
     /tmp/ccSTzYLU.s:1884   .debug_str:000000000000009d .LASF44
     /tmp/ccSTzYLU.s:1932   .debug_str:00000000000002d0 .LASF45
     /tmp/ccSTzYLU.s:1950   .debug_str:00000000000003a7 .LASF46
     /tmp/ccSTzYLU.s:5      .text:0000000000000000 .Ltext0
     /tmp/ccSTzYLU.s:307    .text:0000000000000154 .Letext0
     /tmp/ccSTzYLU.s:1860   .debug_line:0000000000000000 .Ldebug_line0
     /tmp/ccSTzYLU.s:1922   .debug_str:0000000000000280 .LASF0
     /tmp/ccSTzYLU.s:1906   .debug_str:0000000000000204 .LASF1
     /tmp/ccSTzYLU.s:1898   .debug_str:00000000000001cb .LASF2
     /tmp/ccSTzYLU.s:1880   .debug_str:0000000000000080 .LASF4
     /tmp/ccSTzYLU.s:1902   .debug_str:00000000000001e6 .LASF3
     /tmp/ccSTzYLU.s:1868   .debug_str:0000000000000039 .LASF5
     /tmp/ccSTzYLU.s:1862   .debug_str:0000000000000000 .LASF6
     /tmp/ccSTzYLU.s:1892   .debug_str:0000000000000188 .LASF7
     /tmp/ccSTzYLU.s:1926   .debug_str:00000000000002a1 .LASF8
     /tmp/ccSTzYLU.s:1878   .debug_str:0000000000000072 .LASF9
     /tmp/ccSTzYLU.s:1960   .debug_str:00000000000003e1 .LASF10
     /tmp/ccSTzYLU.s:1894   .debug_str:000000000000019b .LASF11
     /tmp/ccSTzYLU.s:1948   .debug_str:0000000000000397 .LASF12
     /tmp/ccSTzYLU.s:1934   .debug_str:00000000000002e8 .LASF13
     /tmp/ccSTzYLU.s:1908   .debug_str:0000000000000217 .LASF14
     /tmp/ccSTzYLU.s:1886   .debug_str:000000000000013f .LASF15
     /tmp/ccSTzYLU.s:1928   .debug_str:00000000000002b1 .LASF16
     /tmp/ccSTzYLU.s:1866   .debug_str:0000000000000029 .LASF26
     /tmp/ccSTzYLU.s:1904   .debug_str:00000000000001f8 .LASF47
     /tmp/ccSTzYLU.s:1930   .debug_str:00000000000002c7 .LASF17
     /tmp/ccSTzYLU.s:1956   .debug_str:00000000000003d7 .LASF18
     /tmp/ccSTzYLU.s:1870   .debug_str:0000000000000040 .LASF19
     /tmp/ccSTzYLU.s:1910   .debug_str:0000000000000223 .LASF30
     /tmp/ccSTzYLU.s:1938   .debug_str:0000000000000301 .LASF32
     /tmp/ccSTzYLU.s:1946   .debug_str:0000000000000369 .LASF48
     /tmp/ccSTzYLU.s:1952   .debug_str:00000000000003c5 .LASF20
     /tmp/ccSTzYLU.s:1942   .debug_str:000000000000033c .LASF22
     /tmp/ccSTzYLU.s:1936   .debug_str:00000000000002f8 .LASF21
GAS LISTING /tmp/ccSTzYLU.s 			page 13


     /tmp/ccSTzYLU.s:1896   .debug_str:00000000000001aa .LASF23
     /tmp/ccSTzYLU.s:1916   .debug_str:0000000000000268 .LASF24
     /tmp/ccSTzYLU.s:1876   .debug_str:0000000000000065 .LASF25
     /tmp/ccSTzYLU.s:1914   .debug_str:000000000000024f .LASF28
     /tmp/ccSTzYLU.s:1940   .debug_str:000000000000032f .LASF27
     /tmp/ccSTzYLU.s:1912   .debug_str:000000000000022a .LASF29
     /tmp/ccSTzYLU.s:1900   .debug_str:00000000000001d9 .LASF31
     /tmp/ccSTzYLU.s:1890   .debug_str:0000000000000163 .LASF33
     /tmp/ccSTzYLU.s:1872   .debug_str:0000000000000045 .LASF49
     /tmp/ccSTzYLU.s:10     .text:0000000000000000 .LFB7
     /tmp/ccSTzYLU.s:296    .text:0000000000000154 .LFE7
     /tmp/ccSTzYLU.s:1354   .debug_loc:0000000000000000 .LLST0
     /tmp/ccSTzYLU.s:1882   .debug_str:0000000000000087 .LASF34
     /tmp/ccSTzYLU.s:1390   .debug_loc:000000000000008b .LLST1
     /tmp/ccSTzYLU.s:1874   .debug_str:0000000000000060 .LASF35
     /tmp/ccSTzYLU.s:1441   .debug_loc:0000000000000116 .LLST2
     /tmp/ccSTzYLU.s:1958   .debug_str:00000000000003dc .LASF36
     /tmp/ccSTzYLU.s:1465   .debug_loc:0000000000000186 .LLST3
     /tmp/ccSTzYLU.s:1844   .debug_ranges:0000000000000000 .Ldebug_ranges0
     /tmp/ccSTzYLU.s:1924   .debug_str:000000000000028d .LASF37
     /tmp/ccSTzYLU.s:1493   .debug_loc:0000000000000209 .LLST5
     /tmp/ccSTzYLU.s:1888   .debug_str:0000000000000155 .LASF38
     /tmp/ccSTzYLU.s:1630   .debug_loc:0000000000000344 .LLST6
     /tmp/ccSTzYLU.s:1864   .debug_str:0000000000000013 .LASF39
     /tmp/ccSTzYLU.s:1669   .debug_loc:00000000000003f0 .LLST7
     /tmp/ccSTzYLU.s:1918   .debug_str:000000000000026d .LASF40
     /tmp/ccSTzYLU.s:1684   .debug_loc:0000000000000439 .LLST9
     /tmp/ccSTzYLU.s:1954   .debug_str:00000000000003cf .LASF41
     /tmp/ccSTzYLU.s:1704   .debug_loc:0000000000000487 .LLST10
     /tmp/ccSTzYLU.s:1920   .debug_str:0000000000000279 .LASF42
     /tmp/ccSTzYLU.s:1731   .debug_loc:00000000000004eb .LLST11
     /tmp/ccSTzYLU.s:136    .text:00000000000000b0 .LBB28
     /tmp/ccSTzYLU.s:143    .text:00000000000000b4 .LBE28
     /tmp/ccSTzYLU.s:1751   .debug_loc:0000000000000539 .LLST12
     /tmp/ccSTzYLU.s:170    .text:00000000000000d0 .LBB30
     /tmp/ccSTzYLU.s:189    .text:00000000000000e0 .LBE30
     /tmp/ccSTzYLU.s:1758   .debug_loc:000000000000055c .LLST13
     /tmp/ccSTzYLU.s:1765   .debug_loc:000000000000057f .LLST14
     /tmp/ccSTzYLU.s:191    .text:00000000000000e0 .LBB32
     /tmp/ccSTzYLU.s:204    .text:00000000000000ec .LBE32
     /tmp/ccSTzYLU.s:1777   .debug_loc:00000000000005b6 .LLST15
     /tmp/ccSTzYLU.s:1784   .debug_loc:00000000000005d9 .LLST16
     /tmp/ccSTzYLU.s:67     .text:000000000000004c .LBB22
     /tmp/ccSTzYLU.s:80     .text:000000000000005c .LBE22
     /tmp/ccSTzYLU.s:1791   .debug_loc:00000000000005fc .LLST8
     /tmp/ccSTzYLU.s:235    .text:0000000000000100 .LBB34
     /tmp/ccSTzYLU.s:256    .text:0000000000000114 .LBE34
     /tmp/ccSTzYLU.s:1798   .debug_loc:000000000000061f .LLST17
     /tmp/ccSTzYLU.s:1805   .debug_loc:0000000000000642 .LLST18
     /tmp/ccSTzYLU.s:35     .text:0000000000000028 .LBB19
     /tmp/ccSTzYLU.s:50     .text:0000000000000038 .LBE19
     /tmp/ccSTzYLU.s:1817   .debug_loc:0000000000000679 .LLST4
     /tmp/ccSTzYLU.s:1944   .debug_str:000000000000035d .LASF43
     /tmp/ccSTzYLU.s:14     .text:0000000000000000 .LVL0
     /tmp/ccSTzYLU.s:43     .text:0000000000000030 .LVL2
     /tmp/ccSTzYLU.s:101    .text:0000000000000070 .LVL11
     /tmp/ccSTzYLU.s:125    .text:00000000000000ac .LVL12
GAS LISTING /tmp/ccSTzYLU.s 			page 14


     /tmp/ccSTzYLU.s:284    .text:000000000000014c .LVL38
     /tmp/ccSTzYLU.s:293    .text:0000000000000150 .LVL39
     /tmp/ccSTzYLU.s:48     .text:0000000000000038 .LVL3
     /tmp/ccSTzYLU.s:141    .text:00000000000000b4 .LVL14
     /tmp/ccSTzYLU.s:210    .text:00000000000000f0 .LVL25
     /tmp/ccSTzYLU.s:223    .text:00000000000000fc .LVL26
     /tmp/ccSTzYLU.s:277    .text:0000000000000140 .LVL37
     /tmp/ccSTzYLU.s:54     .text:0000000000000040 .LVL4
     /tmp/ccSTzYLU.s:91     .text:0000000000000064 .LVL9
     /tmp/ccSTzYLU.s:97     .text:000000000000006c .LVL10
     /tmp/ccSTzYLU.s:57     .text:0000000000000044 .LVL5
     /tmp/ccSTzYLU.s:78     .text:000000000000005c .LVL7
     /tmp/ccSTzYLU.s:147    .text:00000000000000b8 .LVL15
     /tmp/ccSTzYLU.s:151    .text:00000000000000bc .LVL16
     /tmp/ccSTzYLU.s:156    .text:00000000000000c0 .LVL17
     /tmp/ccSTzYLU.s:240    .text:0000000000000104 .LVL28
     /tmp/ccSTzYLU.s:253    .text:0000000000000114 .LVL32
     /tmp/ccSTzYLU.s:260    .text:0000000000000118 .LVL33
     /tmp/ccSTzYLU.s:266    .text:0000000000000124 .LVL34
     /tmp/ccSTzYLU.s:268    .text:0000000000000128 .LVL35
     /tmp/ccSTzYLU.s:275    .text:000000000000013c .LVL36
     /tmp/ccSTzYLU.s:201    .text:00000000000000ec .LVL24
     /tmp/ccSTzYLU.s:85     .text:0000000000000060 .LVL8
     /tmp/ccSTzYLU.s:175    .text:00000000000000d4 .LVL20
     /tmp/ccSTzYLU.s:163    .text:00000000000000c8 .LVL18
     /tmp/ccSTzYLU.s:186    .text:00000000000000e0 .LVL23
     /tmp/ccSTzYLU.s:135    .text:00000000000000b0 .LVL13
     /tmp/ccSTzYLU.s:169    .text:00000000000000d0 .LVL19
     /tmp/ccSTzYLU.s:179    .text:00000000000000d8 .LVL21
     /tmp/ccSTzYLU.s:183    .text:00000000000000dc .LVL22
     /tmp/ccSTzYLU.s:66     .text:000000000000004c .LVL6
     /tmp/ccSTzYLU.s:234    .text:0000000000000100 .LVL27
     /tmp/ccSTzYLU.s:244    .text:0000000000000108 .LVL29
     /tmp/ccSTzYLU.s:248    .text:000000000000010c .LVL30
     /tmp/ccSTzYLU.s:251    .text:0000000000000110 .LVL31
     /tmp/ccSTzYLU.s:34     .text:0000000000000028 .LVL1
     /tmp/ccSTzYLU.s:310    .debug_info:0000000000000000 .Ldebug_info0
     /tmp/ccSTzYLU.s:62     .text:0000000000000048 .LBB21
     /tmp/ccSTzYLU.s:98     .text:000000000000006c .LBE21
     /tmp/ccSTzYLU.s:127    .text:00000000000000ac .LBB41
     /tmp/ccSTzYLU.s:214    .text:00000000000000f0 .LBE41
     /tmp/ccSTzYLU.s:226    .text:00000000000000fc .LBB42
     /tmp/ccSTzYLU.s:290    .text:000000000000014c .LBE42
     /tmp/ccSTzYLU.s:133    .text:00000000000000b0 .LBB27
     /tmp/ccSTzYLU.s:205    .text:00000000000000ec .LBE27
     /tmp/ccSTzYLU.s:279    .text:0000000000000140 .LBB36
     /tmp/ccSTzYLU.s:286    .text:000000000000014c .LBE36

UNDEFINED SYMBOLS
HEAP_END_ADDR
HEAP_START_ADDR
