GAS LISTING /tmp/cc66AmNZ.s 			page 1


   1              		.file	"PCB.cpp"
   2              		.option pic
   3              		.option norelax
   4              		.text
   5              	.Ltext0:
   6              		.align	2
   7              		.globl	_ZN3PCB12createObjectEPv
   9              	_ZN3PCB12createObjectEPv:
  10              	.LFB44:
  11              		.file 1 "src/PCB.cpp"
   1:src/PCB.cpp   **** #include "../h/PCB.h"
   2:src/PCB.cpp   **** #include "../h/Scheduler.h"
   3:src/PCB.cpp   **** #include "../h/MemoryAllocator.h"
   4:src/PCB.cpp   **** #include "../h/kernel.h"
   5:src/PCB.cpp   **** #include "../h/syscall_c.h"
   6:src/PCB.cpp   **** #include "../h/slab.h"
   7:src/PCB.cpp   **** 
   8:src/PCB.cpp   **** PCB* PCB::running = nullptr;
   9:src/PCB.cpp   **** size_t PCB::timeSliceCounter = 0;
  10:src/PCB.cpp   **** 
  11:src/PCB.cpp   **** void PCB::createObject(void* addr) {
  12              		.loc 1 11 36
  13              		.cfi_startproc
  14              	.LVL0:
  15 0000 130101FF 		addi	sp,sp,-16
  16              		.cfi_def_cfa_offset 16
  17 0004 23348100 		sd	s0,8(sp)
  18              		.cfi_offset 8, -8
  19 0008 13040101 		addi	s0,sp,16
  20              		.cfi_def_cfa 8, 0
  12:src/PCB.cpp   **** }
  21              		.loc 1 12 1 is_stmt 0
  22 000c 03348100 		ld	s0,8(sp)
  23              		.cfi_restore 8
  24              		.cfi_def_cfa 2, 16
  25 0010 13010101 		addi	sp,sp,16
  26              		.cfi_def_cfa_offset 0
  27 0014 67800000 		jr	ra
  28              		.cfi_endproc
  29              	.LFE44:
  31              		.align	2
  32              		.globl	_ZN3PCB10freeObjectEPv
  34              	_ZN3PCB10freeObjectEPv:
  35              	.LFB45:
  13:src/PCB.cpp   **** 
  14:src/PCB.cpp   **** void PCB::freeObject(void* addr) {
  36              		.loc 1 14 34 is_stmt 1
  37              		.cfi_startproc
  38              	.LVL1:
  39 0018 130101FE 		addi	sp,sp,-32
  40              		.cfi_def_cfa_offset 32
  41 001c 233C1100 		sd	ra,24(sp)
  42 0020 23388100 		sd	s0,16(sp)
  43 0024 23349100 		sd	s1,8(sp)
  44              		.cfi_offset 1, -8
  45              		.cfi_offset 8, -16
  46              		.cfi_offset 9, -24
GAS LISTING /tmp/cc66AmNZ.s 			page 2


  47 0028 13040102 		addi	s0,sp,32
  48              		.cfi_def_cfa 8, 0
  49 002c 93040500 		mv	s1,a0
  15:src/PCB.cpp   ****     PCB* object = (PCB*)addr;
  50              		.loc 1 15 5
  51              	.LVL2:
  16:src/PCB.cpp   ****     delete[] object->stack;
  52              		.loc 1 16 5
  53              		.loc 1 16 22 is_stmt 0
  54 0030 03358500 		ld	a0,8(a0)
  55              	.LVL3:
  56              		.loc 1 16 27
  57 0034 63060500 		beqz	a0,.L4
  58              		.loc 1 16 22 discriminator 1
  59 0038 97000000 		call	_ZdaPv@plt
  59      E7800000 
  60              	.LVL4:
  61              	.L4:
  17:src/PCB.cpp   ****     delete[] object->sysStack;
  62              		.loc 1 17 5 is_stmt 1
  63              		.loc 1 17 22 is_stmt 0
  64 0040 03B50401 		ld	a0,16(s1)
  65              		.loc 1 17 30
  66 0044 63060500 		beqz	a0,.L3
  67              		.loc 1 17 22 discriminator 1
  68 0048 97000000 		call	_ZdaPv@plt
  68      E7800000 
  69              	.LVL5:
  70              	.L3:
  18:src/PCB.cpp   **** }
  71              		.loc 1 18 1
  72 0050 83308101 		ld	ra,24(sp)
  73              		.cfi_restore 1
  74 0054 03340101 		ld	s0,16(sp)
  75              		.cfi_restore 8
  76              		.cfi_def_cfa 2, 32
  77 0058 83348100 		ld	s1,8(sp)
  78              		.cfi_restore 9
  79              	.LVL6:
  80 005c 13010102 		addi	sp,sp,32
  81              		.cfi_def_cfa_offset 0
  82 0060 67800000 		jr	ra
  83              		.cfi_endproc
  84              	.LFE45:
  86              		.align	2
  87              		.globl	_ZN3PCB15proccessWrapperEv
  89              	_ZN3PCB15proccessWrapperEv:
  90              	.LFB58:
  19:src/PCB.cpp   **** 
  20:src/PCB.cpp   **** kmem_cache_t* PCB::pcbCache = nullptr;
  21:src/PCB.cpp   **** 
  22:src/PCB.cpp   **** PCB *PCB::createProccess(PCB::processMain main, void* arguments) {
  23:src/PCB.cpp   ****     PCB* object = new PCB(main, DEFAULT_TIME_SLICE, arguments);
  24:src/PCB.cpp   ****     if(!object->registers || !object->sysStack) return nullptr;
  25:src/PCB.cpp   ****     return object;
  26:src/PCB.cpp   **** }
  27:src/PCB.cpp   **** 
GAS LISTING /tmp/cc66AmNZ.s 			page 3


  28:src/PCB.cpp   **** PCB *PCB::createSysProcess(PCB::processMain main, void* arguments) {
  29:src/PCB.cpp   ****     if(!pcbCache) initPCBCache();
  30:src/PCB.cpp   ****     PCB* object = (PCB*) kmem_cache_alloc(pcbCache);
  31:src/PCB.cpp   ****     object->initObject(main, DEFAULT_TIME_SLICE, arguments);
  32:src/PCB.cpp   ****     if(!object->registers || !object->sysStack) return nullptr;
  33:src/PCB.cpp   ****     return object;
  34:src/PCB.cpp   **** }
  35:src/PCB.cpp   **** 
  36:src/PCB.cpp   **** void PCB::yield() {
  37:src/PCB.cpp   ****     size_t code = Kernel::sysCallCodes::thread_dispatch;
  38:src/PCB.cpp   ****     asm volatile("mv a0, %0" : : "r" (code));
  39:src/PCB.cpp   ****     asm volatile("ecall"); // prelazimo u prekidnu rutinu koja cuva registre i vrsi promenu konteks
  40:src/PCB.cpp   **** }
  41:src/PCB.cpp   **** 
  42:src/PCB.cpp   **** void PCB::dispatch() {
  43:src/PCB.cpp   ****     PCB* old = running;
  44:src/PCB.cpp   ****     if(!old->isFinished() && !old->blocked) { // ako se nije zavrsio i nije blokiran
  45:src/PCB.cpp   ****         Scheduler::put(old);
  46:src/PCB.cpp   ****     }
  47:src/PCB.cpp   ****     running = Scheduler::get();
  48:src/PCB.cpp   **** 
  49:src/PCB.cpp   ****     if(PCB::running->firstCall) {
  50:src/PCB.cpp   ****         PCB::running->firstCall = false;
  51:src/PCB.cpp   ****         switchContext1(old->registers, running->registers);
  52:src/PCB.cpp   ****     }
  53:src/PCB.cpp   ****     else {
  54:src/PCB.cpp   ****         switchContext2(old->registers, running->registers);
  55:src/PCB.cpp   ****     }
  56:src/PCB.cpp   **** 
  57:src/PCB.cpp   **** }
  58:src/PCB.cpp   **** 
  59:src/PCB.cpp   **** // main_ == nullptr ako smo u glavnom procesu
  60:src/PCB.cpp   **** PCB::PCB(PCB::processMain main_, size_t timeSlice_, void* mainArguments_) {
  61:src/PCB.cpp   ****     initObject(main_, timeSlice_, mainArguments_);
  62:src/PCB.cpp   **** }
  63:src/PCB.cpp   **** 
  64:src/PCB.cpp   **** PCB::~PCB() {
  65:src/PCB.cpp   ****     delete[] stack;
  66:src/PCB.cpp   ****     delete[] sysStack;
  67:src/PCB.cpp   **** }
  68:src/PCB.cpp   **** 
  69:src/PCB.cpp   **** void *PCB::operator new(size_t size) {
  70:src/PCB.cpp   ****     return MemoryAllocator::mem_alloc(size);
  71:src/PCB.cpp   **** }
  72:src/PCB.cpp   **** 
  73:src/PCB.cpp   **** void PCB::operator delete(void *memSegment) {
  74:src/PCB.cpp   ****     MemoryAllocator::mem_free(memSegment);
  75:src/PCB.cpp   **** }
  76:src/PCB.cpp   **** 
  77:src/PCB.cpp   **** void PCB::proccessWrapper() { // iz prekidne rutine skacemo ovde kada prvi put ulazimo u nit
  91              		.loc 1 77 29 is_stmt 1
  92              		.cfi_startproc
  93 0064 130101FF 		addi	sp,sp,-16
  94              		.cfi_def_cfa_offset 16
  95 0068 23341100 		sd	ra,8(sp)
  96 006c 23308100 		sd	s0,0(sp)
  97              		.cfi_offset 1, -8
GAS LISTING /tmp/cc66AmNZ.s 			page 4


  98              		.cfi_offset 8, -16
  99 0070 13040101 		addi	s0,sp,16
 100              		.cfi_def_cfa 8, 0
  78:src/PCB.cpp   ****     Kernel::popSppSpie(); // izlazimo iz prekidne rutine
 101              		.loc 1 78 5
 102              		.loc 1 78 23 is_stmt 0
 103 0074 97000000 		call	_ZN6Kernel10popSppSpieEv@plt
 103      E7800000 
 104              	.LVL7:
  79:src/PCB.cpp   ****     void* arg = PCB::running->mainArguments;
 105              		.loc 1 79 5 is_stmt 1
 106              		.loc 1 79 31 is_stmt 0
 107 007c 97070000 		ld	a5,.LANCHOR0
 107      83B70700 
 108              		.loc 1 79 11
 109 0084 03B78703 		ld	a4,56(a5)
 110              	.LVL8:
  80:src/PCB.cpp   ****     asm volatile("mv a0, %0" : : "r" (arg)); // u a0 postavljamo argument glavne funkcije procesa
 111              		.loc 1 80 5 is_stmt 1
 112              		.loc 1 80 44 is_stmt 0
 113              	#APP
 114              	# 80 "src/PCB.cpp" 1
  81              	    running->main();
 115              		mv a0, a4
 116              	# 0 "" 2
 117              		.loc 1 81 5 is_stmt 1
 118              		.loc 1 81 14 is_stmt 0
 119              	#NO_APP
 120 008c 83B70702 		ld	a5,32(a5)
 121              		.loc 1 81 18
 122 0090 E7800700 		jalr	a5
 123              	.LVL9:
  82:src/PCB.cpp   ****     thread_exit();
 124              		.loc 1 82 5 is_stmt 1
 125              		.loc 1 82 16 is_stmt 0
 126 0094 97000000 		call	_Z11thread_exitv@plt
 126      E7800000 
 127              	.LVL10:
  83:src/PCB.cpp   **** }
 128              		.loc 1 83 1
 129 009c 83308100 		ld	ra,8(sp)
 130              		.cfi_restore 1
 131 00a0 03340100 		ld	s0,0(sp)
 132              		.cfi_restore 8
 133              		.cfi_def_cfa 2, 16
 134 00a4 13010101 		addi	sp,sp,16
 135              		.cfi_def_cfa_offset 0
 136 00a8 67800000 		jr	ra
 137              		.cfi_endproc
 138              	.LFE58:
 140              		.align	2
 141              		.globl	_ZN3PCB5yieldEv
 143              	_ZN3PCB5yieldEv:
 144              	.LFB48:
  36:src/PCB.cpp   ****     size_t code = Kernel::sysCallCodes::thread_dispatch;
 145              		.loc 1 36 19 is_stmt 1
 146              		.cfi_startproc
GAS LISTING /tmp/cc66AmNZ.s 			page 5


 147 00ac 130101FF 		addi	sp,sp,-16
 148              		.cfi_def_cfa_offset 16
 149 00b0 23348100 		sd	s0,8(sp)
 150              		.cfi_offset 8, -8
 151 00b4 13040101 		addi	s0,sp,16
 152              		.cfi_def_cfa 8, 0
  37:src/PCB.cpp   ****     asm volatile("mv a0, %0" : : "r" (code));
 153              		.loc 1 37 5
 154              	.LVL11:
  38:src/PCB.cpp   ****     asm volatile("ecall"); // prelazimo u prekidnu rutinu koja cuva registre i vrsi promenu konteks
 155              		.loc 1 38 5
  38:src/PCB.cpp   ****     asm volatile("ecall"); // prelazimo u prekidnu rutinu koja cuva registre i vrsi promenu konteks
 156              		.loc 1 38 45 is_stmt 0
 157 00b8 93073001 		li	a5,19
 158              	#APP
 159              	# 38 "src/PCB.cpp" 1
  39:src/PCB.cpp   **** }
 160              		mv a0, a5
 161              	# 0 "" 2
 162              		.loc 1 39 5 is_stmt 1
  39:src/PCB.cpp   **** }
 163              		.loc 1 39 26 is_stmt 0
 164              	# 39 "src/PCB.cpp" 1
  40:src/PCB.cpp   **** 
 165              		ecall
 166              	# 0 "" 2
 167              		.loc 1 40 1
 168              	#NO_APP
 169 00c4 03348100 		ld	s0,8(sp)
 170              		.cfi_restore 8
 171              		.cfi_def_cfa 2, 16
 172 00c8 13010101 		addi	sp,sp,16
 173              		.cfi_def_cfa_offset 0
 174 00cc 67800000 		jr	ra
 175              		.cfi_endproc
 176              	.LFE48:
 178              		.align	2
 179              		.globl	_ZN3PCB8dispatchEv
 181              	_ZN3PCB8dispatchEv:
 182              	.LFB49:
  42:src/PCB.cpp   ****     PCB* old = running;
 183              		.loc 1 42 22 is_stmt 1
 184              		.cfi_startproc
 185 00d0 130101FE 		addi	sp,sp,-32
 186              		.cfi_def_cfa_offset 32
 187 00d4 233C1100 		sd	ra,24(sp)
 188 00d8 23388100 		sd	s0,16(sp)
 189 00dc 23349100 		sd	s1,8(sp)
 190              		.cfi_offset 1, -8
 191              		.cfi_offset 8, -16
 192              		.cfi_offset 9, -24
 193 00e0 13040102 		addi	s0,sp,32
 194              		.cfi_def_cfa 8, 0
  43:src/PCB.cpp   ****     if(!old->isFinished() && !old->blocked) { // ako se nije zavrsio i nije blokiran
 195              		.loc 1 43 5
  43:src/PCB.cpp   ****     if(!old->isFinished() && !old->blocked) { // ako se nije zavrsio i nije blokiran
 196              		.loc 1 43 10 is_stmt 0
GAS LISTING /tmp/cc66AmNZ.s 			page 6


 197 00e4 97040000 		ld	s1,.LANCHOR0
 197      83B40400 
 198              	.LVL12:
  44:src/PCB.cpp   ****         Scheduler::put(old);
 199              		.loc 1 44 5 is_stmt 1
 200              	.LBB4:
 201              	.LBB5:
 202              		.file 2 "src/../h/PCB.h"
   1:src/../h/PCB.h **** #ifndef PCB_H
   2:src/../h/PCB.h **** #define PCB_H
   3:src/../h/PCB.h **** 
   4:src/../h/PCB.h **** #include "hw.h"
   5:src/../h/PCB.h **** #include "slab.h"
   6:src/../h/PCB.h **** 
   7:src/../h/PCB.h **** extern "C" void interruptHandler();
   8:src/../h/PCB.h **** 
   9:src/../h/PCB.h **** class PCB {
  10:src/../h/PCB.h **** friend class Scheduler;
  11:src/../h/PCB.h **** friend void interruptHandler();
  12:src/../h/PCB.h **** friend class Kernel;
  13:src/../h/PCB.h **** friend class SCB;
  14:src/../h/PCB.h **** public:
  15:src/../h/PCB.h ****     // vraca true ako se proces zavrsio, false ako nije
  16:src/../h/PCB.h ****     bool isFinished() const {
  17:src/../h/PCB.h ****         return finished;
 203              		.loc 2 17 9
 204              		.loc 2 17 16 is_stmt 0
 205 00ec 83C78402 		lbu	a5,40(s1)
 206              	.LVL13:
 207              	.LBE5:
 208              	.LBE4:
  44:src/PCB.cpp   ****         Scheduler::put(old);
 209              		.loc 1 44 27
 210 00f0 63960700 		bnez	a5,.L12
  44:src/PCB.cpp   ****         Scheduler::put(old);
 211              		.loc 1 44 36 discriminator 1
 212 00f4 83C79402 		lbu	a5,41(s1)
  44:src/PCB.cpp   ****         Scheduler::put(old);
 213              		.loc 1 44 27 discriminator 1
 214 00f8 63820704 		beqz	a5,.L16
 215              	.L12:
  47:src/PCB.cpp   **** 
 216              		.loc 1 47 5 is_stmt 1
  47:src/PCB.cpp   **** 
 217              		.loc 1 47 29 is_stmt 0
 218 00fc 97000000 		call	_ZN9Scheduler3getEv@plt
 218      E7800000 
 219              	.LVL14:
  47:src/PCB.cpp   **** 
 220              		.loc 1 47 13
 221 0104 97070000 		sd	a0,.LANCHOR0,a5
 221      23B0A700 
  49:src/PCB.cpp   ****         PCB::running->firstCall = false;
 222              		.loc 1 49 5 is_stmt 1
  49:src/PCB.cpp   ****         PCB::running->firstCall = false;
 223              		.loc 1 49 22 is_stmt 0
 224 010c 83478504 		lbu	a5,72(a0)
GAS LISTING /tmp/cc66AmNZ.s 			page 7


  49:src/PCB.cpp   ****         PCB::running->firstCall = false;
 225              		.loc 1 49 5
 226 0110 638E0702 		beqz	a5,.L13
  50:src/PCB.cpp   ****         switchContext1(old->registers, running->registers);
 227              		.loc 1 50 9 is_stmt 1
  50:src/PCB.cpp   ****         switchContext1(old->registers, running->registers);
 228              		.loc 1 50 33 is_stmt 0
 229 0114 23040504 		sb	zero,72(a0)
  51:src/PCB.cpp   ****     }
 230              		.loc 1 51 9 is_stmt 1
  51:src/PCB.cpp   ****     }
 231              		.loc 1 51 23 is_stmt 0
 232 0118 83358501 		ld	a1,24(a0)
 233 011c 03B58401 		ld	a0,24(s1)
 234 0120 97000000 		call	_ZN3PCB14switchContext1EPmS0_@plt
 234      E7800000 
 235              	.LVL15:
 236              	.L11:
  57:src/PCB.cpp   **** 
 237              		.loc 1 57 1
 238 0128 83308101 		ld	ra,24(sp)
 239              		.cfi_remember_state
 240              		.cfi_restore 1
 241 012c 03340101 		ld	s0,16(sp)
 242              		.cfi_restore 8
 243              		.cfi_def_cfa 2, 32
 244 0130 83348100 		ld	s1,8(sp)
 245              		.cfi_restore 9
 246              	.LVL16:
 247 0134 13010102 		addi	sp,sp,32
 248              		.cfi_def_cfa_offset 0
 249 0138 67800000 		jr	ra
 250              	.LVL17:
 251              	.L16:
 252              		.cfi_restore_state
  45:src/PCB.cpp   ****     }
 253              		.loc 1 45 9 is_stmt 1
  45:src/PCB.cpp   ****     }
 254              		.loc 1 45 23 is_stmt 0
 255 013c 13850400 		mv	a0,s1
 256 0140 97000000 		call	_ZN9Scheduler3putEP3PCB@plt
 256      E7800000 
 257              	.LVL18:
 258 0148 6FF05FFB 		j	.L12
 259              	.L13:
  54:src/PCB.cpp   ****     }
 260              		.loc 1 54 9 is_stmt 1
  54:src/PCB.cpp   ****     }
 261              		.loc 1 54 23 is_stmt 0
 262 014c 83358501 		ld	a1,24(a0)
 263 0150 03B58401 		ld	a0,24(s1)
 264 0154 97000000 		call	_ZN3PCB14switchContext2EPmS0_@plt
 264      E7800000 
 265              	.LVL19:
  57:src/PCB.cpp   **** 
 266              		.loc 1 57 1
 267 015c 6FF0DFFC 		j	.L11
GAS LISTING /tmp/cc66AmNZ.s 			page 8


 268              		.cfi_endproc
 269              	.LFE49:
 271              		.align	2
 272              		.globl	_ZN3PCBD2Ev
 274              	_ZN3PCBD2Ev:
 275              	.LFB54:
  64:src/PCB.cpp   ****     delete[] stack;
 276              		.loc 1 64 1 is_stmt 1
 277              		.cfi_startproc
 278              	.LVL20:
 279 0160 130101FE 		addi	sp,sp,-32
 280              		.cfi_def_cfa_offset 32
 281 0164 233C1100 		sd	ra,24(sp)
 282 0168 23388100 		sd	s0,16(sp)
 283 016c 23349100 		sd	s1,8(sp)
 284              		.cfi_offset 1, -8
 285              		.cfi_offset 8, -16
 286              		.cfi_offset 9, -24
 287 0170 13040102 		addi	s0,sp,32
 288              		.cfi_def_cfa 8, 0
 289 0174 93040500 		mv	s1,a0
 290              	.LBB6:
  65:src/PCB.cpp   ****     delete[] sysStack;
 291              		.loc 1 65 5
  65:src/PCB.cpp   ****     delete[] sysStack;
 292              		.loc 1 65 14 is_stmt 0
 293 0178 03358500 		ld	a0,8(a0)
 294              	.LVL21:
  65:src/PCB.cpp   ****     delete[] sysStack;
 295              		.loc 1 65 19
 296 017c 63060500 		beqz	a0,.L18
  65:src/PCB.cpp   ****     delete[] sysStack;
 297              		.loc 1 65 14 discriminator 1
 298 0180 97000000 		call	_ZdaPv@plt
 298      E7800000 
 299              	.LVL22:
 300              	.L18:
  66:src/PCB.cpp   **** }
 301              		.loc 1 66 5 is_stmt 1
  66:src/PCB.cpp   **** }
 302              		.loc 1 66 14 is_stmt 0
 303 0188 03B50401 		ld	a0,16(s1)
  66:src/PCB.cpp   **** }
 304              		.loc 1 66 22
 305 018c 63060500 		beqz	a0,.L17
  66:src/PCB.cpp   **** }
 306              		.loc 1 66 14 discriminator 1
 307 0190 97000000 		call	_ZdaPv@plt
 307      E7800000 
 308              	.LVL23:
 309              	.L17:
 310              	.LBE6:
  67:src/PCB.cpp   **** 
 311              		.loc 1 67 1
 312 0198 83308101 		ld	ra,24(sp)
 313              		.cfi_restore 1
 314 019c 03340101 		ld	s0,16(sp)
GAS LISTING /tmp/cc66AmNZ.s 			page 9


 315              		.cfi_restore 8
 316              		.cfi_def_cfa 2, 32
 317 01a0 83348100 		ld	s1,8(sp)
 318              		.cfi_restore 9
 319              	.LVL24:
 320 01a4 13010102 		addi	sp,sp,32
 321              		.cfi_def_cfa_offset 0
 322 01a8 67800000 		jr	ra
 323              		.cfi_endproc
 324              	.LFE54:
 326              		.globl	_ZN3PCBD1Ev
 327              		.set	_ZN3PCBD1Ev,_ZN3PCBD2Ev
 328              		.align	2
 329              		.globl	_ZN3PCBnwEm
 331              	_ZN3PCBnwEm:
 332              	.LFB56:
  69:src/PCB.cpp   ****     return MemoryAllocator::mem_alloc(size);
 333              		.loc 1 69 38 is_stmt 1
 334              		.cfi_startproc
 335              	.LVL25:
 336 01ac 130101FF 		addi	sp,sp,-16
 337              		.cfi_def_cfa_offset 16
 338 01b0 23341100 		sd	ra,8(sp)
 339 01b4 23308100 		sd	s0,0(sp)
 340              		.cfi_offset 1, -8
 341              		.cfi_offset 8, -16
 342 01b8 13040101 		addi	s0,sp,16
 343              		.cfi_def_cfa 8, 0
  70:src/PCB.cpp   **** }
 344              		.loc 1 70 5
  70:src/PCB.cpp   **** }
 345              		.loc 1 70 38 is_stmt 0
 346 01bc 97000000 		call	_ZN15MemoryAllocator9mem_allocEm@plt
 346      E7800000 
 347              	.LVL26:
  71:src/PCB.cpp   **** 
 348              		.loc 1 71 1
 349 01c4 83308100 		ld	ra,8(sp)
 350              		.cfi_restore 1
 351 01c8 03340100 		ld	s0,0(sp)
 352              		.cfi_restore 8
 353              		.cfi_def_cfa 2, 16
 354 01cc 13010101 		addi	sp,sp,16
 355              		.cfi_def_cfa_offset 0
 356 01d0 67800000 		jr	ra
 357              		.cfi_endproc
 358              	.LFE56:
 360              		.align	2
 361              		.globl	_ZN3PCBdlEPv
 363              	_ZN3PCBdlEPv:
 364              	.LFB57:
  73:src/PCB.cpp   ****     MemoryAllocator::mem_free(memSegment);
 365              		.loc 1 73 45 is_stmt 1
 366              		.cfi_startproc
 367              	.LVL27:
 368 01d4 130101FF 		addi	sp,sp,-16
 369              		.cfi_def_cfa_offset 16
GAS LISTING /tmp/cc66AmNZ.s 			page 10


 370 01d8 23341100 		sd	ra,8(sp)
 371 01dc 23308100 		sd	s0,0(sp)
 372              		.cfi_offset 1, -8
 373              		.cfi_offset 8, -16
 374 01e0 13040101 		addi	s0,sp,16
 375              		.cfi_def_cfa 8, 0
  74:src/PCB.cpp   **** }
 376              		.loc 1 74 5
  74:src/PCB.cpp   **** }
 377              		.loc 1 74 30 is_stmt 0
 378 01e4 97000000 		call	_ZN15MemoryAllocator8mem_freeEPv@plt
 378      E7800000 
 379              	.LVL28:
  75:src/PCB.cpp   **** 
 380              		.loc 1 75 1
 381 01ec 83308100 		ld	ra,8(sp)
 382              		.cfi_restore 1
 383 01f0 03340100 		ld	s0,0(sp)
 384              		.cfi_restore 8
 385              		.cfi_def_cfa 2, 16
 386 01f4 13010101 		addi	sp,sp,16
 387              		.cfi_def_cfa_offset 0
 388 01f8 67800000 		jr	ra
 389              		.cfi_endproc
 390              	.LFE57:
 392              		.align	2
 393              		.globl	_ZN3PCB10getContextEv
 395              	_ZN3PCB10getContextEv:
 396              	.LFB59:
  84:src/PCB.cpp   **** 
  85:src/PCB.cpp   **** size_t *PCB::getContext() {
 397              		.loc 1 85 27 is_stmt 1
 398              		.cfi_startproc
 399 01fc 130101FF 		addi	sp,sp,-16
 400              		.cfi_def_cfa_offset 16
 401 0200 23348100 		sd	s0,8(sp)
 402              		.cfi_offset 8, -8
 403 0204 13040101 		addi	s0,sp,16
 404              		.cfi_def_cfa 8, 0
  86:src/PCB.cpp   ****     return running->registers;
 405              		.loc 1 86 5
  87:src/PCB.cpp   **** }
 406              		.loc 1 87 1 is_stmt 0
 407 0208 97070000 		ld	a5,.LANCHOR0
 407      83B70700 
 408 0210 03B58701 		ld	a0,24(a5)
 409 0214 03348100 		ld	s0,8(sp)
 410              		.cfi_restore 8
 411              		.cfi_def_cfa 2, 16
 412 0218 13010101 		addi	sp,sp,16
 413              		.cfi_def_cfa_offset 0
 414 021c 67800000 		jr	ra
 415              		.cfi_endproc
 416              	.LFE59:
 418              		.align	2
 419              		.globl	_ZN3PCB10initObjectEPFvvEmPv
 421              	_ZN3PCB10initObjectEPFvvEmPv:
GAS LISTING /tmp/cc66AmNZ.s 			page 11


 422              	.LFB60:
  88:src/PCB.cpp   **** 
  89:src/PCB.cpp   **** void PCB::initObject(PCB::processMain main_, size_t timeSlice_, void* mainArguments_) {
 423              		.loc 1 89 87 is_stmt 1
 424              		.cfi_startproc
 425              	.LVL29:
 426 0220 130101FE 		addi	sp,sp,-32
 427              		.cfi_def_cfa_offset 32
 428 0224 233C1100 		sd	ra,24(sp)
 429 0228 23388100 		sd	s0,16(sp)
 430 022c 23349100 		sd	s1,8(sp)
 431              		.cfi_offset 1, -8
 432              		.cfi_offset 8, -16
 433              		.cfi_offset 9, -24
 434 0230 13040102 		addi	s0,sp,32
 435              		.cfi_def_cfa 8, 0
 436 0234 93040500 		mv	s1,a0
  90:src/PCB.cpp   ****     firstCall = true;
 437              		.loc 1 90 5
 438              		.loc 1 90 15 is_stmt 0
 439 0238 93071000 		li	a5,1
 440 023c 2304F504 		sb	a5,72(a0)
  91:src/PCB.cpp   ****     registers = nullptr;
 441              		.loc 1 91 5 is_stmt 1
 442              		.loc 1 91 15 is_stmt 0
 443 0240 233C0500 		sd	zero,24(a0)
  92:src/PCB.cpp   ****     nextInList = nullptr;
 444              		.loc 1 92 5 is_stmt 1
 445              		.loc 1 92 16 is_stmt 0
 446 0244 23300500 		sd	zero,0(a0)
  93:src/PCB.cpp   ****     timeSleeping = 0;
 447              		.loc 1 93 5 is_stmt 1
 448              		.loc 1 93 18 is_stmt 0
 449 0248 23380502 		sd	zero,48(a0)
  94:src/PCB.cpp   ****     finished = blocked = semDeleted = false;
 450              		.loc 1 94 5 is_stmt 1
 451              		.loc 1 94 37 is_stmt 0
 452 024c 23050502 		sb	zero,42(a0)
 453              		.loc 1 94 24
 454 0250 A3040502 		sb	zero,41(a0)
 455              		.loc 1 94 14
 456 0254 23040502 		sb	zero,40(a0)
  95:src/PCB.cpp   ****     main = main_;
 457              		.loc 1 95 5 is_stmt 1
 458              		.loc 1 95 10 is_stmt 0
 459 0258 2330B502 		sd	a1,32(a0)
  96:src/PCB.cpp   ****     timeSlice = timeSlice_;
 460              		.loc 1 96 5 is_stmt 1
 461              		.loc 1 96 15 is_stmt 0
 462 025c 2330C504 		sd	a2,64(a0)
  97:src/PCB.cpp   ****     mainArguments = mainArguments_;
 463              		.loc 1 97 5 is_stmt 1
 464              		.loc 1 97 19 is_stmt 0
 465 0260 233CD502 		sd	a3,56(a0)
  98:src/PCB.cpp   ****     registers = (size_t*)MemoryAllocator::mem_alloc(33*sizeof(size_t)); // mozemo direktno jer se z
 466              		.loc 1 98 5 is_stmt 1
 467              		.loc 1 98 52 is_stmt 0
GAS LISTING /tmp/cc66AmNZ.s 			page 12


 468 0264 13058010 		li	a0,264
 469              	.LVL30:
 470 0268 97000000 		call	_ZN15MemoryAllocator9mem_allocEm@plt
 470      E7800000 
 471              	.LVL31:
 472              		.loc 1 98 15
 473 0270 23BCA400 		sd	a0,24(s1)
  99:src/PCB.cpp   ****     if(!registers) return; // greska
 474              		.loc 1 99 5 is_stmt 1
 475 0274 63020504 		beqz	a0,.L27
 100:src/PCB.cpp   ****     sysStack = (size_t*)MemoryAllocator::mem_alloc(DEFAULT_STACK_SIZE*sizeof(size_t));
 476              		.loc 1 100 5
 477              		.loc 1 100 51 is_stmt 0
 478 0278 37850000 		li	a0,32768
 479 027c 97000000 		call	_ZN15MemoryAllocator9mem_allocEm@plt
 479      E7800000 
 480              	.LVL32:
 481              		.loc 1 100 14
 482 0284 23B8A400 		sd	a0,16(s1)
 101:src/PCB.cpp   ****     if(!sysStack) return; // greska
 483              		.loc 1 101 5 is_stmt 1
 484 0288 63080502 		beqz	a0,.L27
 102:src/PCB.cpp   ****     registers[0] = (size_t)&sysStack[DEFAULT_STACK_SIZE]; // ssp postavljamo na vrh steka
 485              		.loc 1 102 5
 486              		.loc 1 102 28 is_stmt 0
 487 028c B7870000 		li	a5,32768
 488 0290 3305F500 		add	a0,a0,a5
 489              		.loc 1 102 5
 490 0294 83B78401 		ld	a5,24(s1)
 491              		.loc 1 102 18
 492 0298 23B0A700 		sd	a0,0(a5)
 103:src/PCB.cpp   ****     registers[32] = (size_t)&proccessWrapper; // u ra cuvamo proccessWrapper
 493              		.loc 1 103 5 is_stmt 1
 494 029c 83B78401 		ld	a5,24(s1)
 495              		.loc 1 103 19 is_stmt 0
 496 02a0 17070000 		lla	a4,_ZN3PCB15proccessWrapperEv
 496      13070700 
 497 02a8 23B0E710 		sd	a4,256(a5)
 104:src/PCB.cpp   ****     stack = nullptr; // stek pravimo u sistemskom pozivu thread_create
 498              		.loc 1 104 5 is_stmt 1
 499              		.loc 1 104 11 is_stmt 0
 500 02ac 23B40400 		sd	zero,8(s1)
 105:src/PCB.cpp   ****     if(main == nullptr) firstCall = false; //  jer je glavni proces vec pokrenut, necemo ici u proc
 501              		.loc 1 105 5 is_stmt 1
 502              		.loc 1 105 8 is_stmt 0
 503 02b0 83B70402 		ld	a5,32(s1)
 504              		.loc 1 105 5
 505 02b4 638C0700 		beqz	a5,.L30
 506              	.L27:
 106:src/PCB.cpp   **** }
 507              		.loc 1 106 1
 508 02b8 83308101 		ld	ra,24(sp)
 509              		.cfi_remember_state
 510              		.cfi_restore 1
 511 02bc 03340101 		ld	s0,16(sp)
 512              		.cfi_restore 8
 513              		.cfi_def_cfa 2, 32
GAS LISTING /tmp/cc66AmNZ.s 			page 13


 514 02c0 83348100 		ld	s1,8(sp)
 515              		.cfi_restore 9
 516              	.LVL33:
 517 02c4 13010102 		addi	sp,sp,32
 518              		.cfi_def_cfa_offset 0
 519 02c8 67800000 		jr	ra
 520              	.LVL34:
 521              	.L30:
 522              		.cfi_restore_state
 105:src/PCB.cpp   ****     if(main == nullptr) firstCall = false; //  jer je glavni proces vec pokrenut, necemo ici u proc
 523              		.loc 1 105 25 is_stmt 1 discriminator 1
 105:src/PCB.cpp   ****     if(main == nullptr) firstCall = false; //  jer je glavni proces vec pokrenut, necemo ici u proc
 524              		.loc 1 105 35 is_stmt 0 discriminator 1
 525 02cc 23840404 		sb	zero,72(s1)
 526 02d0 6FF09FFE 		j	.L27
 527              		.cfi_endproc
 528              	.LFE60:
 530              		.align	2
 531              		.globl	_ZN3PCBC2EPFvvEmPv
 533              	_ZN3PCBC2EPFvvEmPv:
 534              	.LFB51:
  60:src/PCB.cpp   ****     initObject(main_, timeSlice_, mainArguments_);
 535              		.loc 1 60 1 is_stmt 1
 536              		.cfi_startproc
 537              	.LVL35:
 538 02d4 130101FF 		addi	sp,sp,-16
 539              		.cfi_def_cfa_offset 16
 540 02d8 23341100 		sd	ra,8(sp)
 541 02dc 23308100 		sd	s0,0(sp)
 542              		.cfi_offset 1, -8
 543              		.cfi_offset 8, -16
 544 02e0 13040101 		addi	s0,sp,16
 545              		.cfi_def_cfa 8, 0
 546              	.LBB7:
  61:src/PCB.cpp   **** }
 547              		.loc 1 61 5
  61:src/PCB.cpp   **** }
 548              		.loc 1 61 15 is_stmt 0
 549 02e4 97000000 		call	_ZN3PCB10initObjectEPFvvEmPv
 549      E7800000 
 550              	.LVL36:
 551              	.LBE7:
  62:src/PCB.cpp   **** 
 552              		.loc 1 62 1
 553 02ec 83308100 		ld	ra,8(sp)
 554              		.cfi_restore 1
 555 02f0 03340100 		ld	s0,0(sp)
 556              		.cfi_restore 8
 557              		.cfi_def_cfa 2, 16
 558 02f4 13010101 		addi	sp,sp,16
 559              		.cfi_def_cfa_offset 0
 560 02f8 67800000 		jr	ra
 561              		.cfi_endproc
 562              	.LFE51:
 564              		.globl	_ZN3PCBC1EPFvvEmPv
 565              		.set	_ZN3PCBC1EPFvvEmPv,_ZN3PCBC2EPFvvEmPv
 566              		.align	2
GAS LISTING /tmp/cc66AmNZ.s 			page 14


 567              		.globl	_ZN3PCB14createProccessEPFvvEPv
 569              	_ZN3PCB14createProccessEPFvvEPv:
 570              	.LFB46:
  22:src/PCB.cpp   ****     PCB* object = new PCB(main, DEFAULT_TIME_SLICE, arguments);
 571              		.loc 1 22 66 is_stmt 1
 572              		.cfi_startproc
 573              		.cfi_personality 0x9b,DW.ref.__gxx_personality_v0
 574              		.cfi_lsda 0x1b,.LLSDA46
 575              	.LVL37:
 576 02fc 130101FD 		addi	sp,sp,-48
 577              		.cfi_def_cfa_offset 48
 578 0300 23341102 		sd	ra,40(sp)
 579 0304 23308102 		sd	s0,32(sp)
 580 0308 233C9100 		sd	s1,24(sp)
 581 030c 23382101 		sd	s2,16(sp)
 582 0310 23343101 		sd	s3,8(sp)
 583              		.cfi_offset 1, -8
 584              		.cfi_offset 8, -16
 585              		.cfi_offset 9, -24
 586              		.cfi_offset 18, -32
 587              		.cfi_offset 19, -40
 588 0314 13040103 		addi	s0,sp,48
 589              		.cfi_def_cfa 8, 0
 590 0318 13090500 		mv	s2,a0
 591 031c 93890500 		mv	s3,a1
  23:src/PCB.cpp   ****     if(!object->registers || !object->sysStack) return nullptr;
 592              		.loc 1 23 5
  23:src/PCB.cpp   ****     if(!object->registers || !object->sysStack) return nullptr;
 593              		.loc 1 23 62 is_stmt 0
 594 0320 13050005 		li	a0,80
 595              	.LVL38:
 596              	.LEHB0:
 597 0324 97000000 		call	_ZN3PCBnwEm
 597      E7800000 
 598              	.LVL39:
 599              	.LEHE0:
 600 032c 93040500 		mv	s1,a0
 601 0330 630C0500 		beqz	a0,.L34
  23:src/PCB.cpp   ****     if(!object->registers || !object->sysStack) return nullptr;
 602              		.loc 1 23 62 discriminator 1
 603 0334 93860900 		mv	a3,s3
 604 0338 13062000 		li	a2,2
 605 033c 93050900 		mv	a1,s2
 606              	.LEHB1:
 607 0340 97000000 		call	_ZN3PCBC1EPFvvEmPv
 607      E7800000 
 608              	.LVL40:
 609              	.LEHE1:
 610              	.L34:
  24:src/PCB.cpp   ****     return object;
 611              		.loc 1 24 5 is_stmt 1 discriminator 6
  24:src/PCB.cpp   ****     return object;
 612              		.loc 1 24 17 is_stmt 0 discriminator 6
 613 0348 83B78401 		ld	a5,24(s1)
  24:src/PCB.cpp   ****     return object;
 614              		.loc 1 24 5 discriminator 6
 615 034c 63860702 		beqz	a5,.L37
GAS LISTING /tmp/cc66AmNZ.s 			page 15


  24:src/PCB.cpp   ****     return object;
 616              		.loc 1 24 39 discriminator 2
 617 0350 83B70401 		ld	a5,16(s1)
  24:src/PCB.cpp   ****     return object;
 618              		.loc 1 24 27 discriminator 2
 619 0354 63860702 		beqz	a5,.L41
 620              	.LVL41:
 621              	.L33:
  26:src/PCB.cpp   **** 
 622              		.loc 1 26 1
 623 0358 13850400 		mv	a0,s1
 624 035c 83308102 		ld	ra,40(sp)
 625              		.cfi_remember_state
 626              		.cfi_restore 1
 627 0360 03340102 		ld	s0,32(sp)
 628              		.cfi_restore 8
 629              		.cfi_def_cfa 2, 48
 630 0364 83348101 		ld	s1,24(sp)
 631              		.cfi_restore 9
 632 0368 03390101 		ld	s2,16(sp)
 633              		.cfi_restore 18
 634              	.LVL42:
 635 036c 83398100 		ld	s3,8(sp)
 636              		.cfi_restore 19
 637              	.LVL43:
 638 0370 13010103 		addi	sp,sp,48
 639              		.cfi_def_cfa_offset 0
 640 0374 67800000 		jr	ra
 641              	.LVL44:
 642              	.L37:
 643              		.cfi_restore_state
  24:src/PCB.cpp   ****     return object;
 644              		.loc 1 24 56
 645 0378 93040000 		li	s1,0
 646              	.LVL45:
 647 037c 6FF0DFFD 		j	.L33
 648              	.LVL46:
 649              	.L41:
 650 0380 93040000 		li	s1,0
 651              	.LVL47:
 652 0384 6FF05FFD 		j	.L33
 653              	.L39:
 654 0388 13090500 		mv	s2,a0
 655              	.LVL48:
  23:src/PCB.cpp   ****     if(!object->registers || !object->sysStack) return nullptr;
 656              		.loc 1 23 62
 657 038c 13850400 		mv	a0,s1
 658 0390 97000000 		call	_ZN3PCBdlEPv
 658      E7800000 
 659              	.LVL49:
 660 0398 13050900 		mv	a0,s2
 661              	.LEHB2:
 662 039c 97000000 		call	_Unwind_Resume@plt
 662      E7800000 
 663              	.LVL50:
 664              	.LEHE2:
 665              		.cfi_endproc
GAS LISTING /tmp/cc66AmNZ.s 			page 16


 666              	.LFE46:
 667              		.globl	__gxx_personality_v0
 668              		.section	.gcc_except_table,"a",@progbits
 669              	.LLSDA46:
 670 0000 FF       		.byte	0xff
 671 0001 FF       		.byte	0xff
 672 0002 03       		.byte	0x3
 673 0003 27       		.byte	0x27
 674 0004 00000000 		.4byte	.LEHB0-.LFB46
 675 0008 00000000 		.4byte	.LEHE0-.LEHB0
 676 000c 00000000 		.4byte	0
 677 0010 00       		.byte	0
 678 0011 00000000 		.4byte	.LEHB1-.LFB46
 679 0015 00000000 		.4byte	.LEHE1-.LEHB1
 680 0019 00000000 		.4byte	.L39-.LFB46
 681 001d 00       		.byte	0
 682 001e 00000000 		.4byte	.LEHB2-.LFB46
 683 0022 00000000 		.4byte	.LEHE2-.LEHB2
 684 0026 00000000 		.4byte	0
 685 002a 00       		.byte	0
 686              		.text
 688              		.section	.rodata.str1.8,"aMS",@progbits,1
 689              		.align	3
 690              	.LC0:
 691 0000 50434200 		.string	"PCB"
 692              		.text
 693              		.align	2
 694              		.globl	_ZN3PCB12initPCBCacheEv
 696              	_ZN3PCB12initPCBCacheEv:
 697              	.LFB61:
 107:src/PCB.cpp   **** 
 108:src/PCB.cpp   **** void PCB::initPCBCache() {
 698              		.loc 1 108 26 is_stmt 1
 699              		.cfi_startproc
 700 03a4 130101FF 		addi	sp,sp,-16
 701              		.cfi_def_cfa_offset 16
 702 03a8 23341100 		sd	ra,8(sp)
 703 03ac 23308100 		sd	s0,0(sp)
 704              		.cfi_offset 1, -8
 705              		.cfi_offset 8, -16
 706 03b0 13040101 		addi	s0,sp,16
 707              		.cfi_def_cfa 8, 0
 109:src/PCB.cpp   ****     pcbCache = (kmem_cache_t*)kmem_cache_create("PCB", sizeof(PCB), &createObject, &freeObject);
 708              		.loc 1 109 5
 709              		.loc 1 109 48 is_stmt 0
 710 03b4 97060000 		lla	a3,_ZN3PCB10freeObjectEPv
 710      93860600 
 711 03bc 17060000 		lla	a2,_ZN3PCB12createObjectEPv
 711      13060600 
 712 03c4 93050005 		li	a1,80
 713 03c8 17050000 		lla	a0,.LC0
 713      13050500 
 714 03d0 97000000 		call	_Z17kmem_cache_createPKcmPFvPvES3_@plt
 714      E7800000 
 715              	.LVL51:
 716              		.loc 1 109 14
 717 03d8 97070000 		sd	a0,.LANCHOR0+8,a5
GAS LISTING /tmp/cc66AmNZ.s 			page 17


 717      23B0A700 
 110:src/PCB.cpp   **** }
 718              		.loc 1 110 1
 719 03e0 83308100 		ld	ra,8(sp)
 720              		.cfi_restore 1
 721 03e4 03340100 		ld	s0,0(sp)
 722              		.cfi_restore 8
 723              		.cfi_def_cfa 2, 16
 724 03e8 13010101 		addi	sp,sp,16
 725              		.cfi_def_cfa_offset 0
 726 03ec 67800000 		jr	ra
 727              		.cfi_endproc
 728              	.LFE61:
 730              		.align	2
 731              		.globl	_ZN3PCB16createSysProcessEPFvvEPv
 733              	_ZN3PCB16createSysProcessEPFvvEPv:
 734              	.LFB47:
  28:src/PCB.cpp   ****     if(!pcbCache) initPCBCache();
 735              		.loc 1 28 68 is_stmt 1
 736              		.cfi_startproc
 737              	.LVL52:
 738 03f0 130101FD 		addi	sp,sp,-48
 739              		.cfi_def_cfa_offset 48
 740 03f4 23341102 		sd	ra,40(sp)
 741 03f8 23308102 		sd	s0,32(sp)
 742 03fc 233C9100 		sd	s1,24(sp)
 743 0400 23382101 		sd	s2,16(sp)
 744 0404 23343101 		sd	s3,8(sp)
 745              		.cfi_offset 1, -8
 746              		.cfi_offset 8, -16
 747              		.cfi_offset 9, -24
 748              		.cfi_offset 18, -32
 749              		.cfi_offset 19, -40
 750 0408 13040103 		addi	s0,sp,48
 751              		.cfi_def_cfa 8, 0
 752 040c 13090500 		mv	s2,a0
 753 0410 93890500 		mv	s3,a1
  29:src/PCB.cpp   ****     PCB* object = (PCB*) kmem_cache_alloc(pcbCache);
 754              		.loc 1 29 5
  29:src/PCB.cpp   ****     PCB* object = (PCB*) kmem_cache_alloc(pcbCache);
 755              		.loc 1 29 8 is_stmt 0
 756 0414 97070000 		ld	a5,.LANCHOR0+8
 756      83B70700 
  29:src/PCB.cpp   ****     PCB* object = (PCB*) kmem_cache_alloc(pcbCache);
 757              		.loc 1 29 5
 758 041c 638E0704 		beqz	a5,.L50
 759              	.LVL53:
 760              	.L45:
  30:src/PCB.cpp   ****     object->initObject(main, DEFAULT_TIME_SLICE, arguments);
 761              		.loc 1 30 5 is_stmt 1
  30:src/PCB.cpp   ****     object->initObject(main, DEFAULT_TIME_SLICE, arguments);
 762              		.loc 1 30 42 is_stmt 0
 763 0420 17050000 		ld	a0,.LANCHOR0+8
 763      03350500 
 764 0428 97000000 		call	_Z16kmem_cache_allocP12kmem_cache_s@plt
 764      E7800000 
 765              	.LVL54:
GAS LISTING /tmp/cc66AmNZ.s 			page 18


 766 0430 93040500 		mv	s1,a0
 767              	.LVL55:
  31:src/PCB.cpp   ****     if(!object->registers || !object->sysStack) return nullptr;
 768              		.loc 1 31 5 is_stmt 1
  31:src/PCB.cpp   ****     if(!object->registers || !object->sysStack) return nullptr;
 769              		.loc 1 31 23 is_stmt 0
 770 0434 93860900 		mv	a3,s3
 771 0438 13062000 		li	a2,2
 772 043c 93050900 		mv	a1,s2
 773 0440 97000000 		call	_ZN3PCB10initObjectEPFvvEmPv
 773      E7800000 
 774              	.LVL56:
  32:src/PCB.cpp   ****     return object;
 775              		.loc 1 32 5 is_stmt 1
  32:src/PCB.cpp   ****     return object;
 776              		.loc 1 32 17 is_stmt 0
 777 0448 83B78401 		ld	a5,24(s1)
  32:src/PCB.cpp   ****     return object;
 778              		.loc 1 32 5
 779 044c 638C0702 		beqz	a5,.L47
  32:src/PCB.cpp   ****     return object;
 780              		.loc 1 32 39 discriminator 2
 781 0450 83B70401 		ld	a5,16(s1)
  32:src/PCB.cpp   ****     return object;
 782              		.loc 1 32 27 discriminator 2
 783 0454 638C0702 		beqz	a5,.L51
 784              	.LVL57:
 785              	.L44:
  34:src/PCB.cpp   **** 
 786              		.loc 1 34 1
 787 0458 13850400 		mv	a0,s1
 788 045c 83308102 		ld	ra,40(sp)
 789              		.cfi_remember_state
 790              		.cfi_restore 1
 791 0460 03340102 		ld	s0,32(sp)
 792              		.cfi_restore 8
 793              		.cfi_def_cfa 2, 48
 794 0464 83348101 		ld	s1,24(sp)
 795              		.cfi_restore 9
 796 0468 03390101 		ld	s2,16(sp)
 797              		.cfi_restore 18
 798              	.LVL58:
 799 046c 83398100 		ld	s3,8(sp)
 800              		.cfi_restore 19
 801              	.LVL59:
 802 0470 13010103 		addi	sp,sp,48
 803              		.cfi_def_cfa_offset 0
 804 0474 67800000 		jr	ra
 805              	.LVL60:
 806              	.L50:
 807              		.cfi_restore_state
  29:src/PCB.cpp   ****     PCB* object = (PCB*) kmem_cache_alloc(pcbCache);
 808              		.loc 1 29 19 is_stmt 1 discriminator 1
  29:src/PCB.cpp   ****     PCB* object = (PCB*) kmem_cache_alloc(pcbCache);
 809              		.loc 1 29 31 is_stmt 0 discriminator 1
 810 0478 97000000 		call	_ZN3PCB12initPCBCacheEv
 810      E7800000 
GAS LISTING /tmp/cc66AmNZ.s 			page 19


 811              	.LVL61:
 812 0480 6FF01FFA 		j	.L45
 813              	.LVL62:
 814              	.L47:
  32:src/PCB.cpp   ****     return object;
 815              		.loc 1 32 56
 816 0484 93040000 		li	s1,0
 817              	.LVL63:
 818 0488 6FF01FFD 		j	.L44
 819              	.LVL64:
 820              	.L51:
 821 048c 93040000 		li	s1,0
 822              	.LVL65:
 823 0490 6FF09FFC 		j	.L44
 824              		.cfi_endproc
 825              	.LFE47:
 827              		.globl	_ZN3PCB8pcbCacheE
 828              		.globl	_ZN3PCB16timeSliceCounterE
 829              		.globl	_ZN3PCB7runningE
 830              		.bss
 831              		.align	3
 832              		.set	.LANCHOR0,. + 0
 835              	_ZN3PCB7runningE:
 836 0000 00000000 		.zero	8
 836      00000000 
 839              	_ZN3PCB8pcbCacheE:
 840 0008 00000000 		.zero	8
 840      00000000 
 843              	_ZN3PCB16timeSliceCounterE:
 844 0010 00000000 		.zero	8
 844      00000000 
 845              		.text
 846              	.Letext0:
 847              		.file 3 "src/../h/hw.h"
 848              		.file 4 "src/../h/slab.h"
 849              		.file 5 "src/../h/Scheduler.h"
 850              		.file 6 "src/../h/MemoryAllocator.h"
 851              		.file 7 "src/../h/kernel.h"
 852              		.file 8 "src/../h/syscall_c.h"
 4517              		.align	3
 4520              	DW.ref.__gxx_personality_v0:
 4521 0000 00000000 		.dword	__gxx_personality_v0
 4521      00000000 
 4522              		.ident	"GCC: (Ubuntu 9.4.0-1ubuntu1~20.04) 9.4.0"
 4523              		.section	.note.GNU-stack,"",@progbits
GAS LISTING /tmp/cc66AmNZ.s 			page 20

