GAS LISTING /tmp/cclRruRL.s 			page 1


   1              		.file	"PCB.cpp"
   2              		.option pic
   3              		.option norelax
   4              		.text
   5              	.Ltext0:
   6              		.align	2
   7              		.globl	_ZN3PCB15proccessWrapperEv
   9              	_ZN3PCB15proccessWrapperEv:
  10              	.LFB54:
  11              		.file 1 "src/PCB.cpp"
   1:src/PCB.cpp   **** #include "../h/PCB.h"
   2:src/PCB.cpp   **** #include "../h/Scheduler.h"
   3:src/PCB.cpp   **** #include "../h/MemoryAllocator.h"
   4:src/PCB.cpp   **** #include "../h/kernel.h"
   5:src/PCB.cpp   **** #include "../h/syscall_c.h"
   6:src/PCB.cpp   **** 
   7:src/PCB.cpp   **** PCB* PCB::running = nullptr;
   8:src/PCB.cpp   **** size_t PCB::timeSliceCounter = 0;
   9:src/PCB.cpp   **** 
  10:src/PCB.cpp   **** PCB *PCB::createProccess(PCB::processMain main, void* arguments) {
  11:src/PCB.cpp   ****     return new PCB(main, DEFAULT_TIME_SLICE, arguments);
  12:src/PCB.cpp   **** }
  13:src/PCB.cpp   **** 
  14:src/PCB.cpp   **** void PCB::yield() {
  15:src/PCB.cpp   ****     size_t code = Kernel::sysCallCodes::thread_dispatch;
  16:src/PCB.cpp   ****     asm volatile("mv a0, %0" : : "r" (code));
  17:src/PCB.cpp   ****     asm volatile("ecall"); // prelazimo u prekidnu rutinu koja cuva registre i vrsi promenu konteks
  18:src/PCB.cpp   **** }
  19:src/PCB.cpp   **** 
  20:src/PCB.cpp   **** void PCB::dispatch() {
  21:src/PCB.cpp   ****     PCB* old = running;
  22:src/PCB.cpp   ****     if(!old->isFinished() && !old->blocked) { // ako se nije zavrsio i nije blokiran
  23:src/PCB.cpp   ****         Scheduler::put(old);
  24:src/PCB.cpp   ****     }
  25:src/PCB.cpp   ****     running = Scheduler::get();
  26:src/PCB.cpp   **** 
  27:src/PCB.cpp   ****     if(PCB::running->firstCall) {
  28:src/PCB.cpp   ****         PCB::running->firstCall = false;
  29:src/PCB.cpp   ****         switchContext1(old->registers, running->registers);
  30:src/PCB.cpp   ****     }
  31:src/PCB.cpp   ****     else {
  32:src/PCB.cpp   ****         switchContext2(old->registers, running->registers);
  33:src/PCB.cpp   ****     }
  34:src/PCB.cpp   **** 
  35:src/PCB.cpp   **** }
  36:src/PCB.cpp   **** 
  37:src/PCB.cpp   **** // main_ == nullptr ako smo u glavnom procesu
  38:src/PCB.cpp   **** PCB::PCB(PCB::processMain main_, size_t timeSlice_, void* mainArguments_) {
  39:src/PCB.cpp   ****     finished = blocked = semDeleted = false;
  40:src/PCB.cpp   ****     main = main_;
  41:src/PCB.cpp   ****     timeSlice = timeSlice_;
  42:src/PCB.cpp   ****     mainArguments = mainArguments_;
  43:src/PCB.cpp   ****     registers = (size_t*)MemoryAllocator::mem_alloc(33*sizeof(size_t)); // mozemo direktno jer se z
  44:src/PCB.cpp   ****     sysStack = (size_t*)MemoryAllocator::mem_alloc(DEFAULT_STACK_SIZE*sizeof(size_t));
  45:src/PCB.cpp   ****     registers[0] = (size_t)&sysStack[DEFAULT_STACK_SIZE]; // ssp postavljamo na vrh steka
  46:src/PCB.cpp   ****     registers[32] = (size_t)&proccessWrapper; // u ra cuvamo proccessWrapper
  47:src/PCB.cpp   ****     stack = nullptr; // stek pravimo u sistemskom pozivu thread_create
GAS LISTING /tmp/cclRruRL.s 			page 2


  48:src/PCB.cpp   ****     if(main == nullptr) firstCall = false; //  jer je glavni proces vec pokrenut, necemo ici u proc
  49:src/PCB.cpp   **** }
  50:src/PCB.cpp   **** 
  51:src/PCB.cpp   **** PCB::~PCB() {
  52:src/PCB.cpp   ****     delete[] stack;
  53:src/PCB.cpp   ****     delete[] sysStack;
  54:src/PCB.cpp   **** }
  55:src/PCB.cpp   **** 
  56:src/PCB.cpp   **** void *PCB::operator new(size_t size) {
  57:src/PCB.cpp   ****     return MemoryAllocator::mem_alloc(size);
  58:src/PCB.cpp   **** }
  59:src/PCB.cpp   **** 
  60:src/PCB.cpp   **** void PCB::operator delete(void *memSegment) {
  61:src/PCB.cpp   ****     MemoryAllocator::mem_free(memSegment);
  62:src/PCB.cpp   **** }
  63:src/PCB.cpp   **** 
  64:src/PCB.cpp   **** void PCB::proccessWrapper() { // iz prekidne rutine skacemo ovde kada prvi put ulazimo u nit
  12              		.loc 1 64 29
  13              		.cfi_startproc
  14 0000 130101FF 		addi	sp,sp,-16
  15              		.cfi_def_cfa_offset 16
  16 0004 23341100 		sd	ra,8(sp)
  17 0008 23308100 		sd	s0,0(sp)
  18              		.cfi_offset 1, -8
  19              		.cfi_offset 8, -16
  20 000c 13040101 		addi	s0,sp,16
  21              		.cfi_def_cfa 8, 0
  65:src/PCB.cpp   ****     Kernel::popSppSpie(); // izlazimo iz prekidne rutine
  22              		.loc 1 65 5
  23              		.loc 1 65 23 is_stmt 0
  24 0010 97000000 		call	_ZN6Kernel10popSppSpieEv@plt
  24      E7800000 
  25              	.LVL0:
  66:src/PCB.cpp   ****     void* arg = PCB::running->mainArguments;
  26              		.loc 1 66 5 is_stmt 1
  27              		.loc 1 66 31 is_stmt 0
  28 0018 97070000 		ld	a5,.LANCHOR0
  28      83B70700 
  29              		.loc 1 66 11
  30 0020 03B78703 		ld	a4,56(a5)
  31              	.LVL1:
  67:src/PCB.cpp   ****     asm volatile("mv a0, %0" : : "r" (arg)); // u a0 postavljamo argument glavne funkcije procesa
  32              		.loc 1 67 5 is_stmt 1
  33              		.loc 1 67 44 is_stmt 0
  34              	#APP
  35              	# 67 "src/PCB.cpp" 1
  68              	    running->main();
  36              		mv a0, a4
  37              	# 0 "" 2
  38              		.loc 1 68 5 is_stmt 1
  39              		.loc 1 68 14 is_stmt 0
  40              	#NO_APP
  41 0028 83B70702 		ld	a5,32(a5)
  42              		.loc 1 68 18
  43 002c E7800700 		jalr	a5
  44              	.LVL2:
  69:src/PCB.cpp   ****     thread_exit();
GAS LISTING /tmp/cclRruRL.s 			page 3


  45              		.loc 1 69 5 is_stmt 1
  46              		.loc 1 69 16 is_stmt 0
  47 0030 97000000 		call	_Z11thread_exitv@plt
  47      E7800000 
  48              	.LVL3:
  70:src/PCB.cpp   **** }
  49              		.loc 1 70 1
  50 0038 83308100 		ld	ra,8(sp)
  51              		.cfi_restore 1
  52 003c 03340100 		ld	s0,0(sp)
  53              		.cfi_restore 8
  54              		.cfi_def_cfa 2, 16
  55 0040 13010101 		addi	sp,sp,16
  56              		.cfi_def_cfa_offset 0
  57 0044 67800000 		jr	ra
  58              		.cfi_endproc
  59              	.LFE54:
  61              		.align	2
  62              		.globl	_ZN3PCB5yieldEv
  64              	_ZN3PCB5yieldEv:
  65              	.LFB44:
  14:src/PCB.cpp   ****     size_t code = Kernel::sysCallCodes::thread_dispatch;
  66              		.loc 1 14 19 is_stmt 1
  67              		.cfi_startproc
  68 0048 130101FF 		addi	sp,sp,-16
  69              		.cfi_def_cfa_offset 16
  70 004c 23348100 		sd	s0,8(sp)
  71              		.cfi_offset 8, -8
  72 0050 13040101 		addi	s0,sp,16
  73              		.cfi_def_cfa 8, 0
  15:src/PCB.cpp   ****     asm volatile("mv a0, %0" : : "r" (code));
  74              		.loc 1 15 5
  75              	.LVL4:
  16:src/PCB.cpp   ****     asm volatile("ecall"); // prelazimo u prekidnu rutinu koja cuva registre i vrsi promenu konteks
  76              		.loc 1 16 5
  16:src/PCB.cpp   ****     asm volatile("ecall"); // prelazimo u prekidnu rutinu koja cuva registre i vrsi promenu konteks
  77              		.loc 1 16 45 is_stmt 0
  78 0054 93073001 		li	a5,19
  79              	#APP
  80              	# 16 "src/PCB.cpp" 1
  17:src/PCB.cpp   **** }
  81              		mv a0, a5
  82              	# 0 "" 2
  83              		.loc 1 17 5 is_stmt 1
  17:src/PCB.cpp   **** }
  84              		.loc 1 17 26 is_stmt 0
  85              	# 17 "src/PCB.cpp" 1
  18:src/PCB.cpp   **** 
  86              		ecall
  87              	# 0 "" 2
  88              		.loc 1 18 1
  89              	#NO_APP
  90 0060 03348100 		ld	s0,8(sp)
  91              		.cfi_restore 8
  92              		.cfi_def_cfa 2, 16
  93 0064 13010101 		addi	sp,sp,16
  94              		.cfi_def_cfa_offset 0
GAS LISTING /tmp/cclRruRL.s 			page 4


  95 0068 67800000 		jr	ra
  96              		.cfi_endproc
  97              	.LFE44:
  99              		.align	2
 100              		.globl	_ZN3PCB8dispatchEv
 102              	_ZN3PCB8dispatchEv:
 103              	.LFB45:
  20:src/PCB.cpp   ****     PCB* old = running;
 104              		.loc 1 20 22 is_stmt 1
 105              		.cfi_startproc
 106 006c 130101FE 		addi	sp,sp,-32
 107              		.cfi_def_cfa_offset 32
 108 0070 233C1100 		sd	ra,24(sp)
 109 0074 23388100 		sd	s0,16(sp)
 110 0078 23349100 		sd	s1,8(sp)
 111              		.cfi_offset 1, -8
 112              		.cfi_offset 8, -16
 113              		.cfi_offset 9, -24
 114 007c 13040102 		addi	s0,sp,32
 115              		.cfi_def_cfa 8, 0
  21:src/PCB.cpp   ****     if(!old->isFinished() && !old->blocked) { // ako se nije zavrsio i nije blokiran
 116              		.loc 1 21 5
  21:src/PCB.cpp   ****     if(!old->isFinished() && !old->blocked) { // ako se nije zavrsio i nije blokiran
 117              		.loc 1 21 10 is_stmt 0
 118 0080 97040000 		ld	s1,.LANCHOR0
 118      83B40400 
 119              	.LVL5:
  22:src/PCB.cpp   ****         Scheduler::put(old);
 120              		.loc 1 22 5 is_stmt 1
 121              	.LBB4:
 122              	.LBB5:
 123              		.file 2 "src/../h/PCB.h"
   1:src/../h/PCB.h **** #ifndef PCB_H
   2:src/../h/PCB.h **** #define PCB_H
   3:src/../h/PCB.h **** 
   4:src/../h/PCB.h **** #include "hw.h"
   5:src/../h/PCB.h **** 
   6:src/../h/PCB.h **** extern "C" void interruptHandler();
   7:src/../h/PCB.h **** 
   8:src/../h/PCB.h **** class PCB {
   9:src/../h/PCB.h **** friend class Scheduler;
  10:src/../h/PCB.h **** friend void interruptHandler();
  11:src/../h/PCB.h **** friend class Kernel;
  12:src/../h/PCB.h **** friend class SCB;
  13:src/../h/PCB.h **** public:
  14:src/../h/PCB.h ****     // vraca true ako se proces zavrsio, false ako nije
  15:src/../h/PCB.h ****     bool isFinished() const {
  16:src/../h/PCB.h ****         return finished;
 124              		.loc 2 16 9
 125              		.loc 2 16 16 is_stmt 0
 126 0088 83C78402 		lbu	a5,40(s1)
 127              	.LVL6:
 128              	.LBE5:
 129              	.LBE4:
  22:src/PCB.cpp   ****         Scheduler::put(old);
 130              		.loc 1 22 27
 131 008c 63960700 		bnez	a5,.L6
GAS LISTING /tmp/cclRruRL.s 			page 5


  22:src/PCB.cpp   ****         Scheduler::put(old);
 132              		.loc 1 22 36 discriminator 1
 133 0090 83C79402 		lbu	a5,41(s1)
  22:src/PCB.cpp   ****         Scheduler::put(old);
 134              		.loc 1 22 27 discriminator 1
 135 0094 63820704 		beqz	a5,.L10
 136              	.L6:
  25:src/PCB.cpp   **** 
 137              		.loc 1 25 5 is_stmt 1
  25:src/PCB.cpp   **** 
 138              		.loc 1 25 29 is_stmt 0
 139 0098 97000000 		call	_ZN9Scheduler3getEv@plt
 139      E7800000 
 140              	.LVL7:
  25:src/PCB.cpp   **** 
 141              		.loc 1 25 13
 142 00a0 97070000 		sd	a0,.LANCHOR0,a5
 142      23B0A700 
  27:src/PCB.cpp   ****         PCB::running->firstCall = false;
 143              		.loc 1 27 5 is_stmt 1
  27:src/PCB.cpp   ****         PCB::running->firstCall = false;
 144              		.loc 1 27 22 is_stmt 0
 145 00a8 83478504 		lbu	a5,72(a0)
  27:src/PCB.cpp   ****         PCB::running->firstCall = false;
 146              		.loc 1 27 5
 147 00ac 638E0702 		beqz	a5,.L7
  28:src/PCB.cpp   ****         switchContext1(old->registers, running->registers);
 148              		.loc 1 28 9 is_stmt 1
  28:src/PCB.cpp   ****         switchContext1(old->registers, running->registers);
 149              		.loc 1 28 33 is_stmt 0
 150 00b0 23040504 		sb	zero,72(a0)
  29:src/PCB.cpp   ****     }
 151              		.loc 1 29 9 is_stmt 1
  29:src/PCB.cpp   ****     }
 152              		.loc 1 29 23 is_stmt 0
 153 00b4 83358501 		ld	a1,24(a0)
 154 00b8 03B58401 		ld	a0,24(s1)
 155 00bc 97000000 		call	_ZN3PCB14switchContext1EPmS0_@plt
 155      E7800000 
 156              	.LVL8:
 157              	.L5:
  35:src/PCB.cpp   **** 
 158              		.loc 1 35 1
 159 00c4 83308101 		ld	ra,24(sp)
 160              		.cfi_remember_state
 161              		.cfi_restore 1
 162 00c8 03340101 		ld	s0,16(sp)
 163              		.cfi_restore 8
 164              		.cfi_def_cfa 2, 32
 165 00cc 83348100 		ld	s1,8(sp)
 166              		.cfi_restore 9
 167              	.LVL9:
 168 00d0 13010102 		addi	sp,sp,32
 169              		.cfi_def_cfa_offset 0
 170 00d4 67800000 		jr	ra
 171              	.LVL10:
 172              	.L10:
GAS LISTING /tmp/cclRruRL.s 			page 6


 173              		.cfi_restore_state
  23:src/PCB.cpp   ****     }
 174              		.loc 1 23 9 is_stmt 1
  23:src/PCB.cpp   ****     }
 175              		.loc 1 23 23 is_stmt 0
 176 00d8 13850400 		mv	a0,s1
 177 00dc 97000000 		call	_ZN9Scheduler3putEP3PCB@plt
 177      E7800000 
 178              	.LVL11:
 179 00e4 6FF05FFB 		j	.L6
 180              	.L7:
  32:src/PCB.cpp   ****     }
 181              		.loc 1 32 9 is_stmt 1
  32:src/PCB.cpp   ****     }
 182              		.loc 1 32 23 is_stmt 0
 183 00e8 83358501 		ld	a1,24(a0)
 184 00ec 03B58401 		ld	a0,24(s1)
 185 00f0 97000000 		call	_ZN3PCB14switchContext2EPmS0_@plt
 185      E7800000 
 186              	.LVL12:
  35:src/PCB.cpp   **** 
 187              		.loc 1 35 1
 188 00f8 6FF0DFFC 		j	.L5
 189              		.cfi_endproc
 190              	.LFE45:
 192              		.align	2
 193              		.globl	_ZN3PCBC2EPFvvEmPv
 195              	_ZN3PCBC2EPFvvEmPv:
 196              	.LFB47:
  38:src/PCB.cpp   ****     finished = blocked = semDeleted = false;
 197              		.loc 1 38 1 is_stmt 1
 198              		.cfi_startproc
 199              	.LVL13:
 200 00fc 130101FE 		addi	sp,sp,-32
 201              		.cfi_def_cfa_offset 32
 202 0100 233C1100 		sd	ra,24(sp)
 203 0104 23388100 		sd	s0,16(sp)
 204 0108 23349100 		sd	s1,8(sp)
 205              		.cfi_offset 1, -8
 206              		.cfi_offset 8, -16
 207              		.cfi_offset 9, -24
 208 010c 13040102 		addi	s0,sp,32
 209              		.cfi_def_cfa 8, 0
 210 0110 93040500 		mv	s1,a0
 211              	.LBB6:
  38:src/PCB.cpp   ****     finished = blocked = semDeleted = false;
 212              		.loc 1 38 73 is_stmt 0
 213 0114 23300500 		sd	zero,0(a0)
 214 0118 233C0500 		sd	zero,24(a0)
 215 011c 23380502 		sd	zero,48(a0)
 216 0120 93071000 		li	a5,1
 217 0124 2304F504 		sb	a5,72(a0)
  39:src/PCB.cpp   ****     main = main_;
 218              		.loc 1 39 5 is_stmt 1
  39:src/PCB.cpp   ****     main = main_;
 219              		.loc 1 39 37 is_stmt 0
 220 0128 23050502 		sb	zero,42(a0)
GAS LISTING /tmp/cclRruRL.s 			page 7


  39:src/PCB.cpp   ****     main = main_;
 221              		.loc 1 39 24
 222 012c A3040502 		sb	zero,41(a0)
  39:src/PCB.cpp   ****     main = main_;
 223              		.loc 1 39 14
 224 0130 23040502 		sb	zero,40(a0)
  40:src/PCB.cpp   ****     timeSlice = timeSlice_;
 225              		.loc 1 40 5 is_stmt 1
  40:src/PCB.cpp   ****     timeSlice = timeSlice_;
 226              		.loc 1 40 10 is_stmt 0
 227 0134 2330B502 		sd	a1,32(a0)
  41:src/PCB.cpp   ****     mainArguments = mainArguments_;
 228              		.loc 1 41 5 is_stmt 1
  41:src/PCB.cpp   ****     mainArguments = mainArguments_;
 229              		.loc 1 41 15 is_stmt 0
 230 0138 2330C504 		sd	a2,64(a0)
  42:src/PCB.cpp   ****     registers = (size_t*)MemoryAllocator::mem_alloc(33*sizeof(size_t)); // mozemo direktno jer se z
 231              		.loc 1 42 5 is_stmt 1
  42:src/PCB.cpp   ****     registers = (size_t*)MemoryAllocator::mem_alloc(33*sizeof(size_t)); // mozemo direktno jer se z
 232              		.loc 1 42 19 is_stmt 0
 233 013c 233CD502 		sd	a3,56(a0)
  43:src/PCB.cpp   ****     sysStack = (size_t*)MemoryAllocator::mem_alloc(DEFAULT_STACK_SIZE*sizeof(size_t));
 234              		.loc 1 43 5 is_stmt 1
  43:src/PCB.cpp   ****     sysStack = (size_t*)MemoryAllocator::mem_alloc(DEFAULT_STACK_SIZE*sizeof(size_t));
 235              		.loc 1 43 52 is_stmt 0
 236 0140 13058010 		li	a0,264
 237              	.LVL14:
 238 0144 97000000 		call	_ZN15MemoryAllocator9mem_allocEm@plt
 238      E7800000 
 239              	.LVL15:
  43:src/PCB.cpp   ****     sysStack = (size_t*)MemoryAllocator::mem_alloc(DEFAULT_STACK_SIZE*sizeof(size_t));
 240              		.loc 1 43 15
 241 014c 23BCA400 		sd	a0,24(s1)
  44:src/PCB.cpp   ****     registers[0] = (size_t)&sysStack[DEFAULT_STACK_SIZE]; // ssp postavljamo na vrh steka
 242              		.loc 1 44 5 is_stmt 1
  44:src/PCB.cpp   ****     registers[0] = (size_t)&sysStack[DEFAULT_STACK_SIZE]; // ssp postavljamo na vrh steka
 243              		.loc 1 44 51 is_stmt 0
 244 0150 37850000 		li	a0,32768
 245 0154 97000000 		call	_ZN15MemoryAllocator9mem_allocEm@plt
 245      E7800000 
 246              	.LVL16:
  44:src/PCB.cpp   ****     registers[0] = (size_t)&sysStack[DEFAULT_STACK_SIZE]; // ssp postavljamo na vrh steka
 247              		.loc 1 44 14
 248 015c 23B8A400 		sd	a0,16(s1)
  45:src/PCB.cpp   ****     registers[32] = (size_t)&proccessWrapper; // u ra cuvamo proccessWrapper
 249              		.loc 1 45 5 is_stmt 1
  45:src/PCB.cpp   ****     registers[32] = (size_t)&proccessWrapper; // u ra cuvamo proccessWrapper
 250              		.loc 1 45 28 is_stmt 0
 251 0160 B7870000 		li	a5,32768
 252 0164 3305F500 		add	a0,a0,a5
  45:src/PCB.cpp   ****     registers[32] = (size_t)&proccessWrapper; // u ra cuvamo proccessWrapper
 253              		.loc 1 45 5
 254 0168 83B78401 		ld	a5,24(s1)
  45:src/PCB.cpp   ****     registers[32] = (size_t)&proccessWrapper; // u ra cuvamo proccessWrapper
 255              		.loc 1 45 18
 256 016c 23B0A700 		sd	a0,0(a5)
  46:src/PCB.cpp   ****     stack = nullptr; // stek pravimo u sistemskom pozivu thread_create
GAS LISTING /tmp/cclRruRL.s 			page 8


 257              		.loc 1 46 5 is_stmt 1
 258 0170 83B78401 		ld	a5,24(s1)
  46:src/PCB.cpp   ****     stack = nullptr; // stek pravimo u sistemskom pozivu thread_create
 259              		.loc 1 46 19 is_stmt 0
 260 0174 17070000 		lla	a4,_ZN3PCB15proccessWrapperEv
 260      13070700 
 261 017c 23B0E710 		sd	a4,256(a5)
  47:src/PCB.cpp   ****     if(main == nullptr) firstCall = false; //  jer je glavni proces vec pokrenut, necemo ici u proc
 262              		.loc 1 47 5 is_stmt 1
  47:src/PCB.cpp   ****     if(main == nullptr) firstCall = false; //  jer je glavni proces vec pokrenut, necemo ici u proc
 263              		.loc 1 47 11 is_stmt 0
 264 0180 23B40400 		sd	zero,8(s1)
  48:src/PCB.cpp   **** }
 265              		.loc 1 48 5 is_stmt 1
  48:src/PCB.cpp   **** }
 266              		.loc 1 48 8 is_stmt 0
 267 0184 83B70402 		ld	a5,32(s1)
  48:src/PCB.cpp   **** }
 268              		.loc 1 48 5
 269 0188 638C0700 		beqz	a5,.L14
 270              	.L11:
 271              	.LBE6:
  49:src/PCB.cpp   **** 
 272              		.loc 1 49 1
 273 018c 83308101 		ld	ra,24(sp)
 274              		.cfi_remember_state
 275              		.cfi_restore 1
 276 0190 03340101 		ld	s0,16(sp)
 277              		.cfi_restore 8
 278              		.cfi_def_cfa 2, 32
 279 0194 83348100 		ld	s1,8(sp)
 280              		.cfi_restore 9
 281              	.LVL17:
 282 0198 13010102 		addi	sp,sp,32
 283              		.cfi_def_cfa_offset 0
 284 019c 67800000 		jr	ra
 285              	.LVL18:
 286              	.L14:
 287              		.cfi_restore_state
 288              	.LBB7:
  48:src/PCB.cpp   **** }
 289              		.loc 1 48 25 is_stmt 1 discriminator 1
  48:src/PCB.cpp   **** }
 290              		.loc 1 48 35 is_stmt 0 discriminator 1
 291 01a0 23840404 		sb	zero,72(s1)
 292              	.LBE7:
  49:src/PCB.cpp   **** 
 293              		.loc 1 49 1 discriminator 1
 294 01a4 6FF09FFE 		j	.L11
 295              		.cfi_endproc
 296              	.LFE47:
 298              		.globl	_ZN3PCBC1EPFvvEmPv
 299              		.set	_ZN3PCBC1EPFvvEmPv,_ZN3PCBC2EPFvvEmPv
 300              		.align	2
 301              		.globl	_ZN3PCBD2Ev
 303              	_ZN3PCBD2Ev:
 304              	.LFB50:
GAS LISTING /tmp/cclRruRL.s 			page 9


  51:src/PCB.cpp   ****     delete[] stack;
 305              		.loc 1 51 1 is_stmt 1
 306              		.cfi_startproc
 307              	.LVL19:
 308 01a8 130101FE 		addi	sp,sp,-32
 309              		.cfi_def_cfa_offset 32
 310 01ac 233C1100 		sd	ra,24(sp)
 311 01b0 23388100 		sd	s0,16(sp)
 312 01b4 23349100 		sd	s1,8(sp)
 313              		.cfi_offset 1, -8
 314              		.cfi_offset 8, -16
 315              		.cfi_offset 9, -24
 316 01b8 13040102 		addi	s0,sp,32
 317              		.cfi_def_cfa 8, 0
 318 01bc 93040500 		mv	s1,a0
 319              	.LBB8:
  52:src/PCB.cpp   ****     delete[] sysStack;
 320              		.loc 1 52 5
  52:src/PCB.cpp   ****     delete[] sysStack;
 321              		.loc 1 52 14 is_stmt 0
 322 01c0 03358500 		ld	a0,8(a0)
 323              	.LVL20:
  52:src/PCB.cpp   ****     delete[] sysStack;
 324              		.loc 1 52 19
 325 01c4 63060500 		beqz	a0,.L16
  52:src/PCB.cpp   ****     delete[] sysStack;
 326              		.loc 1 52 14 discriminator 1
 327 01c8 97000000 		call	_ZdaPv@plt
 327      E7800000 
 328              	.LVL21:
 329              	.L16:
  53:src/PCB.cpp   **** }
 330              		.loc 1 53 5 is_stmt 1
  53:src/PCB.cpp   **** }
 331              		.loc 1 53 14 is_stmt 0
 332 01d0 03B50401 		ld	a0,16(s1)
  53:src/PCB.cpp   **** }
 333              		.loc 1 53 22
 334 01d4 63060500 		beqz	a0,.L15
  53:src/PCB.cpp   **** }
 335              		.loc 1 53 14 discriminator 1
 336 01d8 97000000 		call	_ZdaPv@plt
 336      E7800000 
 337              	.LVL22:
 338              	.L15:
 339              	.LBE8:
  54:src/PCB.cpp   **** 
 340              		.loc 1 54 1
 341 01e0 83308101 		ld	ra,24(sp)
 342              		.cfi_restore 1
 343 01e4 03340101 		ld	s0,16(sp)
 344              		.cfi_restore 8
 345              		.cfi_def_cfa 2, 32
 346 01e8 83348100 		ld	s1,8(sp)
 347              		.cfi_restore 9
 348              	.LVL23:
 349 01ec 13010102 		addi	sp,sp,32
GAS LISTING /tmp/cclRruRL.s 			page 10


 350              		.cfi_def_cfa_offset 0
 351 01f0 67800000 		jr	ra
 352              		.cfi_endproc
 353              	.LFE50:
 355              		.globl	_ZN3PCBD1Ev
 356              		.set	_ZN3PCBD1Ev,_ZN3PCBD2Ev
 357              		.align	2
 358              		.globl	_ZN3PCBnwEm
 360              	_ZN3PCBnwEm:
 361              	.LFB52:
  56:src/PCB.cpp   ****     return MemoryAllocator::mem_alloc(size);
 362              		.loc 1 56 38 is_stmt 1
 363              		.cfi_startproc
 364              	.LVL24:
 365 01f4 130101FF 		addi	sp,sp,-16
 366              		.cfi_def_cfa_offset 16
 367 01f8 23341100 		sd	ra,8(sp)
 368 01fc 23308100 		sd	s0,0(sp)
 369              		.cfi_offset 1, -8
 370              		.cfi_offset 8, -16
 371 0200 13040101 		addi	s0,sp,16
 372              		.cfi_def_cfa 8, 0
  57:src/PCB.cpp   **** }
 373              		.loc 1 57 5
  57:src/PCB.cpp   **** }
 374              		.loc 1 57 38 is_stmt 0
 375 0204 97000000 		call	_ZN15MemoryAllocator9mem_allocEm@plt
 375      E7800000 
 376              	.LVL25:
  58:src/PCB.cpp   **** 
 377              		.loc 1 58 1
 378 020c 83308100 		ld	ra,8(sp)
 379              		.cfi_restore 1
 380 0210 03340100 		ld	s0,0(sp)
 381              		.cfi_restore 8
 382              		.cfi_def_cfa 2, 16
 383 0214 13010101 		addi	sp,sp,16
 384              		.cfi_def_cfa_offset 0
 385 0218 67800000 		jr	ra
 386              		.cfi_endproc
 387              	.LFE52:
 389              		.align	2
 390              		.globl	_ZN3PCBdlEPv
 392              	_ZN3PCBdlEPv:
 393              	.LFB53:
  60:src/PCB.cpp   ****     MemoryAllocator::mem_free(memSegment);
 394              		.loc 1 60 45 is_stmt 1
 395              		.cfi_startproc
 396              	.LVL26:
 397 021c 130101FF 		addi	sp,sp,-16
 398              		.cfi_def_cfa_offset 16
 399 0220 23341100 		sd	ra,8(sp)
 400 0224 23308100 		sd	s0,0(sp)
 401              		.cfi_offset 1, -8
 402              		.cfi_offset 8, -16
 403 0228 13040101 		addi	s0,sp,16
 404              		.cfi_def_cfa 8, 0
GAS LISTING /tmp/cclRruRL.s 			page 11


  61:src/PCB.cpp   **** }
 405              		.loc 1 61 5
  61:src/PCB.cpp   **** }
 406              		.loc 1 61 30 is_stmt 0
 407 022c 97000000 		call	_ZN15MemoryAllocator8mem_freeEPv@plt
 407      E7800000 
 408              	.LVL27:
  62:src/PCB.cpp   **** 
 409              		.loc 1 62 1
 410 0234 83308100 		ld	ra,8(sp)
 411              		.cfi_restore 1
 412 0238 03340100 		ld	s0,0(sp)
 413              		.cfi_restore 8
 414              		.cfi_def_cfa 2, 16
 415 023c 13010101 		addi	sp,sp,16
 416              		.cfi_def_cfa_offset 0
 417 0240 67800000 		jr	ra
 418              		.cfi_endproc
 419              	.LFE53:
 421              		.align	2
 422              		.globl	_ZN3PCB14createProccessEPFvvEPv
 424              	_ZN3PCB14createProccessEPFvvEPv:
 425              	.LFB43:
  10:src/PCB.cpp   ****     return new PCB(main, DEFAULT_TIME_SLICE, arguments);
 426              		.loc 1 10 66 is_stmt 1
 427              		.cfi_startproc
 428              		.cfi_personality 0x9b,DW.ref.__gxx_personality_v0
 429              		.cfi_lsda 0x1b,.LLSDA43
 430              	.LVL28:
 431 0244 130101FD 		addi	sp,sp,-48
 432              		.cfi_def_cfa_offset 48
 433 0248 23341102 		sd	ra,40(sp)
 434 024c 23308102 		sd	s0,32(sp)
 435 0250 233C9100 		sd	s1,24(sp)
 436 0254 23382101 		sd	s2,16(sp)
 437 0258 23343101 		sd	s3,8(sp)
 438              		.cfi_offset 1, -8
 439              		.cfi_offset 8, -16
 440              		.cfi_offset 9, -24
 441              		.cfi_offset 18, -32
 442              		.cfi_offset 19, -40
 443 025c 13040103 		addi	s0,sp,48
 444              		.cfi_def_cfa 8, 0
 445 0260 13090500 		mv	s2,a0
 446 0264 93890500 		mv	s3,a1
  11:src/PCB.cpp   **** }
 447              		.loc 1 11 5
  11:src/PCB.cpp   **** }
 448              		.loc 1 11 55 is_stmt 0
 449 0268 13050005 		li	a0,80
 450              	.LVL29:
 451              	.LEHB0:
 452 026c 97000000 		call	_ZN3PCBnwEm
 452      E7800000 
 453              	.LVL30:
 454              	.LEHE0:
 455 0274 93040500 		mv	s1,a0
GAS LISTING /tmp/cclRruRL.s 			page 12


 456 0278 93860900 		mv	a3,s3
 457 027c 13062000 		li	a2,2
 458 0280 93050900 		mv	a1,s2
 459              	.LEHB1:
 460 0284 97000000 		call	_ZN3PCBC1EPFvvEmPv
 460      E7800000 
 461              	.LVL31:
 462              	.LEHE1:
 463 028c 6F000002 		j	.L28
 464              	.L25:
 465 0290 13090500 		mv	s2,a0
 466              	.LVL32:
 467 0294 13850400 		mv	a0,s1
 468 0298 97000000 		call	_ZN3PCBdlEPv
 468      E7800000 
 469              	.LVL33:
 470 02a0 13050900 		mv	a0,s2
 471              	.LEHB2:
 472 02a4 97000000 		call	_Unwind_Resume@plt
 472      E7800000 
 473              	.LVL34:
 474              	.LEHE2:
 475              	.L28:
  12:src/PCB.cpp   **** 
 476              		.loc 1 12 1
 477 02ac 13850400 		mv	a0,s1
 478 02b0 83308102 		ld	ra,40(sp)
 479              		.cfi_restore 1
 480 02b4 03340102 		ld	s0,32(sp)
 481              		.cfi_restore 8
 482              		.cfi_def_cfa 2, 48
 483 02b8 83348101 		ld	s1,24(sp)
 484              		.cfi_restore 9
 485 02bc 03390101 		ld	s2,16(sp)
 486              		.cfi_restore 18
 487              	.LVL35:
 488 02c0 83398100 		ld	s3,8(sp)
 489              		.cfi_restore 19
 490              	.LVL36:
 491 02c4 13010103 		addi	sp,sp,48
 492              		.cfi_def_cfa_offset 0
 493 02c8 67800000 		jr	ra
 494              		.cfi_endproc
 495              	.LFE43:
 496              		.globl	__gxx_personality_v0
 497              		.section	.gcc_except_table,"a",@progbits
 498              	.LLSDA43:
 499 0000 FF       		.byte	0xff
 500 0001 FF       		.byte	0xff
 501 0002 03       		.byte	0x3
 502 0003 27       		.byte	0x27
 503 0004 00000000 		.4byte	.LEHB0-.LFB43
 504 0008 00000000 		.4byte	.LEHE0-.LEHB0
 505 000c 00000000 		.4byte	0
 506 0010 00       		.byte	0
 507 0011 00000000 		.4byte	.LEHB1-.LFB43
 508 0015 00000000 		.4byte	.LEHE1-.LEHB1
GAS LISTING /tmp/cclRruRL.s 			page 13


 509 0019 00000000 		.4byte	.L25-.LFB43
 510 001d 00       		.byte	0
 511 001e 00000000 		.4byte	.LEHB2-.LFB43
 512 0022 00000000 		.4byte	.LEHE2-.LEHB2
 513 0026 00000000 		.4byte	0
 514 002a 00       		.byte	0
 515              		.text
 517              		.align	2
 518              		.globl	_ZN3PCB10getContextEv
 520              	_ZN3PCB10getContextEv:
 521              	.LFB55:
  71:src/PCB.cpp   **** 
  72:src/PCB.cpp   **** size_t *PCB::getContext() {
 522              		.loc 1 72 27 is_stmt 1
 523              		.cfi_startproc
 524 02cc 130101FF 		addi	sp,sp,-16
 525              		.cfi_def_cfa_offset 16
 526 02d0 23348100 		sd	s0,8(sp)
 527              		.cfi_offset 8, -8
 528 02d4 13040101 		addi	s0,sp,16
 529              		.cfi_def_cfa 8, 0
  73:src/PCB.cpp   ****     return running->registers;
 530              		.loc 1 73 5
  74:src/PCB.cpp   **** }
 531              		.loc 1 74 1 is_stmt 0
 532 02d8 97070000 		ld	a5,.LANCHOR0
 532      83B70700 
 533 02e0 03B58701 		ld	a0,24(a5)
 534 02e4 03348100 		ld	s0,8(sp)
 535              		.cfi_restore 8
 536              		.cfi_def_cfa 2, 16
 537 02e8 13010101 		addi	sp,sp,16
 538              		.cfi_def_cfa_offset 0
 539 02ec 67800000 		jr	ra
 540              		.cfi_endproc
 541              	.LFE55:
 543              		.globl	_ZN3PCB16timeSliceCounterE
 544              		.globl	_ZN3PCB7runningE
 545              		.bss
 546              		.align	3
 547              		.set	.LANCHOR0,. + 0
 550              	_ZN3PCB7runningE:
 551 0000 00000000 		.zero	8
 551      00000000 
 554              	_ZN3PCB16timeSliceCounterE:
 555 0008 00000000 		.zero	8
 555      00000000 
 556              		.text
 557              	.Letext0:
 558              		.file 3 "src/../h/hw.h"
 559              		.file 4 "src/../h/Scheduler.h"
 560              		.file 5 "src/../h/MemoryAllocator.h"
 561              		.file 6 "src/../h/kernel.h"
 562              		.file 7 "src/../h/syscall_c.h"
 3600              		.align	3
 3603              	DW.ref.__gxx_personality_v0:
 3604 0000 00000000 		.dword	__gxx_personality_v0
GAS LISTING /tmp/cclRruRL.s 			page 14


 3604      00000000 
 3605              		.ident	"GCC: (Ubuntu 9.4.0-1ubuntu1~20.04) 9.4.0"
 3606              		.section	.note.GNU-stack,"",@progbits
GAS LISTING /tmp/cclRruRL.s 			page 15


DEFINED SYMBOLS
                            *ABS*:0000000000000000 PCB.cpp
     /tmp/cclRruRL.s:9      .text:0000000000000000 _ZN3PCB15proccessWrapperEv
     /tmp/cclRruRL.s:13     .text:0000000000000000 .L0 
     /tmp/cclRruRL.s:14     .text:0000000000000000 .L0 
     /tmp/cclRruRL.s:15     .text:0000000000000004 .L0 
     /tmp/cclRruRL.s:18     .text:000000000000000c .L0 
     /tmp/cclRruRL.s:19     .text:000000000000000c .L0 
     /tmp/cclRruRL.s:21     .text:0000000000000010 .L0 
     /tmp/cclRruRL.s:23     .text:0000000000000010 .L0 
     /tmp/cclRruRL.s:24     .text:0000000000000010 .L0 
     /tmp/cclRruRL.s:27     .text:0000000000000018 .L0 
     /tmp/cclRruRL.s:28     .text:0000000000000018 .L0 
     /tmp/cclRruRL.s:30     .text:0000000000000020 .L0 
     /tmp/cclRruRL.s:33     .text:0000000000000024 .L0 
         src/PCB.cpp:67     .text:0000000000000024 .L0 
     /tmp/cclRruRL.s:39     .text:0000000000000028 .L0 
     /tmp/cclRruRL.s:41     .text:0000000000000028 .L0 
     /tmp/cclRruRL.s:43     .text:000000000000002c .L0 
     /tmp/cclRruRL.s:46     .text:0000000000000030 .L0 
     /tmp/cclRruRL.s:47     .text:0000000000000030 .L0 
     /tmp/cclRruRL.s:50     .text:0000000000000038 .L0 
     /tmp/cclRruRL.s:51     .text:000000000000003c .L0 
     /tmp/cclRruRL.s:53     .text:0000000000000040 .L0 
     /tmp/cclRruRL.s:54     .text:0000000000000040 .L0 
     /tmp/cclRruRL.s:56     .text:0000000000000044 .L0 
     /tmp/cclRruRL.s:58     .text:0000000000000048 .L0 
     /tmp/cclRruRL.s:64     .text:0000000000000048 _ZN3PCB5yieldEv
     /tmp/cclRruRL.s:67     .text:0000000000000048 .L0 
     /tmp/cclRruRL.s:68     .text:0000000000000048 .L0 
     /tmp/cclRruRL.s:69     .text:000000000000004c .L0 
     /tmp/cclRruRL.s:71     .text:0000000000000050 .L0 
     /tmp/cclRruRL.s:73     .text:0000000000000054 .L0 
     /tmp/cclRruRL.s:76     .text:0000000000000054 .L0 
     /tmp/cclRruRL.s:77     .text:0000000000000054 .L0 
     /tmp/cclRruRL.s:78     .text:0000000000000054 .L0 
     /tmp/cclRruRL.s:84     .text:000000000000005c .L0 
         src/PCB.cpp:17     .text:000000000000005c .L0 
     /tmp/cclRruRL.s:90     .text:0000000000000060 .L0 
     /tmp/cclRruRL.s:91     .text:0000000000000064 .L0 
     /tmp/cclRruRL.s:92     .text:0000000000000064 .L0 
     /tmp/cclRruRL.s:94     .text:0000000000000068 .L0 
     /tmp/cclRruRL.s:96     .text:000000000000006c .L0 
     /tmp/cclRruRL.s:102    .text:000000000000006c _ZN3PCB8dispatchEv
     /tmp/cclRruRL.s:105    .text:000000000000006c .L0 
     /tmp/cclRruRL.s:106    .text:000000000000006c .L0 
     /tmp/cclRruRL.s:107    .text:0000000000000070 .L0 
     /tmp/cclRruRL.s:111    .text:000000000000007c .L0 
     /tmp/cclRruRL.s:112    .text:000000000000007c .L0 
     /tmp/cclRruRL.s:113    .text:000000000000007c .L0 
     /tmp/cclRruRL.s:115    .text:0000000000000080 .L0 
     /tmp/cclRruRL.s:117    .text:0000000000000080 .L0 
     /tmp/cclRruRL.s:118    .text:0000000000000080 .L0 
     /tmp/cclRruRL.s:124    .text:0000000000000088 .L0 
     /tmp/cclRruRL.s:125    .text:0000000000000088 .L0 
     /tmp/cclRruRL.s:126    .text:0000000000000088 .L0 
     /tmp/cclRruRL.s:131    .text:000000000000008c .L0 
GAS LISTING /tmp/cclRruRL.s 			page 16


     /tmp/cclRruRL.s:133    .text:0000000000000090 .L0 
     /tmp/cclRruRL.s:135    .text:0000000000000094 .L0 
     /tmp/cclRruRL.s:138    .text:0000000000000098 .L0 
     /tmp/cclRruRL.s:139    .text:0000000000000098 .L0 
     /tmp/cclRruRL.s:142    .text:00000000000000a0 .L0 
     /tmp/cclRruRL.s:144    .text:00000000000000a8 .L0 
     /tmp/cclRruRL.s:145    .text:00000000000000a8 .L0 
     /tmp/cclRruRL.s:147    .text:00000000000000ac .L0 
     /tmp/cclRruRL.s:149    .text:00000000000000b0 .L0 
     /tmp/cclRruRL.s:150    .text:00000000000000b0 .L0 
     /tmp/cclRruRL.s:152    .text:00000000000000b4 .L0 
     /tmp/cclRruRL.s:153    .text:00000000000000b4 .L0 
     /tmp/cclRruRL.s:159    .text:00000000000000c4 .L0 
     /tmp/cclRruRL.s:160    .text:00000000000000c8 .L0 
     /tmp/cclRruRL.s:161    .text:00000000000000c8 .L0 
     /tmp/cclRruRL.s:163    .text:00000000000000cc .L0 
     /tmp/cclRruRL.s:164    .text:00000000000000cc .L0 
     /tmp/cclRruRL.s:166    .text:00000000000000d0 .L0 
     /tmp/cclRruRL.s:169    .text:00000000000000d4 .L0 
     /tmp/cclRruRL.s:173    .text:00000000000000d8 .L0 
     /tmp/cclRruRL.s:175    .text:00000000000000d8 .L0 
     /tmp/cclRruRL.s:176    .text:00000000000000d8 .L0 
     /tmp/cclRruRL.s:182    .text:00000000000000e8 .L0 
     /tmp/cclRruRL.s:183    .text:00000000000000e8 .L0 
     /tmp/cclRruRL.s:188    .text:00000000000000f8 .L0 
     /tmp/cclRruRL.s:189    .text:00000000000000fc .L0 
     /tmp/cclRruRL.s:195    .text:00000000000000fc _ZN3PCBC2EPFvvEmPv
     /tmp/cclRruRL.s:198    .text:00000000000000fc .L0 
     /tmp/cclRruRL.s:200    .text:00000000000000fc .L0 
     /tmp/cclRruRL.s:201    .text:0000000000000100 .L0 
     /tmp/cclRruRL.s:205    .text:000000000000010c .L0 
     /tmp/cclRruRL.s:206    .text:000000000000010c .L0 
     /tmp/cclRruRL.s:207    .text:000000000000010c .L0 
     /tmp/cclRruRL.s:209    .text:0000000000000110 .L0 
     /tmp/cclRruRL.s:213    .text:0000000000000114 .L0 
     /tmp/cclRruRL.s:219    .text:0000000000000128 .L0 
     /tmp/cclRruRL.s:220    .text:0000000000000128 .L0 
     /tmp/cclRruRL.s:222    .text:000000000000012c .L0 
     /tmp/cclRruRL.s:224    .text:0000000000000130 .L0 
     /tmp/cclRruRL.s:226    .text:0000000000000134 .L0 
     /tmp/cclRruRL.s:227    .text:0000000000000134 .L0 
     /tmp/cclRruRL.s:229    .text:0000000000000138 .L0 
     /tmp/cclRruRL.s:230    .text:0000000000000138 .L0 
     /tmp/cclRruRL.s:232    .text:000000000000013c .L0 
     /tmp/cclRruRL.s:233    .text:000000000000013c .L0 
     /tmp/cclRruRL.s:235    .text:0000000000000140 .L0 
     /tmp/cclRruRL.s:236    .text:0000000000000140 .L0 
     /tmp/cclRruRL.s:241    .text:000000000000014c .L0 
     /tmp/cclRruRL.s:243    .text:0000000000000150 .L0 
     /tmp/cclRruRL.s:244    .text:0000000000000150 .L0 
     /tmp/cclRruRL.s:248    .text:000000000000015c .L0 
     /tmp/cclRruRL.s:250    .text:0000000000000160 .L0 
     /tmp/cclRruRL.s:251    .text:0000000000000160 .L0 
     /tmp/cclRruRL.s:254    .text:0000000000000168 .L0 
     /tmp/cclRruRL.s:256    .text:000000000000016c .L0 
     /tmp/cclRruRL.s:258    .text:0000000000000170 .L0 
     /tmp/cclRruRL.s:260    .text:0000000000000174 .L0 
GAS LISTING /tmp/cclRruRL.s 			page 17


     /tmp/cclRruRL.s:263    .text:0000000000000180 .L0 
     /tmp/cclRruRL.s:264    .text:0000000000000180 .L0 
     /tmp/cclRruRL.s:266    .text:0000000000000184 .L0 
     /tmp/cclRruRL.s:267    .text:0000000000000184 .L0 
     /tmp/cclRruRL.s:269    .text:0000000000000188 .L0 
     /tmp/cclRruRL.s:273    .text:000000000000018c .L0 
     /tmp/cclRruRL.s:274    .text:0000000000000190 .L0 
     /tmp/cclRruRL.s:275    .text:0000000000000190 .L0 
     /tmp/cclRruRL.s:277    .text:0000000000000194 .L0 
     /tmp/cclRruRL.s:278    .text:0000000000000194 .L0 
     /tmp/cclRruRL.s:280    .text:0000000000000198 .L0 
     /tmp/cclRruRL.s:283    .text:000000000000019c .L0 
     /tmp/cclRruRL.s:287    .text:00000000000001a0 .L0 
     /tmp/cclRruRL.s:290    .text:00000000000001a0 .L0 
     /tmp/cclRruRL.s:291    .text:00000000000001a0 .L0 
     /tmp/cclRruRL.s:294    .text:00000000000001a4 .L0 
     /tmp/cclRruRL.s:295    .text:00000000000001a8 .L0 
     /tmp/cclRruRL.s:195    .text:00000000000000fc _ZN3PCBC1EPFvvEmPv
     /tmp/cclRruRL.s:303    .text:00000000000001a8 _ZN3PCBD2Ev
     /tmp/cclRruRL.s:306    .text:00000000000001a8 .L0 
     /tmp/cclRruRL.s:308    .text:00000000000001a8 .L0 
     /tmp/cclRruRL.s:309    .text:00000000000001ac .L0 
     /tmp/cclRruRL.s:313    .text:00000000000001b8 .L0 
     /tmp/cclRruRL.s:314    .text:00000000000001b8 .L0 
     /tmp/cclRruRL.s:315    .text:00000000000001b8 .L0 
     /tmp/cclRruRL.s:317    .text:00000000000001bc .L0 
     /tmp/cclRruRL.s:321    .text:00000000000001c0 .L0 
     /tmp/cclRruRL.s:322    .text:00000000000001c0 .L0 
     /tmp/cclRruRL.s:325    .text:00000000000001c4 .L0 
     /tmp/cclRruRL.s:327    .text:00000000000001c8 .L0 
     /tmp/cclRruRL.s:331    .text:00000000000001d0 .L0 
     /tmp/cclRruRL.s:332    .text:00000000000001d0 .L0 
     /tmp/cclRruRL.s:334    .text:00000000000001d4 .L0 
     /tmp/cclRruRL.s:336    .text:00000000000001d8 .L0 
     /tmp/cclRruRL.s:341    .text:00000000000001e0 .L0 
     /tmp/cclRruRL.s:342    .text:00000000000001e4 .L0 
     /tmp/cclRruRL.s:344    .text:00000000000001e8 .L0 
     /tmp/cclRruRL.s:345    .text:00000000000001e8 .L0 
     /tmp/cclRruRL.s:347    .text:00000000000001ec .L0 
     /tmp/cclRruRL.s:350    .text:00000000000001f0 .L0 
     /tmp/cclRruRL.s:352    .text:00000000000001f4 .L0 
     /tmp/cclRruRL.s:303    .text:00000000000001a8 _ZN3PCBD1Ev
     /tmp/cclRruRL.s:360    .text:00000000000001f4 _ZN3PCBnwEm
     /tmp/cclRruRL.s:363    .text:00000000000001f4 .L0 
     /tmp/cclRruRL.s:365    .text:00000000000001f4 .L0 
     /tmp/cclRruRL.s:366    .text:00000000000001f8 .L0 
     /tmp/cclRruRL.s:369    .text:0000000000000200 .L0 
     /tmp/cclRruRL.s:370    .text:0000000000000200 .L0 
     /tmp/cclRruRL.s:372    .text:0000000000000204 .L0 
     /tmp/cclRruRL.s:374    .text:0000000000000204 .L0 
     /tmp/cclRruRL.s:375    .text:0000000000000204 .L0 
     /tmp/cclRruRL.s:378    .text:000000000000020c .L0 
     /tmp/cclRruRL.s:379    .text:0000000000000210 .L0 
     /tmp/cclRruRL.s:381    .text:0000000000000214 .L0 
     /tmp/cclRruRL.s:382    .text:0000000000000214 .L0 
     /tmp/cclRruRL.s:384    .text:0000000000000218 .L0 
     /tmp/cclRruRL.s:386    .text:000000000000021c .L0 
GAS LISTING /tmp/cclRruRL.s 			page 18


     /tmp/cclRruRL.s:392    .text:000000000000021c _ZN3PCBdlEPv
     /tmp/cclRruRL.s:395    .text:000000000000021c .L0 
     /tmp/cclRruRL.s:397    .text:000000000000021c .L0 
     /tmp/cclRruRL.s:398    .text:0000000000000220 .L0 
     /tmp/cclRruRL.s:401    .text:0000000000000228 .L0 
     /tmp/cclRruRL.s:402    .text:0000000000000228 .L0 
     /tmp/cclRruRL.s:404    .text:000000000000022c .L0 
     /tmp/cclRruRL.s:406    .text:000000000000022c .L0 
     /tmp/cclRruRL.s:407    .text:000000000000022c .L0 
     /tmp/cclRruRL.s:410    .text:0000000000000234 .L0 
     /tmp/cclRruRL.s:411    .text:0000000000000238 .L0 
     /tmp/cclRruRL.s:413    .text:000000000000023c .L0 
     /tmp/cclRruRL.s:414    .text:000000000000023c .L0 
     /tmp/cclRruRL.s:416    .text:0000000000000240 .L0 
     /tmp/cclRruRL.s:418    .text:0000000000000244 .L0 
     /tmp/cclRruRL.s:424    .text:0000000000000244 _ZN3PCB14createProccessEPFvvEPv
     /tmp/cclRruRL.s:427    .text:0000000000000244 .L0 
     /tmp/cclRruRL.s:3603   .data.rel.local.DW.ref.__gxx_personality_v0:0000000000000000 DW.ref.__gxx_personality_v0
     /tmp/cclRruRL.s:431    .text:0000000000000244 .L0 
     /tmp/cclRruRL.s:432    .text:0000000000000248 .L0 
     /tmp/cclRruRL.s:438    .text:000000000000025c .L0 
     /tmp/cclRruRL.s:439    .text:000000000000025c .L0 
     /tmp/cclRruRL.s:440    .text:000000000000025c .L0 
     /tmp/cclRruRL.s:441    .text:000000000000025c .L0 
     /tmp/cclRruRL.s:442    .text:000000000000025c .L0 
     /tmp/cclRruRL.s:444    .text:0000000000000260 .L0 
     /tmp/cclRruRL.s:448    .text:0000000000000268 .L0 
     /tmp/cclRruRL.s:449    .text:0000000000000268 .L0 
     /tmp/cclRruRL.s:477    .text:00000000000002ac .L0 
     /tmp/cclRruRL.s:479    .text:00000000000002b4 .L0 
     /tmp/cclRruRL.s:481    .text:00000000000002b8 .L0 
     /tmp/cclRruRL.s:482    .text:00000000000002b8 .L0 
     /tmp/cclRruRL.s:484    .text:00000000000002bc .L0 
     /tmp/cclRruRL.s:486    .text:00000000000002c0 .L0 
     /tmp/cclRruRL.s:489    .text:00000000000002c4 .L0 
     /tmp/cclRruRL.s:492    .text:00000000000002c8 .L0 
     /tmp/cclRruRL.s:494    .text:00000000000002cc .L0 
     /tmp/cclRruRL.s:520    .text:00000000000002cc _ZN3PCB10getContextEv
     /tmp/cclRruRL.s:523    .text:00000000000002cc .L0 
     /tmp/cclRruRL.s:524    .text:00000000000002cc .L0 
     /tmp/cclRruRL.s:525    .text:00000000000002d0 .L0 
     /tmp/cclRruRL.s:527    .text:00000000000002d4 .L0 
     /tmp/cclRruRL.s:529    .text:00000000000002d8 .L0 
     /tmp/cclRruRL.s:531    .text:00000000000002d8 .L0 
     /tmp/cclRruRL.s:532    .text:00000000000002d8 .L0 
     /tmp/cclRruRL.s:535    .text:00000000000002e8 .L0 
     /tmp/cclRruRL.s:536    .text:00000000000002e8 .L0 
     /tmp/cclRruRL.s:538    .text:00000000000002ec .L0 
     /tmp/cclRruRL.s:540    .text:00000000000002f0 .L0 
     /tmp/cclRruRL.s:554    .bss:0000000000000008 _ZN3PCB16timeSliceCounterE
     /tmp/cclRruRL.s:550    .bss:0000000000000000 _ZN3PCB7runningE
     /tmp/cclRruRL.s:547    .bss:0000000000000000 .LANCHOR0
     /tmp/cclRruRL.s:563    .text:00000000000002f0 .L0 
     /tmp/cclRruRL.s:28     .text:0000000000000018 .L0 
     /tmp/cclRruRL.s:118    .text:0000000000000080 .L0 
     /tmp/cclRruRL.s:142    .text:00000000000000a0 .L0 
     /tmp/cclRruRL.s:260    .text:0000000000000174 .L0 
GAS LISTING /tmp/cclRruRL.s 			page 19


     /tmp/cclRruRL.s:532    .text:00000000000002d8 .L0 
     /tmp/cclRruRL.s:136    .text:0000000000000098 .L6
     /tmp/cclRruRL.s:172    .text:00000000000000d8 .L10
     /tmp/cclRruRL.s:180    .text:00000000000000e8 .L7
     /tmp/cclRruRL.s:157    .text:00000000000000c4 .L5
     /tmp/cclRruRL.s:286    .text:00000000000001a0 .L14
     /tmp/cclRruRL.s:270    .text:000000000000018c .L11
     /tmp/cclRruRL.s:329    .text:00000000000001d0 .L16
     /tmp/cclRruRL.s:338    .text:00000000000001e0 .L15
     /tmp/cclRruRL.s:475    .text:00000000000002ac .L28
     /tmp/cclRruRL.s:451    .text:000000000000026c .LEHB0
     /tmp/cclRruRL.s:425    .text:0000000000000244 .LFB43
     /tmp/cclRruRL.s:454    .text:0000000000000274 .LEHE0
     /tmp/cclRruRL.s:459    .text:0000000000000284 .LEHB1
     /tmp/cclRruRL.s:462    .text:000000000000028c .LEHE1
     /tmp/cclRruRL.s:464    .text:0000000000000290 .L25
     /tmp/cclRruRL.s:471    .text:00000000000002a4 .LEHB2
     /tmp/cclRruRL.s:474    .text:00000000000002ac .LEHE2
     /tmp/cclRruRL.s:1969   .debug_abbrev:0000000000000000 .Ldebug_abbrev0
     /tmp/cclRruRL.s:3527   .debug_str:00000000000008fc .LASF171
     /tmp/cclRruRL.s:3539   .debug_str:0000000000000a2d .LASF172
     /tmp/cclRruRL.s:3591   .debug_str:0000000000000ba4 .LASF173
     /tmp/cclRruRL.s:5      .text:0000000000000000 .Ltext0
     /tmp/cclRruRL.s:557    .text:00000000000002f0 .Letext0
     /tmp/cclRruRL.s:3235   .debug_line:0000000000000000 .Ldebug_line0
     /tmp/cclRruRL.s:3335   .debug_str:0000000000000307 .LASF0
     /tmp/cclRruRL.s:3365   .debug_str:00000000000003f1 .LASF1
     /tmp/cclRruRL.s:3473   .debug_str:0000000000000763 .LASF2
     /tmp/cclRruRL.s:3479   .debug_str:000000000000079c .LASF4
     /tmp/cclRruRL.s:3351   .debug_str:000000000000036a .LASF3
     /tmp/cclRruRL.s:3245   .debug_str:000000000000002c .LASF5
     /tmp/cclRruRL.s:3443   .debug_str:000000000000067e .LASF6
     /tmp/cclRruRL.s:3433   .debug_str:0000000000000632 .LASF7
     /tmp/cclRruRL.s:3359   .debug_str:00000000000003cf .LASF8
     /tmp/cclRruRL.s:3315   .debug_str:0000000000000274 .LASF9
     /tmp/cclRruRL.s:3321   .debug_str:00000000000002aa .LASF10
     /tmp/cclRruRL.s:3271   .debug_str:000000000000011d .LASF11
     /tmp/cclRruRL.s:3309   .debug_str:0000000000000256 .LASF12
     /tmp/cclRruRL.s:3275   .debug_str:0000000000000131 .LASF13
     /tmp/cclRruRL.s:3269   .debug_str:000000000000010d .LASF14
     /tmp/cclRruRL.s:3511   .debug_str:0000000000000881 .LASF15
     /tmp/cclRruRL.s:3301   .debug_str:000000000000020d .LASF16
     /tmp/cclRruRL.s:3497   .debug_str:0000000000000825 .LASF17
     /tmp/cclRruRL.s:3517   .debug_str:00000000000008a4 .LASF18
     /tmp/cclRruRL.s:3561   .debug_str:0000000000000acb .LASF20
     /tmp/cclRruRL.s:3295   .debug_str:00000000000001cc .LASF19
     /tmp/cclRruRL.s:3535   .debug_str:00000000000009ed .LASF21
     /tmp/cclRruRL.s:3515   .debug_str:0000000000000894 .LASF22
     /tmp/cclRruRL.s:3353   .debug_str:000000000000037c .LASF23
     /tmp/cclRruRL.s:3305   .debug_str:000000000000022f .LASF26
     /tmp/cclRruRL.s:3595   .debug_str:0000000000000bd5 .LASF28
     /tmp/cclRruRL.s:3323   .debug_str:00000000000002b8 .LASF24
     /tmp/cclRruRL.s:3369   .debug_str:000000000000040a .LASF25
     /tmp/cclRruRL.s:3395   .debug_str:00000000000004de .LASF27
     /tmp/cclRruRL.s:3593   .debug_str:0000000000000bba .LASF29
     /tmp/cclRruRL.s:3519   .debug_str:00000000000008af .LASF30
     /tmp/cclRruRL.s:3577   .debug_str:0000000000000b45 .LASF31
GAS LISTING /tmp/cclRruRL.s 			page 20


     /tmp/cclRruRL.s:3543   .debug_str:0000000000000a42 .LASF32
     /tmp/cclRruRL.s:3529   .debug_str:00000000000009c0 .LASF33
     /tmp/cclRruRL.s:3289   .debug_str:00000000000001a8 .LASF34
     /tmp/cclRruRL.s:3477   .debug_str:0000000000000784 .LASF35
     /tmp/cclRruRL.s:3263   .debug_str:00000000000000db .LASF36
     /tmp/cclRruRL.s:3325   .debug_str:00000000000002c6 .LASF37
     /tmp/cclRruRL.s:3587   .debug_str:0000000000000b8d .LASF38
     /tmp/cclRruRL.s:3249   .debug_str:000000000000003e .LASF39
     /tmp/cclRruRL.s:3493   .debug_str:0000000000000810 .LASF174
     /tmp/cclRruRL.s:3367   .debug_str:0000000000000404 .LASF99
     /tmp/cclRruRL.s:3371   .debug_str:0000000000000424 .LASF101
     /tmp/cclRruRL.s:3525   .debug_str:00000000000008f4 .LASF71
     /tmp/cclRruRL.s:3363   .debug_str:00000000000003ec .LASF40
     /tmp/cclRruRL.s:3581   .debug_str:0000000000000b6f .LASF41
     /tmp/cclRruRL.s:3585   .debug_str:0000000000000b80 .LASF42
     /tmp/cclRruRL.s:3303   .debug_str:0000000000000223 .LASF43
     /tmp/cclRruRL.s:3239   .debug_str:0000000000000007 .LASF44
     /tmp/cclRruRL.s:3345   .debug_str:000000000000033d .LASF76
     /tmp/cclRruRL.s:3331   .debug_str:00000000000002f3 .LASF78
     /tmp/cclRruRL.s:3259   .debug_str:00000000000000b9 .LASF123
     /tmp/cclRruRL.s:3279   .debug_str:0000000000000150 .LASF73
     /tmp/cclRruRL.s:3241   .debug_str:0000000000000017 .LASF45
     /tmp/cclRruRL.s:3491   .debug_str:000000000000080a .LASF46
     /tmp/cclRruRL.s:3559   .debug_str:0000000000000ac2 .LASF47
     /tmp/cclRruRL.s:3361   .debug_str:00000000000003e2 .LASF48
     /tmp/cclRruRL.s:3583   .debug_str:0000000000000b7b .LASF49
     /tmp/cclRruRL.s:3495   .debug_str:000000000000081c .LASF50
     /tmp/cclRruRL.s:3423   .debug_str:00000000000005ea .LASF51
     /tmp/cclRruRL.s:3377   .debug_str:0000000000000453 .LASF52
     /tmp/cclRruRL.s:3565   .debug_str:0000000000000af0 .LASF53
     /tmp/cclRruRL.s:3293   .debug_str:00000000000001be .LASF54
     /tmp/cclRruRL.s:3531   .debug_str:00000000000009d9 .LASF55
     /tmp/cclRruRL.s:3487   .debug_str:00000000000007f0 .LASF67
     /tmp/cclRruRL.s:3291   .debug_str:00000000000001b5 .LASF61
     /tmp/cclRruRL.s:3253   .debug_str:0000000000000076 .LASF63
     /tmp/cclRruRL.s:3337   .debug_str:0000000000000314 .LASF56
     /tmp/cclRruRL.s:3553   .debug_str:0000000000000a91 .LASF58
     /tmp/cclRruRL.s:3339   .debug_str:0000000000000323 .LASF57
     /tmp/cclRruRL.s:3483   .debug_str:00000000000007aa .LASF59
     /tmp/cclRruRL.s:3375   .debug_str:0000000000000449 .LASF60
     /tmp/cclRruRL.s:3449   .debug_str:0000000000000698 .LASF62
     /tmp/cclRruRL.s:3567   .debug_str:0000000000000afd .LASF64
     /tmp/cclRruRL.s:3385   .debug_str:00000000000004a6 .LASF65
     /tmp/cclRruRL.s:3313   .debug_str:000000000000026a .LASF66
     /tmp/cclRruRL.s:3503   .debug_str:0000000000000861 .LASF68
     /tmp/cclRruRL.s:3411   .debug_str:0000000000000593 .LASF69
     /tmp/cclRruRL.s:3573   .debug_str:0000000000000b24 .LASF70
     /tmp/cclRruRL.s:3445   .debug_str:0000000000000685 .LASF72
     /tmp/cclRruRL.s:3251   .debug_str:000000000000005e .LASF74
     /tmp/cclRruRL.s:3349   .debug_str:000000000000035f .LASF75
     /tmp/cclRruRL.s:3549   .debug_str:0000000000000a67 .LASF77
     /tmp/cclRruRL.s:3579   .debug_str:0000000000000b5b .LASF175
     /tmp/cclRruRL.s:3427   .debug_str:00000000000005ff .LASF79
     /tmp/cclRruRL.s:3261   .debug_str:00000000000000cf .LASF176
     /tmp/cclRruRL.s:3557   .debug_str:0000000000000ab9 .LASF80
     /tmp/cclRruRL.s:3571   .debug_str:0000000000000b1f .LASF81
     /tmp/cclRruRL.s:3273   .debug_str:000000000000012c .LASF82
GAS LISTING /tmp/cclRruRL.s 			page 21


     /tmp/cclRruRL.s:3237   .debug_str:0000000000000000 .LASF83
     /tmp/cclRruRL.s:3463   .debug_str:0000000000000700 .LASF84
     /tmp/cclRruRL.s:3355   .debug_str:0000000000000398 .LASF177
     /tmp/cclRruRL.s:3533   .debug_str:00000000000009e3 .LASF85
     /tmp/cclRruRL.s:3537   .debug_str:0000000000000a0c .LASF86
     /tmp/cclRruRL.s:3333   .debug_str:00000000000002fe .LASF87
     /tmp/cclRruRL.s:3397   .debug_str:00000000000004ec .LASF88
     /tmp/cclRruRL.s:3283   .debug_str:000000000000016f .LASF89
     /tmp/cclRruRL.s:3401   .debug_str:0000000000000536 .LASF90
     /tmp/cclRruRL.s:3425   .debug_str:00000000000005f2 .LASF91
     /tmp/cclRruRL.s:3383   .debug_str:0000000000000481 .LASF92
     /tmp/cclRruRL.s:3255   .debug_str:0000000000000089 .LASF93
     /tmp/cclRruRL.s:3563   .debug_str:0000000000000ae2 .LASF94
     /tmp/cclRruRL.s:3521   .debug_str:00000000000008ba .LASF95
     /tmp/cclRruRL.s:3399   .debug_str:000000000000050d .LASF96
     /tmp/cclRruRL.s:3393   .debug_str:00000000000004cf .LASF97
     /tmp/cclRruRL.s:3485   .debug_str:00000000000007c8 .LASF98
     /tmp/cclRruRL.s:3547   .debug_str:0000000000000a55 .LASF100
     /tmp/cclRruRL.s:3523   .debug_str:00000000000008ca .LASF102
     /tmp/cclRruRL.s:3437   .debug_str:0000000000000652 .LASF103
     /tmp/cclRruRL.s:3299   .debug_str:00000000000001e5 .LASF104
     /tmp/cclRruRL.s:3513   .debug_str:000000000000088d .LASF105
     /tmp/cclRruRL.s:3319   .debug_str:000000000000029d .LASF178
     /tmp/cclRruRL.s:3509   .debug_str:0000000000000873 .LASF106
     /tmp/cclRruRL.s:3387   .debug_str:00000000000004ab .LASF107
     /tmp/cclRruRL.s:3455   .debug_str:00000000000006c8 .LASF108
     /tmp/cclRruRL.s:3435   .debug_str:0000000000000645 .LASF109
     /tmp/cclRruRL.s:3459   .debug_str:00000000000006e3 .LASF110
     /tmp/cclRruRL.s:3453   .debug_str:00000000000006be .LASF111
     /tmp/cclRruRL.s:3489   .debug_str:0000000000000801 .LASF112
     /tmp/cclRruRL.s:3327   .debug_str:00000000000002dd .LASF113
     /tmp/cclRruRL.s:3465   .debug_str:000000000000072e .LASF114
     /tmp/cclRruRL.s:3341   .debug_str:0000000000000332 .LASF115
     /tmp/cclRruRL.s:3389   .debug_str:00000000000004b7 .LASF116
     /tmp/cclRruRL.s:3357   .debug_str:00000000000003c6 .LASF117
     /tmp/cclRruRL.s:3439   .debug_str:0000000000000662 .LASF118
     /tmp/cclRruRL.s:3347   .debug_str:000000000000034a .LASF119
     /tmp/cclRruRL.s:3329   .debug_str:00000000000002e8 .LASF120
     /tmp/cclRruRL.s:3429   .debug_str:000000000000060f .LASF121
     /tmp/cclRruRL.s:3541   .debug_str:0000000000000a39 .LASF122
     /tmp/cclRruRL.s:3469   .debug_str:0000000000000742 .LASF124
     /tmp/cclRruRL.s:3467   .debug_str:0000000000000739 .LASF125
     /tmp/cclRruRL.s:3451   .debug_str:00000000000006a8 .LASF126
     /tmp/cclRruRL.s:3447   .debug_str:0000000000000691 .LASF127
     /tmp/cclRruRL.s:3419   .debug_str:00000000000005cb .LASF128
     /tmp/cclRruRL.s:3417   .debug_str:00000000000005c4 .LASF129
     /tmp/cclRruRL.s:3461   .debug_str:00000000000006ec .LASF130
     /tmp/cclRruRL.s:3405   .debug_str:0000000000000570 .LASF131
     /tmp/cclRruRL.s:3501   .debug_str:000000000000084c .LASF132
     /tmp/cclRruRL.s:3409   .debug_str:000000000000058b .LASF133
     /tmp/cclRruRL.s:3373   .debug_str:0000000000000434 .LASF134
     /tmp/cclRruRL.s:3379   .debug_str:000000000000045e .LASF135
     /tmp/cclRruRL.s:3403   .debug_str:000000000000055b .LASF136
     /tmp/cclRruRL.s:3589   .debug_str:0000000000000b9c .LASF137
     /tmp/cclRruRL.s:3267   .debug_str:00000000000000f8 .LASF138
     /tmp/cclRruRL.s:3505   .debug_str:0000000000000866 .LASF139
     /tmp/cclRruRL.s:3441   .debug_str:000000000000066a .LASF140
GAS LISTING /tmp/cclRruRL.s 			page 22


     /tmp/cclRruRL.s:3481   .debug_str:00000000000007a3 .LASF141
     /tmp/cclRruRL.s:3287   .debug_str:0000000000000194 .LASF142
     /tmp/cclRruRL.s:3297   .debug_str:00000000000001df .LASF143
     /tmp/cclRruRL.s:3475   .debug_str:0000000000000771 .LASF144
     /tmp/cclRruRL.s:3343   .debug_str:0000000000000337 .LASF145
     /tmp/cclRruRL.s:3415   .debug_str:00000000000005b1 .LASF146
     /tmp/cclRruRL.s:3247   .debug_str:0000000000000033 .LASF147
     /tmp/cclRruRL.s:3317   .debug_str:0000000000000284 .LASF148
     /tmp/cclRruRL.s:3471   .debug_str:0000000000000758 .LASF149
     /tmp/cclRruRL.s:3413   .debug_str:0000000000000598 .LASF150
     /tmp/cclRruRL.s:3555   .debug_str:0000000000000aaf .LASF151
     /tmp/cclRruRL.s:3307   .debug_str:000000000000023f .LASF152
     /tmp/cclRruRL.s:3551   .debug_str:0000000000000a87 .LASF153
     /tmp/cclRruRL.s:3257   .debug_str:00000000000000a2 .LASF154
     /tmp/cclRruRL.s:3265   .debug_str:00000000000000e7 .LASF155
     /tmp/cclRruRL.s:3381   .debug_str:0000000000000466 .LASF156
     /tmp/cclRruRL.s:521    .text:00000000000002cc .LFB55
     /tmp/cclRruRL.s:541    .text:00000000000002f0 .LFE55
     /tmp/cclRruRL.s:10     .text:0000000000000000 .LFB54
     /tmp/cclRruRL.s:59     .text:0000000000000048 .LFE54
     /tmp/cclRruRL.s:3040   .debug_loc:0000000000000000 .LLST0
     /tmp/cclRruRL.s:25     .text:0000000000000018 .LVL0
     /tmp/cclRruRL.s:48     .text:0000000000000038 .LVL3
     /tmp/cclRruRL.s:393    .text:000000000000021c .LFB53
     /tmp/cclRruRL.s:419    .text:0000000000000244 .LFE53
     /tmp/cclRruRL.s:3457   .debug_str:00000000000006d8 .LASF157
     /tmp/cclRruRL.s:3047   .debug_loc:0000000000000023 .LLST9
     /tmp/cclRruRL.s:408    .text:0000000000000234 .LVL27
     /tmp/cclRruRL.s:361    .text:00000000000001f4 .LFB52
     /tmp/cclRruRL.s:387    .text:000000000000021c .LFE52
     /tmp/cclRruRL.s:3061   .debug_loc:000000000000005c .LLST8
     /tmp/cclRruRL.s:376    .text:000000000000020c .LVL25
     /tmp/cclRruRL.s:3311   .debug_str:0000000000000265 .LASF158
     /tmp/cclRruRL.s:3243   .debug_str:0000000000000022 .LASF159
     /tmp/cclRruRL.s:3281   .debug_str:0000000000000163 .LASF163
     /tmp/cclRruRL.s:304    .text:00000000000001a8 .LFB50
     /tmp/cclRruRL.s:353    .text:00000000000001f4 .LFE50
     /tmp/cclRruRL.s:3075   .debug_loc:0000000000000095 .LLST7
     /tmp/cclRruRL.s:328    .text:00000000000001d0 .LVL21
     /tmp/cclRruRL.s:337    .text:00000000000001e0 .LVL22
     /tmp/cclRruRL.s:3507   .debug_str:000000000000086d .LASF160
     /tmp/cclRruRL.s:3421   .debug_str:00000000000005df .LASF161
     /tmp/cclRruRL.s:3277   .debug_str:0000000000000141 .LASF162
     /tmp/cclRruRL.s:3391   .debug_str:00000000000004bc .LASF164
     /tmp/cclRruRL.s:196    .text:00000000000000fc .LFB47
     /tmp/cclRruRL.s:296    .text:00000000000001a8 .LFE47
     /tmp/cclRruRL.s:3093   .debug_loc:00000000000000e1 .LLST3
     /tmp/cclRruRL.s:3115   .debug_loc:0000000000000140 .LLST4
     /tmp/cclRruRL.s:3129   .debug_loc:0000000000000179 .LLST5
     /tmp/cclRruRL.s:3143   .debug_loc:00000000000001b2 .LLST6
     /tmp/cclRruRL.s:239    .text:000000000000014c .LVL15
     /tmp/cclRruRL.s:246    .text:000000000000015c .LVL16
     /tmp/cclRruRL.s:103    .text:000000000000006c .LFB45
     /tmp/cclRruRL.s:190    .text:00000000000000fc .LFE45
     /tmp/cclRruRL.s:3157   .debug_loc:00000000000001eb .LLST1
     /tmp/cclRruRL.s:121    .text:0000000000000088 .LBB4
     /tmp/cclRruRL.s:129    .text:000000000000008c .LBE4
GAS LISTING /tmp/cclRruRL.s 			page 23


     /tmp/cclRruRL.s:3168   .debug_loc:0000000000000221 .LLST2
     /tmp/cclRruRL.s:140    .text:00000000000000a0 .LVL7
     /tmp/cclRruRL.s:156    .text:00000000000000c4 .LVL8
     /tmp/cclRruRL.s:178    .text:00000000000000e4 .LVL11
     /tmp/cclRruRL.s:186    .text:00000000000000f8 .LVL12
     /tmp/cclRruRL.s:65     .text:0000000000000048 .LFB44
     /tmp/cclRruRL.s:97     .text:000000000000006c .LFE44
     /tmp/cclRruRL.s:3545   .debug_str:0000000000000a50 .LASF165
     /tmp/cclRruRL.s:495    .text:00000000000002cc .LFE43
     /tmp/cclRruRL.s:3175   .debug_loc:0000000000000244 .LLST10
     /tmp/cclRruRL.s:3431   .debug_str:0000000000000628 .LASF166
     /tmp/cclRruRL.s:3204   .debug_loc:00000000000002b9 .LLST11
     /tmp/cclRruRL.s:453    .text:0000000000000274 .LVL30
     /tmp/cclRruRL.s:461    .text:000000000000028c .LVL31
     /tmp/cclRruRL.s:469    .text:00000000000002a0 .LVL33
     /tmp/cclRruRL.s:473    .text:00000000000002ac .LVL34
     /tmp/cclRruRL.s:3499   .debug_str:000000000000083b .LASF179
     /tmp/cclRruRL.s:3569   .debug_str:0000000000000b18 .LASF167
     /tmp/cclRruRL.s:3407   .debug_str:0000000000000578 .LASF169
     /tmp/cclRruRL.s:3575   .debug_str:0000000000000b36 .LASF168
     /tmp/cclRruRL.s:3285   .debug_str:000000000000017c .LASF170
     /tmp/cclRruRL.s:31     .text:0000000000000024 .LVL1
     /tmp/cclRruRL.s:44     .text:0000000000000030 .LVL2
     /tmp/cclRruRL.s:396    .text:000000000000021c .LVL26
     /tmp/cclRruRL.s:364    .text:00000000000001f4 .LVL24
     /tmp/cclRruRL.s:307    .text:00000000000001a8 .LVL19
     /tmp/cclRruRL.s:323    .text:00000000000001c4 .LVL20
     /tmp/cclRruRL.s:348    .text:00000000000001ec .LVL23
     /tmp/cclRruRL.s:199    .text:00000000000000fc .LVL13
     /tmp/cclRruRL.s:237    .text:0000000000000144 .LVL14
     /tmp/cclRruRL.s:281    .text:0000000000000198 .LVL17
     /tmp/cclRruRL.s:285    .text:00000000000001a0 .LVL18
     /tmp/cclRruRL.s:119    .text:0000000000000088 .LVL5
     /tmp/cclRruRL.s:167    .text:00000000000000d0 .LVL9
     /tmp/cclRruRL.s:171    .text:00000000000000d8 .LVL10
     /tmp/cclRruRL.s:127    .text:000000000000008c .LVL6
     /tmp/cclRruRL.s:430    .text:0000000000000244 .LVL28
     /tmp/cclRruRL.s:450    .text:000000000000026c .LVL29
     /tmp/cclRruRL.s:466    .text:0000000000000294 .LVL32
     /tmp/cclRruRL.s:487    .text:00000000000002c0 .LVL35
     /tmp/cclRruRL.s:490    .text:00000000000002c4 .LVL36
     /tmp/cclRruRL.s:564    .debug_info:0000000000000000 .Ldebug_info0
     /tmp/cclRruRL.s:498    .gcc_except_table:0000000000000000 .LLSDA43

UNDEFINED SYMBOLS
_ZN6Kernel10popSppSpieEv
_Z11thread_exitv
_ZN9Scheduler3getEv
_ZN3PCB14switchContext1EPmS0_
_ZN9Scheduler3putEP3PCB
_ZN3PCB14switchContext2EPmS0_
_ZN15MemoryAllocator9mem_allocEm
_ZdaPv
_ZN15MemoryAllocator8mem_freeEPv
_Unwind_Resume
__gxx_personality_v0
