GAS LISTING /tmp/ccIGYRNv.s 			page 1


   1              		.file	"PCB.cpp"
   2              		.option pic
   3              		.option norelax
   4              		.text
   5              	.Ltext0:
   6              		.align	2
   7              		.globl	_ZN3PCB15proccessWrapperEv
   9              	_ZN3PCB15proccessWrapperEv:
  10              	.LFB39:
  11              		.file 1 "src/PCB.cpp"
   1:src/PCB.cpp   **** #include "../h/PCB.h"
   2:src/PCB.cpp   **** #include "../h/Scheduler.h"
   3:src/PCB.cpp   **** #include "../h/MemoryAllocator.h"
   4:src/PCB.cpp   **** #include "../h/kernel.h"
   5:src/PCB.cpp   **** #include "../h/syscall_c.h"
   6:src/PCB.cpp   **** 
   7:src/PCB.cpp   **** PCB* PCB::running = nullptr;
   8:src/PCB.cpp   **** size_t PCB::timeSliceCounter = 0;
   9:src/PCB.cpp   **** 
  10:src/PCB.cpp   **** PCB *PCB::createProccess(PCB::processMain main, void* arguments) {
  11:src/PCB.cpp   ****     return new PCB(main, DEFAULT_TIME_SLICE, arguments);
  12:src/PCB.cpp   **** }
  13:src/PCB.cpp   **** 
  14:src/PCB.cpp   **** void PCB::yield() {
  15:src/PCB.cpp   ****     size_t code = Kernel::sysCallCodes::thread_dispatch;
  16:src/PCB.cpp   ****     asm volatile("mv a0, %0" : : "r" (code));
  17:src/PCB.cpp   ****     asm volatile("ecall"); // prelazimo u prekidnu rutinu koja cuva registre i vrsi promenu konteks
  18:src/PCB.cpp   **** }
  19:src/PCB.cpp   **** 
  20:src/PCB.cpp   **** void PCB::dispatch() {
  21:src/PCB.cpp   ****     PCB* old = running;
  22:src/PCB.cpp   ****     if(!old->isFinished() && !old->blocked) { // ako se nije zavrsio i nije blokiran
  23:src/PCB.cpp   ****         Scheduler::put(old);
  24:src/PCB.cpp   ****     }
  25:src/PCB.cpp   ****     running = Scheduler::get();
  26:src/PCB.cpp   **** 
  27:src/PCB.cpp   ****     if(PCB::running->firstCall) {
  28:src/PCB.cpp   ****         PCB::running->firstCall = false;
  29:src/PCB.cpp   ****         switchContext1(old->registers, running->registers);
  30:src/PCB.cpp   ****     }
  31:src/PCB.cpp   ****     else {
  32:src/PCB.cpp   ****         switchContext2(old->registers, running->registers);
  33:src/PCB.cpp   ****     }
  34:src/PCB.cpp   **** 
  35:src/PCB.cpp   **** }
  36:src/PCB.cpp   **** 
  37:src/PCB.cpp   **** // main_ == nullptr ako smo u glavnom procesu
  38:src/PCB.cpp   **** PCB::PCB(PCB::processMain main_, size_t timeSlice_, void* mainArguments_) {
  39:src/PCB.cpp   ****     finished = blocked = semDeleted = false;
  40:src/PCB.cpp   ****     main = main_;
  41:src/PCB.cpp   ****     timeSlice = timeSlice_;
  42:src/PCB.cpp   ****     mainArguments = mainArguments_;
  43:src/PCB.cpp   ****     registers = (size_t*)MemoryAllocator::mem_alloc(33*sizeof(size_t)); // mozemo direktno jer se z
  44:src/PCB.cpp   ****     sysStack = (size_t*)MemoryAllocator::mem_alloc(DEFAULT_STACK_SIZE*sizeof(size_t));
  45:src/PCB.cpp   ****     registers[0] = (size_t)&sysStack[DEFAULT_STACK_SIZE]; // ssp postavljamo na vrh steka
  46:src/PCB.cpp   ****     registers[32] = (size_t)&proccessWrapper; // u ra cuvamo proccessWrapper
  47:src/PCB.cpp   ****     stack = nullptr; // stek pravimo u sistemskom pozivu thread_create
GAS LISTING /tmp/ccIGYRNv.s 			page 2


  48:src/PCB.cpp   ****     if(main == nullptr) firstCall = false; //  jer je glavni proces vec pokrenut, necemo ici u proc
  49:src/PCB.cpp   **** }
  50:src/PCB.cpp   **** 
  51:src/PCB.cpp   **** PCB::~PCB() {
  52:src/PCB.cpp   ****     delete[] stack;
  53:src/PCB.cpp   ****     delete[] sysStack;
  54:src/PCB.cpp   **** }
  55:src/PCB.cpp   **** 
  56:src/PCB.cpp   **** void *PCB::operator new(size_t size) {
  57:src/PCB.cpp   ****     return MemoryAllocator::mem_alloc(size);
  58:src/PCB.cpp   **** }
  59:src/PCB.cpp   **** 
  60:src/PCB.cpp   **** void PCB::operator delete(void *memSegment) {
  61:src/PCB.cpp   ****     MemoryAllocator::mem_free(memSegment);
  62:src/PCB.cpp   **** }
  63:src/PCB.cpp   **** 
  64:src/PCB.cpp   **** void PCB::proccessWrapper() { // iz prekidne rutine skacemo ovde kada prvi put ulazimo u nit
  12              		.loc 1 64 29
  13              		.cfi_startproc
  14 0000 130101FF 		addi	sp,sp,-16
  15              		.cfi_def_cfa_offset 16
  16 0004 23341100 		sd	ra,8(sp)
  17 0008 23308100 		sd	s0,0(sp)
  18              		.cfi_offset 1, -8
  19              		.cfi_offset 8, -16
  20 000c 13040101 		addi	s0,sp,16
  21              		.cfi_def_cfa 8, 0
  65:src/PCB.cpp   ****     Kernel::popSppSpie(); // izlazimo iz prekidne rutine
  22              		.loc 1 65 5
  23              		.loc 1 65 23 is_stmt 0
  24 0010 97000000 		call	_ZN6Kernel10popSppSpieEv@plt
  24      E7800000 
  25              	.LVL0:
  66:src/PCB.cpp   ****     void* arg = PCB::running->mainArguments;
  26              		.loc 1 66 5 is_stmt 1
  27              		.loc 1 66 31 is_stmt 0
  28 0018 97070000 		ld	a5,.LANCHOR0
  28      83B70700 
  29              		.loc 1 66 11
  30 0020 03B70703 		ld	a4,48(a5)
  31              	.LVL1:
  67:src/PCB.cpp   ****     asm volatile("mv a0, %0" : : "r" (arg)); // u a0 postavljamo argument glavne funkcije procesa
  32              		.loc 1 67 5 is_stmt 1
  33              		.loc 1 67 44 is_stmt 0
  34              	#APP
  35              	# 67 "src/PCB.cpp" 1
  68              	    running->main();
  36              		mv a0, a4
  37              	# 0 "" 2
  38              		.loc 1 68 5 is_stmt 1
  39              		.loc 1 68 14 is_stmt 0
  40              	#NO_APP
  41 0028 83B70702 		ld	a5,32(a5)
  42              		.loc 1 68 18
  43 002c E7800700 		jalr	a5
  44              	.LVL2:
  69:src/PCB.cpp   ****     thread_exit();
GAS LISTING /tmp/ccIGYRNv.s 			page 3


  45              		.loc 1 69 5 is_stmt 1
  46              		.loc 1 69 16 is_stmt 0
  47 0030 97000000 		call	_Z11thread_exitv@plt
  47      E7800000 
  48              	.LVL3:
  70:src/PCB.cpp   **** }
  49              		.loc 1 70 1
  50 0038 83308100 		ld	ra,8(sp)
  51              		.cfi_restore 1
  52 003c 03340100 		ld	s0,0(sp)
  53              		.cfi_restore 8
  54              		.cfi_def_cfa 2, 16
  55 0040 13010101 		addi	sp,sp,16
  56              		.cfi_def_cfa_offset 0
  57 0044 67800000 		jr	ra
  58              		.cfi_endproc
  59              	.LFE39:
  61              		.align	2
  62              		.globl	_ZN3PCB5yieldEv
  64              	_ZN3PCB5yieldEv:
  65              	.LFB29:
  14:src/PCB.cpp   ****     size_t code = Kernel::sysCallCodes::thread_dispatch;
  66              		.loc 1 14 19 is_stmt 1
  67              		.cfi_startproc
  68 0048 130101FF 		addi	sp,sp,-16
  69              		.cfi_def_cfa_offset 16
  70 004c 23348100 		sd	s0,8(sp)
  71              		.cfi_offset 8, -8
  72 0050 13040101 		addi	s0,sp,16
  73              		.cfi_def_cfa 8, 0
  15:src/PCB.cpp   ****     asm volatile("mv a0, %0" : : "r" (code));
  74              		.loc 1 15 5
  75              	.LVL4:
  16:src/PCB.cpp   ****     asm volatile("ecall"); // prelazimo u prekidnu rutinu koja cuva registre i vrsi promenu konteks
  76              		.loc 1 16 5
  16:src/PCB.cpp   ****     asm volatile("ecall"); // prelazimo u prekidnu rutinu koja cuva registre i vrsi promenu konteks
  77              		.loc 1 16 45 is_stmt 0
  78 0054 93073001 		li	a5,19
  79              	#APP
  80              	# 16 "src/PCB.cpp" 1
  17:src/PCB.cpp   **** }
  81              		mv a0, a5
  82              	# 0 "" 2
  83              		.loc 1 17 5 is_stmt 1
  17:src/PCB.cpp   **** }
  84              		.loc 1 17 26 is_stmt 0
  85              	# 17 "src/PCB.cpp" 1
  18:src/PCB.cpp   **** 
  86              		ecall
  87              	# 0 "" 2
  88              		.loc 1 18 1
  89              	#NO_APP
  90 0060 03348100 		ld	s0,8(sp)
  91              		.cfi_restore 8
  92              		.cfi_def_cfa 2, 16
  93 0064 13010101 		addi	sp,sp,16
  94              		.cfi_def_cfa_offset 0
GAS LISTING /tmp/ccIGYRNv.s 			page 4


  95 0068 67800000 		jr	ra
  96              		.cfi_endproc
  97              	.LFE29:
  99              		.align	2
 100              		.globl	_ZN3PCB8dispatchEv
 102              	_ZN3PCB8dispatchEv:
 103              	.LFB30:
  20:src/PCB.cpp   ****     PCB* old = running;
 104              		.loc 1 20 22 is_stmt 1
 105              		.cfi_startproc
 106 006c 130101FE 		addi	sp,sp,-32
 107              		.cfi_def_cfa_offset 32
 108 0070 233C1100 		sd	ra,24(sp)
 109 0074 23388100 		sd	s0,16(sp)
 110 0078 23349100 		sd	s1,8(sp)
 111              		.cfi_offset 1, -8
 112              		.cfi_offset 8, -16
 113              		.cfi_offset 9, -24
 114 007c 13040102 		addi	s0,sp,32
 115              		.cfi_def_cfa 8, 0
  21:src/PCB.cpp   ****     if(!old->isFinished() && !old->blocked) { // ako se nije zavrsio i nije blokiran
 116              		.loc 1 21 5
  21:src/PCB.cpp   ****     if(!old->isFinished() && !old->blocked) { // ako se nije zavrsio i nije blokiran
 117              		.loc 1 21 10 is_stmt 0
 118 0080 97040000 		ld	s1,.LANCHOR0
 118      83B40400 
 119              	.LVL5:
  22:src/PCB.cpp   ****         Scheduler::put(old);
 120              		.loc 1 22 5 is_stmt 1
 121              	.LBB4:
 122              	.LBB5:
 123              		.file 2 "src/../h/PCB.h"
   1:src/../h/PCB.h **** #ifndef PCB_H
   2:src/../h/PCB.h **** #define PCB_H
   3:src/../h/PCB.h **** 
   4:src/../h/PCB.h **** #include "hw.h"
   5:src/../h/PCB.h **** 
   6:src/../h/PCB.h **** extern "C" void interruptHandler();
   7:src/../h/PCB.h **** 
   8:src/../h/PCB.h **** class PCB {
   9:src/../h/PCB.h **** friend class Scheduler;
  10:src/../h/PCB.h **** friend class SCB;
  11:src/../h/PCB.h **** friend void interruptHandler();
  12:src/../h/PCB.h **** friend class Kernel;
  13:src/../h/PCB.h **** public:
  14:src/../h/PCB.h ****     // vraca true ako se proces zavrsio, false ako nije
  15:src/../h/PCB.h ****     bool isFinished() const {
  16:src/../h/PCB.h ****         return finished;
 124              		.loc 2 16 9
 125              		.loc 2 16 16 is_stmt 0
 126 0088 83C78402 		lbu	a5,40(s1)
 127              	.LVL6:
 128              	.LBE5:
 129              	.LBE4:
  22:src/PCB.cpp   ****         Scheduler::put(old);
 130              		.loc 1 22 27
 131 008c 63960700 		bnez	a5,.L6
GAS LISTING /tmp/ccIGYRNv.s 			page 5


  22:src/PCB.cpp   ****         Scheduler::put(old);
 132              		.loc 1 22 36 discriminator 1
 133 0090 83C79402 		lbu	a5,41(s1)
  22:src/PCB.cpp   ****         Scheduler::put(old);
 134              		.loc 1 22 27 discriminator 1
 135 0094 63820704 		beqz	a5,.L10
 136              	.L6:
  25:src/PCB.cpp   **** 
 137              		.loc 1 25 5 is_stmt 1
  25:src/PCB.cpp   **** 
 138              		.loc 1 25 29 is_stmt 0
 139 0098 97000000 		call	_ZN9Scheduler3getEv@plt
 139      E7800000 
 140              	.LVL7:
  25:src/PCB.cpp   **** 
 141              		.loc 1 25 13
 142 00a0 97070000 		sd	a0,.LANCHOR0,a5
 142      23B0A700 
  27:src/PCB.cpp   ****         PCB::running->firstCall = false;
 143              		.loc 1 27 5 is_stmt 1
  27:src/PCB.cpp   ****         PCB::running->firstCall = false;
 144              		.loc 1 27 22 is_stmt 0
 145 00a8 83470504 		lbu	a5,64(a0)
  27:src/PCB.cpp   ****         PCB::running->firstCall = false;
 146              		.loc 1 27 5
 147 00ac 638E0702 		beqz	a5,.L7
  28:src/PCB.cpp   ****         switchContext1(old->registers, running->registers);
 148              		.loc 1 28 9 is_stmt 1
  28:src/PCB.cpp   ****         switchContext1(old->registers, running->registers);
 149              		.loc 1 28 33 is_stmt 0
 150 00b0 23000504 		sb	zero,64(a0)
  29:src/PCB.cpp   ****     }
 151              		.loc 1 29 9 is_stmt 1
  29:src/PCB.cpp   ****     }
 152              		.loc 1 29 23 is_stmt 0
 153 00b4 83358501 		ld	a1,24(a0)
 154 00b8 03B58401 		ld	a0,24(s1)
 155 00bc 97000000 		call	_ZN3PCB14switchContext1EPmS0_@plt
 155      E7800000 
 156              	.LVL8:
 157              	.L5:
  35:src/PCB.cpp   **** 
 158              		.loc 1 35 1
 159 00c4 83308101 		ld	ra,24(sp)
 160              		.cfi_remember_state
 161              		.cfi_restore 1
 162 00c8 03340101 		ld	s0,16(sp)
 163              		.cfi_restore 8
 164              		.cfi_def_cfa 2, 32
 165 00cc 83348100 		ld	s1,8(sp)
 166              		.cfi_restore 9
 167              	.LVL9:
 168 00d0 13010102 		addi	sp,sp,32
 169              		.cfi_def_cfa_offset 0
 170 00d4 67800000 		jr	ra
 171              	.LVL10:
 172              	.L10:
GAS LISTING /tmp/ccIGYRNv.s 			page 6


 173              		.cfi_restore_state
  23:src/PCB.cpp   ****     }
 174              		.loc 1 23 9 is_stmt 1
  23:src/PCB.cpp   ****     }
 175              		.loc 1 23 23 is_stmt 0
 176 00d8 13850400 		mv	a0,s1
 177 00dc 97000000 		call	_ZN9Scheduler3putEP3PCB@plt
 177      E7800000 
 178              	.LVL11:
 179 00e4 6FF05FFB 		j	.L6
 180              	.L7:
  32:src/PCB.cpp   ****     }
 181              		.loc 1 32 9 is_stmt 1
  32:src/PCB.cpp   ****     }
 182              		.loc 1 32 23 is_stmt 0
 183 00e8 83358501 		ld	a1,24(a0)
 184 00ec 03B58401 		ld	a0,24(s1)
 185 00f0 97000000 		call	_ZN3PCB14switchContext2EPmS0_@plt
 185      E7800000 
 186              	.LVL12:
  35:src/PCB.cpp   **** 
 187              		.loc 1 35 1
 188 00f8 6FF0DFFC 		j	.L5
 189              		.cfi_endproc
 190              	.LFE30:
 192              		.align	2
 193              		.globl	_ZN3PCBC2EPFvvEmPv
 195              	_ZN3PCBC2EPFvvEmPv:
 196              	.LFB32:
  38:src/PCB.cpp   ****     finished = blocked = semDeleted = false;
 197              		.loc 1 38 1 is_stmt 1
 198              		.cfi_startproc
 199              	.LVL13:
 200 00fc 130101FE 		addi	sp,sp,-32
 201              		.cfi_def_cfa_offset 32
 202 0100 233C1100 		sd	ra,24(sp)
 203 0104 23388100 		sd	s0,16(sp)
 204 0108 23349100 		sd	s1,8(sp)
 205              		.cfi_offset 1, -8
 206              		.cfi_offset 8, -16
 207              		.cfi_offset 9, -24
 208 010c 13040102 		addi	s0,sp,32
 209              		.cfi_def_cfa 8, 0
 210 0110 93040500 		mv	s1,a0
 211              	.LBB6:
  38:src/PCB.cpp   ****     finished = blocked = semDeleted = false;
 212              		.loc 1 38 73 is_stmt 0
 213 0114 23300500 		sd	zero,0(a0)
 214 0118 233C0500 		sd	zero,24(a0)
 215 011c 93071000 		li	a5,1
 216 0120 2300F504 		sb	a5,64(a0)
  39:src/PCB.cpp   ****     main = main_;
 217              		.loc 1 39 5 is_stmt 1
  39:src/PCB.cpp   ****     main = main_;
 218              		.loc 1 39 37 is_stmt 0
 219 0124 23050502 		sb	zero,42(a0)
  39:src/PCB.cpp   ****     main = main_;
GAS LISTING /tmp/ccIGYRNv.s 			page 7


 220              		.loc 1 39 24
 221 0128 A3040502 		sb	zero,41(a0)
  39:src/PCB.cpp   ****     main = main_;
 222              		.loc 1 39 14
 223 012c 23040502 		sb	zero,40(a0)
  40:src/PCB.cpp   ****     timeSlice = timeSlice_;
 224              		.loc 1 40 5 is_stmt 1
  40:src/PCB.cpp   ****     timeSlice = timeSlice_;
 225              		.loc 1 40 10 is_stmt 0
 226 0130 2330B502 		sd	a1,32(a0)
  41:src/PCB.cpp   ****     mainArguments = mainArguments_;
 227              		.loc 1 41 5 is_stmt 1
  41:src/PCB.cpp   ****     mainArguments = mainArguments_;
 228              		.loc 1 41 15 is_stmt 0
 229 0134 233CC502 		sd	a2,56(a0)
  42:src/PCB.cpp   ****     registers = (size_t*)MemoryAllocator::mem_alloc(33*sizeof(size_t)); // mozemo direktno jer se z
 230              		.loc 1 42 5 is_stmt 1
  42:src/PCB.cpp   ****     registers = (size_t*)MemoryAllocator::mem_alloc(33*sizeof(size_t)); // mozemo direktno jer se z
 231              		.loc 1 42 19 is_stmt 0
 232 0138 2338D502 		sd	a3,48(a0)
  43:src/PCB.cpp   ****     sysStack = (size_t*)MemoryAllocator::mem_alloc(DEFAULT_STACK_SIZE*sizeof(size_t));
 233              		.loc 1 43 5 is_stmt 1
  43:src/PCB.cpp   ****     sysStack = (size_t*)MemoryAllocator::mem_alloc(DEFAULT_STACK_SIZE*sizeof(size_t));
 234              		.loc 1 43 52 is_stmt 0
 235 013c 13058010 		li	a0,264
 236              	.LVL14:
 237 0140 97000000 		call	_ZN15MemoryAllocator9mem_allocEm@plt
 237      E7800000 
 238              	.LVL15:
  43:src/PCB.cpp   ****     sysStack = (size_t*)MemoryAllocator::mem_alloc(DEFAULT_STACK_SIZE*sizeof(size_t));
 239              		.loc 1 43 15
 240 0148 23BCA400 		sd	a0,24(s1)
  44:src/PCB.cpp   ****     registers[0] = (size_t)&sysStack[DEFAULT_STACK_SIZE]; // ssp postavljamo na vrh steka
 241              		.loc 1 44 5 is_stmt 1
  44:src/PCB.cpp   ****     registers[0] = (size_t)&sysStack[DEFAULT_STACK_SIZE]; // ssp postavljamo na vrh steka
 242              		.loc 1 44 51 is_stmt 0
 243 014c 37850000 		li	a0,32768
 244 0150 97000000 		call	_ZN15MemoryAllocator9mem_allocEm@plt
 244      E7800000 
 245              	.LVL16:
  44:src/PCB.cpp   ****     registers[0] = (size_t)&sysStack[DEFAULT_STACK_SIZE]; // ssp postavljamo na vrh steka
 246              		.loc 1 44 14
 247 0158 23B8A400 		sd	a0,16(s1)
  45:src/PCB.cpp   ****     registers[32] = (size_t)&proccessWrapper; // u ra cuvamo proccessWrapper
 248              		.loc 1 45 5 is_stmt 1
  45:src/PCB.cpp   ****     registers[32] = (size_t)&proccessWrapper; // u ra cuvamo proccessWrapper
 249              		.loc 1 45 28 is_stmt 0
 250 015c B7870000 		li	a5,32768
 251 0160 3305F500 		add	a0,a0,a5
  45:src/PCB.cpp   ****     registers[32] = (size_t)&proccessWrapper; // u ra cuvamo proccessWrapper
 252              		.loc 1 45 5
 253 0164 83B78401 		ld	a5,24(s1)
  45:src/PCB.cpp   ****     registers[32] = (size_t)&proccessWrapper; // u ra cuvamo proccessWrapper
 254              		.loc 1 45 18
 255 0168 23B0A700 		sd	a0,0(a5)
  46:src/PCB.cpp   ****     stack = nullptr; // stek pravimo u sistemskom pozivu thread_create
 256              		.loc 1 46 5 is_stmt 1
GAS LISTING /tmp/ccIGYRNv.s 			page 8


 257 016c 83B78401 		ld	a5,24(s1)
  46:src/PCB.cpp   ****     stack = nullptr; // stek pravimo u sistemskom pozivu thread_create
 258              		.loc 1 46 19 is_stmt 0
 259 0170 17070000 		lla	a4,_ZN3PCB15proccessWrapperEv
 259      13070700 
 260 0178 23B0E710 		sd	a4,256(a5)
  47:src/PCB.cpp   ****     if(main == nullptr) firstCall = false; //  jer je glavni proces vec pokrenut, necemo ici u proc
 261              		.loc 1 47 5 is_stmt 1
  47:src/PCB.cpp   ****     if(main == nullptr) firstCall = false; //  jer je glavni proces vec pokrenut, necemo ici u proc
 262              		.loc 1 47 11 is_stmt 0
 263 017c 23B40400 		sd	zero,8(s1)
  48:src/PCB.cpp   **** }
 264              		.loc 1 48 5 is_stmt 1
  48:src/PCB.cpp   **** }
 265              		.loc 1 48 8 is_stmt 0
 266 0180 83B70402 		ld	a5,32(s1)
  48:src/PCB.cpp   **** }
 267              		.loc 1 48 5
 268 0184 638C0700 		beqz	a5,.L14
 269              	.L11:
 270              	.LBE6:
  49:src/PCB.cpp   **** 
 271              		.loc 1 49 1
 272 0188 83308101 		ld	ra,24(sp)
 273              		.cfi_remember_state
 274              		.cfi_restore 1
 275 018c 03340101 		ld	s0,16(sp)
 276              		.cfi_restore 8
 277              		.cfi_def_cfa 2, 32
 278 0190 83348100 		ld	s1,8(sp)
 279              		.cfi_restore 9
 280              	.LVL17:
 281 0194 13010102 		addi	sp,sp,32
 282              		.cfi_def_cfa_offset 0
 283 0198 67800000 		jr	ra
 284              	.LVL18:
 285              	.L14:
 286              		.cfi_restore_state
 287              	.LBB7:
  48:src/PCB.cpp   **** }
 288              		.loc 1 48 25 is_stmt 1 discriminator 1
  48:src/PCB.cpp   **** }
 289              		.loc 1 48 35 is_stmt 0 discriminator 1
 290 019c 23800404 		sb	zero,64(s1)
 291              	.LBE7:
  49:src/PCB.cpp   **** 
 292              		.loc 1 49 1 discriminator 1
 293 01a0 6FF09FFE 		j	.L11
 294              		.cfi_endproc
 295              	.LFE32:
 297              		.globl	_ZN3PCBC1EPFvvEmPv
 298              		.set	_ZN3PCBC1EPFvvEmPv,_ZN3PCBC2EPFvvEmPv
 299              		.align	2
 300              		.globl	_ZN3PCBD2Ev
 302              	_ZN3PCBD2Ev:
 303              	.LFB35:
  51:src/PCB.cpp   ****     delete[] stack;
GAS LISTING /tmp/ccIGYRNv.s 			page 9


 304              		.loc 1 51 1 is_stmt 1
 305              		.cfi_startproc
 306              	.LVL19:
 307 01a4 130101FE 		addi	sp,sp,-32
 308              		.cfi_def_cfa_offset 32
 309 01a8 233C1100 		sd	ra,24(sp)
 310 01ac 23388100 		sd	s0,16(sp)
 311 01b0 23349100 		sd	s1,8(sp)
 312              		.cfi_offset 1, -8
 313              		.cfi_offset 8, -16
 314              		.cfi_offset 9, -24
 315 01b4 13040102 		addi	s0,sp,32
 316              		.cfi_def_cfa 8, 0
 317 01b8 93040500 		mv	s1,a0
 318              	.LBB8:
  52:src/PCB.cpp   ****     delete[] sysStack;
 319              		.loc 1 52 5
  52:src/PCB.cpp   ****     delete[] sysStack;
 320              		.loc 1 52 14 is_stmt 0
 321 01bc 03358500 		ld	a0,8(a0)
 322              	.LVL20:
  52:src/PCB.cpp   ****     delete[] sysStack;
 323              		.loc 1 52 19
 324 01c0 63060500 		beqz	a0,.L16
  52:src/PCB.cpp   ****     delete[] sysStack;
 325              		.loc 1 52 14 discriminator 1
 326 01c4 97000000 		call	_ZdaPv@plt
 326      E7800000 
 327              	.LVL21:
 328              	.L16:
  53:src/PCB.cpp   **** }
 329              		.loc 1 53 5 is_stmt 1
  53:src/PCB.cpp   **** }
 330              		.loc 1 53 14 is_stmt 0
 331 01cc 03B50401 		ld	a0,16(s1)
  53:src/PCB.cpp   **** }
 332              		.loc 1 53 22
 333 01d0 63060500 		beqz	a0,.L15
  53:src/PCB.cpp   **** }
 334              		.loc 1 53 14 discriminator 1
 335 01d4 97000000 		call	_ZdaPv@plt
 335      E7800000 
 336              	.LVL22:
 337              	.L15:
 338              	.LBE8:
  54:src/PCB.cpp   **** 
 339              		.loc 1 54 1
 340 01dc 83308101 		ld	ra,24(sp)
 341              		.cfi_restore 1
 342 01e0 03340101 		ld	s0,16(sp)
 343              		.cfi_restore 8
 344              		.cfi_def_cfa 2, 32
 345 01e4 83348100 		ld	s1,8(sp)
 346              		.cfi_restore 9
 347              	.LVL23:
 348 01e8 13010102 		addi	sp,sp,32
 349              		.cfi_def_cfa_offset 0
GAS LISTING /tmp/ccIGYRNv.s 			page 10


 350 01ec 67800000 		jr	ra
 351              		.cfi_endproc
 352              	.LFE35:
 354              		.globl	_ZN3PCBD1Ev
 355              		.set	_ZN3PCBD1Ev,_ZN3PCBD2Ev
 356              		.align	2
 357              		.globl	_ZN3PCBnwEm
 359              	_ZN3PCBnwEm:
 360              	.LFB37:
  56:src/PCB.cpp   ****     return MemoryAllocator::mem_alloc(size);
 361              		.loc 1 56 38 is_stmt 1
 362              		.cfi_startproc
 363              	.LVL24:
 364 01f0 130101FF 		addi	sp,sp,-16
 365              		.cfi_def_cfa_offset 16
 366 01f4 23341100 		sd	ra,8(sp)
 367 01f8 23308100 		sd	s0,0(sp)
 368              		.cfi_offset 1, -8
 369              		.cfi_offset 8, -16
 370 01fc 13040101 		addi	s0,sp,16
 371              		.cfi_def_cfa 8, 0
  57:src/PCB.cpp   **** }
 372              		.loc 1 57 5
  57:src/PCB.cpp   **** }
 373              		.loc 1 57 38 is_stmt 0
 374 0200 97000000 		call	_ZN15MemoryAllocator9mem_allocEm@plt
 374      E7800000 
 375              	.LVL25:
  58:src/PCB.cpp   **** 
 376              		.loc 1 58 1
 377 0208 83308100 		ld	ra,8(sp)
 378              		.cfi_restore 1
 379 020c 03340100 		ld	s0,0(sp)
 380              		.cfi_restore 8
 381              		.cfi_def_cfa 2, 16
 382 0210 13010101 		addi	sp,sp,16
 383              		.cfi_def_cfa_offset 0
 384 0214 67800000 		jr	ra
 385              		.cfi_endproc
 386              	.LFE37:
 388              		.align	2
 389              		.globl	_ZN3PCBdlEPv
 391              	_ZN3PCBdlEPv:
 392              	.LFB38:
  60:src/PCB.cpp   ****     MemoryAllocator::mem_free(memSegment);
 393              		.loc 1 60 45 is_stmt 1
 394              		.cfi_startproc
 395              	.LVL26:
 396 0218 130101FF 		addi	sp,sp,-16
 397              		.cfi_def_cfa_offset 16
 398 021c 23341100 		sd	ra,8(sp)
 399 0220 23308100 		sd	s0,0(sp)
 400              		.cfi_offset 1, -8
 401              		.cfi_offset 8, -16
 402 0224 13040101 		addi	s0,sp,16
 403              		.cfi_def_cfa 8, 0
  61:src/PCB.cpp   **** }
GAS LISTING /tmp/ccIGYRNv.s 			page 11


 404              		.loc 1 61 5
  61:src/PCB.cpp   **** }
 405              		.loc 1 61 30 is_stmt 0
 406 0228 97000000 		call	_ZN15MemoryAllocator8mem_freeEPv@plt
 406      E7800000 
 407              	.LVL27:
  62:src/PCB.cpp   **** 
 408              		.loc 1 62 1
 409 0230 83308100 		ld	ra,8(sp)
 410              		.cfi_restore 1
 411 0234 03340100 		ld	s0,0(sp)
 412              		.cfi_restore 8
 413              		.cfi_def_cfa 2, 16
 414 0238 13010101 		addi	sp,sp,16
 415              		.cfi_def_cfa_offset 0
 416 023c 67800000 		jr	ra
 417              		.cfi_endproc
 418              	.LFE38:
 420              		.align	2
 421              		.globl	_ZN3PCB14createProccessEPFvvEPv
 423              	_ZN3PCB14createProccessEPFvvEPv:
 424              	.LFB28:
  10:src/PCB.cpp   ****     return new PCB(main, DEFAULT_TIME_SLICE, arguments);
 425              		.loc 1 10 66 is_stmt 1
 426              		.cfi_startproc
 427              		.cfi_personality 0x9b,DW.ref.__gxx_personality_v0
 428              		.cfi_lsda 0x1b,.LLSDA28
 429              	.LVL28:
 430 0240 130101FD 		addi	sp,sp,-48
 431              		.cfi_def_cfa_offset 48
 432 0244 23341102 		sd	ra,40(sp)
 433 0248 23308102 		sd	s0,32(sp)
 434 024c 233C9100 		sd	s1,24(sp)
 435 0250 23382101 		sd	s2,16(sp)
 436 0254 23343101 		sd	s3,8(sp)
 437              		.cfi_offset 1, -8
 438              		.cfi_offset 8, -16
 439              		.cfi_offset 9, -24
 440              		.cfi_offset 18, -32
 441              		.cfi_offset 19, -40
 442 0258 13040103 		addi	s0,sp,48
 443              		.cfi_def_cfa 8, 0
 444 025c 13090500 		mv	s2,a0
 445 0260 93890500 		mv	s3,a1
  11:src/PCB.cpp   **** }
 446              		.loc 1 11 5
  11:src/PCB.cpp   **** }
 447              		.loc 1 11 55 is_stmt 0
 448 0264 13058004 		li	a0,72
 449              	.LVL29:
 450              	.LEHB0:
 451 0268 97000000 		call	_ZN3PCBnwEm
 451      E7800000 
 452              	.LVL30:
 453              	.LEHE0:
 454 0270 93040500 		mv	s1,a0
 455 0274 93860900 		mv	a3,s3
GAS LISTING /tmp/ccIGYRNv.s 			page 12


 456 0278 13062000 		li	a2,2
 457 027c 93050900 		mv	a1,s2
 458              	.LEHB1:
 459 0280 97000000 		call	_ZN3PCBC1EPFvvEmPv
 459      E7800000 
 460              	.LVL31:
 461              	.LEHE1:
 462 0288 6F000002 		j	.L28
 463              	.L25:
 464 028c 13090500 		mv	s2,a0
 465              	.LVL32:
 466 0290 13850400 		mv	a0,s1
 467 0294 97000000 		call	_ZN3PCBdlEPv
 467      E7800000 
 468              	.LVL33:
 469 029c 13050900 		mv	a0,s2
 470              	.LEHB2:
 471 02a0 97000000 		call	_Unwind_Resume@plt
 471      E7800000 
 472              	.LVL34:
 473              	.LEHE2:
 474              	.L28:
  12:src/PCB.cpp   **** 
 475              		.loc 1 12 1
 476 02a8 13850400 		mv	a0,s1
 477 02ac 83308102 		ld	ra,40(sp)
 478              		.cfi_restore 1
 479 02b0 03340102 		ld	s0,32(sp)
 480              		.cfi_restore 8
 481              		.cfi_def_cfa 2, 48
 482 02b4 83348101 		ld	s1,24(sp)
 483              		.cfi_restore 9
 484 02b8 03390101 		ld	s2,16(sp)
 485              		.cfi_restore 18
 486              	.LVL35:
 487 02bc 83398100 		ld	s3,8(sp)
 488              		.cfi_restore 19
 489              	.LVL36:
 490 02c0 13010103 		addi	sp,sp,48
 491              		.cfi_def_cfa_offset 0
 492 02c4 67800000 		jr	ra
 493              		.cfi_endproc
 494              	.LFE28:
 495              		.globl	__gxx_personality_v0
 496              		.section	.gcc_except_table,"a",@progbits
 497              	.LLSDA28:
 498 0000 FF       		.byte	0xff
 499 0001 FF       		.byte	0xff
 500 0002 03       		.byte	0x3
 501 0003 27       		.byte	0x27
 502 0004 00000000 		.4byte	.LEHB0-.LFB28
 503 0008 00000000 		.4byte	.LEHE0-.LEHB0
 504 000c 00000000 		.4byte	0
 505 0010 00       		.byte	0
 506 0011 00000000 		.4byte	.LEHB1-.LFB28
 507 0015 00000000 		.4byte	.LEHE1-.LEHB1
 508 0019 00000000 		.4byte	.L25-.LFB28
GAS LISTING /tmp/ccIGYRNv.s 			page 13


 509 001d 00       		.byte	0
 510 001e 00000000 		.4byte	.LEHB2-.LFB28
 511 0022 00000000 		.4byte	.LEHE2-.LEHB2
 512 0026 00000000 		.4byte	0
 513 002a 00       		.byte	0
 514              		.text
 516              		.align	2
 517              		.globl	_ZN3PCB10getContextEv
 519              	_ZN3PCB10getContextEv:
 520              	.LFB40:
  71:src/PCB.cpp   **** 
  72:src/PCB.cpp   **** size_t *PCB::getContext() {
 521              		.loc 1 72 27 is_stmt 1
 522              		.cfi_startproc
 523 02c8 130101FF 		addi	sp,sp,-16
 524              		.cfi_def_cfa_offset 16
 525 02cc 23348100 		sd	s0,8(sp)
 526              		.cfi_offset 8, -8
 527 02d0 13040101 		addi	s0,sp,16
 528              		.cfi_def_cfa 8, 0
  73:src/PCB.cpp   ****     return running->registers;
 529              		.loc 1 73 5
  74:src/PCB.cpp   **** }
 530              		.loc 1 74 1 is_stmt 0
 531 02d4 97070000 		ld	a5,.LANCHOR0
 531      83B70700 
 532 02dc 03B58701 		ld	a0,24(a5)
 533 02e0 03348100 		ld	s0,8(sp)
 534              		.cfi_restore 8
 535              		.cfi_def_cfa 2, 16
 536 02e4 13010101 		addi	sp,sp,16
 537              		.cfi_def_cfa_offset 0
 538 02e8 67800000 		jr	ra
 539              		.cfi_endproc
 540              	.LFE40:
 542              		.globl	_ZN3PCB16timeSliceCounterE
 543              		.globl	_ZN3PCB7runningE
 544              		.bss
 545              		.align	3
 546              		.set	.LANCHOR0,. + 0
 549              	_ZN3PCB7runningE:
 550 0000 00000000 		.zero	8
 550      00000000 
 553              	_ZN3PCB16timeSliceCounterE:
 554 0008 00000000 		.zero	8
 554      00000000 
 555              		.text
 556              	.Letext0:
 557              		.file 3 "src/../h/hw.h"
 558              		.file 4 "src/../h/Scheduler.h"
 559              		.file 5 "src/../h/MemoryAllocator.h"
 560              		.file 6 "src/../h/kernel.h"
 561              		.file 7 "src/../h/syscall_c.h"
 3372              		.align	3
 3375              	DW.ref.__gxx_personality_v0:
 3376 0000 00000000 		.dword	__gxx_personality_v0
 3376      00000000 
GAS LISTING /tmp/ccIGYRNv.s 			page 14


 3377              		.ident	"GCC: (Ubuntu 9.4.0-1ubuntu1~20.04) 9.4.0"
 3378              		.section	.note.GNU-stack,"",@progbits
GAS LISTING /tmp/ccIGYRNv.s 			page 15


DEFINED SYMBOLS
                            *ABS*:0000000000000000 PCB.cpp
     /tmp/ccIGYRNv.s:9      .text:0000000000000000 _ZN3PCB15proccessWrapperEv
     /tmp/ccIGYRNv.s:13     .text:0000000000000000 .L0 
     /tmp/ccIGYRNv.s:14     .text:0000000000000000 .L0 
     /tmp/ccIGYRNv.s:15     .text:0000000000000004 .L0 
     /tmp/ccIGYRNv.s:18     .text:000000000000000c .L0 
     /tmp/ccIGYRNv.s:19     .text:000000000000000c .L0 
     /tmp/ccIGYRNv.s:21     .text:0000000000000010 .L0 
     /tmp/ccIGYRNv.s:23     .text:0000000000000010 .L0 
     /tmp/ccIGYRNv.s:24     .text:0000000000000010 .L0 
     /tmp/ccIGYRNv.s:27     .text:0000000000000018 .L0 
     /tmp/ccIGYRNv.s:28     .text:0000000000000018 .L0 
     /tmp/ccIGYRNv.s:30     .text:0000000000000020 .L0 
     /tmp/ccIGYRNv.s:33     .text:0000000000000024 .L0 
         src/PCB.cpp:67     .text:0000000000000024 .L0 
     /tmp/ccIGYRNv.s:39     .text:0000000000000028 .L0 
     /tmp/ccIGYRNv.s:41     .text:0000000000000028 .L0 
     /tmp/ccIGYRNv.s:43     .text:000000000000002c .L0 
     /tmp/ccIGYRNv.s:46     .text:0000000000000030 .L0 
     /tmp/ccIGYRNv.s:47     .text:0000000000000030 .L0 
     /tmp/ccIGYRNv.s:50     .text:0000000000000038 .L0 
     /tmp/ccIGYRNv.s:51     .text:000000000000003c .L0 
     /tmp/ccIGYRNv.s:53     .text:0000000000000040 .L0 
     /tmp/ccIGYRNv.s:54     .text:0000000000000040 .L0 
     /tmp/ccIGYRNv.s:56     .text:0000000000000044 .L0 
     /tmp/ccIGYRNv.s:58     .text:0000000000000048 .L0 
     /tmp/ccIGYRNv.s:64     .text:0000000000000048 _ZN3PCB5yieldEv
     /tmp/ccIGYRNv.s:67     .text:0000000000000048 .L0 
     /tmp/ccIGYRNv.s:68     .text:0000000000000048 .L0 
     /tmp/ccIGYRNv.s:69     .text:000000000000004c .L0 
     /tmp/ccIGYRNv.s:71     .text:0000000000000050 .L0 
     /tmp/ccIGYRNv.s:73     .text:0000000000000054 .L0 
     /tmp/ccIGYRNv.s:76     .text:0000000000000054 .L0 
     /tmp/ccIGYRNv.s:77     .text:0000000000000054 .L0 
     /tmp/ccIGYRNv.s:78     .text:0000000000000054 .L0 
     /tmp/ccIGYRNv.s:84     .text:000000000000005c .L0 
         src/PCB.cpp:17     .text:000000000000005c .L0 
     /tmp/ccIGYRNv.s:90     .text:0000000000000060 .L0 
     /tmp/ccIGYRNv.s:91     .text:0000000000000064 .L0 
     /tmp/ccIGYRNv.s:92     .text:0000000000000064 .L0 
     /tmp/ccIGYRNv.s:94     .text:0000000000000068 .L0 
     /tmp/ccIGYRNv.s:96     .text:000000000000006c .L0 
     /tmp/ccIGYRNv.s:102    .text:000000000000006c _ZN3PCB8dispatchEv
     /tmp/ccIGYRNv.s:105    .text:000000000000006c .L0 
     /tmp/ccIGYRNv.s:106    .text:000000000000006c .L0 
     /tmp/ccIGYRNv.s:107    .text:0000000000000070 .L0 
     /tmp/ccIGYRNv.s:111    .text:000000000000007c .L0 
     /tmp/ccIGYRNv.s:112    .text:000000000000007c .L0 
     /tmp/ccIGYRNv.s:113    .text:000000000000007c .L0 
     /tmp/ccIGYRNv.s:115    .text:0000000000000080 .L0 
     /tmp/ccIGYRNv.s:117    .text:0000000000000080 .L0 
     /tmp/ccIGYRNv.s:118    .text:0000000000000080 .L0 
     /tmp/ccIGYRNv.s:124    .text:0000000000000088 .L0 
     /tmp/ccIGYRNv.s:125    .text:0000000000000088 .L0 
     /tmp/ccIGYRNv.s:126    .text:0000000000000088 .L0 
     /tmp/ccIGYRNv.s:131    .text:000000000000008c .L0 
GAS LISTING /tmp/ccIGYRNv.s 			page 16


     /tmp/ccIGYRNv.s:133    .text:0000000000000090 .L0 
     /tmp/ccIGYRNv.s:135    .text:0000000000000094 .L0 
     /tmp/ccIGYRNv.s:138    .text:0000000000000098 .L0 
     /tmp/ccIGYRNv.s:139    .text:0000000000000098 .L0 
     /tmp/ccIGYRNv.s:142    .text:00000000000000a0 .L0 
     /tmp/ccIGYRNv.s:144    .text:00000000000000a8 .L0 
     /tmp/ccIGYRNv.s:145    .text:00000000000000a8 .L0 
     /tmp/ccIGYRNv.s:147    .text:00000000000000ac .L0 
     /tmp/ccIGYRNv.s:149    .text:00000000000000b0 .L0 
     /tmp/ccIGYRNv.s:150    .text:00000000000000b0 .L0 
     /tmp/ccIGYRNv.s:152    .text:00000000000000b4 .L0 
     /tmp/ccIGYRNv.s:153    .text:00000000000000b4 .L0 
     /tmp/ccIGYRNv.s:159    .text:00000000000000c4 .L0 
     /tmp/ccIGYRNv.s:160    .text:00000000000000c8 .L0 
     /tmp/ccIGYRNv.s:161    .text:00000000000000c8 .L0 
     /tmp/ccIGYRNv.s:163    .text:00000000000000cc .L0 
     /tmp/ccIGYRNv.s:164    .text:00000000000000cc .L0 
     /tmp/ccIGYRNv.s:166    .text:00000000000000d0 .L0 
     /tmp/ccIGYRNv.s:169    .text:00000000000000d4 .L0 
     /tmp/ccIGYRNv.s:173    .text:00000000000000d8 .L0 
     /tmp/ccIGYRNv.s:175    .text:00000000000000d8 .L0 
     /tmp/ccIGYRNv.s:176    .text:00000000000000d8 .L0 
     /tmp/ccIGYRNv.s:182    .text:00000000000000e8 .L0 
     /tmp/ccIGYRNv.s:183    .text:00000000000000e8 .L0 
     /tmp/ccIGYRNv.s:188    .text:00000000000000f8 .L0 
     /tmp/ccIGYRNv.s:189    .text:00000000000000fc .L0 
     /tmp/ccIGYRNv.s:195    .text:00000000000000fc _ZN3PCBC2EPFvvEmPv
     /tmp/ccIGYRNv.s:198    .text:00000000000000fc .L0 
     /tmp/ccIGYRNv.s:200    .text:00000000000000fc .L0 
     /tmp/ccIGYRNv.s:201    .text:0000000000000100 .L0 
     /tmp/ccIGYRNv.s:205    .text:000000000000010c .L0 
     /tmp/ccIGYRNv.s:206    .text:000000000000010c .L0 
     /tmp/ccIGYRNv.s:207    .text:000000000000010c .L0 
     /tmp/ccIGYRNv.s:209    .text:0000000000000110 .L0 
     /tmp/ccIGYRNv.s:213    .text:0000000000000114 .L0 
     /tmp/ccIGYRNv.s:218    .text:0000000000000124 .L0 
     /tmp/ccIGYRNv.s:219    .text:0000000000000124 .L0 
     /tmp/ccIGYRNv.s:221    .text:0000000000000128 .L0 
     /tmp/ccIGYRNv.s:223    .text:000000000000012c .L0 
     /tmp/ccIGYRNv.s:225    .text:0000000000000130 .L0 
     /tmp/ccIGYRNv.s:226    .text:0000000000000130 .L0 
     /tmp/ccIGYRNv.s:228    .text:0000000000000134 .L0 
     /tmp/ccIGYRNv.s:229    .text:0000000000000134 .L0 
     /tmp/ccIGYRNv.s:231    .text:0000000000000138 .L0 
     /tmp/ccIGYRNv.s:232    .text:0000000000000138 .L0 
     /tmp/ccIGYRNv.s:234    .text:000000000000013c .L0 
     /tmp/ccIGYRNv.s:235    .text:000000000000013c .L0 
     /tmp/ccIGYRNv.s:240    .text:0000000000000148 .L0 
     /tmp/ccIGYRNv.s:242    .text:000000000000014c .L0 
     /tmp/ccIGYRNv.s:243    .text:000000000000014c .L0 
     /tmp/ccIGYRNv.s:247    .text:0000000000000158 .L0 
     /tmp/ccIGYRNv.s:249    .text:000000000000015c .L0 
     /tmp/ccIGYRNv.s:250    .text:000000000000015c .L0 
     /tmp/ccIGYRNv.s:253    .text:0000000000000164 .L0 
     /tmp/ccIGYRNv.s:255    .text:0000000000000168 .L0 
     /tmp/ccIGYRNv.s:257    .text:000000000000016c .L0 
     /tmp/ccIGYRNv.s:259    .text:0000000000000170 .L0 
GAS LISTING /tmp/ccIGYRNv.s 			page 17


     /tmp/ccIGYRNv.s:262    .text:000000000000017c .L0 
     /tmp/ccIGYRNv.s:263    .text:000000000000017c .L0 
     /tmp/ccIGYRNv.s:265    .text:0000000000000180 .L0 
     /tmp/ccIGYRNv.s:266    .text:0000000000000180 .L0 
     /tmp/ccIGYRNv.s:268    .text:0000000000000184 .L0 
     /tmp/ccIGYRNv.s:272    .text:0000000000000188 .L0 
     /tmp/ccIGYRNv.s:273    .text:000000000000018c .L0 
     /tmp/ccIGYRNv.s:274    .text:000000000000018c .L0 
     /tmp/ccIGYRNv.s:276    .text:0000000000000190 .L0 
     /tmp/ccIGYRNv.s:277    .text:0000000000000190 .L0 
     /tmp/ccIGYRNv.s:279    .text:0000000000000194 .L0 
     /tmp/ccIGYRNv.s:282    .text:0000000000000198 .L0 
     /tmp/ccIGYRNv.s:286    .text:000000000000019c .L0 
     /tmp/ccIGYRNv.s:289    .text:000000000000019c .L0 
     /tmp/ccIGYRNv.s:290    .text:000000000000019c .L0 
     /tmp/ccIGYRNv.s:293    .text:00000000000001a0 .L0 
     /tmp/ccIGYRNv.s:294    .text:00000000000001a4 .L0 
     /tmp/ccIGYRNv.s:195    .text:00000000000000fc _ZN3PCBC1EPFvvEmPv
     /tmp/ccIGYRNv.s:302    .text:00000000000001a4 _ZN3PCBD2Ev
     /tmp/ccIGYRNv.s:305    .text:00000000000001a4 .L0 
     /tmp/ccIGYRNv.s:307    .text:00000000000001a4 .L0 
     /tmp/ccIGYRNv.s:308    .text:00000000000001a8 .L0 
     /tmp/ccIGYRNv.s:312    .text:00000000000001b4 .L0 
     /tmp/ccIGYRNv.s:313    .text:00000000000001b4 .L0 
     /tmp/ccIGYRNv.s:314    .text:00000000000001b4 .L0 
     /tmp/ccIGYRNv.s:316    .text:00000000000001b8 .L0 
     /tmp/ccIGYRNv.s:320    .text:00000000000001bc .L0 
     /tmp/ccIGYRNv.s:321    .text:00000000000001bc .L0 
     /tmp/ccIGYRNv.s:324    .text:00000000000001c0 .L0 
     /tmp/ccIGYRNv.s:326    .text:00000000000001c4 .L0 
     /tmp/ccIGYRNv.s:330    .text:00000000000001cc .L0 
     /tmp/ccIGYRNv.s:331    .text:00000000000001cc .L0 
     /tmp/ccIGYRNv.s:333    .text:00000000000001d0 .L0 
     /tmp/ccIGYRNv.s:335    .text:00000000000001d4 .L0 
     /tmp/ccIGYRNv.s:340    .text:00000000000001dc .L0 
     /tmp/ccIGYRNv.s:341    .text:00000000000001e0 .L0 
     /tmp/ccIGYRNv.s:343    .text:00000000000001e4 .L0 
     /tmp/ccIGYRNv.s:344    .text:00000000000001e4 .L0 
     /tmp/ccIGYRNv.s:346    .text:00000000000001e8 .L0 
     /tmp/ccIGYRNv.s:349    .text:00000000000001ec .L0 
     /tmp/ccIGYRNv.s:351    .text:00000000000001f0 .L0 
     /tmp/ccIGYRNv.s:302    .text:00000000000001a4 _ZN3PCBD1Ev
     /tmp/ccIGYRNv.s:359    .text:00000000000001f0 _ZN3PCBnwEm
     /tmp/ccIGYRNv.s:362    .text:00000000000001f0 .L0 
     /tmp/ccIGYRNv.s:364    .text:00000000000001f0 .L0 
     /tmp/ccIGYRNv.s:365    .text:00000000000001f4 .L0 
     /tmp/ccIGYRNv.s:368    .text:00000000000001fc .L0 
     /tmp/ccIGYRNv.s:369    .text:00000000000001fc .L0 
     /tmp/ccIGYRNv.s:371    .text:0000000000000200 .L0 
     /tmp/ccIGYRNv.s:373    .text:0000000000000200 .L0 
     /tmp/ccIGYRNv.s:374    .text:0000000000000200 .L0 
     /tmp/ccIGYRNv.s:377    .text:0000000000000208 .L0 
     /tmp/ccIGYRNv.s:378    .text:000000000000020c .L0 
     /tmp/ccIGYRNv.s:380    .text:0000000000000210 .L0 
     /tmp/ccIGYRNv.s:381    .text:0000000000000210 .L0 
     /tmp/ccIGYRNv.s:383    .text:0000000000000214 .L0 
     /tmp/ccIGYRNv.s:385    .text:0000000000000218 .L0 
GAS LISTING /tmp/ccIGYRNv.s 			page 18


     /tmp/ccIGYRNv.s:391    .text:0000000000000218 _ZN3PCBdlEPv
     /tmp/ccIGYRNv.s:394    .text:0000000000000218 .L0 
     /tmp/ccIGYRNv.s:396    .text:0000000000000218 .L0 
     /tmp/ccIGYRNv.s:397    .text:000000000000021c .L0 
     /tmp/ccIGYRNv.s:400    .text:0000000000000224 .L0 
     /tmp/ccIGYRNv.s:401    .text:0000000000000224 .L0 
     /tmp/ccIGYRNv.s:403    .text:0000000000000228 .L0 
     /tmp/ccIGYRNv.s:405    .text:0000000000000228 .L0 
     /tmp/ccIGYRNv.s:406    .text:0000000000000228 .L0 
     /tmp/ccIGYRNv.s:409    .text:0000000000000230 .L0 
     /tmp/ccIGYRNv.s:410    .text:0000000000000234 .L0 
     /tmp/ccIGYRNv.s:412    .text:0000000000000238 .L0 
     /tmp/ccIGYRNv.s:413    .text:0000000000000238 .L0 
     /tmp/ccIGYRNv.s:415    .text:000000000000023c .L0 
     /tmp/ccIGYRNv.s:417    .text:0000000000000240 .L0 
     /tmp/ccIGYRNv.s:423    .text:0000000000000240 _ZN3PCB14createProccessEPFvvEPv
     /tmp/ccIGYRNv.s:426    .text:0000000000000240 .L0 
     /tmp/ccIGYRNv.s:3375   .data.rel.local.DW.ref.__gxx_personality_v0:0000000000000000 DW.ref.__gxx_personality_v0
     /tmp/ccIGYRNv.s:430    .text:0000000000000240 .L0 
     /tmp/ccIGYRNv.s:431    .text:0000000000000244 .L0 
     /tmp/ccIGYRNv.s:437    .text:0000000000000258 .L0 
     /tmp/ccIGYRNv.s:438    .text:0000000000000258 .L0 
     /tmp/ccIGYRNv.s:439    .text:0000000000000258 .L0 
     /tmp/ccIGYRNv.s:440    .text:0000000000000258 .L0 
     /tmp/ccIGYRNv.s:441    .text:0000000000000258 .L0 
     /tmp/ccIGYRNv.s:443    .text:000000000000025c .L0 
     /tmp/ccIGYRNv.s:447    .text:0000000000000264 .L0 
     /tmp/ccIGYRNv.s:448    .text:0000000000000264 .L0 
     /tmp/ccIGYRNv.s:476    .text:00000000000002a8 .L0 
     /tmp/ccIGYRNv.s:478    .text:00000000000002b0 .L0 
     /tmp/ccIGYRNv.s:480    .text:00000000000002b4 .L0 
     /tmp/ccIGYRNv.s:481    .text:00000000000002b4 .L0 
     /tmp/ccIGYRNv.s:483    .text:00000000000002b8 .L0 
     /tmp/ccIGYRNv.s:485    .text:00000000000002bc .L0 
     /tmp/ccIGYRNv.s:488    .text:00000000000002c0 .L0 
     /tmp/ccIGYRNv.s:491    .text:00000000000002c4 .L0 
     /tmp/ccIGYRNv.s:493    .text:00000000000002c8 .L0 
     /tmp/ccIGYRNv.s:519    .text:00000000000002c8 _ZN3PCB10getContextEv
     /tmp/ccIGYRNv.s:522    .text:00000000000002c8 .L0 
     /tmp/ccIGYRNv.s:523    .text:00000000000002c8 .L0 
     /tmp/ccIGYRNv.s:524    .text:00000000000002cc .L0 
     /tmp/ccIGYRNv.s:526    .text:00000000000002d0 .L0 
     /tmp/ccIGYRNv.s:528    .text:00000000000002d4 .L0 
     /tmp/ccIGYRNv.s:530    .text:00000000000002d4 .L0 
     /tmp/ccIGYRNv.s:531    .text:00000000000002d4 .L0 
     /tmp/ccIGYRNv.s:534    .text:00000000000002e4 .L0 
     /tmp/ccIGYRNv.s:535    .text:00000000000002e4 .L0 
     /tmp/ccIGYRNv.s:537    .text:00000000000002e8 .L0 
     /tmp/ccIGYRNv.s:539    .text:00000000000002ec .L0 
     /tmp/ccIGYRNv.s:553    .bss:0000000000000008 _ZN3PCB16timeSliceCounterE
     /tmp/ccIGYRNv.s:549    .bss:0000000000000000 _ZN3PCB7runningE
     /tmp/ccIGYRNv.s:546    .bss:0000000000000000 .LANCHOR0
     /tmp/ccIGYRNv.s:562    .text:00000000000002ec .L0 
     /tmp/ccIGYRNv.s:28     .text:0000000000000018 .L0 
     /tmp/ccIGYRNv.s:118    .text:0000000000000080 .L0 
     /tmp/ccIGYRNv.s:142    .text:00000000000000a0 .L0 
     /tmp/ccIGYRNv.s:259    .text:0000000000000170 .L0 
GAS LISTING /tmp/ccIGYRNv.s 			page 19


     /tmp/ccIGYRNv.s:531    .text:00000000000002d4 .L0 
     /tmp/ccIGYRNv.s:136    .text:0000000000000098 .L6
     /tmp/ccIGYRNv.s:172    .text:00000000000000d8 .L10
     /tmp/ccIGYRNv.s:180    .text:00000000000000e8 .L7
     /tmp/ccIGYRNv.s:157    .text:00000000000000c4 .L5
     /tmp/ccIGYRNv.s:285    .text:000000000000019c .L14
     /tmp/ccIGYRNv.s:269    .text:0000000000000188 .L11
     /tmp/ccIGYRNv.s:328    .text:00000000000001cc .L16
     /tmp/ccIGYRNv.s:337    .text:00000000000001dc .L15
     /tmp/ccIGYRNv.s:474    .text:00000000000002a8 .L28
     /tmp/ccIGYRNv.s:450    .text:0000000000000268 .LEHB0
     /tmp/ccIGYRNv.s:424    .text:0000000000000240 .LFB28
     /tmp/ccIGYRNv.s:453    .text:0000000000000270 .LEHE0
     /tmp/ccIGYRNv.s:458    .text:0000000000000280 .LEHB1
     /tmp/ccIGYRNv.s:461    .text:0000000000000288 .LEHE1
     /tmp/ccIGYRNv.s:463    .text:000000000000028c .L25
     /tmp/ccIGYRNv.s:470    .text:00000000000002a0 .LEHB2
     /tmp/ccIGYRNv.s:473    .text:00000000000002a8 .LEHE2
     /tmp/ccIGYRNv.s:1808   .debug_abbrev:0000000000000000 .Ldebug_abbrev0
     /tmp/ccIGYRNv.s:3325   .debug_str:0000000000000804 .LASF146
     /tmp/ccIGYRNv.s:3199   .debug_str:0000000000000446 .LASF147
     /tmp/ccIGYRNv.s:3349   .debug_str:0000000000000971 .LASF148
     /tmp/ccIGYRNv.s:5      .text:0000000000000000 .Ltext0
     /tmp/ccIGYRNv.s:556    .text:00000000000002ec .Letext0
     /tmp/ccIGYRNv.s:3057   .debug_line:0000000000000000 .Ldebug_line0
     /tmp/ccIGYRNv.s:3239   .debug_str:0000000000000592 .LASF0
     /tmp/ccIGYRNv.s:3257   .debug_str:0000000000000632 .LASF1
     /tmp/ccIGYRNv.s:3217   .debug_str:00000000000004de .LASF2
     /tmp/ccIGYRNv.s:3181   .debug_str:00000000000003aa .LASF4
     /tmp/ccIGYRNv.s:3307   .debug_str:000000000000078c .LASF3
     /tmp/ccIGYRNv.s:3087   .debug_str:00000000000000b3 .LASF5
     /tmp/ccIGYRNv.s:3263   .debug_str:0000000000000660 .LASF6
     /tmp/ccIGYRNv.s:3237   .debug_str:000000000000057f .LASF7
     /tmp/ccIGYRNv.s:3333   .debug_str:00000000000008eb .LASF8
     /tmp/ccIGYRNv.s:3167   .debug_str:000000000000033d .LASF9
     /tmp/ccIGYRNv.s:3277   .debug_str:00000000000006c9 .LASF10
     /tmp/ccIGYRNv.s:3327   .debug_str:00000000000008c8 .LASF11
     /tmp/ccIGYRNv.s:3091   .debug_str:00000000000000c9 .LASF12
     /tmp/ccIGYRNv.s:3067   .debug_str:0000000000000040 .LASF13
     /tmp/ccIGYRNv.s:3103   .debug_str:0000000000000115 .LASF14
     /tmp/ccIGYRNv.s:3299   .debug_str:000000000000075c .LASF15
     /tmp/ccIGYRNv.s:3119   .debug_str:000000000000019f .LASF16
     /tmp/ccIGYRNv.s:3265   .debug_str:0000000000000673 .LASF17
     /tmp/ccIGYRNv.s:3269   .debug_str:0000000000000697 .LASF19
     /tmp/ccIGYRNv.s:3287   .debug_str:00000000000006f8 .LASF18
     /tmp/ccIGYRNv.s:3147   .debug_str:000000000000029b .LASF20
     /tmp/ccIGYRNv.s:3161   .debug_str:0000000000000307 .LASF21
     /tmp/ccIGYRNv.s:3357   .debug_str:00000000000009b1 .LASF23
     /tmp/ccIGYRNv.s:3275   .debug_str:00000000000006bd .LASF149
     /tmp/ccIGYRNv.s:3301   .debug_str:0000000000000772 .LASF93
     /tmp/ccIGYRNv.s:3337   .debug_str:0000000000000905 .LASF95
     /tmp/ccIGYRNv.s:3149   .debug_str:00000000000002ba .LASF73
     /tmp/ccIGYRNv.s:3295   .debug_str:000000000000074c .LASF22
     /tmp/ccIGYRNv.s:3229   .debug_str:0000000000000546 .LASF24
     /tmp/ccIGYRNv.s:3345   .debug_str:000000000000095d .LASF25
     /tmp/ccIGYRNv.s:3183   .debug_str:00000000000003b1 .LASF26
     /tmp/ccIGYRNv.s:3317   .debug_str:00000000000007db .LASF27
GAS LISTING /tmp/ccIGYRNv.s 			page 20


     /tmp/ccIGYRNv.s:3321   .debug_str:00000000000007f2 .LASF71
     /tmp/ccIGYRNv.s:3097   .debug_str:00000000000000f5 .LASF56
     /tmp/ccIGYRNv.s:3133   .debug_str:0000000000000239 .LASF98
     /tmp/ccIGYRNv.s:3077   .debug_str:000000000000007a .LASF54
     /tmp/ccIGYRNv.s:3219   .debug_str:00000000000004ec .LASF28
     /tmp/ccIGYRNv.s:3243   .debug_str:00000000000005a8 .LASF29
     /tmp/ccIGYRNv.s:3329   .debug_str:00000000000008d7 .LASF30
     /tmp/ccIGYRNv.s:3107   .debug_str:0000000000000131 .LASF31
     /tmp/ccIGYRNv.s:3271   .debug_str:00000000000006ae .LASF32
     /tmp/ccIGYRNv.s:3187   .debug_str:00000000000003d0 .LASF33
     /tmp/ccIGYRNv.s:3059   .debug_str:0000000000000000 .LASF34
     /tmp/ccIGYRNv.s:3117   .debug_str:0000000000000194 .LASF35
     /tmp/ccIGYRNv.s:3135   .debug_str:000000000000024f .LASF36
     /tmp/ccIGYRNv.s:3249   .debug_str:00000000000005d8 .LASF37
     /tmp/ccIGYRNv.s:3309   .debug_str:000000000000079e .LASF49
     /tmp/ccIGYRNv.s:3241   .debug_str:000000000000059f .LASF43
     /tmp/ccIGYRNv.s:3175   .debug_str:000000000000037b .LASF45
     /tmp/ccIGYRNv.s:3085   .debug_str:00000000000000a4 .LASF38
     /tmp/ccIGYRNv.s:3343   .debug_str:000000000000093f .LASF40
     /tmp/ccIGYRNv.s:3095   .debug_str:00000000000000e6 .LASF39
     /tmp/ccIGYRNv.s:3205   .debug_str:0000000000000475 .LASF41
     /tmp/ccIGYRNv.s:3223   .debug_str:000000000000051c .LASF42
     /tmp/ccIGYRNv.s:3109   .debug_str:000000000000013b .LASF44
     /tmp/ccIGYRNv.s:3227   .debug_str:000000000000052b .LASF46
     /tmp/ccIGYRNv.s:3157   .debug_str:00000000000002fa .LASF47
     /tmp/ccIGYRNv.s:3273   .debug_str:00000000000006b3 .LASF48
     /tmp/ccIGYRNv.s:3129   .debug_str:0000000000000226 .LASF50
     /tmp/ccIGYRNv.s:3209   .debug_str:00000000000004a8 .LASF51
     /tmp/ccIGYRNv.s:3351   .debug_str:000000000000098f .LASF52
     /tmp/ccIGYRNv.s:3311   .debug_str:00000000000007af .LASF53
     /tmp/ccIGYRNv.s:3201   .debug_str:0000000000000452 .LASF55
     /tmp/ccIGYRNv.s:3177   .debug_str:000000000000038e .LASF150
     /tmp/ccIGYRNv.s:3231   .debug_str:0000000000000552 .LASF57
     /tmp/ccIGYRNv.s:3171   .debug_str:0000000000000360 .LASF151
     /tmp/ccIGYRNv.s:3071   .debug_str:0000000000000055 .LASF58
     /tmp/ccIGYRNv.s:3323   .debug_str:00000000000007ff .LASF59
     /tmp/ccIGYRNv.s:3365   .debug_str:00000000000009f2 .LASF60
     /tmp/ccIGYRNv.s:3313   .debug_str:00000000000007c1 .LASF61
     /tmp/ccIGYRNv.s:3189   .debug_str:00000000000003d9 .LASF62
     /tmp/ccIGYRNv.s:3251   .debug_str:00000000000005e2 .LASF152
     /tmp/ccIGYRNv.s:3335   .debug_str:00000000000008fb .LASF63
     /tmp/ccIGYRNv.s:3341   .debug_str:000000000000091e .LASF64
     /tmp/ccIGYRNv.s:3283   .debug_str:00000000000006e8 .LASF65
     /tmp/ccIGYRNv.s:3165   .debug_str:000000000000031c .LASF66
     /tmp/ccIGYRNv.s:3123   .debug_str:00000000000001de .LASF67
     /tmp/ccIGYRNv.s:3221   .debug_str:00000000000004f7 .LASF68
     /tmp/ccIGYRNv.s:3195   .debug_str:0000000000000424 .LASF69
     /tmp/ccIGYRNv.s:3125   .debug_str:00000000000001eb .LASF70
     /tmp/ccIGYRNv.s:3137   .debug_str:000000000000025d .LASF72
     /tmp/ccIGYRNv.s:3131   .debug_str:000000000000022b .LASF74
     /tmp/ccIGYRNv.s:3145   .debug_str:000000000000028b .LASF75
     /tmp/ccIGYRNv.s:3121   .debug_str:00000000000001b5 .LASF76
     /tmp/ccIGYRNv.s:3173   .debug_str:000000000000036c .LASF77
     /tmp/ccIGYRNv.s:3061   .debug_str:0000000000000008 .LASF78
     /tmp/ccIGYRNv.s:3347   .debug_str:000000000000096a .LASF79
     /tmp/ccIGYRNv.s:3303   .debug_str:0000000000000778 .LASF153
     /tmp/ccIGYRNv.s:3153   .debug_str:00000000000002d7 .LASF80
GAS LISTING /tmp/ccIGYRNv.s 			page 21


     /tmp/ccIGYRNv.s:3361   .debug_str:00000000000009db .LASF81
     /tmp/ccIGYRNv.s:3105   .debug_str:0000000000000121 .LASF82
     /tmp/ccIGYRNv.s:3093   .debug_str:00000000000000d9 .LASF83
     /tmp/ccIGYRNv.s:3339   .debug_str:0000000000000915 .LASF84
     /tmp/ccIGYRNv.s:3193   .debug_str:000000000000041a .LASF85
     /tmp/ccIGYRNv.s:3233   .debug_str:0000000000000562 .LASF86
     /tmp/ccIGYRNv.s:3331   .debug_str:00000000000008e0 .LASF87
     /tmp/ccIGYRNv.s:3083   .debug_str:000000000000009a .LASF88
     /tmp/ccIGYRNv.s:3069   .debug_str:0000000000000050 .LASF89
     /tmp/ccIGYRNv.s:3225   .debug_str:0000000000000526 .LASF90
     /tmp/ccIGYRNv.s:3065   .debug_str:0000000000000038 .LASF91
     /tmp/ccIGYRNv.s:3151   .debug_str:00000000000002c2 .LASF92
     /tmp/ccIGYRNv.s:3297   .debug_str:0000000000000751 .LASF94
     /tmp/ccIGYRNv.s:3267   .debug_str:000000000000067e .LASF96
     /tmp/ccIGYRNv.s:3213   .debug_str:00000000000004c6 .LASF97
     /tmp/ccIGYRNv.s:3127   .debug_str:0000000000000210 .LASF99
     /tmp/ccIGYRNv.s:3143   .debug_str:0000000000000282 .LASF100
     /tmp/ccIGYRNv.s:3115   .debug_str:000000000000017e .LASF101
     /tmp/ccIGYRNv.s:3141   .debug_str:000000000000027b .LASF102
     /tmp/ccIGYRNv.s:3235   .debug_str:000000000000056b .LASF103
     /tmp/ccIGYRNv.s:3319   .debug_str:00000000000007eb .LASF104
     /tmp/ccIGYRNv.s:3075   .debug_str:0000000000000066 .LASF105
     /tmp/ccIGYRNv.s:3159   .debug_str:00000000000002ff .LASF106
     /tmp/ccIGYRNv.s:3155   .debug_str:00000000000002e5 .LASF107
     /tmp/ccIGYRNv.s:3063   .debug_str:0000000000000030 .LASF108
     /tmp/ccIGYRNv.s:3197   .debug_str:0000000000000431 .LASF109
     /tmp/ccIGYRNv.s:3179   .debug_str:00000000000003a2 .LASF110
     /tmp/ccIGYRNv.s:3207   .debug_str:0000000000000493 .LASF111
     /tmp/ccIGYRNv.s:3073   .debug_str:000000000000005e .LASF112
     /tmp/ccIGYRNv.s:3169   .debug_str:000000000000034b .LASF113
     /tmp/ccIGYRNv.s:3285   .debug_str:00000000000006f1 .LASF114
     /tmp/ccIGYRNv.s:3291   .debug_str:0000000000000724 .LASF115
     /tmp/ccIGYRNv.s:3081   .debug_str:0000000000000093 .LASF116
     /tmp/ccIGYRNv.s:3293   .debug_str:0000000000000738 .LASF117
     /tmp/ccIGYRNv.s:3163   .debug_str:0000000000000316 .LASF118
     /tmp/ccIGYRNv.s:3245   .debug_str:00000000000005ae .LASF119
     /tmp/ccIGYRNv.s:3079   .debug_str:000000000000008d .LASF120
     /tmp/ccIGYRNv.s:3191   .debug_str:0000000000000407 .LASF121
     /tmp/ccIGYRNv.s:3363   .debug_str:00000000000009e7 .LASF122
     /tmp/ccIGYRNv.s:3211   .debug_str:00000000000004ad .LASF123
     /tmp/ccIGYRNv.s:3255   .debug_str:0000000000000627 .LASF124
     /tmp/ccIGYRNv.s:3289   .debug_str:000000000000070b .LASF125
     /tmp/ccIGYRNv.s:3101   .debug_str:000000000000010b .LASF126
     /tmp/ccIGYRNv.s:3253   .debug_str:0000000000000610 .LASF127
     /tmp/ccIGYRNv.s:3259   .debug_str:0000000000000645 .LASF128
     /tmp/ccIGYRNv.s:3247   .debug_str:00000000000005c1 .LASF129
     /tmp/ccIGYRNv.s:3353   .debug_str:000000000000099b .LASF130
     /tmp/ccIGYRNv.s:3111   .debug_str:000000000000014b .LASF131
     /tmp/ccIGYRNv.s:520    .text:00000000000002c8 .LFB40
     /tmp/ccIGYRNv.s:540    .text:00000000000002ec .LFE40
     /tmp/ccIGYRNv.s:10     .text:0000000000000000 .LFB39
     /tmp/ccIGYRNv.s:59     .text:0000000000000048 .LFE39
     /tmp/ccIGYRNv.s:2862   .debug_loc:0000000000000000 .LLST0
     /tmp/ccIGYRNv.s:25     .text:0000000000000018 .LVL0
     /tmp/ccIGYRNv.s:48     .text:0000000000000038 .LVL3
     /tmp/ccIGYRNv.s:392    .text:0000000000000218 .LFB38
     /tmp/ccIGYRNv.s:418    .text:0000000000000240 .LFE38
GAS LISTING /tmp/ccIGYRNv.s 			page 22


     /tmp/ccIGYRNv.s:3203   .debug_str:000000000000046a .LASF132
     /tmp/ccIGYRNv.s:2869   .debug_loc:0000000000000023 .LLST9
     /tmp/ccIGYRNv.s:407    .text:0000000000000230 .LVL27
     /tmp/ccIGYRNv.s:360    .text:00000000000001f0 .LFB37
     /tmp/ccIGYRNv.s:386    .text:0000000000000218 .LFE37
     /tmp/ccIGYRNv.s:2883   .debug_loc:000000000000005c .LLST8
     /tmp/ccIGYRNv.s:375    .text:0000000000000208 .LVL25
     /tmp/ccIGYRNv.s:3355   .debug_str:00000000000009ac .LASF133
     /tmp/ccIGYRNv.s:3279   .debug_str:00000000000006d8 .LASF134
     /tmp/ccIGYRNv.s:3367   .debug_str:00000000000009f7 .LASF138
     /tmp/ccIGYRNv.s:303    .text:00000000000001a4 .LFB35
     /tmp/ccIGYRNv.s:352    .text:00000000000001f0 .LFE35
     /tmp/ccIGYRNv.s:2897   .debug_loc:0000000000000095 .LLST7
     /tmp/ccIGYRNv.s:327    .text:00000000000001cc .LVL21
     /tmp/ccIGYRNv.s:336    .text:00000000000001dc .LVL22
     /tmp/ccIGYRNv.s:3281   .debug_str:00000000000006e2 .LASF135
     /tmp/ccIGYRNv.s:3099   .debug_str:0000000000000100 .LASF136
     /tmp/ccIGYRNv.s:3215   .debug_str:00000000000004cf .LASF137
     /tmp/ccIGYRNv.s:3315   .debug_str:00000000000007c8 .LASF139
     /tmp/ccIGYRNv.s:196    .text:00000000000000fc .LFB32
     /tmp/ccIGYRNv.s:295    .text:00000000000001a4 .LFE32
     /tmp/ccIGYRNv.s:2915   .debug_loc:00000000000000e1 .LLST3
     /tmp/ccIGYRNv.s:2937   .debug_loc:0000000000000140 .LLST4
     /tmp/ccIGYRNv.s:2951   .debug_loc:0000000000000179 .LLST5
     /tmp/ccIGYRNv.s:2965   .debug_loc:00000000000001b2 .LLST6
     /tmp/ccIGYRNv.s:238    .text:0000000000000148 .LVL15
     /tmp/ccIGYRNv.s:245    .text:0000000000000158 .LVL16
     /tmp/ccIGYRNv.s:103    .text:000000000000006c .LFB30
     /tmp/ccIGYRNv.s:190    .text:00000000000000fc .LFE30
     /tmp/ccIGYRNv.s:2979   .debug_loc:00000000000001eb .LLST1
     /tmp/ccIGYRNv.s:121    .text:0000000000000088 .LBB4
     /tmp/ccIGYRNv.s:129    .text:000000000000008c .LBE4
     /tmp/ccIGYRNv.s:2990   .debug_loc:0000000000000221 .LLST2
     /tmp/ccIGYRNv.s:140    .text:00000000000000a0 .LVL7
     /tmp/ccIGYRNv.s:156    .text:00000000000000c4 .LVL8
     /tmp/ccIGYRNv.s:178    .text:00000000000000e4 .LVL11
     /tmp/ccIGYRNv.s:186    .text:00000000000000f8 .LVL12
     /tmp/ccIGYRNv.s:65     .text:0000000000000048 .LFB29
     /tmp/ccIGYRNv.s:97     .text:000000000000006c .LFE29
     /tmp/ccIGYRNv.s:3139   .debug_str:0000000000000276 .LASF140
     /tmp/ccIGYRNv.s:494    .text:00000000000002c8 .LFE28
     /tmp/ccIGYRNv.s:2997   .debug_loc:0000000000000244 .LLST10
     /tmp/ccIGYRNv.s:3359   .debug_str:00000000000009d1 .LASF141
     /tmp/ccIGYRNv.s:3026   .debug_loc:00000000000002b9 .LLST11
     /tmp/ccIGYRNv.s:452    .text:0000000000000270 .LVL30
     /tmp/ccIGYRNv.s:460    .text:0000000000000288 .LVL31
     /tmp/ccIGYRNv.s:468    .text:000000000000029c .LVL33
     /tmp/ccIGYRNv.s:472    .text:00000000000002a8 .LVL34
     /tmp/ccIGYRNv.s:3261   .debug_str:000000000000064f .LASF154
     /tmp/ccIGYRNv.s:3305   .debug_str:0000000000000785 .LASF142
     /tmp/ccIGYRNv.s:3185   .debug_str:00000000000003bd .LASF144
     /tmp/ccIGYRNv.s:3089   .debug_str:00000000000000ba .LASF143
     /tmp/ccIGYRNv.s:3113   .debug_str:0000000000000166 .LASF145
     /tmp/ccIGYRNv.s:31     .text:0000000000000024 .LVL1
     /tmp/ccIGYRNv.s:44     .text:0000000000000030 .LVL2
     /tmp/ccIGYRNv.s:395    .text:0000000000000218 .LVL26
     /tmp/ccIGYRNv.s:363    .text:00000000000001f0 .LVL24
GAS LISTING /tmp/ccIGYRNv.s 			page 23


     /tmp/ccIGYRNv.s:306    .text:00000000000001a4 .LVL19
     /tmp/ccIGYRNv.s:322    .text:00000000000001c0 .LVL20
     /tmp/ccIGYRNv.s:347    .text:00000000000001e8 .LVL23
     /tmp/ccIGYRNv.s:199    .text:00000000000000fc .LVL13
     /tmp/ccIGYRNv.s:236    .text:0000000000000140 .LVL14
     /tmp/ccIGYRNv.s:280    .text:0000000000000194 .LVL17
     /tmp/ccIGYRNv.s:284    .text:000000000000019c .LVL18
     /tmp/ccIGYRNv.s:119    .text:0000000000000088 .LVL5
     /tmp/ccIGYRNv.s:167    .text:00000000000000d0 .LVL9
     /tmp/ccIGYRNv.s:171    .text:00000000000000d8 .LVL10
     /tmp/ccIGYRNv.s:127    .text:000000000000008c .LVL6
     /tmp/ccIGYRNv.s:429    .text:0000000000000240 .LVL28
     /tmp/ccIGYRNv.s:449    .text:0000000000000268 .LVL29
     /tmp/ccIGYRNv.s:465    .text:0000000000000290 .LVL32
     /tmp/ccIGYRNv.s:486    .text:00000000000002bc .LVL35
     /tmp/ccIGYRNv.s:489    .text:00000000000002c0 .LVL36
     /tmp/ccIGYRNv.s:563    .debug_info:0000000000000000 .Ldebug_info0
     /tmp/ccIGYRNv.s:497    .gcc_except_table:0000000000000000 .LLSDA28

UNDEFINED SYMBOLS
_ZN6Kernel10popSppSpieEv
_Z11thread_exitv
_ZN9Scheduler3getEv
_ZN3PCB14switchContext1EPmS0_
_ZN9Scheduler3putEP3PCB
_ZN3PCB14switchContext2EPmS0_
_ZN15MemoryAllocator9mem_allocEm
_ZdaPv
_ZN15MemoryAllocator8mem_freeEPv
_Unwind_Resume
__gxx_personality_v0
