GAS LISTING /tmp/cc66AmNZ.s 			page 1


   1              		.file	"PCB.cpp"
   2              		.option pic
   3              		.option norelax
   4              		.text
   5              	.Ltext0:
   6              		.align	2
   7              		.globl	_ZN3PCB12createObjectEPv
   9              	_ZN3PCB12createObjectEPv:
  10              	.LFB44:
  11              		.file 1 "src/PCB.cpp"
   1:src/PCB.cpp   **** #include "../h/PCB.h"
   2:src/PCB.cpp   **** #include "../h/Scheduler.h"
   3:src/PCB.cpp   **** #include "../h/MemoryAllocator.h"
   4:src/PCB.cpp   **** #include "../h/kernel.h"
   5:src/PCB.cpp   **** #include "../h/syscall_c.h"
   6:src/PCB.cpp   **** #include "../h/slab.h"
   7:src/PCB.cpp   **** 
   8:src/PCB.cpp   **** PCB* PCB::running = nullptr;
   9:src/PCB.cpp   **** size_t PCB::timeSliceCounter = 0;
  10:src/PCB.cpp   **** 
  11:src/PCB.cpp   **** void PCB::createObject(void* addr) {
  12              		.loc 1 11 36
  13              		.cfi_startproc
  14              	.LVL0:
  15 0000 130101FF 		addi	sp,sp,-16
  16              		.cfi_def_cfa_offset 16
  17 0004 23348100 		sd	s0,8(sp)
  18              		.cfi_offset 8, -8
  19 0008 13040101 		addi	s0,sp,16
  20              		.cfi_def_cfa 8, 0
  12:src/PCB.cpp   **** }
  21              		.loc 1 12 1 is_stmt 0
  22 000c 03348100 		ld	s0,8(sp)
  23              		.cfi_restore 8
  24              		.cfi_def_cfa 2, 16
  25 0010 13010101 		addi	sp,sp,16
  26              		.cfi_def_cfa_offset 0
  27 0014 67800000 		jr	ra
  28              		.cfi_endproc
  29              	.LFE44:
  31              		.align	2
  32              		.globl	_ZN3PCB10freeObjectEPv
  34              	_ZN3PCB10freeObjectEPv:
  35              	.LFB45:
  13:src/PCB.cpp   **** 
  14:src/PCB.cpp   **** void PCB::freeObject(void* addr) {
  36              		.loc 1 14 34 is_stmt 1
  37              		.cfi_startproc
  38              	.LVL1:
  39 0018 130101FE 		addi	sp,sp,-32
  40              		.cfi_def_cfa_offset 32
  41 001c 233C1100 		sd	ra,24(sp)
  42 0020 23388100 		sd	s0,16(sp)
  43 0024 23349100 		sd	s1,8(sp)
  44              		.cfi_offset 1, -8
  45              		.cfi_offset 8, -16
  46              		.cfi_offset 9, -24
GAS LISTING /tmp/cc66AmNZ.s 			page 2


  47 0028 13040102 		addi	s0,sp,32
  48              		.cfi_def_cfa 8, 0
  49 002c 93040500 		mv	s1,a0
  15:src/PCB.cpp   ****     PCB* object = (PCB*)addr;
  50              		.loc 1 15 5
  51              	.LVL2:
  16:src/PCB.cpp   ****     delete[] object->stack;
  52              		.loc 1 16 5
  53              		.loc 1 16 22 is_stmt 0
  54 0030 03358500 		ld	a0,8(a0)
  55              	.LVL3:
  56              		.loc 1 16 27
  57 0034 63060500 		beqz	a0,.L4
  58              		.loc 1 16 22 discriminator 1
  59 0038 97000000 		call	_ZdaPv@plt
  59      E7800000 
  60              	.LVL4:
  61              	.L4:
  17:src/PCB.cpp   ****     delete[] object->sysStack;
  62              		.loc 1 17 5 is_stmt 1
  63              		.loc 1 17 22 is_stmt 0
  64 0040 03B50401 		ld	a0,16(s1)
  65              		.loc 1 17 30
  66 0044 63060500 		beqz	a0,.L3
  67              		.loc 1 17 22 discriminator 1
  68 0048 97000000 		call	_ZdaPv@plt
  68      E7800000 
  69              	.LVL5:
  70              	.L3:
  18:src/PCB.cpp   **** }
  71              		.loc 1 18 1
  72 0050 83308101 		ld	ra,24(sp)
  73              		.cfi_restore 1
  74 0054 03340101 		ld	s0,16(sp)
  75              		.cfi_restore 8
  76              		.cfi_def_cfa 2, 32
  77 0058 83348100 		ld	s1,8(sp)
  78              		.cfi_restore 9
  79              	.LVL6:
  80 005c 13010102 		addi	sp,sp,32
  81              		.cfi_def_cfa_offset 0
  82 0060 67800000 		jr	ra
  83              		.cfi_endproc
  84              	.LFE45:
  86              		.align	2
  87              		.globl	_ZN3PCB15proccessWrapperEv
  89              	_ZN3PCB15proccessWrapperEv:
  90              	.LFB58:
  19:src/PCB.cpp   **** 
  20:src/PCB.cpp   **** kmem_cache_t* PCB::pcbCache = nullptr;
  21:src/PCB.cpp   **** 
  22:src/PCB.cpp   **** PCB *PCB::createProccess(PCB::processMain main, void* arguments) {
  23:src/PCB.cpp   ****     PCB* object = new PCB(main, DEFAULT_TIME_SLICE, arguments);
  24:src/PCB.cpp   ****     if(!object->registers || !object->sysStack) return nullptr;
  25:src/PCB.cpp   ****     return object;
  26:src/PCB.cpp   **** }
  27:src/PCB.cpp   **** 
GAS LISTING /tmp/cc66AmNZ.s 			page 3


  28:src/PCB.cpp   **** PCB *PCB::createSysProcess(PCB::processMain main, void* arguments) {
  29:src/PCB.cpp   ****     if(!pcbCache) initPCBCache();
  30:src/PCB.cpp   ****     PCB* object = (PCB*) kmem_cache_alloc(pcbCache);
  31:src/PCB.cpp   ****     object->initObject(main, DEFAULT_TIME_SLICE, arguments);
  32:src/PCB.cpp   ****     if(!object->registers || !object->sysStack) return nullptr;
  33:src/PCB.cpp   ****     return object;
  34:src/PCB.cpp   **** }
  35:src/PCB.cpp   **** 
  36:src/PCB.cpp   **** void PCB::yield() {
  37:src/PCB.cpp   ****     size_t code = Kernel::sysCallCodes::thread_dispatch;
  38:src/PCB.cpp   ****     asm volatile("mv a0, %0" : : "r" (code));
  39:src/PCB.cpp   ****     asm volatile("ecall"); // prelazimo u prekidnu rutinu koja cuva registre i vrsi promenu konteks
  40:src/PCB.cpp   **** }
  41:src/PCB.cpp   **** 
  42:src/PCB.cpp   **** void PCB::dispatch() {
  43:src/PCB.cpp   ****     PCB* old = running;
  44:src/PCB.cpp   ****     if(!old->isFinished() && !old->blocked) { // ako se nije zavrsio i nije blokiran
  45:src/PCB.cpp   ****         Scheduler::put(old);
  46:src/PCB.cpp   ****     }
  47:src/PCB.cpp   ****     running = Scheduler::get();
  48:src/PCB.cpp   **** 
  49:src/PCB.cpp   ****     if(PCB::running->firstCall) {
  50:src/PCB.cpp   ****         PCB::running->firstCall = false;
  51:src/PCB.cpp   ****         switchContext1(old->registers, running->registers);
  52:src/PCB.cpp   ****     }
  53:src/PCB.cpp   ****     else {
  54:src/PCB.cpp   ****         switchContext2(old->registers, running->registers);
  55:src/PCB.cpp   ****     }
  56:src/PCB.cpp   **** 
  57:src/PCB.cpp   **** }
  58:src/PCB.cpp   **** 
  59:src/PCB.cpp   **** // main_ == nullptr ako smo u glavnom procesu
  60:src/PCB.cpp   **** PCB::PCB(PCB::processMain main_, size_t timeSlice_, void* mainArguments_) {
  61:src/PCB.cpp   ****     initObject(main_, timeSlice_, mainArguments_);
  62:src/PCB.cpp   **** }
  63:src/PCB.cpp   **** 
  64:src/PCB.cpp   **** PCB::~PCB() {
  65:src/PCB.cpp   ****     delete[] stack;
  66:src/PCB.cpp   ****     delete[] sysStack;
  67:src/PCB.cpp   **** }
  68:src/PCB.cpp   **** 
  69:src/PCB.cpp   **** void *PCB::operator new(size_t size) {
  70:src/PCB.cpp   ****     return MemoryAllocator::mem_alloc(size);
  71:src/PCB.cpp   **** }
  72:src/PCB.cpp   **** 
  73:src/PCB.cpp   **** void PCB::operator delete(void *memSegment) {
  74:src/PCB.cpp   ****     MemoryAllocator::mem_free(memSegment);
  75:src/PCB.cpp   **** }
  76:src/PCB.cpp   **** 
  77:src/PCB.cpp   **** void PCB::proccessWrapper() { // iz prekidne rutine skacemo ovde kada prvi put ulazimo u nit
  91              		.loc 1 77 29 is_stmt 1
  92              		.cfi_startproc
  93 0064 130101FF 		addi	sp,sp,-16
  94              		.cfi_def_cfa_offset 16
  95 0068 23341100 		sd	ra,8(sp)
  96 006c 23308100 		sd	s0,0(sp)
  97              		.cfi_offset 1, -8
GAS LISTING /tmp/cc66AmNZ.s 			page 4


  98              		.cfi_offset 8, -16
  99 0070 13040101 		addi	s0,sp,16
 100              		.cfi_def_cfa 8, 0
  78:src/PCB.cpp   ****     Kernel::popSppSpie(); // izlazimo iz prekidne rutine
 101              		.loc 1 78 5
 102              		.loc 1 78 23 is_stmt 0
 103 0074 97000000 		call	_ZN6Kernel10popSppSpieEv@plt
 103      E7800000 
 104              	.LVL7:
  79:src/PCB.cpp   ****     void* arg = PCB::running->mainArguments;
 105              		.loc 1 79 5 is_stmt 1
 106              		.loc 1 79 31 is_stmt 0
 107 007c 97070000 		ld	a5,.LANCHOR0
 107      83B70700 
 108              		.loc 1 79 11
 109 0084 03B78703 		ld	a4,56(a5)
 110              	.LVL8:
  80:src/PCB.cpp   ****     asm volatile("mv a0, %0" : : "r" (arg)); // u a0 postavljamo argument glavne funkcije procesa
 111              		.loc 1 80 5 is_stmt 1
 112              		.loc 1 80 44 is_stmt 0
 113              	#APP
 114              	# 80 "src/PCB.cpp" 1
  81              	    running->main();
 115              		mv a0, a4
 116              	# 0 "" 2
 117              		.loc 1 81 5 is_stmt 1
 118              		.loc 1 81 14 is_stmt 0
 119              	#NO_APP
 120 008c 83B70702 		ld	a5,32(a5)
 121              		.loc 1 81 18
 122 0090 E7800700 		jalr	a5
 123              	.LVL9:
  82:src/PCB.cpp   ****     thread_exit();
 124              		.loc 1 82 5 is_stmt 1
 125              		.loc 1 82 16 is_stmt 0
 126 0094 97000000 		call	_Z11thread_exitv@plt
 126      E7800000 
 127              	.LVL10:
  83:src/PCB.cpp   **** }
 128              		.loc 1 83 1
 129 009c 83308100 		ld	ra,8(sp)
 130              		.cfi_restore 1
 131 00a0 03340100 		ld	s0,0(sp)
 132              		.cfi_restore 8
 133              		.cfi_def_cfa 2, 16
 134 00a4 13010101 		addi	sp,sp,16
 135              		.cfi_def_cfa_offset 0
 136 00a8 67800000 		jr	ra
 137              		.cfi_endproc
 138              	.LFE58:
 140              		.align	2
 141              		.globl	_ZN3PCB5yieldEv
 143              	_ZN3PCB5yieldEv:
 144              	.LFB48:
  36:src/PCB.cpp   ****     size_t code = Kernel::sysCallCodes::thread_dispatch;
 145              		.loc 1 36 19 is_stmt 1
 146              		.cfi_startproc
GAS LISTING /tmp/cc66AmNZ.s 			page 5


 147 00ac 130101FF 		addi	sp,sp,-16
 148              		.cfi_def_cfa_offset 16
 149 00b0 23348100 		sd	s0,8(sp)
 150              		.cfi_offset 8, -8
 151 00b4 13040101 		addi	s0,sp,16
 152              		.cfi_def_cfa 8, 0
  37:src/PCB.cpp   ****     asm volatile("mv a0, %0" : : "r" (code));
 153              		.loc 1 37 5
 154              	.LVL11:
  38:src/PCB.cpp   ****     asm volatile("ecall"); // prelazimo u prekidnu rutinu koja cuva registre i vrsi promenu konteks
 155              		.loc 1 38 5
  38:src/PCB.cpp   ****     asm volatile("ecall"); // prelazimo u prekidnu rutinu koja cuva registre i vrsi promenu konteks
 156              		.loc 1 38 45 is_stmt 0
 157 00b8 93073001 		li	a5,19
 158              	#APP
 159              	# 38 "src/PCB.cpp" 1
  39:src/PCB.cpp   **** }
 160              		mv a0, a5
 161              	# 0 "" 2
 162              		.loc 1 39 5 is_stmt 1
  39:src/PCB.cpp   **** }
 163              		.loc 1 39 26 is_stmt 0
 164              	# 39 "src/PCB.cpp" 1
  40:src/PCB.cpp   **** 
 165              		ecall
 166              	# 0 "" 2
 167              		.loc 1 40 1
 168              	#NO_APP
 169 00c4 03348100 		ld	s0,8(sp)
 170              		.cfi_restore 8
 171              		.cfi_def_cfa 2, 16
 172 00c8 13010101 		addi	sp,sp,16
 173              		.cfi_def_cfa_offset 0
 174 00cc 67800000 		jr	ra
 175              		.cfi_endproc
 176              	.LFE48:
 178              		.align	2
 179              		.globl	_ZN3PCB8dispatchEv
 181              	_ZN3PCB8dispatchEv:
 182              	.LFB49:
  42:src/PCB.cpp   ****     PCB* old = running;
 183              		.loc 1 42 22 is_stmt 1
 184              		.cfi_startproc
 185 00d0 130101FE 		addi	sp,sp,-32
 186              		.cfi_def_cfa_offset 32
 187 00d4 233C1100 		sd	ra,24(sp)
 188 00d8 23388100 		sd	s0,16(sp)
 189 00dc 23349100 		sd	s1,8(sp)
 190              		.cfi_offset 1, -8
 191              		.cfi_offset 8, -16
 192              		.cfi_offset 9, -24
 193 00e0 13040102 		addi	s0,sp,32
 194              		.cfi_def_cfa 8, 0
  43:src/PCB.cpp   ****     if(!old->isFinished() && !old->blocked) { // ako se nije zavrsio i nije blokiran
 195              		.loc 1 43 5
  43:src/PCB.cpp   ****     if(!old->isFinished() && !old->blocked) { // ako se nije zavrsio i nije blokiran
 196              		.loc 1 43 10 is_stmt 0
GAS LISTING /tmp/cc66AmNZ.s 			page 6


 197 00e4 97040000 		ld	s1,.LANCHOR0
 197      83B40400 
 198              	.LVL12:
  44:src/PCB.cpp   ****         Scheduler::put(old);
 199              		.loc 1 44 5 is_stmt 1
 200              	.LBB4:
 201              	.LBB5:
 202              		.file 2 "src/../h/PCB.h"
   1:src/../h/PCB.h **** #ifndef PCB_H
   2:src/../h/PCB.h **** #define PCB_H
   3:src/../h/PCB.h **** 
   4:src/../h/PCB.h **** #include "hw.h"
   5:src/../h/PCB.h **** #include "slab.h"
   6:src/../h/PCB.h **** 
   7:src/../h/PCB.h **** extern "C" void interruptHandler();
   8:src/../h/PCB.h **** 
   9:src/../h/PCB.h **** class PCB {
  10:src/../h/PCB.h **** friend class Scheduler;
  11:src/../h/PCB.h **** friend void interruptHandler();
  12:src/../h/PCB.h **** friend class Kernel;
  13:src/../h/PCB.h **** friend class SCB;
  14:src/../h/PCB.h **** public:
  15:src/../h/PCB.h ****     // vraca true ako se proces zavrsio, false ako nije
  16:src/../h/PCB.h ****     bool isFinished() const {
  17:src/../h/PCB.h ****         return finished;
 203              		.loc 2 17 9
 204              		.loc 2 17 16 is_stmt 0
 205 00ec 83C78402 		lbu	a5,40(s1)
 206              	.LVL13:
 207              	.LBE5:
 208              	.LBE4:
  44:src/PCB.cpp   ****         Scheduler::put(old);
 209              		.loc 1 44 27
 210 00f0 63960700 		bnez	a5,.L12
  44:src/PCB.cpp   ****         Scheduler::put(old);
 211              		.loc 1 44 36 discriminator 1
 212 00f4 83C79402 		lbu	a5,41(s1)
  44:src/PCB.cpp   ****         Scheduler::put(old);
 213              		.loc 1 44 27 discriminator 1
 214 00f8 63820704 		beqz	a5,.L16
 215              	.L12:
  47:src/PCB.cpp   **** 
 216              		.loc 1 47 5 is_stmt 1
  47:src/PCB.cpp   **** 
 217              		.loc 1 47 29 is_stmt 0
 218 00fc 97000000 		call	_ZN9Scheduler3getEv@plt
 218      E7800000 
 219              	.LVL14:
  47:src/PCB.cpp   **** 
 220              		.loc 1 47 13
 221 0104 97070000 		sd	a0,.LANCHOR0,a5
 221      23B0A700 
  49:src/PCB.cpp   ****         PCB::running->firstCall = false;
 222              		.loc 1 49 5 is_stmt 1
  49:src/PCB.cpp   ****         PCB::running->firstCall = false;
 223              		.loc 1 49 22 is_stmt 0
 224 010c 83478504 		lbu	a5,72(a0)
GAS LISTING /tmp/cc66AmNZ.s 			page 7


  49:src/PCB.cpp   ****         PCB::running->firstCall = false;
 225              		.loc 1 49 5
 226 0110 638E0702 		beqz	a5,.L13
  50:src/PCB.cpp   ****         switchContext1(old->registers, running->registers);
 227              		.loc 1 50 9 is_stmt 1
  50:src/PCB.cpp   ****         switchContext1(old->registers, running->registers);
 228              		.loc 1 50 33 is_stmt 0
 229 0114 23040504 		sb	zero,72(a0)
  51:src/PCB.cpp   ****     }
 230              		.loc 1 51 9 is_stmt 1
  51:src/PCB.cpp   ****     }
 231              		.loc 1 51 23 is_stmt 0
 232 0118 83358501 		ld	a1,24(a0)
 233 011c 03B58401 		ld	a0,24(s1)
 234 0120 97000000 		call	_ZN3PCB14switchContext1EPmS0_@plt
 234      E7800000 
 235              	.LVL15:
 236              	.L11:
  57:src/PCB.cpp   **** 
 237              		.loc 1 57 1
 238 0128 83308101 		ld	ra,24(sp)
 239              		.cfi_remember_state
 240              		.cfi_restore 1
 241 012c 03340101 		ld	s0,16(sp)
 242              		.cfi_restore 8
 243              		.cfi_def_cfa 2, 32
 244 0130 83348100 		ld	s1,8(sp)
 245              		.cfi_restore 9
 246              	.LVL16:
 247 0134 13010102 		addi	sp,sp,32
 248              		.cfi_def_cfa_offset 0
 249 0138 67800000 		jr	ra
 250              	.LVL17:
 251              	.L16:
 252              		.cfi_restore_state
  45:src/PCB.cpp   ****     }
 253              		.loc 1 45 9 is_stmt 1
  45:src/PCB.cpp   ****     }
 254              		.loc 1 45 23 is_stmt 0
 255 013c 13850400 		mv	a0,s1
 256 0140 97000000 		call	_ZN9Scheduler3putEP3PCB@plt
 256      E7800000 
 257              	.LVL18:
 258 0148 6FF05FFB 		j	.L12
 259              	.L13:
  54:src/PCB.cpp   ****     }
 260              		.loc 1 54 9 is_stmt 1
  54:src/PCB.cpp   ****     }
 261              		.loc 1 54 23 is_stmt 0
 262 014c 83358501 		ld	a1,24(a0)
 263 0150 03B58401 		ld	a0,24(s1)
 264 0154 97000000 		call	_ZN3PCB14switchContext2EPmS0_@plt
 264      E7800000 
 265              	.LVL19:
  57:src/PCB.cpp   **** 
 266              		.loc 1 57 1
 267 015c 6FF0DFFC 		j	.L11
GAS LISTING /tmp/cc66AmNZ.s 			page 8


 268              		.cfi_endproc
 269              	.LFE49:
 271              		.align	2
 272              		.globl	_ZN3PCBD2Ev
 274              	_ZN3PCBD2Ev:
 275              	.LFB54:
  64:src/PCB.cpp   ****     delete[] stack;
 276              		.loc 1 64 1 is_stmt 1
 277              		.cfi_startproc
 278              	.LVL20:
 279 0160 130101FE 		addi	sp,sp,-32
 280              		.cfi_def_cfa_offset 32
 281 0164 233C1100 		sd	ra,24(sp)
 282 0168 23388100 		sd	s0,16(sp)
 283 016c 23349100 		sd	s1,8(sp)
 284              		.cfi_offset 1, -8
 285              		.cfi_offset 8, -16
 286              		.cfi_offset 9, -24
 287 0170 13040102 		addi	s0,sp,32
 288              		.cfi_def_cfa 8, 0
 289 0174 93040500 		mv	s1,a0
 290              	.LBB6:
  65:src/PCB.cpp   ****     delete[] sysStack;
 291              		.loc 1 65 5
  65:src/PCB.cpp   ****     delete[] sysStack;
 292              		.loc 1 65 14 is_stmt 0
 293 0178 03358500 		ld	a0,8(a0)
 294              	.LVL21:
  65:src/PCB.cpp   ****     delete[] sysStack;
 295              		.loc 1 65 19
 296 017c 63060500 		beqz	a0,.L18
  65:src/PCB.cpp   ****     delete[] sysStack;
 297              		.loc 1 65 14 discriminator 1
 298 0180 97000000 		call	_ZdaPv@plt
 298      E7800000 
 299              	.LVL22:
 300              	.L18:
  66:src/PCB.cpp   **** }
 301              		.loc 1 66 5 is_stmt 1
  66:src/PCB.cpp   **** }
 302              		.loc 1 66 14 is_stmt 0
 303 0188 03B50401 		ld	a0,16(s1)
  66:src/PCB.cpp   **** }
 304              		.loc 1 66 22
 305 018c 63060500 		beqz	a0,.L17
  66:src/PCB.cpp   **** }
 306              		.loc 1 66 14 discriminator 1
 307 0190 97000000 		call	_ZdaPv@plt
 307      E7800000 
 308              	.LVL23:
 309              	.L17:
 310              	.LBE6:
  67:src/PCB.cpp   **** 
 311              		.loc 1 67 1
 312 0198 83308101 		ld	ra,24(sp)
 313              		.cfi_restore 1
 314 019c 03340101 		ld	s0,16(sp)
GAS LISTING /tmp/cc66AmNZ.s 			page 9


 315              		.cfi_restore 8
 316              		.cfi_def_cfa 2, 32
 317 01a0 83348100 		ld	s1,8(sp)
 318              		.cfi_restore 9
 319              	.LVL24:
 320 01a4 13010102 		addi	sp,sp,32
 321              		.cfi_def_cfa_offset 0
 322 01a8 67800000 		jr	ra
 323              		.cfi_endproc
 324              	.LFE54:
 326              		.globl	_ZN3PCBD1Ev
 327              		.set	_ZN3PCBD1Ev,_ZN3PCBD2Ev
 328              		.align	2
 329              		.globl	_ZN3PCBnwEm
 331              	_ZN3PCBnwEm:
 332              	.LFB56:
  69:src/PCB.cpp   ****     return MemoryAllocator::mem_alloc(size);
 333              		.loc 1 69 38 is_stmt 1
 334              		.cfi_startproc
 335              	.LVL25:
 336 01ac 130101FF 		addi	sp,sp,-16
 337              		.cfi_def_cfa_offset 16
 338 01b0 23341100 		sd	ra,8(sp)
 339 01b4 23308100 		sd	s0,0(sp)
 340              		.cfi_offset 1, -8
 341              		.cfi_offset 8, -16
 342 01b8 13040101 		addi	s0,sp,16
 343              		.cfi_def_cfa 8, 0
  70:src/PCB.cpp   **** }
 344              		.loc 1 70 5
  70:src/PCB.cpp   **** }
 345              		.loc 1 70 38 is_stmt 0
 346 01bc 97000000 		call	_ZN15MemoryAllocator9mem_allocEm@plt
 346      E7800000 
 347              	.LVL26:
  71:src/PCB.cpp   **** 
 348              		.loc 1 71 1
 349 01c4 83308100 		ld	ra,8(sp)
 350              		.cfi_restore 1
 351 01c8 03340100 		ld	s0,0(sp)
 352              		.cfi_restore 8
 353              		.cfi_def_cfa 2, 16
 354 01cc 13010101 		addi	sp,sp,16
 355              		.cfi_def_cfa_offset 0
 356 01d0 67800000 		jr	ra
 357              		.cfi_endproc
 358              	.LFE56:
 360              		.align	2
 361              		.globl	_ZN3PCBdlEPv
 363              	_ZN3PCBdlEPv:
 364              	.LFB57:
  73:src/PCB.cpp   ****     MemoryAllocator::mem_free(memSegment);
 365              		.loc 1 73 45 is_stmt 1
 366              		.cfi_startproc
 367              	.LVL27:
 368 01d4 130101FF 		addi	sp,sp,-16
 369              		.cfi_def_cfa_offset 16
GAS LISTING /tmp/cc66AmNZ.s 			page 10


 370 01d8 23341100 		sd	ra,8(sp)
 371 01dc 23308100 		sd	s0,0(sp)
 372              		.cfi_offset 1, -8
 373              		.cfi_offset 8, -16
 374 01e0 13040101 		addi	s0,sp,16
 375              		.cfi_def_cfa 8, 0
  74:src/PCB.cpp   **** }
 376              		.loc 1 74 5
  74:src/PCB.cpp   **** }
 377              		.loc 1 74 30 is_stmt 0
 378 01e4 97000000 		call	_ZN15MemoryAllocator8mem_freeEPv@plt
 378      E7800000 
 379              	.LVL28:
  75:src/PCB.cpp   **** 
 380              		.loc 1 75 1
 381 01ec 83308100 		ld	ra,8(sp)
 382              		.cfi_restore 1
 383 01f0 03340100 		ld	s0,0(sp)
 384              		.cfi_restore 8
 385              		.cfi_def_cfa 2, 16
 386 01f4 13010101 		addi	sp,sp,16
 387              		.cfi_def_cfa_offset 0
 388 01f8 67800000 		jr	ra
 389              		.cfi_endproc
 390              	.LFE57:
 392              		.align	2
 393              		.globl	_ZN3PCB10getContextEv
 395              	_ZN3PCB10getContextEv:
 396              	.LFB59:
  84:src/PCB.cpp   **** 
  85:src/PCB.cpp   **** size_t *PCB::getContext() {
 397              		.loc 1 85 27 is_stmt 1
 398              		.cfi_startproc
 399 01fc 130101FF 		addi	sp,sp,-16
 400              		.cfi_def_cfa_offset 16
 401 0200 23348100 		sd	s0,8(sp)
 402              		.cfi_offset 8, -8
 403 0204 13040101 		addi	s0,sp,16
 404              		.cfi_def_cfa 8, 0
  86:src/PCB.cpp   ****     return running->registers;
 405              		.loc 1 86 5
  87:src/PCB.cpp   **** }
 406              		.loc 1 87 1 is_stmt 0
 407 0208 97070000 		ld	a5,.LANCHOR0
 407      83B70700 
 408 0210 03B58701 		ld	a0,24(a5)
 409 0214 03348100 		ld	s0,8(sp)
 410              		.cfi_restore 8
 411              		.cfi_def_cfa 2, 16
 412 0218 13010101 		addi	sp,sp,16
 413              		.cfi_def_cfa_offset 0
 414 021c 67800000 		jr	ra
 415              		.cfi_endproc
 416              	.LFE59:
 418              		.align	2
 419              		.globl	_ZN3PCB10initObjectEPFvvEmPv
 421              	_ZN3PCB10initObjectEPFvvEmPv:
GAS LISTING /tmp/cc66AmNZ.s 			page 11


 422              	.LFB60:
  88:src/PCB.cpp   **** 
  89:src/PCB.cpp   **** void PCB::initObject(PCB::processMain main_, size_t timeSlice_, void* mainArguments_) {
 423              		.loc 1 89 87 is_stmt 1
 424              		.cfi_startproc
 425              	.LVL29:
 426 0220 130101FE 		addi	sp,sp,-32
 427              		.cfi_def_cfa_offset 32
 428 0224 233C1100 		sd	ra,24(sp)
 429 0228 23388100 		sd	s0,16(sp)
 430 022c 23349100 		sd	s1,8(sp)
 431              		.cfi_offset 1, -8
 432              		.cfi_offset 8, -16
 433              		.cfi_offset 9, -24
 434 0230 13040102 		addi	s0,sp,32
 435              		.cfi_def_cfa 8, 0
 436 0234 93040500 		mv	s1,a0
  90:src/PCB.cpp   ****     firstCall = true;
 437              		.loc 1 90 5
 438              		.loc 1 90 15 is_stmt 0
 439 0238 93071000 		li	a5,1
 440 023c 2304F504 		sb	a5,72(a0)
  91:src/PCB.cpp   ****     registers = nullptr;
 441              		.loc 1 91 5 is_stmt 1
 442              		.loc 1 91 15 is_stmt 0
 443 0240 233C0500 		sd	zero,24(a0)
  92:src/PCB.cpp   ****     nextInList = nullptr;
 444              		.loc 1 92 5 is_stmt 1
 445              		.loc 1 92 16 is_stmt 0
 446 0244 23300500 		sd	zero,0(a0)
  93:src/PCB.cpp   ****     timeSleeping = 0;
 447              		.loc 1 93 5 is_stmt 1
 448              		.loc 1 93 18 is_stmt 0
 449 0248 23380502 		sd	zero,48(a0)
  94:src/PCB.cpp   ****     finished = blocked = semDeleted = false;
 450              		.loc 1 94 5 is_stmt 1
 451              		.loc 1 94 37 is_stmt 0
 452 024c 23050502 		sb	zero,42(a0)
 453              		.loc 1 94 24
 454 0250 A3040502 		sb	zero,41(a0)
 455              		.loc 1 94 14
 456 0254 23040502 		sb	zero,40(a0)
  95:src/PCB.cpp   ****     main = main_;
 457              		.loc 1 95 5 is_stmt 1
 458              		.loc 1 95 10 is_stmt 0
 459 0258 2330B502 		sd	a1,32(a0)
  96:src/PCB.cpp   ****     timeSlice = timeSlice_;
 460              		.loc 1 96 5 is_stmt 1
 461              		.loc 1 96 15 is_stmt 0
 462 025c 2330C504 		sd	a2,64(a0)
  97:src/PCB.cpp   ****     mainArguments = mainArguments_;
 463              		.loc 1 97 5 is_stmt 1
 464              		.loc 1 97 19 is_stmt 0
 465 0260 233CD502 		sd	a3,56(a0)
  98:src/PCB.cpp   ****     registers = (size_t*)MemoryAllocator::mem_alloc(33*sizeof(size_t)); // mozemo direktno jer se z
 466              		.loc 1 98 5 is_stmt 1
 467              		.loc 1 98 52 is_stmt 0
GAS LISTING /tmp/cc66AmNZ.s 			page 12


 468 0264 13058010 		li	a0,264
 469              	.LVL30:
 470 0268 97000000 		call	_ZN15MemoryAllocator9mem_allocEm@plt
 470      E7800000 
 471              	.LVL31:
 472              		.loc 1 98 15
 473 0270 23BCA400 		sd	a0,24(s1)
  99:src/PCB.cpp   ****     if(!registers) return; // greska
 474              		.loc 1 99 5 is_stmt 1
 475 0274 63020504 		beqz	a0,.L27
 100:src/PCB.cpp   ****     sysStack = (size_t*)MemoryAllocator::mem_alloc(DEFAULT_STACK_SIZE*sizeof(size_t));
 476              		.loc 1 100 5
 477              		.loc 1 100 51 is_stmt 0
 478 0278 37850000 		li	a0,32768
 479 027c 97000000 		call	_ZN15MemoryAllocator9mem_allocEm@plt
 479      E7800000 
 480              	.LVL32:
 481              		.loc 1 100 14
 482 0284 23B8A400 		sd	a0,16(s1)
 101:src/PCB.cpp   ****     if(!sysStack) return; // greska
 483              		.loc 1 101 5 is_stmt 1
 484 0288 63080502 		beqz	a0,.L27
 102:src/PCB.cpp   ****     registers[0] = (size_t)&sysStack[DEFAULT_STACK_SIZE]; // ssp postavljamo na vrh steka
 485              		.loc 1 102 5
 486              		.loc 1 102 28 is_stmt 0
 487 028c B7870000 		li	a5,32768
 488 0290 3305F500 		add	a0,a0,a5
 489              		.loc 1 102 5
 490 0294 83B78401 		ld	a5,24(s1)
 491              		.loc 1 102 18
 492 0298 23B0A700 		sd	a0,0(a5)
 103:src/PCB.cpp   ****     registers[32] = (size_t)&proccessWrapper; // u ra cuvamo proccessWrapper
 493              		.loc 1 103 5 is_stmt 1
 494 029c 83B78401 		ld	a5,24(s1)
 495              		.loc 1 103 19 is_stmt 0
 496 02a0 17070000 		lla	a4,_ZN3PCB15proccessWrapperEv
 496      13070700 
 497 02a8 23B0E710 		sd	a4,256(a5)
 104:src/PCB.cpp   ****     stack = nullptr; // stek pravimo u sistemskom pozivu thread_create
 498              		.loc 1 104 5 is_stmt 1
 499              		.loc 1 104 11 is_stmt 0
 500 02ac 23B40400 		sd	zero,8(s1)
 105:src/PCB.cpp   ****     if(main == nullptr) firstCall = false; //  jer je glavni proces vec pokrenut, necemo ici u proc
 501              		.loc 1 105 5 is_stmt 1
 502              		.loc 1 105 8 is_stmt 0
 503 02b0 83B70402 		ld	a5,32(s1)
 504              		.loc 1 105 5
 505 02b4 638C0700 		beqz	a5,.L30
 506              	.L27:
 106:src/PCB.cpp   **** }
 507              		.loc 1 106 1
 508 02b8 83308101 		ld	ra,24(sp)
 509              		.cfi_remember_state
 510              		.cfi_restore 1
 511 02bc 03340101 		ld	s0,16(sp)
 512              		.cfi_restore 8
 513              		.cfi_def_cfa 2, 32
GAS LISTING /tmp/cc66AmNZ.s 			page 13


 514 02c0 83348100 		ld	s1,8(sp)
 515              		.cfi_restore 9
 516              	.LVL33:
 517 02c4 13010102 		addi	sp,sp,32
 518              		.cfi_def_cfa_offset 0
 519 02c8 67800000 		jr	ra
 520              	.LVL34:
 521              	.L30:
 522              		.cfi_restore_state
 105:src/PCB.cpp   ****     if(main == nullptr) firstCall = false; //  jer je glavni proces vec pokrenut, necemo ici u proc
 523              		.loc 1 105 25 is_stmt 1 discriminator 1
 105:src/PCB.cpp   ****     if(main == nullptr) firstCall = false; //  jer je glavni proces vec pokrenut, necemo ici u proc
 524              		.loc 1 105 35 is_stmt 0 discriminator 1
 525 02cc 23840404 		sb	zero,72(s1)
 526 02d0 6FF09FFE 		j	.L27
 527              		.cfi_endproc
 528              	.LFE60:
 530              		.align	2
 531              		.globl	_ZN3PCBC2EPFvvEmPv
 533              	_ZN3PCBC2EPFvvEmPv:
 534              	.LFB51:
  60:src/PCB.cpp   ****     initObject(main_, timeSlice_, mainArguments_);
 535              		.loc 1 60 1 is_stmt 1
 536              		.cfi_startproc
 537              	.LVL35:
 538 02d4 130101FF 		addi	sp,sp,-16
 539              		.cfi_def_cfa_offset 16
 540 02d8 23341100 		sd	ra,8(sp)
 541 02dc 23308100 		sd	s0,0(sp)
 542              		.cfi_offset 1, -8
 543              		.cfi_offset 8, -16
 544 02e0 13040101 		addi	s0,sp,16
 545              		.cfi_def_cfa 8, 0
 546              	.LBB7:
  61:src/PCB.cpp   **** }
 547              		.loc 1 61 5
  61:src/PCB.cpp   **** }
 548              		.loc 1 61 15 is_stmt 0
 549 02e4 97000000 		call	_ZN3PCB10initObjectEPFvvEmPv
 549      E7800000 
 550              	.LVL36:
 551              	.LBE7:
  62:src/PCB.cpp   **** 
 552              		.loc 1 62 1
 553 02ec 83308100 		ld	ra,8(sp)
 554              		.cfi_restore 1
 555 02f0 03340100 		ld	s0,0(sp)
 556              		.cfi_restore 8
 557              		.cfi_def_cfa 2, 16
 558 02f4 13010101 		addi	sp,sp,16
 559              		.cfi_def_cfa_offset 0
 560 02f8 67800000 		jr	ra
 561              		.cfi_endproc
 562              	.LFE51:
 564              		.globl	_ZN3PCBC1EPFvvEmPv
 565              		.set	_ZN3PCBC1EPFvvEmPv,_ZN3PCBC2EPFvvEmPv
 566              		.align	2
GAS LISTING /tmp/cc66AmNZ.s 			page 14


 567              		.globl	_ZN3PCB14createProccessEPFvvEPv
 569              	_ZN3PCB14createProccessEPFvvEPv:
 570              	.LFB46:
  22:src/PCB.cpp   ****     PCB* object = new PCB(main, DEFAULT_TIME_SLICE, arguments);
 571              		.loc 1 22 66 is_stmt 1
 572              		.cfi_startproc
 573              		.cfi_personality 0x9b,DW.ref.__gxx_personality_v0
 574              		.cfi_lsda 0x1b,.LLSDA46
 575              	.LVL37:
 576 02fc 130101FD 		addi	sp,sp,-48
 577              		.cfi_def_cfa_offset 48
 578 0300 23341102 		sd	ra,40(sp)
 579 0304 23308102 		sd	s0,32(sp)
 580 0308 233C9100 		sd	s1,24(sp)
 581 030c 23382101 		sd	s2,16(sp)
 582 0310 23343101 		sd	s3,8(sp)
 583              		.cfi_offset 1, -8
 584              		.cfi_offset 8, -16
 585              		.cfi_offset 9, -24
 586              		.cfi_offset 18, -32
 587              		.cfi_offset 19, -40
 588 0314 13040103 		addi	s0,sp,48
 589              		.cfi_def_cfa 8, 0
 590 0318 13090500 		mv	s2,a0
 591 031c 93890500 		mv	s3,a1
  23:src/PCB.cpp   ****     if(!object->registers || !object->sysStack) return nullptr;
 592              		.loc 1 23 5
  23:src/PCB.cpp   ****     if(!object->registers || !object->sysStack) return nullptr;
 593              		.loc 1 23 62 is_stmt 0
 594 0320 13050005 		li	a0,80
 595              	.LVL38:
 596              	.LEHB0:
 597 0324 97000000 		call	_ZN3PCBnwEm
 597      E7800000 
 598              	.LVL39:
 599              	.LEHE0:
 600 032c 93040500 		mv	s1,a0
 601 0330 630C0500 		beqz	a0,.L34
  23:src/PCB.cpp   ****     if(!object->registers || !object->sysStack) return nullptr;
 602              		.loc 1 23 62 discriminator 1
 603 0334 93860900 		mv	a3,s3
 604 0338 13062000 		li	a2,2
 605 033c 93050900 		mv	a1,s2
 606              	.LEHB1:
 607 0340 97000000 		call	_ZN3PCBC1EPFvvEmPv
 607      E7800000 
 608              	.LVL40:
 609              	.LEHE1:
 610              	.L34:
  24:src/PCB.cpp   ****     return object;
 611              		.loc 1 24 5 is_stmt 1 discriminator 6
  24:src/PCB.cpp   ****     return object;
 612              		.loc 1 24 17 is_stmt 0 discriminator 6
 613 0348 83B78401 		ld	a5,24(s1)
  24:src/PCB.cpp   ****     return object;
 614              		.loc 1 24 5 discriminator 6
 615 034c 63860702 		beqz	a5,.L37
GAS LISTING /tmp/cc66AmNZ.s 			page 15


  24:src/PCB.cpp   ****     return object;
 616              		.loc 1 24 39 discriminator 2
 617 0350 83B70401 		ld	a5,16(s1)
  24:src/PCB.cpp   ****     return object;
 618              		.loc 1 24 27 discriminator 2
 619 0354 63860702 		beqz	a5,.L41
 620              	.LVL41:
 621              	.L33:
  26:src/PCB.cpp   **** 
 622              		.loc 1 26 1
 623 0358 13850400 		mv	a0,s1
 624 035c 83308102 		ld	ra,40(sp)
 625              		.cfi_remember_state
 626              		.cfi_restore 1
 627 0360 03340102 		ld	s0,32(sp)
 628              		.cfi_restore 8
 629              		.cfi_def_cfa 2, 48
 630 0364 83348101 		ld	s1,24(sp)
 631              		.cfi_restore 9
 632 0368 03390101 		ld	s2,16(sp)
 633              		.cfi_restore 18
 634              	.LVL42:
 635 036c 83398100 		ld	s3,8(sp)
 636              		.cfi_restore 19
 637              	.LVL43:
 638 0370 13010103 		addi	sp,sp,48
 639              		.cfi_def_cfa_offset 0
 640 0374 67800000 		jr	ra
 641              	.LVL44:
 642              	.L37:
 643              		.cfi_restore_state
  24:src/PCB.cpp   ****     return object;
 644              		.loc 1 24 56
 645 0378 93040000 		li	s1,0
 646              	.LVL45:
 647 037c 6FF0DFFD 		j	.L33
 648              	.LVL46:
 649              	.L41:
 650 0380 93040000 		li	s1,0
 651              	.LVL47:
 652 0384 6FF05FFD 		j	.L33
 653              	.L39:
 654 0388 13090500 		mv	s2,a0
 655              	.LVL48:
  23:src/PCB.cpp   ****     if(!object->registers || !object->sysStack) return nullptr;
 656              		.loc 1 23 62
 657 038c 13850400 		mv	a0,s1
 658 0390 97000000 		call	_ZN3PCBdlEPv
 658      E7800000 
 659              	.LVL49:
 660 0398 13050900 		mv	a0,s2
 661              	.LEHB2:
 662 039c 97000000 		call	_Unwind_Resume@plt
 662      E7800000 
 663              	.LVL50:
 664              	.LEHE2:
 665              		.cfi_endproc
GAS LISTING /tmp/cc66AmNZ.s 			page 16


 666              	.LFE46:
 667              		.globl	__gxx_personality_v0
 668              		.section	.gcc_except_table,"a",@progbits
 669              	.LLSDA46:
 670 0000 FF       		.byte	0xff
 671 0001 FF       		.byte	0xff
 672 0002 03       		.byte	0x3
 673 0003 27       		.byte	0x27
 674 0004 00000000 		.4byte	.LEHB0-.LFB46
 675 0008 00000000 		.4byte	.LEHE0-.LEHB0
 676 000c 00000000 		.4byte	0
 677 0010 00       		.byte	0
 678 0011 00000000 		.4byte	.LEHB1-.LFB46
 679 0015 00000000 		.4byte	.LEHE1-.LEHB1
 680 0019 00000000 		.4byte	.L39-.LFB46
 681 001d 00       		.byte	0
 682 001e 00000000 		.4byte	.LEHB2-.LFB46
 683 0022 00000000 		.4byte	.LEHE2-.LEHB2
 684 0026 00000000 		.4byte	0
 685 002a 00       		.byte	0
 686              		.text
 688              		.section	.rodata.str1.8,"aMS",@progbits,1
 689              		.align	3
 690              	.LC0:
 691 0000 50434200 		.string	"PCB"
 692              		.text
 693              		.align	2
 694              		.globl	_ZN3PCB12initPCBCacheEv
 696              	_ZN3PCB12initPCBCacheEv:
 697              	.LFB61:
 107:src/PCB.cpp   **** 
 108:src/PCB.cpp   **** void PCB::initPCBCache() {
 698              		.loc 1 108 26 is_stmt 1
 699              		.cfi_startproc
 700 03a4 130101FF 		addi	sp,sp,-16
 701              		.cfi_def_cfa_offset 16
 702 03a8 23341100 		sd	ra,8(sp)
 703 03ac 23308100 		sd	s0,0(sp)
 704              		.cfi_offset 1, -8
 705              		.cfi_offset 8, -16
 706 03b0 13040101 		addi	s0,sp,16
 707              		.cfi_def_cfa 8, 0
 109:src/PCB.cpp   ****     pcbCache = (kmem_cache_t*)kmem_cache_create("PCB", sizeof(PCB), &createObject, &freeObject);
 708              		.loc 1 109 5
 709              		.loc 1 109 48 is_stmt 0
 710 03b4 97060000 		lla	a3,_ZN3PCB10freeObjectEPv
 710      93860600 
 711 03bc 17060000 		lla	a2,_ZN3PCB12createObjectEPv
 711      13060600 
 712 03c4 93050005 		li	a1,80
 713 03c8 17050000 		lla	a0,.LC0
 713      13050500 
 714 03d0 97000000 		call	_Z17kmem_cache_createPKcmPFvPvES3_@plt
 714      E7800000 
 715              	.LVL51:
 716              		.loc 1 109 14
 717 03d8 97070000 		sd	a0,.LANCHOR0+8,a5
GAS LISTING /tmp/cc66AmNZ.s 			page 17


 717      23B0A700 
 110:src/PCB.cpp   **** }
 718              		.loc 1 110 1
 719 03e0 83308100 		ld	ra,8(sp)
 720              		.cfi_restore 1
 721 03e4 03340100 		ld	s0,0(sp)
 722              		.cfi_restore 8
 723              		.cfi_def_cfa 2, 16
 724 03e8 13010101 		addi	sp,sp,16
 725              		.cfi_def_cfa_offset 0
 726 03ec 67800000 		jr	ra
 727              		.cfi_endproc
 728              	.LFE61:
 730              		.align	2
 731              		.globl	_ZN3PCB16createSysProcessEPFvvEPv
 733              	_ZN3PCB16createSysProcessEPFvvEPv:
 734              	.LFB47:
  28:src/PCB.cpp   ****     if(!pcbCache) initPCBCache();
 735              		.loc 1 28 68 is_stmt 1
 736              		.cfi_startproc
 737              	.LVL52:
 738 03f0 130101FD 		addi	sp,sp,-48
 739              		.cfi_def_cfa_offset 48
 740 03f4 23341102 		sd	ra,40(sp)
 741 03f8 23308102 		sd	s0,32(sp)
 742 03fc 233C9100 		sd	s1,24(sp)
 743 0400 23382101 		sd	s2,16(sp)
 744 0404 23343101 		sd	s3,8(sp)
 745              		.cfi_offset 1, -8
 746              		.cfi_offset 8, -16
 747              		.cfi_offset 9, -24
 748              		.cfi_offset 18, -32
 749              		.cfi_offset 19, -40
 750 0408 13040103 		addi	s0,sp,48
 751              		.cfi_def_cfa 8, 0
 752 040c 13090500 		mv	s2,a0
 753 0410 93890500 		mv	s3,a1
  29:src/PCB.cpp   ****     PCB* object = (PCB*) kmem_cache_alloc(pcbCache);
 754              		.loc 1 29 5
  29:src/PCB.cpp   ****     PCB* object = (PCB*) kmem_cache_alloc(pcbCache);
 755              		.loc 1 29 8 is_stmt 0
 756 0414 97070000 		ld	a5,.LANCHOR0+8
 756      83B70700 
  29:src/PCB.cpp   ****     PCB* object = (PCB*) kmem_cache_alloc(pcbCache);
 757              		.loc 1 29 5
 758 041c 638E0704 		beqz	a5,.L50
 759              	.LVL53:
 760              	.L45:
  30:src/PCB.cpp   ****     object->initObject(main, DEFAULT_TIME_SLICE, arguments);
 761              		.loc 1 30 5 is_stmt 1
  30:src/PCB.cpp   ****     object->initObject(main, DEFAULT_TIME_SLICE, arguments);
 762              		.loc 1 30 42 is_stmt 0
 763 0420 17050000 		ld	a0,.LANCHOR0+8
 763      03350500 
 764 0428 97000000 		call	_Z16kmem_cache_allocP12kmem_cache_s@plt
 764      E7800000 
 765              	.LVL54:
GAS LISTING /tmp/cc66AmNZ.s 			page 18


 766 0430 93040500 		mv	s1,a0
 767              	.LVL55:
  31:src/PCB.cpp   ****     if(!object->registers || !object->sysStack) return nullptr;
 768              		.loc 1 31 5 is_stmt 1
  31:src/PCB.cpp   ****     if(!object->registers || !object->sysStack) return nullptr;
 769              		.loc 1 31 23 is_stmt 0
 770 0434 93860900 		mv	a3,s3
 771 0438 13062000 		li	a2,2
 772 043c 93050900 		mv	a1,s2
 773 0440 97000000 		call	_ZN3PCB10initObjectEPFvvEmPv
 773      E7800000 
 774              	.LVL56:
  32:src/PCB.cpp   ****     return object;
 775              		.loc 1 32 5 is_stmt 1
  32:src/PCB.cpp   ****     return object;
 776              		.loc 1 32 17 is_stmt 0
 777 0448 83B78401 		ld	a5,24(s1)
  32:src/PCB.cpp   ****     return object;
 778              		.loc 1 32 5
 779 044c 638C0702 		beqz	a5,.L47
  32:src/PCB.cpp   ****     return object;
 780              		.loc 1 32 39 discriminator 2
 781 0450 83B70401 		ld	a5,16(s1)
  32:src/PCB.cpp   ****     return object;
 782              		.loc 1 32 27 discriminator 2
 783 0454 638C0702 		beqz	a5,.L51
 784              	.LVL57:
 785              	.L44:
  34:src/PCB.cpp   **** 
 786              		.loc 1 34 1
 787 0458 13850400 		mv	a0,s1
 788 045c 83308102 		ld	ra,40(sp)
 789              		.cfi_remember_state
 790              		.cfi_restore 1
 791 0460 03340102 		ld	s0,32(sp)
 792              		.cfi_restore 8
 793              		.cfi_def_cfa 2, 48
 794 0464 83348101 		ld	s1,24(sp)
 795              		.cfi_restore 9
 796 0468 03390101 		ld	s2,16(sp)
 797              		.cfi_restore 18
 798              	.LVL58:
 799 046c 83398100 		ld	s3,8(sp)
 800              		.cfi_restore 19
 801              	.LVL59:
 802 0470 13010103 		addi	sp,sp,48
 803              		.cfi_def_cfa_offset 0
 804 0474 67800000 		jr	ra
 805              	.LVL60:
 806              	.L50:
 807              		.cfi_restore_state
  29:src/PCB.cpp   ****     PCB* object = (PCB*) kmem_cache_alloc(pcbCache);
 808              		.loc 1 29 19 is_stmt 1 discriminator 1
  29:src/PCB.cpp   ****     PCB* object = (PCB*) kmem_cache_alloc(pcbCache);
 809              		.loc 1 29 31 is_stmt 0 discriminator 1
 810 0478 97000000 		call	_ZN3PCB12initPCBCacheEv
 810      E7800000 
GAS LISTING /tmp/cc66AmNZ.s 			page 19


 811              	.LVL61:
 812 0480 6FF01FFA 		j	.L45
 813              	.LVL62:
 814              	.L47:
  32:src/PCB.cpp   ****     return object;
 815              		.loc 1 32 56
 816 0484 93040000 		li	s1,0
 817              	.LVL63:
 818 0488 6FF01FFD 		j	.L44
 819              	.LVL64:
 820              	.L51:
 821 048c 93040000 		li	s1,0
 822              	.LVL65:
 823 0490 6FF09FFC 		j	.L44
 824              		.cfi_endproc
 825              	.LFE47:
 827              		.globl	_ZN3PCB8pcbCacheE
 828              		.globl	_ZN3PCB16timeSliceCounterE
 829              		.globl	_ZN3PCB7runningE
 830              		.bss
 831              		.align	3
 832              		.set	.LANCHOR0,. + 0
 835              	_ZN3PCB7runningE:
 836 0000 00000000 		.zero	8
 836      00000000 
 839              	_ZN3PCB8pcbCacheE:
 840 0008 00000000 		.zero	8
 840      00000000 
 843              	_ZN3PCB16timeSliceCounterE:
 844 0010 00000000 		.zero	8
 844      00000000 
 845              		.text
 846              	.Letext0:
 847              		.file 3 "src/../h/hw.h"
 848              		.file 4 "src/../h/slab.h"
 849              		.file 5 "src/../h/Scheduler.h"
 850              		.file 6 "src/../h/MemoryAllocator.h"
 851              		.file 7 "src/../h/kernel.h"
 852              		.file 8 "src/../h/syscall_c.h"
 4517              		.align	3
 4520              	DW.ref.__gxx_personality_v0:
 4521 0000 00000000 		.dword	__gxx_personality_v0
 4521      00000000 
 4522              		.ident	"GCC: (Ubuntu 9.4.0-1ubuntu1~20.04) 9.4.0"
 4523              		.section	.note.GNU-stack,"",@progbits
GAS LISTING /tmp/cc66AmNZ.s 			page 20


DEFINED SYMBOLS
                            *ABS*:0000000000000000 PCB.cpp
     /tmp/cc66AmNZ.s:9      .text:0000000000000000 _ZN3PCB12createObjectEPv
     /tmp/cc66AmNZ.s:13     .text:0000000000000000 .L0 
     /tmp/cc66AmNZ.s:15     .text:0000000000000000 .L0 
     /tmp/cc66AmNZ.s:16     .text:0000000000000004 .L0 
     /tmp/cc66AmNZ.s:18     .text:0000000000000008 .L0 
     /tmp/cc66AmNZ.s:20     .text:000000000000000c .L0 
     /tmp/cc66AmNZ.s:22     .text:000000000000000c .L0 
     /tmp/cc66AmNZ.s:23     .text:0000000000000010 .L0 
     /tmp/cc66AmNZ.s:24     .text:0000000000000010 .L0 
     /tmp/cc66AmNZ.s:26     .text:0000000000000014 .L0 
     /tmp/cc66AmNZ.s:28     .text:0000000000000018 .L0 
     /tmp/cc66AmNZ.s:34     .text:0000000000000018 _ZN3PCB10freeObjectEPv
     /tmp/cc66AmNZ.s:37     .text:0000000000000018 .L0 
     /tmp/cc66AmNZ.s:39     .text:0000000000000018 .L0 
     /tmp/cc66AmNZ.s:40     .text:000000000000001c .L0 
     /tmp/cc66AmNZ.s:44     .text:0000000000000028 .L0 
     /tmp/cc66AmNZ.s:45     .text:0000000000000028 .L0 
     /tmp/cc66AmNZ.s:46     .text:0000000000000028 .L0 
     /tmp/cc66AmNZ.s:48     .text:000000000000002c .L0 
     /tmp/cc66AmNZ.s:52     .text:0000000000000030 .L0 
     /tmp/cc66AmNZ.s:53     .text:0000000000000030 .L0 
     /tmp/cc66AmNZ.s:54     .text:0000000000000030 .L0 
     /tmp/cc66AmNZ.s:57     .text:0000000000000034 .L0 
     /tmp/cc66AmNZ.s:59     .text:0000000000000038 .L0 
     /tmp/cc66AmNZ.s:63     .text:0000000000000040 .L0 
     /tmp/cc66AmNZ.s:64     .text:0000000000000040 .L0 
     /tmp/cc66AmNZ.s:66     .text:0000000000000044 .L0 
     /tmp/cc66AmNZ.s:68     .text:0000000000000048 .L0 
     /tmp/cc66AmNZ.s:72     .text:0000000000000050 .L0 
     /tmp/cc66AmNZ.s:73     .text:0000000000000054 .L0 
     /tmp/cc66AmNZ.s:75     .text:0000000000000058 .L0 
     /tmp/cc66AmNZ.s:76     .text:0000000000000058 .L0 
     /tmp/cc66AmNZ.s:78     .text:000000000000005c .L0 
     /tmp/cc66AmNZ.s:81     .text:0000000000000060 .L0 
     /tmp/cc66AmNZ.s:83     .text:0000000000000064 .L0 
     /tmp/cc66AmNZ.s:89     .text:0000000000000064 _ZN3PCB15proccessWrapperEv
     /tmp/cc66AmNZ.s:92     .text:0000000000000064 .L0 
     /tmp/cc66AmNZ.s:93     .text:0000000000000064 .L0 
     /tmp/cc66AmNZ.s:94     .text:0000000000000068 .L0 
     /tmp/cc66AmNZ.s:97     .text:0000000000000070 .L0 
     /tmp/cc66AmNZ.s:98     .text:0000000000000070 .L0 
     /tmp/cc66AmNZ.s:100    .text:0000000000000074 .L0 
     /tmp/cc66AmNZ.s:102    .text:0000000000000074 .L0 
     /tmp/cc66AmNZ.s:103    .text:0000000000000074 .L0 
     /tmp/cc66AmNZ.s:106    .text:000000000000007c .L0 
     /tmp/cc66AmNZ.s:107    .text:000000000000007c .L0 
     /tmp/cc66AmNZ.s:109    .text:0000000000000084 .L0 
     /tmp/cc66AmNZ.s:112    .text:0000000000000088 .L0 
         src/PCB.cpp:80     .text:0000000000000088 .L0 
     /tmp/cc66AmNZ.s:118    .text:000000000000008c .L0 
     /tmp/cc66AmNZ.s:120    .text:000000000000008c .L0 
     /tmp/cc66AmNZ.s:122    .text:0000000000000090 .L0 
     /tmp/cc66AmNZ.s:125    .text:0000000000000094 .L0 
     /tmp/cc66AmNZ.s:126    .text:0000000000000094 .L0 
     /tmp/cc66AmNZ.s:129    .text:000000000000009c .L0 
GAS LISTING /tmp/cc66AmNZ.s 			page 21


     /tmp/cc66AmNZ.s:130    .text:00000000000000a0 .L0 
     /tmp/cc66AmNZ.s:132    .text:00000000000000a4 .L0 
     /tmp/cc66AmNZ.s:133    .text:00000000000000a4 .L0 
     /tmp/cc66AmNZ.s:135    .text:00000000000000a8 .L0 
     /tmp/cc66AmNZ.s:137    .text:00000000000000ac .L0 
     /tmp/cc66AmNZ.s:143    .text:00000000000000ac _ZN3PCB5yieldEv
     /tmp/cc66AmNZ.s:146    .text:00000000000000ac .L0 
     /tmp/cc66AmNZ.s:147    .text:00000000000000ac .L0 
     /tmp/cc66AmNZ.s:148    .text:00000000000000b0 .L0 
     /tmp/cc66AmNZ.s:150    .text:00000000000000b4 .L0 
     /tmp/cc66AmNZ.s:152    .text:00000000000000b8 .L0 
     /tmp/cc66AmNZ.s:155    .text:00000000000000b8 .L0 
     /tmp/cc66AmNZ.s:156    .text:00000000000000b8 .L0 
     /tmp/cc66AmNZ.s:157    .text:00000000000000b8 .L0 
     /tmp/cc66AmNZ.s:163    .text:00000000000000c0 .L0 
         src/PCB.cpp:39     .text:00000000000000c0 .L0 
     /tmp/cc66AmNZ.s:169    .text:00000000000000c4 .L0 
     /tmp/cc66AmNZ.s:170    .text:00000000000000c8 .L0 
     /tmp/cc66AmNZ.s:171    .text:00000000000000c8 .L0 
     /tmp/cc66AmNZ.s:173    .text:00000000000000cc .L0 
     /tmp/cc66AmNZ.s:175    .text:00000000000000d0 .L0 
     /tmp/cc66AmNZ.s:181    .text:00000000000000d0 _ZN3PCB8dispatchEv
     /tmp/cc66AmNZ.s:184    .text:00000000000000d0 .L0 
     /tmp/cc66AmNZ.s:185    .text:00000000000000d0 .L0 
     /tmp/cc66AmNZ.s:186    .text:00000000000000d4 .L0 
     /tmp/cc66AmNZ.s:190    .text:00000000000000e0 .L0 
     /tmp/cc66AmNZ.s:191    .text:00000000000000e0 .L0 
     /tmp/cc66AmNZ.s:192    .text:00000000000000e0 .L0 
     /tmp/cc66AmNZ.s:194    .text:00000000000000e4 .L0 
     /tmp/cc66AmNZ.s:196    .text:00000000000000e4 .L0 
     /tmp/cc66AmNZ.s:197    .text:00000000000000e4 .L0 
     /tmp/cc66AmNZ.s:203    .text:00000000000000ec .L0 
     /tmp/cc66AmNZ.s:204    .text:00000000000000ec .L0 
     /tmp/cc66AmNZ.s:205    .text:00000000000000ec .L0 
     /tmp/cc66AmNZ.s:210    .text:00000000000000f0 .L0 
     /tmp/cc66AmNZ.s:212    .text:00000000000000f4 .L0 
     /tmp/cc66AmNZ.s:214    .text:00000000000000f8 .L0 
     /tmp/cc66AmNZ.s:217    .text:00000000000000fc .L0 
     /tmp/cc66AmNZ.s:218    .text:00000000000000fc .L0 
     /tmp/cc66AmNZ.s:221    .text:0000000000000104 .L0 
     /tmp/cc66AmNZ.s:223    .text:000000000000010c .L0 
     /tmp/cc66AmNZ.s:224    .text:000000000000010c .L0 
     /tmp/cc66AmNZ.s:226    .text:0000000000000110 .L0 
     /tmp/cc66AmNZ.s:228    .text:0000000000000114 .L0 
     /tmp/cc66AmNZ.s:229    .text:0000000000000114 .L0 
     /tmp/cc66AmNZ.s:231    .text:0000000000000118 .L0 
     /tmp/cc66AmNZ.s:232    .text:0000000000000118 .L0 
     /tmp/cc66AmNZ.s:238    .text:0000000000000128 .L0 
     /tmp/cc66AmNZ.s:239    .text:000000000000012c .L0 
     /tmp/cc66AmNZ.s:240    .text:000000000000012c .L0 
     /tmp/cc66AmNZ.s:242    .text:0000000000000130 .L0 
     /tmp/cc66AmNZ.s:243    .text:0000000000000130 .L0 
     /tmp/cc66AmNZ.s:245    .text:0000000000000134 .L0 
     /tmp/cc66AmNZ.s:248    .text:0000000000000138 .L0 
     /tmp/cc66AmNZ.s:252    .text:000000000000013c .L0 
     /tmp/cc66AmNZ.s:254    .text:000000000000013c .L0 
     /tmp/cc66AmNZ.s:255    .text:000000000000013c .L0 
GAS LISTING /tmp/cc66AmNZ.s 			page 22


     /tmp/cc66AmNZ.s:261    .text:000000000000014c .L0 
     /tmp/cc66AmNZ.s:262    .text:000000000000014c .L0 
     /tmp/cc66AmNZ.s:267    .text:000000000000015c .L0 
     /tmp/cc66AmNZ.s:268    .text:0000000000000160 .L0 
     /tmp/cc66AmNZ.s:274    .text:0000000000000160 _ZN3PCBD2Ev
     /tmp/cc66AmNZ.s:277    .text:0000000000000160 .L0 
     /tmp/cc66AmNZ.s:279    .text:0000000000000160 .L0 
     /tmp/cc66AmNZ.s:280    .text:0000000000000164 .L0 
     /tmp/cc66AmNZ.s:284    .text:0000000000000170 .L0 
     /tmp/cc66AmNZ.s:285    .text:0000000000000170 .L0 
     /tmp/cc66AmNZ.s:286    .text:0000000000000170 .L0 
     /tmp/cc66AmNZ.s:288    .text:0000000000000174 .L0 
     /tmp/cc66AmNZ.s:292    .text:0000000000000178 .L0 
     /tmp/cc66AmNZ.s:293    .text:0000000000000178 .L0 
     /tmp/cc66AmNZ.s:296    .text:000000000000017c .L0 
     /tmp/cc66AmNZ.s:298    .text:0000000000000180 .L0 
     /tmp/cc66AmNZ.s:302    .text:0000000000000188 .L0 
     /tmp/cc66AmNZ.s:303    .text:0000000000000188 .L0 
     /tmp/cc66AmNZ.s:305    .text:000000000000018c .L0 
     /tmp/cc66AmNZ.s:307    .text:0000000000000190 .L0 
     /tmp/cc66AmNZ.s:312    .text:0000000000000198 .L0 
     /tmp/cc66AmNZ.s:313    .text:000000000000019c .L0 
     /tmp/cc66AmNZ.s:315    .text:00000000000001a0 .L0 
     /tmp/cc66AmNZ.s:316    .text:00000000000001a0 .L0 
     /tmp/cc66AmNZ.s:318    .text:00000000000001a4 .L0 
     /tmp/cc66AmNZ.s:321    .text:00000000000001a8 .L0 
     /tmp/cc66AmNZ.s:323    .text:00000000000001ac .L0 
     /tmp/cc66AmNZ.s:274    .text:0000000000000160 _ZN3PCBD1Ev
     /tmp/cc66AmNZ.s:331    .text:00000000000001ac _ZN3PCBnwEm
     /tmp/cc66AmNZ.s:334    .text:00000000000001ac .L0 
     /tmp/cc66AmNZ.s:336    .text:00000000000001ac .L0 
     /tmp/cc66AmNZ.s:337    .text:00000000000001b0 .L0 
     /tmp/cc66AmNZ.s:340    .text:00000000000001b8 .L0 
     /tmp/cc66AmNZ.s:341    .text:00000000000001b8 .L0 
     /tmp/cc66AmNZ.s:343    .text:00000000000001bc .L0 
     /tmp/cc66AmNZ.s:345    .text:00000000000001bc .L0 
     /tmp/cc66AmNZ.s:346    .text:00000000000001bc .L0 
     /tmp/cc66AmNZ.s:349    .text:00000000000001c4 .L0 
     /tmp/cc66AmNZ.s:350    .text:00000000000001c8 .L0 
     /tmp/cc66AmNZ.s:352    .text:00000000000001cc .L0 
     /tmp/cc66AmNZ.s:353    .text:00000000000001cc .L0 
     /tmp/cc66AmNZ.s:355    .text:00000000000001d0 .L0 
     /tmp/cc66AmNZ.s:357    .text:00000000000001d4 .L0 
     /tmp/cc66AmNZ.s:363    .text:00000000000001d4 _ZN3PCBdlEPv
     /tmp/cc66AmNZ.s:366    .text:00000000000001d4 .L0 
     /tmp/cc66AmNZ.s:368    .text:00000000000001d4 .L0 
     /tmp/cc66AmNZ.s:369    .text:00000000000001d8 .L0 
     /tmp/cc66AmNZ.s:372    .text:00000000000001e0 .L0 
     /tmp/cc66AmNZ.s:373    .text:00000000000001e0 .L0 
     /tmp/cc66AmNZ.s:375    .text:00000000000001e4 .L0 
     /tmp/cc66AmNZ.s:377    .text:00000000000001e4 .L0 
     /tmp/cc66AmNZ.s:378    .text:00000000000001e4 .L0 
     /tmp/cc66AmNZ.s:381    .text:00000000000001ec .L0 
     /tmp/cc66AmNZ.s:382    .text:00000000000001f0 .L0 
     /tmp/cc66AmNZ.s:384    .text:00000000000001f4 .L0 
     /tmp/cc66AmNZ.s:385    .text:00000000000001f4 .L0 
     /tmp/cc66AmNZ.s:387    .text:00000000000001f8 .L0 
GAS LISTING /tmp/cc66AmNZ.s 			page 23


     /tmp/cc66AmNZ.s:389    .text:00000000000001fc .L0 
     /tmp/cc66AmNZ.s:395    .text:00000000000001fc _ZN3PCB10getContextEv
     /tmp/cc66AmNZ.s:398    .text:00000000000001fc .L0 
     /tmp/cc66AmNZ.s:399    .text:00000000000001fc .L0 
     /tmp/cc66AmNZ.s:400    .text:0000000000000200 .L0 
     /tmp/cc66AmNZ.s:402    .text:0000000000000204 .L0 
     /tmp/cc66AmNZ.s:404    .text:0000000000000208 .L0 
     /tmp/cc66AmNZ.s:406    .text:0000000000000208 .L0 
     /tmp/cc66AmNZ.s:407    .text:0000000000000208 .L0 
     /tmp/cc66AmNZ.s:410    .text:0000000000000218 .L0 
     /tmp/cc66AmNZ.s:411    .text:0000000000000218 .L0 
     /tmp/cc66AmNZ.s:413    .text:000000000000021c .L0 
     /tmp/cc66AmNZ.s:415    .text:0000000000000220 .L0 
     /tmp/cc66AmNZ.s:421    .text:0000000000000220 _ZN3PCB10initObjectEPFvvEmPv
     /tmp/cc66AmNZ.s:424    .text:0000000000000220 .L0 
     /tmp/cc66AmNZ.s:426    .text:0000000000000220 .L0 
     /tmp/cc66AmNZ.s:427    .text:0000000000000224 .L0 
     /tmp/cc66AmNZ.s:431    .text:0000000000000230 .L0 
     /tmp/cc66AmNZ.s:432    .text:0000000000000230 .L0 
     /tmp/cc66AmNZ.s:433    .text:0000000000000230 .L0 
     /tmp/cc66AmNZ.s:435    .text:0000000000000234 .L0 
     /tmp/cc66AmNZ.s:438    .text:0000000000000238 .L0 
     /tmp/cc66AmNZ.s:439    .text:0000000000000238 .L0 
     /tmp/cc66AmNZ.s:442    .text:0000000000000240 .L0 
     /tmp/cc66AmNZ.s:443    .text:0000000000000240 .L0 
     /tmp/cc66AmNZ.s:445    .text:0000000000000244 .L0 
     /tmp/cc66AmNZ.s:446    .text:0000000000000244 .L0 
     /tmp/cc66AmNZ.s:448    .text:0000000000000248 .L0 
     /tmp/cc66AmNZ.s:449    .text:0000000000000248 .L0 
     /tmp/cc66AmNZ.s:451    .text:000000000000024c .L0 
     /tmp/cc66AmNZ.s:452    .text:000000000000024c .L0 
     /tmp/cc66AmNZ.s:454    .text:0000000000000250 .L0 
     /tmp/cc66AmNZ.s:456    .text:0000000000000254 .L0 
     /tmp/cc66AmNZ.s:458    .text:0000000000000258 .L0 
     /tmp/cc66AmNZ.s:459    .text:0000000000000258 .L0 
     /tmp/cc66AmNZ.s:461    .text:000000000000025c .L0 
     /tmp/cc66AmNZ.s:462    .text:000000000000025c .L0 
     /tmp/cc66AmNZ.s:464    .text:0000000000000260 .L0 
     /tmp/cc66AmNZ.s:465    .text:0000000000000260 .L0 
     /tmp/cc66AmNZ.s:467    .text:0000000000000264 .L0 
     /tmp/cc66AmNZ.s:468    .text:0000000000000264 .L0 
     /tmp/cc66AmNZ.s:473    .text:0000000000000270 .L0 
     /tmp/cc66AmNZ.s:475    .text:0000000000000274 .L0 
     /tmp/cc66AmNZ.s:477    .text:0000000000000278 .L0 
     /tmp/cc66AmNZ.s:478    .text:0000000000000278 .L0 
     /tmp/cc66AmNZ.s:482    .text:0000000000000284 .L0 
     /tmp/cc66AmNZ.s:484    .text:0000000000000288 .L0 
     /tmp/cc66AmNZ.s:486    .text:000000000000028c .L0 
     /tmp/cc66AmNZ.s:487    .text:000000000000028c .L0 
     /tmp/cc66AmNZ.s:490    .text:0000000000000294 .L0 
     /tmp/cc66AmNZ.s:492    .text:0000000000000298 .L0 
     /tmp/cc66AmNZ.s:494    .text:000000000000029c .L0 
     /tmp/cc66AmNZ.s:496    .text:00000000000002a0 .L0 
     /tmp/cc66AmNZ.s:499    .text:00000000000002ac .L0 
     /tmp/cc66AmNZ.s:500    .text:00000000000002ac .L0 
     /tmp/cc66AmNZ.s:502    .text:00000000000002b0 .L0 
     /tmp/cc66AmNZ.s:503    .text:00000000000002b0 .L0 
GAS LISTING /tmp/cc66AmNZ.s 			page 24


     /tmp/cc66AmNZ.s:505    .text:00000000000002b4 .L0 
     /tmp/cc66AmNZ.s:508    .text:00000000000002b8 .L0 
     /tmp/cc66AmNZ.s:509    .text:00000000000002bc .L0 
     /tmp/cc66AmNZ.s:510    .text:00000000000002bc .L0 
     /tmp/cc66AmNZ.s:512    .text:00000000000002c0 .L0 
     /tmp/cc66AmNZ.s:513    .text:00000000000002c0 .L0 
     /tmp/cc66AmNZ.s:515    .text:00000000000002c4 .L0 
     /tmp/cc66AmNZ.s:518    .text:00000000000002c8 .L0 
     /tmp/cc66AmNZ.s:522    .text:00000000000002cc .L0 
     /tmp/cc66AmNZ.s:524    .text:00000000000002cc .L0 
     /tmp/cc66AmNZ.s:525    .text:00000000000002cc .L0 
     /tmp/cc66AmNZ.s:527    .text:00000000000002d4 .L0 
     /tmp/cc66AmNZ.s:533    .text:00000000000002d4 _ZN3PCBC2EPFvvEmPv
     /tmp/cc66AmNZ.s:536    .text:00000000000002d4 .L0 
     /tmp/cc66AmNZ.s:538    .text:00000000000002d4 .L0 
     /tmp/cc66AmNZ.s:539    .text:00000000000002d8 .L0 
     /tmp/cc66AmNZ.s:542    .text:00000000000002e0 .L0 
     /tmp/cc66AmNZ.s:543    .text:00000000000002e0 .L0 
     /tmp/cc66AmNZ.s:545    .text:00000000000002e4 .L0 
     /tmp/cc66AmNZ.s:548    .text:00000000000002e4 .L0 
     /tmp/cc66AmNZ.s:549    .text:00000000000002e4 .L0 
     /tmp/cc66AmNZ.s:553    .text:00000000000002ec .L0 
     /tmp/cc66AmNZ.s:554    .text:00000000000002f0 .L0 
     /tmp/cc66AmNZ.s:556    .text:00000000000002f4 .L0 
     /tmp/cc66AmNZ.s:557    .text:00000000000002f4 .L0 
     /tmp/cc66AmNZ.s:559    .text:00000000000002f8 .L0 
     /tmp/cc66AmNZ.s:561    .text:00000000000002fc .L0 
     /tmp/cc66AmNZ.s:533    .text:00000000000002d4 _ZN3PCBC1EPFvvEmPv
     /tmp/cc66AmNZ.s:569    .text:00000000000002fc _ZN3PCB14createProccessEPFvvEPv
     /tmp/cc66AmNZ.s:572    .text:00000000000002fc .L0 
     /tmp/cc66AmNZ.s:4520   .data.rel.local.DW.ref.__gxx_personality_v0:0000000000000000 DW.ref.__gxx_personality_v0
     /tmp/cc66AmNZ.s:576    .text:00000000000002fc .L0 
     /tmp/cc66AmNZ.s:577    .text:0000000000000300 .L0 
     /tmp/cc66AmNZ.s:583    .text:0000000000000314 .L0 
     /tmp/cc66AmNZ.s:584    .text:0000000000000314 .L0 
     /tmp/cc66AmNZ.s:585    .text:0000000000000314 .L0 
     /tmp/cc66AmNZ.s:586    .text:0000000000000314 .L0 
     /tmp/cc66AmNZ.s:587    .text:0000000000000314 .L0 
     /tmp/cc66AmNZ.s:589    .text:0000000000000318 .L0 
     /tmp/cc66AmNZ.s:593    .text:0000000000000320 .L0 
     /tmp/cc66AmNZ.s:594    .text:0000000000000320 .L0 
     /tmp/cc66AmNZ.s:603    .text:0000000000000334 .L0 
     /tmp/cc66AmNZ.s:612    .text:0000000000000348 .L0 
     /tmp/cc66AmNZ.s:613    .text:0000000000000348 .L0 
     /tmp/cc66AmNZ.s:615    .text:000000000000034c .L0 
     /tmp/cc66AmNZ.s:617    .text:0000000000000350 .L0 
     /tmp/cc66AmNZ.s:619    .text:0000000000000354 .L0 
     /tmp/cc66AmNZ.s:623    .text:0000000000000358 .L0 
     /tmp/cc66AmNZ.s:625    .text:0000000000000360 .L0 
     /tmp/cc66AmNZ.s:626    .text:0000000000000360 .L0 
     /tmp/cc66AmNZ.s:628    .text:0000000000000364 .L0 
     /tmp/cc66AmNZ.s:629    .text:0000000000000364 .L0 
     /tmp/cc66AmNZ.s:631    .text:0000000000000368 .L0 
     /tmp/cc66AmNZ.s:633    .text:000000000000036c .L0 
     /tmp/cc66AmNZ.s:636    .text:0000000000000370 .L0 
     /tmp/cc66AmNZ.s:639    .text:0000000000000374 .L0 
     /tmp/cc66AmNZ.s:643    .text:0000000000000378 .L0 
GAS LISTING /tmp/cc66AmNZ.s 			page 25


     /tmp/cc66AmNZ.s:645    .text:0000000000000378 .L0 
     /tmp/cc66AmNZ.s:657    .text:000000000000038c .L0 
     /tmp/cc66AmNZ.s:665    .text:00000000000003a4 .L0 
     /tmp/cc66AmNZ.s:696    .text:00000000000003a4 _ZN3PCB12initPCBCacheEv
     /tmp/cc66AmNZ.s:699    .text:00000000000003a4 .L0 
     /tmp/cc66AmNZ.s:700    .text:00000000000003a4 .L0 
     /tmp/cc66AmNZ.s:701    .text:00000000000003a8 .L0 
     /tmp/cc66AmNZ.s:704    .text:00000000000003b0 .L0 
     /tmp/cc66AmNZ.s:705    .text:00000000000003b0 .L0 
     /tmp/cc66AmNZ.s:707    .text:00000000000003b4 .L0 
     /tmp/cc66AmNZ.s:709    .text:00000000000003b4 .L0 
     /tmp/cc66AmNZ.s:710    .text:00000000000003b4 .L0 
     /tmp/cc66AmNZ.s:717    .text:00000000000003d8 .L0 
     /tmp/cc66AmNZ.s:719    .text:00000000000003e0 .L0 
     /tmp/cc66AmNZ.s:720    .text:00000000000003e4 .L0 
     /tmp/cc66AmNZ.s:722    .text:00000000000003e8 .L0 
     /tmp/cc66AmNZ.s:723    .text:00000000000003e8 .L0 
     /tmp/cc66AmNZ.s:725    .text:00000000000003ec .L0 
     /tmp/cc66AmNZ.s:727    .text:00000000000003f0 .L0 
     /tmp/cc66AmNZ.s:733    .text:00000000000003f0 _ZN3PCB16createSysProcessEPFvvEPv
     /tmp/cc66AmNZ.s:736    .text:00000000000003f0 .L0 
     /tmp/cc66AmNZ.s:738    .text:00000000000003f0 .L0 
     /tmp/cc66AmNZ.s:739    .text:00000000000003f4 .L0 
     /tmp/cc66AmNZ.s:745    .text:0000000000000408 .L0 
     /tmp/cc66AmNZ.s:746    .text:0000000000000408 .L0 
     /tmp/cc66AmNZ.s:747    .text:0000000000000408 .L0 
     /tmp/cc66AmNZ.s:748    .text:0000000000000408 .L0 
     /tmp/cc66AmNZ.s:749    .text:0000000000000408 .L0 
     /tmp/cc66AmNZ.s:751    .text:000000000000040c .L0 
     /tmp/cc66AmNZ.s:755    .text:0000000000000414 .L0 
     /tmp/cc66AmNZ.s:756    .text:0000000000000414 .L0 
     /tmp/cc66AmNZ.s:758    .text:000000000000041c .L0 
     /tmp/cc66AmNZ.s:762    .text:0000000000000420 .L0 
     /tmp/cc66AmNZ.s:763    .text:0000000000000420 .L0 
     /tmp/cc66AmNZ.s:769    .text:0000000000000434 .L0 
     /tmp/cc66AmNZ.s:770    .text:0000000000000434 .L0 
     /tmp/cc66AmNZ.s:776    .text:0000000000000448 .L0 
     /tmp/cc66AmNZ.s:777    .text:0000000000000448 .L0 
     /tmp/cc66AmNZ.s:779    .text:000000000000044c .L0 
     /tmp/cc66AmNZ.s:781    .text:0000000000000450 .L0 
     /tmp/cc66AmNZ.s:783    .text:0000000000000454 .L0 
     /tmp/cc66AmNZ.s:787    .text:0000000000000458 .L0 
     /tmp/cc66AmNZ.s:789    .text:0000000000000460 .L0 
     /tmp/cc66AmNZ.s:790    .text:0000000000000460 .L0 
     /tmp/cc66AmNZ.s:792    .text:0000000000000464 .L0 
     /tmp/cc66AmNZ.s:793    .text:0000000000000464 .L0 
     /tmp/cc66AmNZ.s:795    .text:0000000000000468 .L0 
     /tmp/cc66AmNZ.s:797    .text:000000000000046c .L0 
     /tmp/cc66AmNZ.s:800    .text:0000000000000470 .L0 
     /tmp/cc66AmNZ.s:803    .text:0000000000000474 .L0 
     /tmp/cc66AmNZ.s:807    .text:0000000000000478 .L0 
     /tmp/cc66AmNZ.s:809    .text:0000000000000478 .L0 
     /tmp/cc66AmNZ.s:810    .text:0000000000000478 .L0 
     /tmp/cc66AmNZ.s:816    .text:0000000000000484 .L0 
     /tmp/cc66AmNZ.s:824    .text:0000000000000494 .L0 
     /tmp/cc66AmNZ.s:839    .bss:0000000000000008 _ZN3PCB8pcbCacheE
     /tmp/cc66AmNZ.s:843    .bss:0000000000000010 _ZN3PCB16timeSliceCounterE
GAS LISTING /tmp/cc66AmNZ.s 			page 26


     /tmp/cc66AmNZ.s:835    .bss:0000000000000000 _ZN3PCB7runningE
     /tmp/cc66AmNZ.s:832    .bss:0000000000000000 .LANCHOR0
     /tmp/cc66AmNZ.s:853    .text:0000000000000494 .L0 
     /tmp/cc66AmNZ.s:107    .text:000000000000007c .L0 
     /tmp/cc66AmNZ.s:197    .text:00000000000000e4 .L0 
     /tmp/cc66AmNZ.s:221    .text:0000000000000104 .L0 
     /tmp/cc66AmNZ.s:407    .text:0000000000000208 .L0 
     /tmp/cc66AmNZ.s:496    .text:00000000000002a0 .L0 
     /tmp/cc66AmNZ.s:710    .text:00000000000003b4 .L0 
     /tmp/cc66AmNZ.s:711    .text:00000000000003bc .L0 
     /tmp/cc66AmNZ.s:690    .rodata.str1.8:0000000000000000 .LC0
     /tmp/cc66AmNZ.s:713    .text:00000000000003c8 .L0 
     /tmp/cc66AmNZ.s:717    .text:00000000000003d8 .L0 
     /tmp/cc66AmNZ.s:756    .text:0000000000000414 .L0 
     /tmp/cc66AmNZ.s:763    .text:0000000000000420 .L0 
     /tmp/cc66AmNZ.s:61     .text:0000000000000040 .L4
     /tmp/cc66AmNZ.s:70     .text:0000000000000050 .L3
     /tmp/cc66AmNZ.s:215    .text:00000000000000fc .L12
     /tmp/cc66AmNZ.s:251    .text:000000000000013c .L16
     /tmp/cc66AmNZ.s:259    .text:000000000000014c .L13
     /tmp/cc66AmNZ.s:236    .text:0000000000000128 .L11
     /tmp/cc66AmNZ.s:300    .text:0000000000000188 .L18
     /tmp/cc66AmNZ.s:309    .text:0000000000000198 .L17
     /tmp/cc66AmNZ.s:506    .text:00000000000002b8 .L27
     /tmp/cc66AmNZ.s:521    .text:00000000000002cc .L30
     /tmp/cc66AmNZ.s:610    .text:0000000000000348 .L34
     /tmp/cc66AmNZ.s:642    .text:0000000000000378 .L37
     /tmp/cc66AmNZ.s:649    .text:0000000000000380 .L41
     /tmp/cc66AmNZ.s:621    .text:0000000000000358 .L33
     /tmp/cc66AmNZ.s:806    .text:0000000000000478 .L50
     /tmp/cc66AmNZ.s:814    .text:0000000000000484 .L47
     /tmp/cc66AmNZ.s:820    .text:000000000000048c .L51
     /tmp/cc66AmNZ.s:760    .text:0000000000000420 .L45
     /tmp/cc66AmNZ.s:785    .text:0000000000000458 .L44
     /tmp/cc66AmNZ.s:596    .text:0000000000000324 .LEHB0
     /tmp/cc66AmNZ.s:570    .text:00000000000002fc .LFB46
     /tmp/cc66AmNZ.s:599    .text:000000000000032c .LEHE0
     /tmp/cc66AmNZ.s:606    .text:0000000000000340 .LEHB1
     /tmp/cc66AmNZ.s:609    .text:0000000000000348 .LEHE1
     /tmp/cc66AmNZ.s:653    .text:0000000000000388 .L39
     /tmp/cc66AmNZ.s:661    .text:000000000000039c .LEHB2
     /tmp/cc66AmNZ.s:664    .text:00000000000003a4 .LEHE2
     /tmp/cc66AmNZ.s:2587   .debug_abbrev:0000000000000000 .Ldebug_abbrev0
     /tmp/cc66AmNZ.s:4132   .debug_str:0000000000000089 .LASF191
     /tmp/cc66AmNZ.s:4454   .debug_str:0000000000000b9d .LASF192
     /tmp/cc66AmNZ.s:4232   .debug_str:0000000000000483 .LASF193
     /tmp/cc66AmNZ.s:5      .text:0000000000000000 .Ltext0
     /tmp/cc66AmNZ.s:846    .text:0000000000000494 .Letext0
     /tmp/cc66AmNZ.s:4112   .debug_line:0000000000000000 .Ldebug_line0
     /tmp/cc66AmNZ.s:4236   .debug_str:00000000000004b1 .LASF0
     /tmp/cc66AmNZ.s:4268   .debug_str:00000000000005b8 .LASF1
     /tmp/cc66AmNZ.s:4382   .debug_str:0000000000000952 .LASF2
     /tmp/cc66AmNZ.s:4390   .debug_str:0000000000000996 .LASF4
     /tmp/cc66AmNZ.s:4252   .debug_str:0000000000000514 .LASF3
     /tmp/cc66AmNZ.s:4122   .debug_str:000000000000002c .LASF5
     /tmp/cc66AmNZ.s:4352   .debug_str:000000000000086f .LASF6
     /tmp/cc66AmNZ.s:4342   .debug_str:0000000000000823 .LASF7
GAS LISTING /tmp/cc66AmNZ.s 			page 27


     /tmp/cc66AmNZ.s:4260   .debug_str:0000000000000579 .LASF8
     /tmp/cc66AmNZ.s:4212   .debug_str:00000000000003d5 .LASF9
     /tmp/cc66AmNZ.s:4218   .debug_str:000000000000040b .LASF10
     /tmp/cc66AmNZ.s:4154   .debug_str:000000000000020a .LASF11
     /tmp/cc66AmNZ.s:4206   .debug_str:00000000000003b7 .LASF12
     /tmp/cc66AmNZ.s:4160   .debug_str:0000000000000225 .LASF13
     /tmp/cc66AmNZ.s:4152   .debug_str:00000000000001fa .LASF14
     /tmp/cc66AmNZ.s:4426   .debug_str:0000000000000aa8 .LASF15
     /tmp/cc66AmNZ.s:4190   .debug_str:0000000000000335 .LASF16
     /tmp/cc66AmNZ.s:4412   .debug_str:0000000000000a4c .LASF17
     /tmp/cc66AmNZ.s:4204   .debug_str:00000000000003aa .LASF18
     /tmp/cc66AmNZ.s:4202   .debug_str:000000000000039d .LASF194
     /tmp/cc66AmNZ.s:4432   .debug_str:0000000000000acb .LASF19
     /tmp/cc66AmNZ.s:4480   .debug_str:0000000000000c6f .LASF21
     /tmp/cc66AmNZ.s:4182   .debug_str:00000000000002db .LASF20
     /tmp/cc66AmNZ.s:4450   .debug_str:0000000000000b5d .LASF22
     /tmp/cc66AmNZ.s:4430   .debug_str:0000000000000abb .LASF23
     /tmp/cc66AmNZ.s:4254   .debug_str:0000000000000526 .LASF24
     /tmp/cc66AmNZ.s:4196   .debug_str:0000000000000364 .LASF27
     /tmp/cc66AmNZ.s:4512   .debug_str:0000000000000d63 .LASF29
     /tmp/cc66AmNZ.s:4220   .debug_str:0000000000000419 .LASF25
     /tmp/cc66AmNZ.s:4272   .debug_str:00000000000005d1 .LASF26
     /tmp/cc66AmNZ.s:4302   .debug_str:00000000000006c2 .LASF28
     /tmp/cc66AmNZ.s:4510   .debug_str:0000000000000d48 .LASF30
     /tmp/cc66AmNZ.s:4434   .debug_str:0000000000000ad6 .LASF31
     /tmp/cc66AmNZ.s:4496   .debug_str:0000000000000ce9 .LASF32
     /tmp/cc66AmNZ.s:4458   .debug_str:0000000000000bb2 .LASF33
     /tmp/cc66AmNZ.s:4444   .debug_str:0000000000000b30 .LASF34
     /tmp/cc66AmNZ.s:4176   .debug_str:00000000000002b7 .LASF35
     /tmp/cc66AmNZ.s:4388   .debug_str:000000000000097e .LASF36
     /tmp/cc66AmNZ.s:4142   .debug_str:00000000000001ab .LASF37
     /tmp/cc66AmNZ.s:4222   .debug_str:0000000000000427 .LASF38
     /tmp/cc66AmNZ.s:4506   .debug_str:0000000000000d31 .LASF39
     /tmp/cc66AmNZ.s:4126   .debug_str:000000000000003e .LASF40
     /tmp/cc66AmNZ.s:4408   .debug_str:0000000000000a37 .LASF195
     /tmp/cc66AmNZ.s:4470   .debug_str:0000000000000c24 .LASF41
     /tmp/cc66AmNZ.s:4400   .debug_str:00000000000009fb .LASF42
     /tmp/cc66AmNZ.s:4270   .debug_str:00000000000005cb .LASF47
     /tmp/cc66AmNZ.s:4274   .debug_str:00000000000005eb .LASF49
     /tmp/cc66AmNZ.s:4440   .debug_str:0000000000000b1b .LASF51
     /tmp/cc66AmNZ.s:4266   .debug_str:00000000000005b3 .LASF43
     /tmp/cc66AmNZ.s:4500   .debug_str:0000000000000d13 .LASF44
     /tmp/cc66AmNZ.s:4504   .debug_str:0000000000000d24 .LASF45
     /tmp/cc66AmNZ.s:4192   .debug_str:000000000000034b .LASF46
     /tmp/cc66AmNZ.s:4116   .debug_str:0000000000000007 .LASF53
     /tmp/cc66AmNZ.s:4246   .debug_str:00000000000004e7 .LASF59
     /tmp/cc66AmNZ.s:4228   .debug_str:0000000000000454 .LASF92
     /tmp/cc66AmNZ.s:4138   .debug_str:0000000000000189 .LASF135
     /tmp/cc66AmNZ.s:4332   .debug_str:00000000000007d6 .LASF48
     /tmp/cc66AmNZ.s:4144   .debug_str:00000000000001b7 .LASF50
     /tmp/cc66AmNZ.s:4366   .debug_str:00000000000008c9 .LASF52
     /tmp/cc66AmNZ.s:4166   .debug_str:0000000000000255 .LASF88
     /tmp/cc66AmNZ.s:4194   .debug_str:0000000000000357 .LASF54
     /tmp/cc66AmNZ.s:4188   .debug_str:000000000000031c .LASF56
     /tmp/cc66AmNZ.s:4298   .debug_str:00000000000006a8 .LASF55
     /tmp/cc66AmNZ.s:4174   .debug_str:00000000000002a0 .LASF57
     /tmp/cc66AmNZ.s:4402   .debug_str:0000000000000a1d .LASF58
GAS LISTING /tmp/cc66AmNZ.s 			page 28


     /tmp/cc66AmNZ.s:4264   .debug_str:0000000000000596 .LASF60
     /tmp/cc66AmNZ.s:4118   .debug_str:0000000000000017 .LASF61
     /tmp/cc66AmNZ.s:4406   .debug_str:0000000000000a31 .LASF62
     /tmp/cc66AmNZ.s:4478   .debug_str:0000000000000c66 .LASF63
     /tmp/cc66AmNZ.s:4262   .debug_str:000000000000058c .LASF64
     /tmp/cc66AmNZ.s:4502   .debug_str:0000000000000d1f .LASF65
     /tmp/cc66AmNZ.s:4410   .debug_str:0000000000000a43 .LASF66
     /tmp/cc66AmNZ.s:4330   .debug_str:00000000000007ce .LASF67
     /tmp/cc66AmNZ.s:4282   .debug_str:000000000000062c .LASF68
     /tmp/cc66AmNZ.s:4484   .debug_str:0000000000000c94 .LASF69
     /tmp/cc66AmNZ.s:4180   .debug_str:00000000000002cd .LASF70
     /tmp/cc66AmNZ.s:4446   .debug_str:0000000000000b49 .LASF71
     /tmp/cc66AmNZ.s:4398   .debug_str:00000000000009ea .LASF83
     /tmp/cc66AmNZ.s:4178   .debug_str:00000000000002c4 .LASF77
     /tmp/cc66AmNZ.s:4130   .debug_str:0000000000000076 .LASF79
     /tmp/cc66AmNZ.s:4238   .debug_str:00000000000004be .LASF72
     /tmp/cc66AmNZ.s:4472   .debug_str:0000000000000c35 .LASF73
     /tmp/cc66AmNZ.s:4240   .debug_str:00000000000004cd .LASF74
     /tmp/cc66AmNZ.s:4394   .debug_str:00000000000009a4 .LASF75
     /tmp/cc66AmNZ.s:4278   .debug_str:0000000000000610 .LASF76
     /tmp/cc66AmNZ.s:4358   .debug_str:0000000000000889 .LASF78
     /tmp/cc66AmNZ.s:4486   .debug_str:0000000000000ca1 .LASF80
     /tmp/cc66AmNZ.s:4290   .debug_str:000000000000067f .LASF81
     /tmp/cc66AmNZ.s:4210   .debug_str:00000000000003cb .LASF82
     /tmp/cc66AmNZ.s:4418   .debug_str:0000000000000a88 .LASF84
     /tmp/cc66AmNZ.s:4318   .debug_str:0000000000000777 .LASF85
     /tmp/cc66AmNZ.s:4492   .debug_str:0000000000000cc8 .LASF86
     /tmp/cc66AmNZ.s:4354   .debug_str:0000000000000876 .LASF87
     /tmp/cc66AmNZ.s:4128   .debug_str:000000000000005e .LASF89
     /tmp/cc66AmNZ.s:4250   .debug_str:0000000000000509 .LASF90
     /tmp/cc66AmNZ.s:4466   .debug_str:0000000000000bfa .LASF91
     /tmp/cc66AmNZ.s:4498   .debug_str:0000000000000cff .LASF196
     /tmp/cc66AmNZ.s:4336   .debug_str:00000000000007f0 .LASF93
     /tmp/cc66AmNZ.s:4140   .debug_str:000000000000019f .LASF197
     /tmp/cc66AmNZ.s:4476   .debug_str:0000000000000c5d .LASF94
     /tmp/cc66AmNZ.s:4490   .debug_str:0000000000000cc3 .LASF95
     /tmp/cc66AmNZ.s:4156   .debug_str:0000000000000219 .LASF96
     /tmp/cc66AmNZ.s:4114   .debug_str:0000000000000000 .LASF97
     /tmp/cc66AmNZ.s:4372   .debug_str:00000000000008ef .LASF98
     /tmp/cc66AmNZ.s:4256   .debug_str:0000000000000542 .LASF198
     /tmp/cc66AmNZ.s:4448   .debug_str:0000000000000b53 .LASF99
     /tmp/cc66AmNZ.s:4452   .debug_str:0000000000000b7c .LASF100
     /tmp/cc66AmNZ.s:4234   .debug_str:00000000000004a8 .LASF101
     /tmp/cc66AmNZ.s:4304   .debug_str:00000000000006d0 .LASF102
     /tmp/cc66AmNZ.s:4442   .debug_str:0000000000000b23 .LASF103
     /tmp/cc66AmNZ.s:4308   .debug_str:000000000000071a .LASF104
     /tmp/cc66AmNZ.s:4334   .debug_str:00000000000007e3 .LASF105
     /tmp/cc66AmNZ.s:4288   .debug_str:000000000000065a .LASF106
     /tmp/cc66AmNZ.s:4134   .debug_str:0000000000000159 .LASF107
     /tmp/cc66AmNZ.s:4482   .debug_str:0000000000000c86 .LASF108
     /tmp/cc66AmNZ.s:4436   .debug_str:0000000000000ae1 .LASF109
     /tmp/cc66AmNZ.s:4306   .debug_str:00000000000006f1 .LASF110
     /tmp/cc66AmNZ.s:4300   .debug_str:00000000000006b3 .LASF111
     /tmp/cc66AmNZ.s:4396   .debug_str:00000000000009c2 .LASF112
     /tmp/cc66AmNZ.s:4462   .debug_str:0000000000000bc5 .LASF113
     /tmp/cc66AmNZ.s:4438   .debug_str:0000000000000af1 .LASF114
     /tmp/cc66AmNZ.s:4346   .debug_str:0000000000000843 .LASF115
GAS LISTING /tmp/cc66AmNZ.s 			page 29


     /tmp/cc66AmNZ.s:4186   .debug_str:00000000000002f4 .LASF116
     /tmp/cc66AmNZ.s:4428   .debug_str:0000000000000ab4 .LASF117
     /tmp/cc66AmNZ.s:4216   .debug_str:00000000000003fe .LASF199
     /tmp/cc66AmNZ.s:4424   .debug_str:0000000000000a9a .LASF118
     /tmp/cc66AmNZ.s:4292   .debug_str:0000000000000684 .LASF119
     /tmp/cc66AmNZ.s:4364   .debug_str:00000000000008b9 .LASF120
     /tmp/cc66AmNZ.s:4344   .debug_str:0000000000000836 .LASF121
     /tmp/cc66AmNZ.s:4368   .debug_str:00000000000008d2 .LASF122
     /tmp/cc66AmNZ.s:4362   .debug_str:00000000000008af .LASF123
     /tmp/cc66AmNZ.s:4404   .debug_str:0000000000000a28 .LASF124
     /tmp/cc66AmNZ.s:4224   .debug_str:000000000000043e .LASF125
     /tmp/cc66AmNZ.s:4374   .debug_str:000000000000091d .LASF126
     /tmp/cc66AmNZ.s:4242   .debug_str:00000000000004dc .LASF127
     /tmp/cc66AmNZ.s:4294   .debug_str:0000000000000690 .LASF128
     /tmp/cc66AmNZ.s:4258   .debug_str:0000000000000570 .LASF129
     /tmp/cc66AmNZ.s:4348   .debug_str:0000000000000853 .LASF130
     /tmp/cc66AmNZ.s:4248   .debug_str:00000000000004f4 .LASF131
     /tmp/cc66AmNZ.s:4226   .debug_str:0000000000000449 .LASF132
     /tmp/cc66AmNZ.s:4338   .debug_str:0000000000000800 .LASF133
     /tmp/cc66AmNZ.s:4456   .debug_str:0000000000000ba9 .LASF134
     /tmp/cc66AmNZ.s:4378   .debug_str:0000000000000931 .LASF136
     /tmp/cc66AmNZ.s:4376   .debug_str:0000000000000928 .LASF137
     /tmp/cc66AmNZ.s:4360   .debug_str:0000000000000899 .LASF138
     /tmp/cc66AmNZ.s:4356   .debug_str:0000000000000882 .LASF139
     /tmp/cc66AmNZ.s:4326   .debug_str:00000000000007af .LASF140
     /tmp/cc66AmNZ.s:4324   .debug_str:00000000000007a8 .LASF141
     /tmp/cc66AmNZ.s:4370   .debug_str:00000000000008db .LASF142
     /tmp/cc66AmNZ.s:4312   .debug_str:0000000000000754 .LASF143
     /tmp/cc66AmNZ.s:4416   .debug_str:0000000000000a73 .LASF144
     /tmp/cc66AmNZ.s:4316   .debug_str:000000000000076f .LASF145
     /tmp/cc66AmNZ.s:4276   .debug_str:00000000000005fb .LASF146
     /tmp/cc66AmNZ.s:4284   .debug_str:0000000000000637 .LASF147
     /tmp/cc66AmNZ.s:4310   .debug_str:000000000000073f .LASF148
     /tmp/cc66AmNZ.s:4508   .debug_str:0000000000000d40 .LASF149
     /tmp/cc66AmNZ.s:4150   .debug_str:00000000000001e5 .LASF150
     /tmp/cc66AmNZ.s:4420   .debug_str:0000000000000a8d .LASF151
     /tmp/cc66AmNZ.s:4350   .debug_str:000000000000085b .LASF152
     /tmp/cc66AmNZ.s:4392   .debug_str:000000000000099d .LASF153
     /tmp/cc66AmNZ.s:4172   .debug_str:000000000000028c .LASF154
     /tmp/cc66AmNZ.s:4184   .debug_str:00000000000002ee .LASF155
     /tmp/cc66AmNZ.s:4384   .debug_str:0000000000000960 .LASF156
     /tmp/cc66AmNZ.s:4244   .debug_str:00000000000004e1 .LASF157
     /tmp/cc66AmNZ.s:4322   .debug_str:0000000000000795 .LASF158
     /tmp/cc66AmNZ.s:4124   .debug_str:0000000000000033 .LASF159
     /tmp/cc66AmNZ.s:4214   .debug_str:00000000000003e5 .LASF160
     /tmp/cc66AmNZ.s:4380   .debug_str:0000000000000947 .LASF161
     /tmp/cc66AmNZ.s:4320   .debug_str:000000000000077c .LASF162
     /tmp/cc66AmNZ.s:4474   .debug_str:0000000000000c53 .LASF163
     /tmp/cc66AmNZ.s:4200   .debug_str:0000000000000386 .LASF164
     /tmp/cc66AmNZ.s:4468   .debug_str:0000000000000c1a .LASF165
     /tmp/cc66AmNZ.s:4136   .debug_str:0000000000000172 .LASF166
     /tmp/cc66AmNZ.s:4146   .debug_str:00000000000001cf .LASF167
     /tmp/cc66AmNZ.s:4286   .debug_str:000000000000063f .LASF168
     /tmp/cc66AmNZ.s:4280   .debug_str:000000000000061a .LASF169
     /tmp/cc66AmNZ.s:697    .text:00000000000003a4 .LFB61
     /tmp/cc66AmNZ.s:728    .text:00000000000003f0 .LFE61
     /tmp/cc66AmNZ.s:715    .text:00000000000003d8 .LVL51
GAS LISTING /tmp/cc66AmNZ.s 			page 30


     /tmp/cc66AmNZ.s:422    .text:0000000000000220 .LFB60
     /tmp/cc66AmNZ.s:528    .text:00000000000002d4 .LFE60
     /tmp/cc66AmNZ.s:4208   .debug_str:00000000000003c6 .LASF174
     /tmp/cc66AmNZ.s:3739   .debug_loc:0000000000000000 .LLST8
     /tmp/cc66AmNZ.s:4422   .debug_str:0000000000000a94 .LASF170
     /tmp/cc66AmNZ.s:3761   .debug_loc:000000000000005f .LLST9
     /tmp/cc66AmNZ.s:4328   .debug_str:00000000000007c3 .LASF171
     /tmp/cc66AmNZ.s:3775   .debug_loc:0000000000000098 .LLST10
     /tmp/cc66AmNZ.s:4162   .debug_str:0000000000000235 .LASF172
     /tmp/cc66AmNZ.s:3789   .debug_loc:00000000000000d1 .LLST11
     /tmp/cc66AmNZ.s:471    .text:0000000000000270 .LVL31
     /tmp/cc66AmNZ.s:480    .text:0000000000000284 .LVL32
     /tmp/cc66AmNZ.s:396    .text:00000000000001fc .LFB59
     /tmp/cc66AmNZ.s:416    .text:0000000000000220 .LFE59
     /tmp/cc66AmNZ.s:90     .text:0000000000000064 .LFB58
     /tmp/cc66AmNZ.s:138    .text:00000000000000ac .LFE58
     /tmp/cc66AmNZ.s:3803   .debug_loc:000000000000010a .LLST2
     /tmp/cc66AmNZ.s:104    .text:000000000000007c .LVL7
     /tmp/cc66AmNZ.s:127    .text:000000000000009c .LVL10
     /tmp/cc66AmNZ.s:364    .text:00000000000001d4 .LFB57
     /tmp/cc66AmNZ.s:390    .text:00000000000001fc .LFE57
     /tmp/cc66AmNZ.s:4386   .debug_str:0000000000000973 .LASF173
     /tmp/cc66AmNZ.s:3810   .debug_loc:000000000000012d .LLST7
     /tmp/cc66AmNZ.s:379    .text:00000000000001ec .LVL28
     /tmp/cc66AmNZ.s:332    .text:00000000000001ac .LFB56
     /tmp/cc66AmNZ.s:358    .text:00000000000001d4 .LFE56
     /tmp/cc66AmNZ.s:3824   .debug_loc:0000000000000166 .LLST6
     /tmp/cc66AmNZ.s:347    .text:00000000000001c4 .LVL26
     /tmp/cc66AmNZ.s:4120   .debug_str:0000000000000022 .LASF175
     /tmp/cc66AmNZ.s:4168   .debug_str:0000000000000268 .LASF176
     /tmp/cc66AmNZ.s:275    .text:0000000000000160 .LFB54
     /tmp/cc66AmNZ.s:324    .text:00000000000001ac .LFE54
     /tmp/cc66AmNZ.s:3838   .debug_loc:000000000000019f .LLST5
     /tmp/cc66AmNZ.s:299    .text:0000000000000188 .LVL22
     /tmp/cc66AmNZ.s:308    .text:0000000000000198 .LVL23
     /tmp/cc66AmNZ.s:4296   .debug_str:0000000000000695 .LASF177
     /tmp/cc66AmNZ.s:534    .text:00000000000002d4 .LFB51
     /tmp/cc66AmNZ.s:562    .text:00000000000002fc .LFE51
     /tmp/cc66AmNZ.s:3856   .debug_loc:00000000000001eb .LLST12
     /tmp/cc66AmNZ.s:3870   .debug_loc:0000000000000224 .LLST13
     /tmp/cc66AmNZ.s:3884   .debug_loc:000000000000025d .LLST14
     /tmp/cc66AmNZ.s:3898   .debug_loc:0000000000000296 .LLST15
     /tmp/cc66AmNZ.s:550    .text:00000000000002ec .LVL36
     /tmp/cc66AmNZ.s:182    .text:00000000000000d0 .LFB49
     /tmp/cc66AmNZ.s:269    .text:0000000000000160 .LFE49
     /tmp/cc66AmNZ.s:3912   .debug_loc:00000000000002cf .LLST3
     /tmp/cc66AmNZ.s:200    .text:00000000000000ec .LBB4
     /tmp/cc66AmNZ.s:208    .text:00000000000000f0 .LBE4
     /tmp/cc66AmNZ.s:3923   .debug_loc:0000000000000305 .LLST4
     /tmp/cc66AmNZ.s:219    .text:0000000000000104 .LVL14
     /tmp/cc66AmNZ.s:235    .text:0000000000000128 .LVL15
     /tmp/cc66AmNZ.s:257    .text:0000000000000148 .LVL18
     /tmp/cc66AmNZ.s:265    .text:000000000000015c .LVL19
     /tmp/cc66AmNZ.s:144    .text:00000000000000ac .LFB48
     /tmp/cc66AmNZ.s:176    .text:00000000000000d0 .LFE48
     /tmp/cc66AmNZ.s:4460   .debug_str:0000000000000bc0 .LASF178
     /tmp/cc66AmNZ.s:734    .text:00000000000003f0 .LFB47
GAS LISTING /tmp/cc66AmNZ.s 			page 31


     /tmp/cc66AmNZ.s:825    .text:0000000000000494 .LFE47
     /tmp/cc66AmNZ.s:3930   .debug_loc:0000000000000328 .LLST19
     /tmp/cc66AmNZ.s:4340   .debug_str:0000000000000819 .LASF179
     /tmp/cc66AmNZ.s:3956   .debug_loc:000000000000039a .LLST20
     /tmp/cc66AmNZ.s:4158   .debug_str:000000000000021e .LASF180
     /tmp/cc66AmNZ.s:3982   .debug_loc:000000000000040c .LLST21
     /tmp/cc66AmNZ.s:765    .text:0000000000000430 .LVL54
     /tmp/cc66AmNZ.s:774    .text:0000000000000448 .LVL56
     /tmp/cc66AmNZ.s:811    .text:0000000000000480 .LVL61
     /tmp/cc66AmNZ.s:666    .text:00000000000003a4 .LFE46
     /tmp/cc66AmNZ.s:3997   .debug_loc:0000000000000455 .LLST16
     /tmp/cc66AmNZ.s:4026   .debug_loc:00000000000004ca .LLST17
     /tmp/cc66AmNZ.s:4048   .debug_loc:0000000000000529 .LLST18
     /tmp/cc66AmNZ.s:598    .text:000000000000032c .LVL39
     /tmp/cc66AmNZ.s:608    .text:0000000000000348 .LVL40
     /tmp/cc66AmNZ.s:659    .text:0000000000000398 .LVL49
     /tmp/cc66AmNZ.s:663    .text:00000000000003a4 .LVL50
     /tmp/cc66AmNZ.s:35     .text:0000000000000018 .LFB45
     /tmp/cc66AmNZ.s:84     .text:0000000000000064 .LFE45
     /tmp/cc66AmNZ.s:4148   .debug_str:00000000000001e0 .LASF181
     /tmp/cc66AmNZ.s:4063   .debug_loc:0000000000000572 .LLST0
     /tmp/cc66AmNZ.s:4081   .debug_loc:00000000000005be .LLST1
     /tmp/cc66AmNZ.s:60     .text:0000000000000040 .LVL4
     /tmp/cc66AmNZ.s:69     .text:0000000000000050 .LVL5
     /tmp/cc66AmNZ.s:10     .text:0000000000000000 .LFB44
     /tmp/cc66AmNZ.s:29     .text:0000000000000018 .LFE44
     /tmp/cc66AmNZ.s:4464   .debug_str:0000000000000bd7 .LASF182
     /tmp/cc66AmNZ.s:4198   .debug_str:0000000000000374 .LASF184
     /tmp/cc66AmNZ.s:4414   .debug_str:0000000000000a62 .LASF183
     /tmp/cc66AmNZ.s:4488   .debug_str:0000000000000cbc .LASF187
     /tmp/cc66AmNZ.s:4314   .debug_str:000000000000075c .LASF189
     /tmp/cc66AmNZ.s:4230   .debug_str:000000000000045f .LASF185
     /tmp/cc66AmNZ.s:4164   .debug_str:0000000000000244 .LASF186
     /tmp/cc66AmNZ.s:4494   .debug_str:0000000000000cda .LASF188
     /tmp/cc66AmNZ.s:4170   .debug_str:0000000000000274 .LASF190
     /tmp/cc66AmNZ.s:425    .text:0000000000000220 .LVL29
     /tmp/cc66AmNZ.s:469    .text:0000000000000268 .LVL30
     /tmp/cc66AmNZ.s:516    .text:00000000000002c4 .LVL33
     /tmp/cc66AmNZ.s:520    .text:00000000000002cc .LVL34
     /tmp/cc66AmNZ.s:110    .text:0000000000000088 .LVL8
     /tmp/cc66AmNZ.s:123    .text:0000000000000094 .LVL9
     /tmp/cc66AmNZ.s:367    .text:00000000000001d4 .LVL27
     /tmp/cc66AmNZ.s:335    .text:00000000000001ac .LVL25
     /tmp/cc66AmNZ.s:278    .text:0000000000000160 .LVL20
     /tmp/cc66AmNZ.s:294    .text:000000000000017c .LVL21
     /tmp/cc66AmNZ.s:319    .text:00000000000001a4 .LVL24
     /tmp/cc66AmNZ.s:537    .text:00000000000002d4 .LVL35
     /tmp/cc66AmNZ.s:198    .text:00000000000000ec .LVL12
     /tmp/cc66AmNZ.s:246    .text:0000000000000134 .LVL16
     /tmp/cc66AmNZ.s:250    .text:000000000000013c .LVL17
     /tmp/cc66AmNZ.s:206    .text:00000000000000f0 .LVL13
     /tmp/cc66AmNZ.s:737    .text:00000000000003f0 .LVL52
     /tmp/cc66AmNZ.s:759    .text:0000000000000420 .LVL53
     /tmp/cc66AmNZ.s:798    .text:000000000000046c .LVL58
     /tmp/cc66AmNZ.s:805    .text:0000000000000478 .LVL60
     /tmp/cc66AmNZ.s:801    .text:0000000000000470 .LVL59
     /tmp/cc66AmNZ.s:767    .text:0000000000000434 .LVL55
GAS LISTING /tmp/cc66AmNZ.s 			page 32


     /tmp/cc66AmNZ.s:784    .text:0000000000000458 .LVL57
     /tmp/cc66AmNZ.s:813    .text:0000000000000484 .LVL62
     /tmp/cc66AmNZ.s:817    .text:0000000000000488 .LVL63
     /tmp/cc66AmNZ.s:819    .text:000000000000048c .LVL64
     /tmp/cc66AmNZ.s:822    .text:0000000000000490 .LVL65
     /tmp/cc66AmNZ.s:575    .text:00000000000002fc .LVL37
     /tmp/cc66AmNZ.s:595    .text:0000000000000324 .LVL38
     /tmp/cc66AmNZ.s:634    .text:000000000000036c .LVL42
     /tmp/cc66AmNZ.s:641    .text:0000000000000378 .LVL44
     /tmp/cc66AmNZ.s:655    .text:000000000000038c .LVL48
     /tmp/cc66AmNZ.s:637    .text:0000000000000370 .LVL43
     /tmp/cc66AmNZ.s:620    .text:0000000000000358 .LVL41
     /tmp/cc66AmNZ.s:646    .text:000000000000037c .LVL45
     /tmp/cc66AmNZ.s:648    .text:0000000000000380 .LVL46
     /tmp/cc66AmNZ.s:651    .text:0000000000000384 .LVL47
     /tmp/cc66AmNZ.s:38     .text:0000000000000018 .LVL1
     /tmp/cc66AmNZ.s:55     .text:0000000000000034 .LVL3
     /tmp/cc66AmNZ.s:79     .text:000000000000005c .LVL6
     /tmp/cc66AmNZ.s:51     .text:0000000000000030 .LVL2
     /tmp/cc66AmNZ.s:854    .debug_info:0000000000000000 .Ldebug_info0
     /tmp/cc66AmNZ.s:669    .gcc_except_table:0000000000000000 .LLSDA46

UNDEFINED SYMBOLS
_ZdaPv
_ZN6Kernel10popSppSpieEv
_Z11thread_exitv
_ZN9Scheduler3getEv
_ZN3PCB14switchContext1EPmS0_
_ZN9Scheduler3putEP3PCB
_ZN3PCB14switchContext2EPmS0_
_ZN15MemoryAllocator9mem_allocEm
_ZN15MemoryAllocator8mem_freeEPv
_Unwind_Resume
__gxx_personality_v0
_Z17kmem_cache_createPKcmPFvPvES3_
_Z16kmem_cache_allocP12kmem_cache_s
