GAS LISTING /tmp/cc8XiOwy.s 			page 1


   1              		.file	"PCB.cpp"
   2              		.option pic
   3              		.option norelax
   4              		.text
   5              	.Ltext0:
   6              		.align	2
   7              		.globl	_ZN3PCB15proccessWrapperEv
   9              	_ZN3PCB15proccessWrapperEv:
  10              	.LFB45:
  11              		.file 1 "src/PCB.cpp"
   1:src/PCB.cpp   **** #include "../h/PCB.h"
   2:src/PCB.cpp   **** #include "../h/Scheduler.h"
   3:src/PCB.cpp   **** #include "../h/MemoryAllocator.h"
   4:src/PCB.cpp   **** #include "../h/kernel.h"
   5:src/PCB.cpp   **** #include "../h/syscall_c.h"
   6:src/PCB.cpp   **** 
   7:src/PCB.cpp   **** PCB* PCB::running = nullptr;
   8:src/PCB.cpp   **** size_t PCB::timeSliceCounter = 0;
   9:src/PCB.cpp   **** 
  10:src/PCB.cpp   **** PCB *PCB::createProccess(PCB::processMain main, void* arguments) {
  11:src/PCB.cpp   ****     return new PCB(main, DEFAULT_TIME_SLICE, arguments);
  12:src/PCB.cpp   **** }
  13:src/PCB.cpp   **** 
  14:src/PCB.cpp   **** void PCB::yield() {
  15:src/PCB.cpp   ****     size_t code = Kernel::sysCallCodes::thread_dispatch;
  16:src/PCB.cpp   ****     asm volatile("mv a0, %0" : : "r" (code));
  17:src/PCB.cpp   ****     asm volatile("ecall"); // prelazimo u prekidnu rutinu koja cuva registre i vrsi promenu konteks
  18:src/PCB.cpp   **** }
  19:src/PCB.cpp   **** 
  20:src/PCB.cpp   **** void PCB::dispatch() {
  21:src/PCB.cpp   ****     PCB* old = running;
  22:src/PCB.cpp   ****     if(!old->isFinished() && !old->blocked) { // ako se nije zavrsio i nije blokiran
  23:src/PCB.cpp   ****         Scheduler::put(old);
  24:src/PCB.cpp   ****     }
  25:src/PCB.cpp   ****     running = Scheduler::get();
  26:src/PCB.cpp   **** 
  27:src/PCB.cpp   ****     if(PCB::running->firstCall) {
  28:src/PCB.cpp   ****         PCB::running->firstCall = false;
  29:src/PCB.cpp   ****         switchContext1(old->registers, running->registers);
  30:src/PCB.cpp   ****     }
  31:src/PCB.cpp   ****     else {
  32:src/PCB.cpp   ****         switchContext2(old->registers, running->registers);
  33:src/PCB.cpp   ****     }
  34:src/PCB.cpp   **** 
  35:src/PCB.cpp   **** }
  36:src/PCB.cpp   **** 
  37:src/PCB.cpp   **** // main_ == nullptr ako smo u glavnom procesu
  38:src/PCB.cpp   **** PCB::PCB(PCB::processMain main_, size_t timeSlice_, void* mainArguments_) {
  39:src/PCB.cpp   ****     finished = blocked = semDeleted = false;
  40:src/PCB.cpp   ****     main = main_;
  41:src/PCB.cpp   ****     timeSlice = timeSlice_;
  42:src/PCB.cpp   ****     mainArguments = mainArguments_;
  43:src/PCB.cpp   ****     registers = (size_t*)MemoryAllocator::mem_alloc(33*sizeof(size_t)); // mozemo direktno jer se z
  44:src/PCB.cpp   ****     sysStack = (size_t*)MemoryAllocator::mem_alloc(DEFAULT_STACK_SIZE*sizeof(size_t));
  45:src/PCB.cpp   ****     registers[0] = (size_t)&sysStack[DEFAULT_STACK_SIZE]; // ssp postavljamo na vrh steka
  46:src/PCB.cpp   ****     registers[32] = (size_t)&proccessWrapper; // u ra cuvamo proccessWrapper
  47:src/PCB.cpp   ****     stack = nullptr; // stek pravimo u sistemskom pozivu thread_create
GAS LISTING /tmp/cc8XiOwy.s 			page 2


  48:src/PCB.cpp   ****     if(main == nullptr) firstCall = false; //  jer je glavni proces vec pokrenut, necemo ici u proc
  49:src/PCB.cpp   **** }
  50:src/PCB.cpp   **** 
  51:src/PCB.cpp   **** PCB::~PCB() {
  52:src/PCB.cpp   ****     delete[] stack;
  53:src/PCB.cpp   ****     delete[] sysStack;
  54:src/PCB.cpp   **** }
  55:src/PCB.cpp   **** 
  56:src/PCB.cpp   **** void *PCB::operator new(size_t size) {
  57:src/PCB.cpp   ****     return MemoryAllocator::mem_alloc(size);
  58:src/PCB.cpp   **** }
  59:src/PCB.cpp   **** 
  60:src/PCB.cpp   **** void PCB::operator delete(void *memSegment) {
  61:src/PCB.cpp   ****     MemoryAllocator::mem_free(memSegment);
  62:src/PCB.cpp   **** }
  63:src/PCB.cpp   **** 
  64:src/PCB.cpp   **** void PCB::proccessWrapper() { // iz prekidne rutine skacemo ovde kada prvi put ulazimo u nit
  12              		.loc 1 64 29
  13              		.cfi_startproc
  14 0000 130101FF 		addi	sp,sp,-16
  15              		.cfi_def_cfa_offset 16
  16 0004 23341100 		sd	ra,8(sp)
  17 0008 23308100 		sd	s0,0(sp)
  18              		.cfi_offset 1, -8
  19              		.cfi_offset 8, -16
  20 000c 13040101 		addi	s0,sp,16
  21              		.cfi_def_cfa 8, 0
  65:src/PCB.cpp   ****     Kernel::popSppSpie(); // izlazimo iz prekidne rutine
  22              		.loc 1 65 5
  23              		.loc 1 65 23 is_stmt 0
  24 0010 97000000 		call	_ZN6Kernel10popSppSpieEv@plt
  24      E7800000 
  25              	.LVL0:
  66:src/PCB.cpp   ****     void* arg = PCB::running->mainArguments;
  26              		.loc 1 66 5 is_stmt 1
  27              		.loc 1 66 31 is_stmt 0
  28 0018 97070000 		ld	a5,.LANCHOR0
  28      83B70700 
  29              		.loc 1 66 11
  30 0020 03B78703 		ld	a4,56(a5)
  31              	.LVL1:
  67:src/PCB.cpp   ****     asm volatile("mv a0, %0" : : "r" (arg)); // u a0 postavljamo argument glavne funkcije procesa
  32              		.loc 1 67 5 is_stmt 1
  33              		.loc 1 67 44 is_stmt 0
  34              	#APP
  35              	# 67 "src/PCB.cpp" 1
  68              	    running->main();
  36              		mv a0, a4
  37              	# 0 "" 2
  38              		.loc 1 68 5 is_stmt 1
  39              		.loc 1 68 14 is_stmt 0
  40              	#NO_APP
  41 0028 83B70702 		ld	a5,32(a5)
  42              		.loc 1 68 18
  43 002c E7800700 		jalr	a5
  44              	.LVL2:
  69:src/PCB.cpp   ****     thread_exit();
GAS LISTING /tmp/cc8XiOwy.s 			page 3


  45              		.loc 1 69 5 is_stmt 1
  46              		.loc 1 69 16 is_stmt 0
  47 0030 97000000 		call	_Z11thread_exitv@plt
  47      E7800000 
  48              	.LVL3:
  70:src/PCB.cpp   **** }
  49              		.loc 1 70 1
  50 0038 83308100 		ld	ra,8(sp)
  51              		.cfi_restore 1
  52 003c 03340100 		ld	s0,0(sp)
  53              		.cfi_restore 8
  54              		.cfi_def_cfa 2, 16
  55 0040 13010101 		addi	sp,sp,16
  56              		.cfi_def_cfa_offset 0
  57 0044 67800000 		jr	ra
  58              		.cfi_endproc
  59              	.LFE45:
  61              		.align	2
  62              		.globl	_ZN3PCB5yieldEv
  64              	_ZN3PCB5yieldEv:
  65              	.LFB35:
  14:src/PCB.cpp   ****     size_t code = Kernel::sysCallCodes::thread_dispatch;
  66              		.loc 1 14 19 is_stmt 1
  67              		.cfi_startproc
  68 0048 130101FF 		addi	sp,sp,-16
  69              		.cfi_def_cfa_offset 16
  70 004c 23348100 		sd	s0,8(sp)
  71              		.cfi_offset 8, -8
  72 0050 13040101 		addi	s0,sp,16
  73              		.cfi_def_cfa 8, 0
  15:src/PCB.cpp   ****     asm volatile("mv a0, %0" : : "r" (code));
  74              		.loc 1 15 5
  75              	.LVL4:
  16:src/PCB.cpp   ****     asm volatile("ecall"); // prelazimo u prekidnu rutinu koja cuva registre i vrsi promenu konteks
  76              		.loc 1 16 5
  16:src/PCB.cpp   ****     asm volatile("ecall"); // prelazimo u prekidnu rutinu koja cuva registre i vrsi promenu konteks
  77              		.loc 1 16 45 is_stmt 0
  78 0054 93073001 		li	a5,19
  79              	#APP
  80              	# 16 "src/PCB.cpp" 1
  17:src/PCB.cpp   **** }
  81              		mv a0, a5
  82              	# 0 "" 2
  83              		.loc 1 17 5 is_stmt 1
  17:src/PCB.cpp   **** }
  84              		.loc 1 17 26 is_stmt 0
  85              	# 17 "src/PCB.cpp" 1
  18:src/PCB.cpp   **** 
  86              		ecall
  87              	# 0 "" 2
  88              		.loc 1 18 1
  89              	#NO_APP
  90 0060 03348100 		ld	s0,8(sp)
  91              		.cfi_restore 8
  92              		.cfi_def_cfa 2, 16
  93 0064 13010101 		addi	sp,sp,16
  94              		.cfi_def_cfa_offset 0
GAS LISTING /tmp/cc8XiOwy.s 			page 4


  95 0068 67800000 		jr	ra
  96              		.cfi_endproc
  97              	.LFE35:
  99              		.align	2
 100              		.globl	_ZN3PCB8dispatchEv
 102              	_ZN3PCB8dispatchEv:
 103              	.LFB36:
  20:src/PCB.cpp   ****     PCB* old = running;
 104              		.loc 1 20 22 is_stmt 1
 105              		.cfi_startproc
 106 006c 130101FE 		addi	sp,sp,-32
 107              		.cfi_def_cfa_offset 32
 108 0070 233C1100 		sd	ra,24(sp)
 109 0074 23388100 		sd	s0,16(sp)
 110 0078 23349100 		sd	s1,8(sp)
 111              		.cfi_offset 1, -8
 112              		.cfi_offset 8, -16
 113              		.cfi_offset 9, -24
 114 007c 13040102 		addi	s0,sp,32
 115              		.cfi_def_cfa 8, 0
  21:src/PCB.cpp   ****     if(!old->isFinished() && !old->blocked) { // ako se nije zavrsio i nije blokiran
 116              		.loc 1 21 5
  21:src/PCB.cpp   ****     if(!old->isFinished() && !old->blocked) { // ako se nije zavrsio i nije blokiran
 117              		.loc 1 21 10 is_stmt 0
 118 0080 97040000 		ld	s1,.LANCHOR0
 118      83B40400 
 119              	.LVL5:
  22:src/PCB.cpp   ****         Scheduler::put(old);
 120              		.loc 1 22 5 is_stmt 1
 121              	.LBB4:
 122              	.LBB5:
 123              		.file 2 "src/../h/PCB.h"
   1:src/../h/PCB.h **** #ifndef PCB_H
   2:src/../h/PCB.h **** #define PCB_H
   3:src/../h/PCB.h **** 
   4:src/../h/PCB.h **** #include "hw.h"
   5:src/../h/PCB.h **** 
   6:src/../h/PCB.h **** extern "C" void interruptHandler();
   7:src/../h/PCB.h **** 
   8:src/../h/PCB.h **** class PCB {
   9:src/../h/PCB.h **** friend class Scheduler;
  10:src/../h/PCB.h **** friend void interruptHandler();
  11:src/../h/PCB.h **** friend class Kernel;
  12:src/../h/PCB.h **** friend class SCB;
  13:src/../h/PCB.h **** public:
  14:src/../h/PCB.h ****     // vraca true ako se proces zavrsio, false ako nije
  15:src/../h/PCB.h ****     bool isFinished() const {
  16:src/../h/PCB.h ****         return finished;
 124              		.loc 2 16 9
 125              		.loc 2 16 16 is_stmt 0
 126 0088 83C78402 		lbu	a5,40(s1)
 127              	.LVL6:
 128              	.LBE5:
 129              	.LBE4:
  22:src/PCB.cpp   ****         Scheduler::put(old);
 130              		.loc 1 22 27
 131 008c 63960700 		bnez	a5,.L6
GAS LISTING /tmp/cc8XiOwy.s 			page 5


  22:src/PCB.cpp   ****         Scheduler::put(old);
 132              		.loc 1 22 36 discriminator 1
 133 0090 83C79402 		lbu	a5,41(s1)
  22:src/PCB.cpp   ****         Scheduler::put(old);
 134              		.loc 1 22 27 discriminator 1
 135 0094 63820704 		beqz	a5,.L10
 136              	.L6:
  25:src/PCB.cpp   **** 
 137              		.loc 1 25 5 is_stmt 1
  25:src/PCB.cpp   **** 
 138              		.loc 1 25 29 is_stmt 0
 139 0098 97000000 		call	_ZN9Scheduler3getEv@plt
 139      E7800000 
 140              	.LVL7:
  25:src/PCB.cpp   **** 
 141              		.loc 1 25 13
 142 00a0 97070000 		sd	a0,.LANCHOR0,a5
 142      23B0A700 
  27:src/PCB.cpp   ****         PCB::running->firstCall = false;
 143              		.loc 1 27 5 is_stmt 1
  27:src/PCB.cpp   ****         PCB::running->firstCall = false;
 144              		.loc 1 27 22 is_stmt 0
 145 00a8 83478504 		lbu	a5,72(a0)
  27:src/PCB.cpp   ****         PCB::running->firstCall = false;
 146              		.loc 1 27 5
 147 00ac 638E0702 		beqz	a5,.L7
  28:src/PCB.cpp   ****         switchContext1(old->registers, running->registers);
 148              		.loc 1 28 9 is_stmt 1
  28:src/PCB.cpp   ****         switchContext1(old->registers, running->registers);
 149              		.loc 1 28 33 is_stmt 0
 150 00b0 23040504 		sb	zero,72(a0)
  29:src/PCB.cpp   ****     }
 151              		.loc 1 29 9 is_stmt 1
  29:src/PCB.cpp   ****     }
 152              		.loc 1 29 23 is_stmt 0
 153 00b4 83358501 		ld	a1,24(a0)
 154 00b8 03B58401 		ld	a0,24(s1)
 155 00bc 97000000 		call	_ZN3PCB14switchContext1EPmS0_@plt
 155      E7800000 
 156              	.LVL8:
 157              	.L5:
  35:src/PCB.cpp   **** 
 158              		.loc 1 35 1
 159 00c4 83308101 		ld	ra,24(sp)
 160              		.cfi_remember_state
 161              		.cfi_restore 1
 162 00c8 03340101 		ld	s0,16(sp)
 163              		.cfi_restore 8
 164              		.cfi_def_cfa 2, 32
 165 00cc 83348100 		ld	s1,8(sp)
 166              		.cfi_restore 9
 167              	.LVL9:
 168 00d0 13010102 		addi	sp,sp,32
 169              		.cfi_def_cfa_offset 0
 170 00d4 67800000 		jr	ra
 171              	.LVL10:
 172              	.L10:
GAS LISTING /tmp/cc8XiOwy.s 			page 6


 173              		.cfi_restore_state
  23:src/PCB.cpp   ****     }
 174              		.loc 1 23 9 is_stmt 1
  23:src/PCB.cpp   ****     }
 175              		.loc 1 23 23 is_stmt 0
 176 00d8 13850400 		mv	a0,s1
 177 00dc 97000000 		call	_ZN9Scheduler3putEP3PCB@plt
 177      E7800000 
 178              	.LVL11:
 179 00e4 6FF05FFB 		j	.L6
 180              	.L7:
  32:src/PCB.cpp   ****     }
 181              		.loc 1 32 9 is_stmt 1
  32:src/PCB.cpp   ****     }
 182              		.loc 1 32 23 is_stmt 0
 183 00e8 83358501 		ld	a1,24(a0)
 184 00ec 03B58401 		ld	a0,24(s1)
 185 00f0 97000000 		call	_ZN3PCB14switchContext2EPmS0_@plt
 185      E7800000 
 186              	.LVL12:
  35:src/PCB.cpp   **** 
 187              		.loc 1 35 1
 188 00f8 6FF0DFFC 		j	.L5
 189              		.cfi_endproc
 190              	.LFE36:
 192              		.align	2
 193              		.globl	_ZN3PCBC2EPFvvEmPv
 195              	_ZN3PCBC2EPFvvEmPv:
 196              	.LFB38:
  38:src/PCB.cpp   ****     finished = blocked = semDeleted = false;
 197              		.loc 1 38 1 is_stmt 1
 198              		.cfi_startproc
 199              	.LVL13:
 200 00fc 130101FE 		addi	sp,sp,-32
 201              		.cfi_def_cfa_offset 32
 202 0100 233C1100 		sd	ra,24(sp)
 203 0104 23388100 		sd	s0,16(sp)
 204 0108 23349100 		sd	s1,8(sp)
 205              		.cfi_offset 1, -8
 206              		.cfi_offset 8, -16
 207              		.cfi_offset 9, -24
 208 010c 13040102 		addi	s0,sp,32
 209              		.cfi_def_cfa 8, 0
 210 0110 93040500 		mv	s1,a0
 211              	.LBB6:
  38:src/PCB.cpp   ****     finished = blocked = semDeleted = false;
 212              		.loc 1 38 73 is_stmt 0
 213 0114 23300500 		sd	zero,0(a0)
 214 0118 233C0500 		sd	zero,24(a0)
 215 011c 23380502 		sd	zero,48(a0)
 216 0120 93071000 		li	a5,1
 217 0124 2304F504 		sb	a5,72(a0)
  39:src/PCB.cpp   ****     main = main_;
 218              		.loc 1 39 5 is_stmt 1
  39:src/PCB.cpp   ****     main = main_;
 219              		.loc 1 39 37 is_stmt 0
 220 0128 23050502 		sb	zero,42(a0)
GAS LISTING /tmp/cc8XiOwy.s 			page 7


  39:src/PCB.cpp   ****     main = main_;
 221              		.loc 1 39 24
 222 012c A3040502 		sb	zero,41(a0)
  39:src/PCB.cpp   ****     main = main_;
 223              		.loc 1 39 14
 224 0130 23040502 		sb	zero,40(a0)
  40:src/PCB.cpp   ****     timeSlice = timeSlice_;
 225              		.loc 1 40 5 is_stmt 1
  40:src/PCB.cpp   ****     timeSlice = timeSlice_;
 226              		.loc 1 40 10 is_stmt 0
 227 0134 2330B502 		sd	a1,32(a0)
  41:src/PCB.cpp   ****     mainArguments = mainArguments_;
 228              		.loc 1 41 5 is_stmt 1
  41:src/PCB.cpp   ****     mainArguments = mainArguments_;
 229              		.loc 1 41 15 is_stmt 0
 230 0138 2330C504 		sd	a2,64(a0)
  42:src/PCB.cpp   ****     registers = (size_t*)MemoryAllocator::mem_alloc(33*sizeof(size_t)); // mozemo direktno jer se z
 231              		.loc 1 42 5 is_stmt 1
  42:src/PCB.cpp   ****     registers = (size_t*)MemoryAllocator::mem_alloc(33*sizeof(size_t)); // mozemo direktno jer se z
 232              		.loc 1 42 19 is_stmt 0
 233 013c 233CD502 		sd	a3,56(a0)
  43:src/PCB.cpp   ****     sysStack = (size_t*)MemoryAllocator::mem_alloc(DEFAULT_STACK_SIZE*sizeof(size_t));
 234              		.loc 1 43 5 is_stmt 1
  43:src/PCB.cpp   ****     sysStack = (size_t*)MemoryAllocator::mem_alloc(DEFAULT_STACK_SIZE*sizeof(size_t));
 235              		.loc 1 43 52 is_stmt 0
 236 0140 13058010 		li	a0,264
 237              	.LVL14:
 238 0144 97000000 		call	_ZN15MemoryAllocator9mem_allocEm@plt
 238      E7800000 
 239              	.LVL15:
  43:src/PCB.cpp   ****     sysStack = (size_t*)MemoryAllocator::mem_alloc(DEFAULT_STACK_SIZE*sizeof(size_t));
 240              		.loc 1 43 15
 241 014c 23BCA400 		sd	a0,24(s1)
  44:src/PCB.cpp   ****     registers[0] = (size_t)&sysStack[DEFAULT_STACK_SIZE]; // ssp postavljamo na vrh steka
 242              		.loc 1 44 5 is_stmt 1
  44:src/PCB.cpp   ****     registers[0] = (size_t)&sysStack[DEFAULT_STACK_SIZE]; // ssp postavljamo na vrh steka
 243              		.loc 1 44 51 is_stmt 0
 244 0150 37850000 		li	a0,32768
 245 0154 97000000 		call	_ZN15MemoryAllocator9mem_allocEm@plt
 245      E7800000 
 246              	.LVL16:
  44:src/PCB.cpp   ****     registers[0] = (size_t)&sysStack[DEFAULT_STACK_SIZE]; // ssp postavljamo na vrh steka
 247              		.loc 1 44 14
 248 015c 23B8A400 		sd	a0,16(s1)
  45:src/PCB.cpp   ****     registers[32] = (size_t)&proccessWrapper; // u ra cuvamo proccessWrapper
 249              		.loc 1 45 5 is_stmt 1
  45:src/PCB.cpp   ****     registers[32] = (size_t)&proccessWrapper; // u ra cuvamo proccessWrapper
 250              		.loc 1 45 28 is_stmt 0
 251 0160 B7870000 		li	a5,32768
 252 0164 3305F500 		add	a0,a0,a5
  45:src/PCB.cpp   ****     registers[32] = (size_t)&proccessWrapper; // u ra cuvamo proccessWrapper
 253              		.loc 1 45 5
 254 0168 83B78401 		ld	a5,24(s1)
  45:src/PCB.cpp   ****     registers[32] = (size_t)&proccessWrapper; // u ra cuvamo proccessWrapper
 255              		.loc 1 45 18
 256 016c 23B0A700 		sd	a0,0(a5)
  46:src/PCB.cpp   ****     stack = nullptr; // stek pravimo u sistemskom pozivu thread_create
GAS LISTING /tmp/cc8XiOwy.s 			page 8


 257              		.loc 1 46 5 is_stmt 1
 258 0170 83B78401 		ld	a5,24(s1)
  46:src/PCB.cpp   ****     stack = nullptr; // stek pravimo u sistemskom pozivu thread_create
 259              		.loc 1 46 19 is_stmt 0
 260 0174 17070000 		lla	a4,_ZN3PCB15proccessWrapperEv
 260      13070700 
 261 017c 23B0E710 		sd	a4,256(a5)
  47:src/PCB.cpp   ****     if(main == nullptr) firstCall = false; //  jer je glavni proces vec pokrenut, necemo ici u proc
 262              		.loc 1 47 5 is_stmt 1
  47:src/PCB.cpp   ****     if(main == nullptr) firstCall = false; //  jer je glavni proces vec pokrenut, necemo ici u proc
 263              		.loc 1 47 11 is_stmt 0
 264 0180 23B40400 		sd	zero,8(s1)
  48:src/PCB.cpp   **** }
 265              		.loc 1 48 5 is_stmt 1
  48:src/PCB.cpp   **** }
 266              		.loc 1 48 8 is_stmt 0
 267 0184 83B70402 		ld	a5,32(s1)
  48:src/PCB.cpp   **** }
 268              		.loc 1 48 5
 269 0188 638C0700 		beqz	a5,.L14
 270              	.L11:
 271              	.LBE6:
  49:src/PCB.cpp   **** 
 272              		.loc 1 49 1
 273 018c 83308101 		ld	ra,24(sp)
 274              		.cfi_remember_state
 275              		.cfi_restore 1
 276 0190 03340101 		ld	s0,16(sp)
 277              		.cfi_restore 8
 278              		.cfi_def_cfa 2, 32
 279 0194 83348100 		ld	s1,8(sp)
 280              		.cfi_restore 9
 281              	.LVL17:
 282 0198 13010102 		addi	sp,sp,32
 283              		.cfi_def_cfa_offset 0
 284 019c 67800000 		jr	ra
 285              	.LVL18:
 286              	.L14:
 287              		.cfi_restore_state
 288              	.LBB7:
  48:src/PCB.cpp   **** }
 289              		.loc 1 48 25 is_stmt 1 discriminator 1
  48:src/PCB.cpp   **** }
 290              		.loc 1 48 35 is_stmt 0 discriminator 1
 291 01a0 23840404 		sb	zero,72(s1)
 292              	.LBE7:
  49:src/PCB.cpp   **** 
 293              		.loc 1 49 1 discriminator 1
 294 01a4 6FF09FFE 		j	.L11
 295              		.cfi_endproc
 296              	.LFE38:
 298              		.globl	_ZN3PCBC1EPFvvEmPv
 299              		.set	_ZN3PCBC1EPFvvEmPv,_ZN3PCBC2EPFvvEmPv
 300              		.align	2
 301              		.globl	_ZN3PCBD2Ev
 303              	_ZN3PCBD2Ev:
 304              	.LFB41:
GAS LISTING /tmp/cc8XiOwy.s 			page 9


  51:src/PCB.cpp   ****     delete[] stack;
 305              		.loc 1 51 1 is_stmt 1
 306              		.cfi_startproc
 307              	.LVL19:
 308 01a8 130101FE 		addi	sp,sp,-32
 309              		.cfi_def_cfa_offset 32
 310 01ac 233C1100 		sd	ra,24(sp)
 311 01b0 23388100 		sd	s0,16(sp)
 312 01b4 23349100 		sd	s1,8(sp)
 313              		.cfi_offset 1, -8
 314              		.cfi_offset 8, -16
 315              		.cfi_offset 9, -24
 316 01b8 13040102 		addi	s0,sp,32
 317              		.cfi_def_cfa 8, 0
 318 01bc 93040500 		mv	s1,a0
 319              	.LBB8:
  52:src/PCB.cpp   ****     delete[] sysStack;
 320              		.loc 1 52 5
  52:src/PCB.cpp   ****     delete[] sysStack;
 321              		.loc 1 52 14 is_stmt 0
 322 01c0 03358500 		ld	a0,8(a0)
 323              	.LVL20:
  52:src/PCB.cpp   ****     delete[] sysStack;
 324              		.loc 1 52 19
 325 01c4 63060500 		beqz	a0,.L16
  52:src/PCB.cpp   ****     delete[] sysStack;
 326              		.loc 1 52 14 discriminator 1
 327 01c8 97000000 		call	_ZdaPv@plt
 327      E7800000 
 328              	.LVL21:
 329              	.L16:
  53:src/PCB.cpp   **** }
 330              		.loc 1 53 5 is_stmt 1
  53:src/PCB.cpp   **** }
 331              		.loc 1 53 14 is_stmt 0
 332 01d0 03B50401 		ld	a0,16(s1)
  53:src/PCB.cpp   **** }
 333              		.loc 1 53 22
 334 01d4 63060500 		beqz	a0,.L15
  53:src/PCB.cpp   **** }
 335              		.loc 1 53 14 discriminator 1
 336 01d8 97000000 		call	_ZdaPv@plt
 336      E7800000 
 337              	.LVL22:
 338              	.L15:
 339              	.LBE8:
  54:src/PCB.cpp   **** 
 340              		.loc 1 54 1
 341 01e0 83308101 		ld	ra,24(sp)
 342              		.cfi_restore 1
 343 01e4 03340101 		ld	s0,16(sp)
 344              		.cfi_restore 8
 345              		.cfi_def_cfa 2, 32
 346 01e8 83348100 		ld	s1,8(sp)
 347              		.cfi_restore 9
 348              	.LVL23:
 349 01ec 13010102 		addi	sp,sp,32
GAS LISTING /tmp/cc8XiOwy.s 			page 10


 350              		.cfi_def_cfa_offset 0
 351 01f0 67800000 		jr	ra
 352              		.cfi_endproc
 353              	.LFE41:
 355              		.globl	_ZN3PCBD1Ev
 356              		.set	_ZN3PCBD1Ev,_ZN3PCBD2Ev
 357              		.align	2
 358              		.globl	_ZN3PCBnwEm
 360              	_ZN3PCBnwEm:
 361              	.LFB43:
  56:src/PCB.cpp   ****     return MemoryAllocator::mem_alloc(size);
 362              		.loc 1 56 38 is_stmt 1
 363              		.cfi_startproc
 364              	.LVL24:
 365 01f4 130101FF 		addi	sp,sp,-16
 366              		.cfi_def_cfa_offset 16
 367 01f8 23341100 		sd	ra,8(sp)
 368 01fc 23308100 		sd	s0,0(sp)
 369              		.cfi_offset 1, -8
 370              		.cfi_offset 8, -16
 371 0200 13040101 		addi	s0,sp,16
 372              		.cfi_def_cfa 8, 0
  57:src/PCB.cpp   **** }
 373              		.loc 1 57 5
  57:src/PCB.cpp   **** }
 374              		.loc 1 57 38 is_stmt 0
 375 0204 97000000 		call	_ZN15MemoryAllocator9mem_allocEm@plt
 375      E7800000 
 376              	.LVL25:
  58:src/PCB.cpp   **** 
 377              		.loc 1 58 1
 378 020c 83308100 		ld	ra,8(sp)
 379              		.cfi_restore 1
 380 0210 03340100 		ld	s0,0(sp)
 381              		.cfi_restore 8
 382              		.cfi_def_cfa 2, 16
 383 0214 13010101 		addi	sp,sp,16
 384              		.cfi_def_cfa_offset 0
 385 0218 67800000 		jr	ra
 386              		.cfi_endproc
 387              	.LFE43:
 389              		.align	2
 390              		.globl	_ZN3PCBdlEPv
 392              	_ZN3PCBdlEPv:
 393              	.LFB44:
  60:src/PCB.cpp   ****     MemoryAllocator::mem_free(memSegment);
 394              		.loc 1 60 45 is_stmt 1
 395              		.cfi_startproc
 396              	.LVL26:
 397 021c 130101FF 		addi	sp,sp,-16
 398              		.cfi_def_cfa_offset 16
 399 0220 23341100 		sd	ra,8(sp)
 400 0224 23308100 		sd	s0,0(sp)
 401              		.cfi_offset 1, -8
 402              		.cfi_offset 8, -16
 403 0228 13040101 		addi	s0,sp,16
 404              		.cfi_def_cfa 8, 0
GAS LISTING /tmp/cc8XiOwy.s 			page 11


  61:src/PCB.cpp   **** }
 405              		.loc 1 61 5
  61:src/PCB.cpp   **** }
 406              		.loc 1 61 30 is_stmt 0
 407 022c 97000000 		call	_ZN15MemoryAllocator8mem_freeEPv@plt
 407      E7800000 
 408              	.LVL27:
  62:src/PCB.cpp   **** 
 409              		.loc 1 62 1
 410 0234 83308100 		ld	ra,8(sp)
 411              		.cfi_restore 1
 412 0238 03340100 		ld	s0,0(sp)
 413              		.cfi_restore 8
 414              		.cfi_def_cfa 2, 16
 415 023c 13010101 		addi	sp,sp,16
 416              		.cfi_def_cfa_offset 0
 417 0240 67800000 		jr	ra
 418              		.cfi_endproc
 419              	.LFE44:
 421              		.align	2
 422              		.globl	_ZN3PCB14createProccessEPFvvEPv
 424              	_ZN3PCB14createProccessEPFvvEPv:
 425              	.LFB34:
  10:src/PCB.cpp   ****     return new PCB(main, DEFAULT_TIME_SLICE, arguments);
 426              		.loc 1 10 66 is_stmt 1
 427              		.cfi_startproc
 428              		.cfi_personality 0x9b,DW.ref.__gxx_personality_v0
 429              		.cfi_lsda 0x1b,.LLSDA34
 430              	.LVL28:
 431 0244 130101FD 		addi	sp,sp,-48
 432              		.cfi_def_cfa_offset 48
 433 0248 23341102 		sd	ra,40(sp)
 434 024c 23308102 		sd	s0,32(sp)
 435 0250 233C9100 		sd	s1,24(sp)
 436 0254 23382101 		sd	s2,16(sp)
 437 0258 23343101 		sd	s3,8(sp)
 438              		.cfi_offset 1, -8
 439              		.cfi_offset 8, -16
 440              		.cfi_offset 9, -24
 441              		.cfi_offset 18, -32
 442              		.cfi_offset 19, -40
 443 025c 13040103 		addi	s0,sp,48
 444              		.cfi_def_cfa 8, 0
 445 0260 13090500 		mv	s2,a0
 446 0264 93890500 		mv	s3,a1
  11:src/PCB.cpp   **** }
 447              		.loc 1 11 5
  11:src/PCB.cpp   **** }
 448              		.loc 1 11 55 is_stmt 0
 449 0268 13050005 		li	a0,80
 450              	.LVL29:
 451              	.LEHB0:
 452 026c 97000000 		call	_ZN3PCBnwEm
 452      E7800000 
 453              	.LVL30:
 454              	.LEHE0:
 455 0274 93040500 		mv	s1,a0
GAS LISTING /tmp/cc8XiOwy.s 			page 12


 456 0278 93860900 		mv	a3,s3
 457 027c 13062000 		li	a2,2
 458 0280 93050900 		mv	a1,s2
 459              	.LEHB1:
 460 0284 97000000 		call	_ZN3PCBC1EPFvvEmPv
 460      E7800000 
 461              	.LVL31:
 462              	.LEHE1:
 463 028c 6F000002 		j	.L28
 464              	.L25:
 465 0290 13090500 		mv	s2,a0
 466              	.LVL32:
 467 0294 13850400 		mv	a0,s1
 468 0298 97000000 		call	_ZN3PCBdlEPv
 468      E7800000 
 469              	.LVL33:
 470 02a0 13050900 		mv	a0,s2
 471              	.LEHB2:
 472 02a4 97000000 		call	_Unwind_Resume@plt
 472      E7800000 
 473              	.LVL34:
 474              	.LEHE2:
 475              	.L28:
  12:src/PCB.cpp   **** 
 476              		.loc 1 12 1
 477 02ac 13850400 		mv	a0,s1
 478 02b0 83308102 		ld	ra,40(sp)
 479              		.cfi_restore 1
 480 02b4 03340102 		ld	s0,32(sp)
 481              		.cfi_restore 8
 482              		.cfi_def_cfa 2, 48
 483 02b8 83348101 		ld	s1,24(sp)
 484              		.cfi_restore 9
 485 02bc 03390101 		ld	s2,16(sp)
 486              		.cfi_restore 18
 487              	.LVL35:
 488 02c0 83398100 		ld	s3,8(sp)
 489              		.cfi_restore 19
 490              	.LVL36:
 491 02c4 13010103 		addi	sp,sp,48
 492              		.cfi_def_cfa_offset 0
 493 02c8 67800000 		jr	ra
 494              		.cfi_endproc
 495              	.LFE34:
 496              		.globl	__gxx_personality_v0
 497              		.section	.gcc_except_table,"a",@progbits
 498              	.LLSDA34:
 499 0000 FF       		.byte	0xff
 500 0001 FF       		.byte	0xff
 501 0002 03       		.byte	0x3
 502 0003 27       		.byte	0x27
 503 0004 00000000 		.4byte	.LEHB0-.LFB34
 504 0008 00000000 		.4byte	.LEHE0-.LEHB0
 505 000c 00000000 		.4byte	0
 506 0010 00       		.byte	0
 507 0011 00000000 		.4byte	.LEHB1-.LFB34
 508 0015 00000000 		.4byte	.LEHE1-.LEHB1
GAS LISTING /tmp/cc8XiOwy.s 			page 13


 509 0019 00000000 		.4byte	.L25-.LFB34
 510 001d 00       		.byte	0
 511 001e 00000000 		.4byte	.LEHB2-.LFB34
 512 0022 00000000 		.4byte	.LEHE2-.LEHB2
 513 0026 00000000 		.4byte	0
 514 002a 00       		.byte	0
 515              		.text
 517              		.align	2
 518              		.globl	_ZN3PCB10getContextEv
 520              	_ZN3PCB10getContextEv:
 521              	.LFB46:
  71:src/PCB.cpp   **** 
  72:src/PCB.cpp   **** size_t *PCB::getContext() {
 522              		.loc 1 72 27 is_stmt 1
 523              		.cfi_startproc
 524 02cc 130101FF 		addi	sp,sp,-16
 525              		.cfi_def_cfa_offset 16
 526 02d0 23348100 		sd	s0,8(sp)
 527              		.cfi_offset 8, -8
 528 02d4 13040101 		addi	s0,sp,16
 529              		.cfi_def_cfa 8, 0
  73:src/PCB.cpp   ****     return running->registers;
 530              		.loc 1 73 5
  74:src/PCB.cpp   **** }
 531              		.loc 1 74 1 is_stmt 0
 532 02d8 97070000 		ld	a5,.LANCHOR0
 532      83B70700 
 533 02e0 03B58701 		ld	a0,24(a5)
 534 02e4 03348100 		ld	s0,8(sp)
 535              		.cfi_restore 8
 536              		.cfi_def_cfa 2, 16
 537 02e8 13010101 		addi	sp,sp,16
 538              		.cfi_def_cfa_offset 0
 539 02ec 67800000 		jr	ra
 540              		.cfi_endproc
 541              	.LFE46:
 543              		.globl	_ZN3PCB16timeSliceCounterE
 544              		.globl	_ZN3PCB7runningE
 545              		.bss
 546              		.align	3
 547              		.set	.LANCHOR0,. + 0
 550              	_ZN3PCB7runningE:
 551 0000 00000000 		.zero	8
 551      00000000 
 554              	_ZN3PCB16timeSliceCounterE:
 555 0008 00000000 		.zero	8
 555      00000000 
 556              		.text
 557              	.Letext0:
 558              		.file 3 "src/../h/hw.h"
 559              		.file 4 "src/../h/Scheduler.h"
 560              		.file 5 "src/../h/MemoryAllocator.h"
 561              		.file 6 "src/../h/kernel.h"
 562              		.file 7 "src/../h/syscall_c.h"
 3513              		.align	3
 3516              	DW.ref.__gxx_personality_v0:
 3517 0000 00000000 		.dword	__gxx_personality_v0
GAS LISTING /tmp/cc8XiOwy.s 			page 14


 3517      00000000 
 3518              		.ident	"GCC: (Ubuntu 9.4.0-1ubuntu1~20.04) 9.4.0"
 3519              		.section	.note.GNU-stack,"",@progbits
GAS LISTING /tmp/cc8XiOwy.s 			page 15


DEFINED SYMBOLS
                            *ABS*:0000000000000000 PCB.cpp
     /tmp/cc8XiOwy.s:9      .text:0000000000000000 _ZN3PCB15proccessWrapperEv
     /tmp/cc8XiOwy.s:13     .text:0000000000000000 .L0 
     /tmp/cc8XiOwy.s:14     .text:0000000000000000 .L0 
     /tmp/cc8XiOwy.s:15     .text:0000000000000004 .L0 
     /tmp/cc8XiOwy.s:18     .text:000000000000000c .L0 
     /tmp/cc8XiOwy.s:19     .text:000000000000000c .L0 
     /tmp/cc8XiOwy.s:21     .text:0000000000000010 .L0 
     /tmp/cc8XiOwy.s:23     .text:0000000000000010 .L0 
     /tmp/cc8XiOwy.s:24     .text:0000000000000010 .L0 
     /tmp/cc8XiOwy.s:27     .text:0000000000000018 .L0 
     /tmp/cc8XiOwy.s:28     .text:0000000000000018 .L0 
     /tmp/cc8XiOwy.s:30     .text:0000000000000020 .L0 
     /tmp/cc8XiOwy.s:33     .text:0000000000000024 .L0 
         src/PCB.cpp:67     .text:0000000000000024 .L0 
     /tmp/cc8XiOwy.s:39     .text:0000000000000028 .L0 
     /tmp/cc8XiOwy.s:41     .text:0000000000000028 .L0 
     /tmp/cc8XiOwy.s:43     .text:000000000000002c .L0 
     /tmp/cc8XiOwy.s:46     .text:0000000000000030 .L0 
     /tmp/cc8XiOwy.s:47     .text:0000000000000030 .L0 
     /tmp/cc8XiOwy.s:50     .text:0000000000000038 .L0 
     /tmp/cc8XiOwy.s:51     .text:000000000000003c .L0 
     /tmp/cc8XiOwy.s:53     .text:0000000000000040 .L0 
     /tmp/cc8XiOwy.s:54     .text:0000000000000040 .L0 
     /tmp/cc8XiOwy.s:56     .text:0000000000000044 .L0 
     /tmp/cc8XiOwy.s:58     .text:0000000000000048 .L0 
     /tmp/cc8XiOwy.s:64     .text:0000000000000048 _ZN3PCB5yieldEv
     /tmp/cc8XiOwy.s:67     .text:0000000000000048 .L0 
     /tmp/cc8XiOwy.s:68     .text:0000000000000048 .L0 
     /tmp/cc8XiOwy.s:69     .text:000000000000004c .L0 
     /tmp/cc8XiOwy.s:71     .text:0000000000000050 .L0 
     /tmp/cc8XiOwy.s:73     .text:0000000000000054 .L0 
     /tmp/cc8XiOwy.s:76     .text:0000000000000054 .L0 
     /tmp/cc8XiOwy.s:77     .text:0000000000000054 .L0 
     /tmp/cc8XiOwy.s:78     .text:0000000000000054 .L0 
     /tmp/cc8XiOwy.s:84     .text:000000000000005c .L0 
         src/PCB.cpp:17     .text:000000000000005c .L0 
     /tmp/cc8XiOwy.s:90     .text:0000000000000060 .L0 
     /tmp/cc8XiOwy.s:91     .text:0000000000000064 .L0 
     /tmp/cc8XiOwy.s:92     .text:0000000000000064 .L0 
     /tmp/cc8XiOwy.s:94     .text:0000000000000068 .L0 
     /tmp/cc8XiOwy.s:96     .text:000000000000006c .L0 
     /tmp/cc8XiOwy.s:102    .text:000000000000006c _ZN3PCB8dispatchEv
     /tmp/cc8XiOwy.s:105    .text:000000000000006c .L0 
     /tmp/cc8XiOwy.s:106    .text:000000000000006c .L0 
     /tmp/cc8XiOwy.s:107    .text:0000000000000070 .L0 
     /tmp/cc8XiOwy.s:111    .text:000000000000007c .L0 
     /tmp/cc8XiOwy.s:112    .text:000000000000007c .L0 
     /tmp/cc8XiOwy.s:113    .text:000000000000007c .L0 
     /tmp/cc8XiOwy.s:115    .text:0000000000000080 .L0 
     /tmp/cc8XiOwy.s:117    .text:0000000000000080 .L0 
     /tmp/cc8XiOwy.s:118    .text:0000000000000080 .L0 
     /tmp/cc8XiOwy.s:124    .text:0000000000000088 .L0 
     /tmp/cc8XiOwy.s:125    .text:0000000000000088 .L0 
     /tmp/cc8XiOwy.s:126    .text:0000000000000088 .L0 
     /tmp/cc8XiOwy.s:131    .text:000000000000008c .L0 
GAS LISTING /tmp/cc8XiOwy.s 			page 16


     /tmp/cc8XiOwy.s:133    .text:0000000000000090 .L0 
     /tmp/cc8XiOwy.s:135    .text:0000000000000094 .L0 
     /tmp/cc8XiOwy.s:138    .text:0000000000000098 .L0 
     /tmp/cc8XiOwy.s:139    .text:0000000000000098 .L0 
     /tmp/cc8XiOwy.s:142    .text:00000000000000a0 .L0 
     /tmp/cc8XiOwy.s:144    .text:00000000000000a8 .L0 
     /tmp/cc8XiOwy.s:145    .text:00000000000000a8 .L0 
     /tmp/cc8XiOwy.s:147    .text:00000000000000ac .L0 
     /tmp/cc8XiOwy.s:149    .text:00000000000000b0 .L0 
     /tmp/cc8XiOwy.s:150    .text:00000000000000b0 .L0 
     /tmp/cc8XiOwy.s:152    .text:00000000000000b4 .L0 
     /tmp/cc8XiOwy.s:153    .text:00000000000000b4 .L0 
     /tmp/cc8XiOwy.s:159    .text:00000000000000c4 .L0 
     /tmp/cc8XiOwy.s:160    .text:00000000000000c8 .L0 
     /tmp/cc8XiOwy.s:161    .text:00000000000000c8 .L0 
     /tmp/cc8XiOwy.s:163    .text:00000000000000cc .L0 
     /tmp/cc8XiOwy.s:164    .text:00000000000000cc .L0 
     /tmp/cc8XiOwy.s:166    .text:00000000000000d0 .L0 
     /tmp/cc8XiOwy.s:169    .text:00000000000000d4 .L0 
     /tmp/cc8XiOwy.s:173    .text:00000000000000d8 .L0 
     /tmp/cc8XiOwy.s:175    .text:00000000000000d8 .L0 
     /tmp/cc8XiOwy.s:176    .text:00000000000000d8 .L0 
     /tmp/cc8XiOwy.s:182    .text:00000000000000e8 .L0 
     /tmp/cc8XiOwy.s:183    .text:00000000000000e8 .L0 
     /tmp/cc8XiOwy.s:188    .text:00000000000000f8 .L0 
     /tmp/cc8XiOwy.s:189    .text:00000000000000fc .L0 
     /tmp/cc8XiOwy.s:195    .text:00000000000000fc _ZN3PCBC2EPFvvEmPv
     /tmp/cc8XiOwy.s:198    .text:00000000000000fc .L0 
     /tmp/cc8XiOwy.s:200    .text:00000000000000fc .L0 
     /tmp/cc8XiOwy.s:201    .text:0000000000000100 .L0 
     /tmp/cc8XiOwy.s:205    .text:000000000000010c .L0 
     /tmp/cc8XiOwy.s:206    .text:000000000000010c .L0 
     /tmp/cc8XiOwy.s:207    .text:000000000000010c .L0 
     /tmp/cc8XiOwy.s:209    .text:0000000000000110 .L0 
     /tmp/cc8XiOwy.s:213    .text:0000000000000114 .L0 
     /tmp/cc8XiOwy.s:219    .text:0000000000000128 .L0 
     /tmp/cc8XiOwy.s:220    .text:0000000000000128 .L0 
     /tmp/cc8XiOwy.s:222    .text:000000000000012c .L0 
     /tmp/cc8XiOwy.s:224    .text:0000000000000130 .L0 
     /tmp/cc8XiOwy.s:226    .text:0000000000000134 .L0 
     /tmp/cc8XiOwy.s:227    .text:0000000000000134 .L0 
     /tmp/cc8XiOwy.s:229    .text:0000000000000138 .L0 
     /tmp/cc8XiOwy.s:230    .text:0000000000000138 .L0 
     /tmp/cc8XiOwy.s:232    .text:000000000000013c .L0 
     /tmp/cc8XiOwy.s:233    .text:000000000000013c .L0 
     /tmp/cc8XiOwy.s:235    .text:0000000000000140 .L0 
     /tmp/cc8XiOwy.s:236    .text:0000000000000140 .L0 
     /tmp/cc8XiOwy.s:241    .text:000000000000014c .L0 
     /tmp/cc8XiOwy.s:243    .text:0000000000000150 .L0 
     /tmp/cc8XiOwy.s:244    .text:0000000000000150 .L0 
     /tmp/cc8XiOwy.s:248    .text:000000000000015c .L0 
     /tmp/cc8XiOwy.s:250    .text:0000000000000160 .L0 
     /tmp/cc8XiOwy.s:251    .text:0000000000000160 .L0 
     /tmp/cc8XiOwy.s:254    .text:0000000000000168 .L0 
     /tmp/cc8XiOwy.s:256    .text:000000000000016c .L0 
     /tmp/cc8XiOwy.s:258    .text:0000000000000170 .L0 
     /tmp/cc8XiOwy.s:260    .text:0000000000000174 .L0 
GAS LISTING /tmp/cc8XiOwy.s 			page 17


     /tmp/cc8XiOwy.s:263    .text:0000000000000180 .L0 
     /tmp/cc8XiOwy.s:264    .text:0000000000000180 .L0 
     /tmp/cc8XiOwy.s:266    .text:0000000000000184 .L0 
     /tmp/cc8XiOwy.s:267    .text:0000000000000184 .L0 
     /tmp/cc8XiOwy.s:269    .text:0000000000000188 .L0 
     /tmp/cc8XiOwy.s:273    .text:000000000000018c .L0 
     /tmp/cc8XiOwy.s:274    .text:0000000000000190 .L0 
     /tmp/cc8XiOwy.s:275    .text:0000000000000190 .L0 
     /tmp/cc8XiOwy.s:277    .text:0000000000000194 .L0 
     /tmp/cc8XiOwy.s:278    .text:0000000000000194 .L0 
     /tmp/cc8XiOwy.s:280    .text:0000000000000198 .L0 
     /tmp/cc8XiOwy.s:283    .text:000000000000019c .L0 
     /tmp/cc8XiOwy.s:287    .text:00000000000001a0 .L0 
     /tmp/cc8XiOwy.s:290    .text:00000000000001a0 .L0 
     /tmp/cc8XiOwy.s:291    .text:00000000000001a0 .L0 
     /tmp/cc8XiOwy.s:294    .text:00000000000001a4 .L0 
     /tmp/cc8XiOwy.s:295    .text:00000000000001a8 .L0 
     /tmp/cc8XiOwy.s:195    .text:00000000000000fc _ZN3PCBC1EPFvvEmPv
     /tmp/cc8XiOwy.s:303    .text:00000000000001a8 _ZN3PCBD2Ev
     /tmp/cc8XiOwy.s:306    .text:00000000000001a8 .L0 
     /tmp/cc8XiOwy.s:308    .text:00000000000001a8 .L0 
     /tmp/cc8XiOwy.s:309    .text:00000000000001ac .L0 
     /tmp/cc8XiOwy.s:313    .text:00000000000001b8 .L0 
     /tmp/cc8XiOwy.s:314    .text:00000000000001b8 .L0 
     /tmp/cc8XiOwy.s:315    .text:00000000000001b8 .L0 
     /tmp/cc8XiOwy.s:317    .text:00000000000001bc .L0 
     /tmp/cc8XiOwy.s:321    .text:00000000000001c0 .L0 
     /tmp/cc8XiOwy.s:322    .text:00000000000001c0 .L0 
     /tmp/cc8XiOwy.s:325    .text:00000000000001c4 .L0 
     /tmp/cc8XiOwy.s:327    .text:00000000000001c8 .L0 
     /tmp/cc8XiOwy.s:331    .text:00000000000001d0 .L0 
     /tmp/cc8XiOwy.s:332    .text:00000000000001d0 .L0 
     /tmp/cc8XiOwy.s:334    .text:00000000000001d4 .L0 
     /tmp/cc8XiOwy.s:336    .text:00000000000001d8 .L0 
     /tmp/cc8XiOwy.s:341    .text:00000000000001e0 .L0 
     /tmp/cc8XiOwy.s:342    .text:00000000000001e4 .L0 
     /tmp/cc8XiOwy.s:344    .text:00000000000001e8 .L0 
     /tmp/cc8XiOwy.s:345    .text:00000000000001e8 .L0 
     /tmp/cc8XiOwy.s:347    .text:00000000000001ec .L0 
     /tmp/cc8XiOwy.s:350    .text:00000000000001f0 .L0 
     /tmp/cc8XiOwy.s:352    .text:00000000000001f4 .L0 
     /tmp/cc8XiOwy.s:303    .text:00000000000001a8 _ZN3PCBD1Ev
     /tmp/cc8XiOwy.s:360    .text:00000000000001f4 _ZN3PCBnwEm
     /tmp/cc8XiOwy.s:363    .text:00000000000001f4 .L0 
     /tmp/cc8XiOwy.s:365    .text:00000000000001f4 .L0 
     /tmp/cc8XiOwy.s:366    .text:00000000000001f8 .L0 
     /tmp/cc8XiOwy.s:369    .text:0000000000000200 .L0 
     /tmp/cc8XiOwy.s:370    .text:0000000000000200 .L0 
     /tmp/cc8XiOwy.s:372    .text:0000000000000204 .L0 
     /tmp/cc8XiOwy.s:374    .text:0000000000000204 .L0 
     /tmp/cc8XiOwy.s:375    .text:0000000000000204 .L0 
     /tmp/cc8XiOwy.s:378    .text:000000000000020c .L0 
     /tmp/cc8XiOwy.s:379    .text:0000000000000210 .L0 
     /tmp/cc8XiOwy.s:381    .text:0000000000000214 .L0 
     /tmp/cc8XiOwy.s:382    .text:0000000000000214 .L0 
     /tmp/cc8XiOwy.s:384    .text:0000000000000218 .L0 
     /tmp/cc8XiOwy.s:386    .text:000000000000021c .L0 
GAS LISTING /tmp/cc8XiOwy.s 			page 18


     /tmp/cc8XiOwy.s:392    .text:000000000000021c _ZN3PCBdlEPv
     /tmp/cc8XiOwy.s:395    .text:000000000000021c .L0 
     /tmp/cc8XiOwy.s:397    .text:000000000000021c .L0 
     /tmp/cc8XiOwy.s:398    .text:0000000000000220 .L0 
     /tmp/cc8XiOwy.s:401    .text:0000000000000228 .L0 
     /tmp/cc8XiOwy.s:402    .text:0000000000000228 .L0 
     /tmp/cc8XiOwy.s:404    .text:000000000000022c .L0 
     /tmp/cc8XiOwy.s:406    .text:000000000000022c .L0 
     /tmp/cc8XiOwy.s:407    .text:000000000000022c .L0 
     /tmp/cc8XiOwy.s:410    .text:0000000000000234 .L0 
     /tmp/cc8XiOwy.s:411    .text:0000000000000238 .L0 
     /tmp/cc8XiOwy.s:413    .text:000000000000023c .L0 
     /tmp/cc8XiOwy.s:414    .text:000000000000023c .L0 
     /tmp/cc8XiOwy.s:416    .text:0000000000000240 .L0 
     /tmp/cc8XiOwy.s:418    .text:0000000000000244 .L0 
     /tmp/cc8XiOwy.s:424    .text:0000000000000244 _ZN3PCB14createProccessEPFvvEPv
     /tmp/cc8XiOwy.s:427    .text:0000000000000244 .L0 
     /tmp/cc8XiOwy.s:3516   .data.rel.local.DW.ref.__gxx_personality_v0:0000000000000000 DW.ref.__gxx_personality_v0
     /tmp/cc8XiOwy.s:431    .text:0000000000000244 .L0 
     /tmp/cc8XiOwy.s:432    .text:0000000000000248 .L0 
     /tmp/cc8XiOwy.s:438    .text:000000000000025c .L0 
     /tmp/cc8XiOwy.s:439    .text:000000000000025c .L0 
     /tmp/cc8XiOwy.s:440    .text:000000000000025c .L0 
     /tmp/cc8XiOwy.s:441    .text:000000000000025c .L0 
     /tmp/cc8XiOwy.s:442    .text:000000000000025c .L0 
     /tmp/cc8XiOwy.s:444    .text:0000000000000260 .L0 
     /tmp/cc8XiOwy.s:448    .text:0000000000000268 .L0 
     /tmp/cc8XiOwy.s:449    .text:0000000000000268 .L0 
     /tmp/cc8XiOwy.s:477    .text:00000000000002ac .L0 
     /tmp/cc8XiOwy.s:479    .text:00000000000002b4 .L0 
     /tmp/cc8XiOwy.s:481    .text:00000000000002b8 .L0 
     /tmp/cc8XiOwy.s:482    .text:00000000000002b8 .L0 
     /tmp/cc8XiOwy.s:484    .text:00000000000002bc .L0 
     /tmp/cc8XiOwy.s:486    .text:00000000000002c0 .L0 
     /tmp/cc8XiOwy.s:489    .text:00000000000002c4 .L0 
     /tmp/cc8XiOwy.s:492    .text:00000000000002c8 .L0 
     /tmp/cc8XiOwy.s:494    .text:00000000000002cc .L0 
     /tmp/cc8XiOwy.s:520    .text:00000000000002cc _ZN3PCB10getContextEv
     /tmp/cc8XiOwy.s:523    .text:00000000000002cc .L0 
     /tmp/cc8XiOwy.s:524    .text:00000000000002cc .L0 
     /tmp/cc8XiOwy.s:525    .text:00000000000002d0 .L0 
     /tmp/cc8XiOwy.s:527    .text:00000000000002d4 .L0 
     /tmp/cc8XiOwy.s:529    .text:00000000000002d8 .L0 
     /tmp/cc8XiOwy.s:531    .text:00000000000002d8 .L0 
     /tmp/cc8XiOwy.s:532    .text:00000000000002d8 .L0 
     /tmp/cc8XiOwy.s:535    .text:00000000000002e8 .L0 
     /tmp/cc8XiOwy.s:536    .text:00000000000002e8 .L0 
     /tmp/cc8XiOwy.s:538    .text:00000000000002ec .L0 
     /tmp/cc8XiOwy.s:540    .text:00000000000002f0 .L0 
     /tmp/cc8XiOwy.s:554    .bss:0000000000000008 _ZN3PCB16timeSliceCounterE
     /tmp/cc8XiOwy.s:550    .bss:0000000000000000 _ZN3PCB7runningE
     /tmp/cc8XiOwy.s:547    .bss:0000000000000000 .LANCHOR0
     /tmp/cc8XiOwy.s:563    .text:00000000000002f0 .L0 
     /tmp/cc8XiOwy.s:28     .text:0000000000000018 .L0 
     /tmp/cc8XiOwy.s:118    .text:0000000000000080 .L0 
     /tmp/cc8XiOwy.s:142    .text:00000000000000a0 .L0 
     /tmp/cc8XiOwy.s:260    .text:0000000000000174 .L0 
GAS LISTING /tmp/cc8XiOwy.s 			page 19


     /tmp/cc8XiOwy.s:532    .text:00000000000002d8 .L0 
     /tmp/cc8XiOwy.s:136    .text:0000000000000098 .L6
     /tmp/cc8XiOwy.s:172    .text:00000000000000d8 .L10
     /tmp/cc8XiOwy.s:180    .text:00000000000000e8 .L7
     /tmp/cc8XiOwy.s:157    .text:00000000000000c4 .L5
     /tmp/cc8XiOwy.s:286    .text:00000000000001a0 .L14
     /tmp/cc8XiOwy.s:270    .text:000000000000018c .L11
     /tmp/cc8XiOwy.s:329    .text:00000000000001d0 .L16
     /tmp/cc8XiOwy.s:338    .text:00000000000001e0 .L15
     /tmp/cc8XiOwy.s:475    .text:00000000000002ac .L28
     /tmp/cc8XiOwy.s:451    .text:000000000000026c .LEHB0
     /tmp/cc8XiOwy.s:425    .text:0000000000000244 .LFB34
     /tmp/cc8XiOwy.s:454    .text:0000000000000274 .LEHE0
     /tmp/cc8XiOwy.s:459    .text:0000000000000284 .LEHB1
     /tmp/cc8XiOwy.s:462    .text:000000000000028c .LEHE1
     /tmp/cc8XiOwy.s:464    .text:0000000000000290 .L25
     /tmp/cc8XiOwy.s:471    .text:00000000000002a4 .LEHB2
     /tmp/cc8XiOwy.s:474    .text:00000000000002ac .LEHE2
     /tmp/cc8XiOwy.s:1906   .debug_abbrev:0000000000000000 .Ldebug_abbrev0
     /tmp/cc8XiOwy.s:3446   .debug_str:0000000000000843 .LASF159
     /tmp/cc8XiOwy.s:3458   .debug_str:0000000000000974 .LASF160
     /tmp/cc8XiOwy.s:3412   .debug_str:0000000000000763 .LASF161
     /tmp/cc8XiOwy.s:5      .text:0000000000000000 .Ltext0
     /tmp/cc8XiOwy.s:557    .text:00000000000002f0 .Letext0
     /tmp/cc8XiOwy.s:3172   .debug_line:0000000000000000 .Ldebug_line0
     /tmp/cc8XiOwy.s:3262   .debug_str:000000000000028c .LASF0
     /tmp/cc8XiOwy.s:3290   .debug_str:0000000000000373 .LASF1
     /tmp/cc8XiOwy.s:3396   .debug_str:00000000000006d4 .LASF2
     /tmp/cc8XiOwy.s:3400   .debug_str:00000000000006f5 .LASF4
     /tmp/cc8XiOwy.s:3276   .debug_str:00000000000002e4 .LASF3
     /tmp/cc8XiOwy.s:3182   .debug_str:000000000000002c .LASF5
     /tmp/cc8XiOwy.s:3360   .debug_str:00000000000005ba .LASF6
     /tmp/cc8XiOwy.s:3284   .debug_str:0000000000000351 .LASF7
     /tmp/cc8XiOwy.s:3246   .debug_str:0000000000000229 .LASF8
     /tmp/cc8XiOwy.s:3250   .debug_str:0000000000000246 .LASF9
     /tmp/cc8XiOwy.s:3206   .debug_str:0000000000000107 .LASF10
     /tmp/cc8XiOwy.s:3240   .debug_str:000000000000020b .LASF11
     /tmp/cc8XiOwy.s:3210   .debug_str:000000000000011b .LASF12
     /tmp/cc8XiOwy.s:3204   .debug_str:00000000000000f7 .LASF13
     /tmp/cc8XiOwy.s:3432   .debug_str:00000000000007f2 .LASF14
     /tmp/cc8XiOwy.s:3232   .debug_str:00000000000001c2 .LASF15
     /tmp/cc8XiOwy.s:3418   .debug_str:0000000000000796 .LASF16
     /tmp/cc8XiOwy.s:3438   .debug_str:0000000000000815 .LASF17
     /tmp/cc8XiOwy.s:3478   .debug_str:00000000000009f9 .LASF19
     /tmp/cc8XiOwy.s:3228   .debug_str:00000000000001a9 .LASF18
     /tmp/cc8XiOwy.s:3454   .debug_str:0000000000000934 .LASF20
     /tmp/cc8XiOwy.s:3436   .debug_str:0000000000000805 .LASF21
     /tmp/cc8XiOwy.s:3278   .debug_str:00000000000002f6 .LASF22
     /tmp/cc8XiOwy.s:3236   .debug_str:00000000000001e4 .LASF25
     /tmp/cc8XiOwy.s:3508   .debug_str:0000000000000ae6 .LASF27
     /tmp/cc8XiOwy.s:3252   .debug_str:0000000000000254 .LASF23
     /tmp/cc8XiOwy.s:3294   .debug_str:000000000000038c .LASF24
     /tmp/cc8XiOwy.s:3322   .debug_str:0000000000000466 .LASF26
     /tmp/cc8XiOwy.s:3506   .debug_str:0000000000000acb .LASF28
     /tmp/cc8XiOwy.s:3440   .debug_str:0000000000000820 .LASF29
     /tmp/cc8XiOwy.s:3492   .debug_str:0000000000000a6c .LASF30
     /tmp/cc8XiOwy.s:3462   .debug_str:0000000000000989 .LASF31
GAS LISTING /tmp/cc8XiOwy.s 			page 20


     /tmp/cc8XiOwy.s:3448   .debug_str:0000000000000907 .LASF32
     /tmp/cc8XiOwy.s:3502   .debug_str:0000000000000ab4 .LASF33
     /tmp/cc8XiOwy.s:3186   .debug_str:000000000000003e .LASF34
     /tmp/cc8XiOwy.s:3414   .debug_str:0000000000000781 .LASF162
     /tmp/cc8XiOwy.s:3292   .debug_str:0000000000000386 .LASF106
     /tmp/cc8XiOwy.s:3296   .debug_str:00000000000003a6 .LASF108
     /tmp/cc8XiOwy.s:3444   .debug_str:000000000000083b .LASF66
     /tmp/cc8XiOwy.s:3288   .debug_str:000000000000036e .LASF35
     /tmp/cc8XiOwy.s:3496   .debug_str:0000000000000a96 .LASF36
     /tmp/cc8XiOwy.s:3500   .debug_str:0000000000000aa7 .LASF37
     /tmp/cc8XiOwy.s:3234   .debug_str:00000000000001d8 .LASF38
     /tmp/cc8XiOwy.s:3176   .debug_str:0000000000000007 .LASF39
     /tmp/cc8XiOwy.s:3272   .debug_str:00000000000002c2 .LASF85
     /tmp/cc8XiOwy.s:3258   .debug_str:0000000000000278 .LASF70
     /tmp/cc8XiOwy.s:3196   .debug_str:00000000000000b9 .LASF111
     /tmp/cc8XiOwy.s:3214   .debug_str:000000000000013a .LASF68
     /tmp/cc8XiOwy.s:3178   .debug_str:0000000000000017 .LASF40
     /tmp/cc8XiOwy.s:3312   .debug_str:000000000000042d .LASF41
     /tmp/cc8XiOwy.s:3476   .debug_str:00000000000009f0 .LASF42
     /tmp/cc8XiOwy.s:3286   .debug_str:0000000000000364 .LASF43
     /tmp/cc8XiOwy.s:3498   .debug_str:0000000000000aa2 .LASF44
     /tmp/cc8XiOwy.s:3416   .debug_str:000000000000078d .LASF45
     /tmp/cc8XiOwy.s:3350   .debug_str:0000000000000572 .LASF46
     /tmp/cc8XiOwy.s:3302   .debug_str:00000000000003d5 .LASF47
     /tmp/cc8XiOwy.s:3482   .debug_str:0000000000000a1e .LASF48
     /tmp/cc8XiOwy.s:3226   .debug_str:000000000000019b .LASF49
     /tmp/cc8XiOwy.s:3450   .debug_str:0000000000000920 .LASF50
     /tmp/cc8XiOwy.s:3408   .debug_str:0000000000000749 .LASF62
     /tmp/cc8XiOwy.s:3224   .debug_str:0000000000000192 .LASF56
     /tmp/cc8XiOwy.s:3190   .debug_str:0000000000000076 .LASF58
     /tmp/cc8XiOwy.s:3264   .debug_str:0000000000000299 .LASF51
     /tmp/cc8XiOwy.s:3470   .debug_str:00000000000009bf .LASF53
     /tmp/cc8XiOwy.s:3266   .debug_str:00000000000002a8 .LASF52
     /tmp/cc8XiOwy.s:3404   .debug_str:0000000000000703 .LASF54
     /tmp/cc8XiOwy.s:3300   .debug_str:00000000000003cb .LASF55
     /tmp/cc8XiOwy.s:3372   .debug_str:0000000000000609 .LASF57
     /tmp/cc8XiOwy.s:3484   .debug_str:0000000000000a2b .LASF59
     /tmp/cc8XiOwy.s:3310   .debug_str:0000000000000428 .LASF60
     /tmp/cc8XiOwy.s:3244   .debug_str:000000000000021f .LASF61
     /tmp/cc8XiOwy.s:3424   .debug_str:00000000000007d2 .LASF63
     /tmp/cc8XiOwy.s:3338   .debug_str:000000000000051b .LASF64
     /tmp/cc8XiOwy.s:3488   .debug_str:0000000000000a4b .LASF65
     /tmp/cc8XiOwy.s:3368   .debug_str:00000000000005f6 .LASF67
     /tmp/cc8XiOwy.s:3188   .debug_str:000000000000005e .LASF69
     /tmp/cc8XiOwy.s:3494   .debug_str:0000000000000a82 .LASF163
     /tmp/cc8XiOwy.s:3354   .debug_str:0000000000000587 .LASF71
     /tmp/cc8XiOwy.s:3198   .debug_str:00000000000000cf .LASF164
     /tmp/cc8XiOwy.s:3474   .debug_str:00000000000009e7 .LASF72
     /tmp/cc8XiOwy.s:3486   .debug_str:0000000000000a46 .LASF73
     /tmp/cc8XiOwy.s:3208   .debug_str:0000000000000116 .LASF74
     /tmp/cc8XiOwy.s:3174   .debug_str:0000000000000000 .LASF75
     /tmp/cc8XiOwy.s:3386   .debug_str:0000000000000671 .LASF76
     /tmp/cc8XiOwy.s:3280   .debug_str:0000000000000312 .LASF165
     /tmp/cc8XiOwy.s:3452   .debug_str:000000000000092a .LASF77
     /tmp/cc8XiOwy.s:3456   .debug_str:0000000000000953 .LASF78
     /tmp/cc8XiOwy.s:3260   .debug_str:0000000000000283 .LASF79
     /tmp/cc8XiOwy.s:3324   .debug_str:0000000000000474 .LASF80
GAS LISTING /tmp/cc8XiOwy.s 			page 21


     /tmp/cc8XiOwy.s:3218   .debug_str:0000000000000159 .LASF81
     /tmp/cc8XiOwy.s:3328   .debug_str:00000000000004be .LASF82
     /tmp/cc8XiOwy.s:3352   .debug_str:000000000000057a .LASF83
     /tmp/cc8XiOwy.s:3308   .debug_str:0000000000000403 .LASF84
     /tmp/cc8XiOwy.s:3192   .debug_str:0000000000000089 .LASF86
     /tmp/cc8XiOwy.s:3480   .debug_str:0000000000000a10 .LASF87
     /tmp/cc8XiOwy.s:3442   .debug_str:000000000000082b .LASF88
     /tmp/cc8XiOwy.s:3326   .debug_str:0000000000000495 .LASF89
     /tmp/cc8XiOwy.s:3320   .debug_str:0000000000000457 .LASF90
     /tmp/cc8XiOwy.s:3406   .debug_str:0000000000000721 .LASF91
     /tmp/cc8XiOwy.s:3434   .debug_str:00000000000007fe .LASF92
     /tmp/cc8XiOwy.s:3248   .debug_str:0000000000000239 .LASF166
     /tmp/cc8XiOwy.s:3430   .debug_str:00000000000007e4 .LASF93
     /tmp/cc8XiOwy.s:3314   .debug_str:0000000000000433 .LASF94
     /tmp/cc8XiOwy.s:3378   .debug_str:0000000000000639 .LASF95
     /tmp/cc8XiOwy.s:3362   .debug_str:00000000000005cd .LASF96
     /tmp/cc8XiOwy.s:3382   .debug_str:0000000000000654 .LASF97
     /tmp/cc8XiOwy.s:3376   .debug_str:000000000000062f .LASF98
     /tmp/cc8XiOwy.s:3410   .debug_str:000000000000075a .LASF99
     /tmp/cc8XiOwy.s:3254   .debug_str:0000000000000262 .LASF100
     /tmp/cc8XiOwy.s:3388   .debug_str:000000000000069f .LASF101
     /tmp/cc8XiOwy.s:3268   .debug_str:00000000000002b7 .LASF102
     /tmp/cc8XiOwy.s:3316   .debug_str:000000000000043f .LASF103
     /tmp/cc8XiOwy.s:3364   .debug_str:00000000000005da .LASF104
     /tmp/cc8XiOwy.s:3274   .debug_str:00000000000002cf .LASF105
     /tmp/cc8XiOwy.s:3256   .debug_str:000000000000026d .LASF107
     /tmp/cc8XiOwy.s:3356   .debug_str:0000000000000597 .LASF109
     /tmp/cc8XiOwy.s:3460   .debug_str:0000000000000980 .LASF110
     /tmp/cc8XiOwy.s:3392   .debug_str:00000000000006b3 .LASF112
     /tmp/cc8XiOwy.s:3390   .debug_str:00000000000006aa .LASF113
     /tmp/cc8XiOwy.s:3374   .debug_str:0000000000000619 .LASF114
     /tmp/cc8XiOwy.s:3370   .debug_str:0000000000000602 .LASF115
     /tmp/cc8XiOwy.s:3346   .debug_str:0000000000000553 .LASF116
     /tmp/cc8XiOwy.s:3344   .debug_str:000000000000054c .LASF117
     /tmp/cc8XiOwy.s:3384   .debug_str:000000000000065d .LASF118
     /tmp/cc8XiOwy.s:3332   .debug_str:00000000000004f8 .LASF119
     /tmp/cc8XiOwy.s:3422   .debug_str:00000000000007bd .LASF120
     /tmp/cc8XiOwy.s:3336   .debug_str:0000000000000513 .LASF121
     /tmp/cc8XiOwy.s:3298   .debug_str:00000000000003b6 .LASF122
     /tmp/cc8XiOwy.s:3304   .debug_str:00000000000003e0 .LASF123
     /tmp/cc8XiOwy.s:3330   .debug_str:00000000000004e3 .LASF124
     /tmp/cc8XiOwy.s:3504   .debug_str:0000000000000ac3 .LASF125
     /tmp/cc8XiOwy.s:3202   .debug_str:00000000000000e2 .LASF126
     /tmp/cc8XiOwy.s:3426   .debug_str:00000000000007d7 .LASF127
     /tmp/cc8XiOwy.s:3366   .debug_str:00000000000005e2 .LASF128
     /tmp/cc8XiOwy.s:3402   .debug_str:00000000000006fc .LASF129
     /tmp/cc8XiOwy.s:3222   .debug_str:000000000000017e .LASF130
     /tmp/cc8XiOwy.s:3230   .debug_str:00000000000001bc .LASF131
     /tmp/cc8XiOwy.s:3398   .debug_str:00000000000006e2 .LASF132
     /tmp/cc8XiOwy.s:3270   .debug_str:00000000000002bc .LASF133
     /tmp/cc8XiOwy.s:3342   .debug_str:0000000000000539 .LASF134
     /tmp/cc8XiOwy.s:3184   .debug_str:0000000000000033 .LASF135
     /tmp/cc8XiOwy.s:3466   .debug_str:000000000000099c .LASF136
     /tmp/cc8XiOwy.s:3394   .debug_str:00000000000006c9 .LASF137
     /tmp/cc8XiOwy.s:3340   .debug_str:0000000000000520 .LASF138
     /tmp/cc8XiOwy.s:3472   .debug_str:00000000000009dd .LASF139
     /tmp/cc8XiOwy.s:3238   .debug_str:00000000000001f4 .LASF140
GAS LISTING /tmp/cc8XiOwy.s 			page 22


     /tmp/cc8XiOwy.s:3468   .debug_str:00000000000009b5 .LASF141
     /tmp/cc8XiOwy.s:3194   .debug_str:00000000000000a2 .LASF142
     /tmp/cc8XiOwy.s:3282   .debug_str:0000000000000340 .LASF143
     /tmp/cc8XiOwy.s:3306   .debug_str:00000000000003e8 .LASF144
     /tmp/cc8XiOwy.s:521    .text:00000000000002cc .LFB46
     /tmp/cc8XiOwy.s:541    .text:00000000000002f0 .LFE46
     /tmp/cc8XiOwy.s:10     .text:0000000000000000 .LFB45
     /tmp/cc8XiOwy.s:59     .text:0000000000000048 .LFE45
     /tmp/cc8XiOwy.s:2977   .debug_loc:0000000000000000 .LLST0
     /tmp/cc8XiOwy.s:25     .text:0000000000000018 .LVL0
     /tmp/cc8XiOwy.s:48     .text:0000000000000038 .LVL3
     /tmp/cc8XiOwy.s:393    .text:000000000000021c .LFB44
     /tmp/cc8XiOwy.s:419    .text:0000000000000244 .LFE44
     /tmp/cc8XiOwy.s:3380   .debug_str:0000000000000649 .LASF145
     /tmp/cc8XiOwy.s:2984   .debug_loc:0000000000000023 .LLST9
     /tmp/cc8XiOwy.s:408    .text:0000000000000234 .LVL27
     /tmp/cc8XiOwy.s:361    .text:00000000000001f4 .LFB43
     /tmp/cc8XiOwy.s:387    .text:000000000000021c .LFE43
     /tmp/cc8XiOwy.s:2998   .debug_loc:000000000000005c .LLST8
     /tmp/cc8XiOwy.s:376    .text:000000000000020c .LVL25
     /tmp/cc8XiOwy.s:3242   .debug_str:000000000000021a .LASF146
     /tmp/cc8XiOwy.s:3180   .debug_str:0000000000000022 .LASF147
     /tmp/cc8XiOwy.s:3216   .debug_str:000000000000014d .LASF151
     /tmp/cc8XiOwy.s:304    .text:00000000000001a8 .LFB41
     /tmp/cc8XiOwy.s:353    .text:00000000000001f4 .LFE41
     /tmp/cc8XiOwy.s:3012   .debug_loc:0000000000000095 .LLST7
     /tmp/cc8XiOwy.s:328    .text:00000000000001d0 .LVL21
     /tmp/cc8XiOwy.s:337    .text:00000000000001e0 .LVL22
     /tmp/cc8XiOwy.s:3428   .debug_str:00000000000007de .LASF148
     /tmp/cc8XiOwy.s:3348   .debug_str:0000000000000567 .LASF149
     /tmp/cc8XiOwy.s:3212   .debug_str:000000000000012b .LASF150
     /tmp/cc8XiOwy.s:3318   .debug_str:0000000000000444 .LASF152
     /tmp/cc8XiOwy.s:196    .text:00000000000000fc .LFB38
     /tmp/cc8XiOwy.s:296    .text:00000000000001a8 .LFE38
     /tmp/cc8XiOwy.s:3030   .debug_loc:00000000000000e1 .LLST3
     /tmp/cc8XiOwy.s:3052   .debug_loc:0000000000000140 .LLST4
     /tmp/cc8XiOwy.s:3066   .debug_loc:0000000000000179 .LLST5
     /tmp/cc8XiOwy.s:3080   .debug_loc:00000000000001b2 .LLST6
     /tmp/cc8XiOwy.s:239    .text:000000000000014c .LVL15
     /tmp/cc8XiOwy.s:246    .text:000000000000015c .LVL16
     /tmp/cc8XiOwy.s:103    .text:000000000000006c .LFB36
     /tmp/cc8XiOwy.s:190    .text:00000000000000fc .LFE36
     /tmp/cc8XiOwy.s:3094   .debug_loc:00000000000001eb .LLST1
     /tmp/cc8XiOwy.s:121    .text:0000000000000088 .LBB4
     /tmp/cc8XiOwy.s:129    .text:000000000000008c .LBE4
     /tmp/cc8XiOwy.s:3105   .debug_loc:0000000000000221 .LLST2
     /tmp/cc8XiOwy.s:140    .text:00000000000000a0 .LVL7
     /tmp/cc8XiOwy.s:156    .text:00000000000000c4 .LVL8
     /tmp/cc8XiOwy.s:178    .text:00000000000000e4 .LVL11
     /tmp/cc8XiOwy.s:186    .text:00000000000000f8 .LVL12
     /tmp/cc8XiOwy.s:65     .text:0000000000000048 .LFB35
     /tmp/cc8XiOwy.s:97     .text:000000000000006c .LFE35
     /tmp/cc8XiOwy.s:3464   .debug_str:0000000000000997 .LASF153
     /tmp/cc8XiOwy.s:495    .text:00000000000002cc .LFE34
     /tmp/cc8XiOwy.s:3112   .debug_loc:0000000000000244 .LLST10
     /tmp/cc8XiOwy.s:3358   .debug_str:00000000000005b0 .LASF154
     /tmp/cc8XiOwy.s:3141   .debug_loc:00000000000002b9 .LLST11
GAS LISTING /tmp/cc8XiOwy.s 			page 23


     /tmp/cc8XiOwy.s:453    .text:0000000000000274 .LVL30
     /tmp/cc8XiOwy.s:461    .text:000000000000028c .LVL31
     /tmp/cc8XiOwy.s:469    .text:00000000000002a0 .LVL33
     /tmp/cc8XiOwy.s:473    .text:00000000000002ac .LVL34
     /tmp/cc8XiOwy.s:3420   .debug_str:00000000000007ac .LASF167
     /tmp/cc8XiOwy.s:3200   .debug_str:00000000000000db .LASF155
     /tmp/cc8XiOwy.s:3334   .debug_str:0000000000000500 .LASF157
     /tmp/cc8XiOwy.s:3490   .debug_str:0000000000000a5d .LASF156
     /tmp/cc8XiOwy.s:3220   .debug_str:0000000000000166 .LASF158
     /tmp/cc8XiOwy.s:31     .text:0000000000000024 .LVL1
     /tmp/cc8XiOwy.s:44     .text:0000000000000030 .LVL2
     /tmp/cc8XiOwy.s:396    .text:000000000000021c .LVL26
     /tmp/cc8XiOwy.s:364    .text:00000000000001f4 .LVL24
     /tmp/cc8XiOwy.s:307    .text:00000000000001a8 .LVL19
     /tmp/cc8XiOwy.s:323    .text:00000000000001c4 .LVL20
     /tmp/cc8XiOwy.s:348    .text:00000000000001ec .LVL23
     /tmp/cc8XiOwy.s:199    .text:00000000000000fc .LVL13
     /tmp/cc8XiOwy.s:237    .text:0000000000000144 .LVL14
     /tmp/cc8XiOwy.s:281    .text:0000000000000198 .LVL17
     /tmp/cc8XiOwy.s:285    .text:00000000000001a0 .LVL18
     /tmp/cc8XiOwy.s:119    .text:0000000000000088 .LVL5
     /tmp/cc8XiOwy.s:167    .text:00000000000000d0 .LVL9
     /tmp/cc8XiOwy.s:171    .text:00000000000000d8 .LVL10
     /tmp/cc8XiOwy.s:127    .text:000000000000008c .LVL6
     /tmp/cc8XiOwy.s:430    .text:0000000000000244 .LVL28
     /tmp/cc8XiOwy.s:450    .text:000000000000026c .LVL29
     /tmp/cc8XiOwy.s:466    .text:0000000000000294 .LVL32
     /tmp/cc8XiOwy.s:487    .text:00000000000002c0 .LVL35
     /tmp/cc8XiOwy.s:490    .text:00000000000002c4 .LVL36
     /tmp/cc8XiOwy.s:564    .debug_info:0000000000000000 .Ldebug_info0
     /tmp/cc8XiOwy.s:498    .gcc_except_table:0000000000000000 .LLSDA34

UNDEFINED SYMBOLS
_ZN6Kernel10popSppSpieEv
_Z11thread_exitv
_ZN9Scheduler3getEv
_ZN3PCB14switchContext1EPmS0_
_ZN9Scheduler3putEP3PCB
_ZN3PCB14switchContext2EPmS0_
_ZN15MemoryAllocator9mem_allocEm
_ZdaPv
_ZN15MemoryAllocator8mem_freeEPv
_Unwind_Resume
__gxx_personality_v0
