GAS LISTING /tmp/ccGCBubr.s 			page 1


   1              		.file	"print.cpp"
   2              		.option pic
   3              		.option norelax
   4              		.text
   5              	.Ltext0:
   6              		.align	2
   7              		.globl	_Z11printStringPKc
   9              	_Z11printStringPKc:
  10              	.LFB17:
  11              		.file 1 "src/print.cpp"
   1:src/print.cpp **** #include "../h/print.h"
   2:src/print.cpp **** #include "../h/console.h"
   3:src/print.cpp **** #include "../h/kernel.h"
   4:src/print.cpp **** 
   5:src/print.cpp **** uint64 lockPrint = 0;
   6:src/print.cpp **** 
   7:src/print.cpp **** #define LOCK() while(copy_and_swap(lockPrint, 0, 1))
   8:src/print.cpp **** #define UNLOCK() while(copy_and_swap(lockPrint, 1, 0))
   9:src/print.cpp **** 
  10:src/print.cpp **** void printString(char const *string)
  11:src/print.cpp **** {
  12              		.loc 1 11 1
  13              		.cfi_startproc
  14              	.LVL0:
  15 0000 130101FE 		addi	sp,sp,-32
  16              		.cfi_def_cfa_offset 32
  17 0004 233C1100 		sd	ra,24(sp)
  18 0008 23388100 		sd	s0,16(sp)
  19 000c 23349100 		sd	s1,8(sp)
  20              		.cfi_offset 1, -8
  21              		.cfi_offset 8, -16
  22              		.cfi_offset 9, -24
  23 0010 13040102 		addi	s0,sp,32
  24              		.cfi_def_cfa 8, 0
  25 0014 93040500 		mv	s1,a0
  26              	.LVL1:
  27              	.L2:
  12:src/print.cpp ****     LOCK();
  28              		.loc 1 12 5
  29              		.loc 1 12 5
  30 0018 13061000 		li	a2,1
  31 001c 93050000 		li	a1,0
  32 0020 17050000 		lla	a0,.LANCHOR0
  32      13050500 
  33 0028 97000000 		call	copy_and_swap@plt
  33      E7800000 
  34              	.LVL2:
  35 0030 E31405FE 		bnez	a0,.L2
  36              	.L4:
  13:src/print.cpp ****     while (*string != '\0')
  37              		.loc 1 13 5
  38              		.loc 1 13 20
  39              		.loc 1 13 12 is_stmt 0
  40 0034 03C50400 		lbu	a0,0(s1)
  41              		.loc 1 13 20
  42 0038 630A0500 		beqz	a0,.L3
  14:src/print.cpp ****     {
GAS LISTING /tmp/ccGCBubr.s 			page 2


  15:src/print.cpp ****         __putc(*string);
  43              		.loc 1 15 9 is_stmt 1
  44              		.loc 1 15 15 is_stmt 0
  45 003c 97000000 		call	__putc@plt
  45      E7800000 
  46              	.LVL3:
  16:src/print.cpp ****         string++;
  47              		.loc 1 16 9 is_stmt 1
  48              		.loc 1 16 15 is_stmt 0
  49 0044 93841400 		addi	s1,s1,1
  50              	.LVL4:
  13:src/print.cpp ****     while (*string != '\0')
  51              		.loc 1 13 5
  52 0048 6FF0DFFE 		j	.L4
  53              	.L3:
  17:src/print.cpp ****     }
  18:src/print.cpp ****     UNLOCK();
  54              		.loc 1 18 5 is_stmt 1
  55              		.loc 1 18 5
  56 004c 13060000 		li	a2,0
  57 0050 93051000 		li	a1,1
  58 0054 17050000 		lla	a0,.LANCHOR0
  58      13050500 
  59 005c 97000000 		call	copy_and_swap@plt
  59      E7800000 
  60              	.LVL5:
  61 0064 E31405FE 		bnez	a0,.L3
  19:src/print.cpp **** }
  62              		.loc 1 19 1 is_stmt 0
  63 0068 83308101 		ld	ra,24(sp)
  64              		.cfi_restore 1
  65 006c 03340101 		ld	s0,16(sp)
  66              		.cfi_restore 8
  67              		.cfi_def_cfa 2, 32
  68 0070 83348100 		ld	s1,8(sp)
  69              		.cfi_restore 9
  70              	.LVL6:
  71 0074 13010102 		addi	sp,sp,32
  72              		.cfi_def_cfa_offset 0
  73 0078 67800000 		jr	ra
  74              		.cfi_endproc
  75              	.LFE17:
  77              		.align	2
  78              		.globl	_Z9getStringPci
  80              	_Z9getStringPci:
  81              	.LFB18:
  20:src/print.cpp **** 
  21:src/print.cpp **** char* getString(char *buf, int max) {
  82              		.loc 1 21 37 is_stmt 1
  83              		.cfi_startproc
  84              	.LVL7:
  85 007c 130101FD 		addi	sp,sp,-48
  86              		.cfi_def_cfa_offset 48
  87 0080 23341102 		sd	ra,40(sp)
  88 0084 23308102 		sd	s0,32(sp)
  89 0088 233C9100 		sd	s1,24(sp)
  90 008c 23382101 		sd	s2,16(sp)
GAS LISTING /tmp/ccGCBubr.s 			page 3


  91 0090 23343101 		sd	s3,8(sp)
  92 0094 23304101 		sd	s4,0(sp)
  93              		.cfi_offset 1, -8
  94              		.cfi_offset 8, -16
  95              		.cfi_offset 9, -24
  96              		.cfi_offset 18, -32
  97              		.cfi_offset 19, -40
  98              		.cfi_offset 20, -48
  99 0098 13040103 		addi	s0,sp,48
 100              		.cfi_def_cfa 8, 0
 101 009c 93090500 		mv	s3,a0
 102 00a0 138A0500 		mv	s4,a1
 103              	.LVL8:
 104              	.L7:
  22:src/print.cpp ****     LOCK();
 105              		.loc 1 22 5
 106              		.loc 1 22 5
 107 00a4 13061000 		li	a2,1
 108 00a8 93050000 		li	a1,0
 109 00ac 17050000 		lla	a0,.LANCHOR0
 109      13050500 
 110 00b4 97000000 		call	copy_and_swap@plt
 110      E7800000 
 111              	.LVL9:
 112 00bc E31405FE 		bnez	a0,.L7
  23:src/print.cpp ****     int i, cc;
  24:src/print.cpp ****     char c;
  25:src/print.cpp **** 
  26:src/print.cpp ****     for(i=0; i+1 < max; ){
 113              		.loc 1 26 10 is_stmt 0
 114 00c0 13090000 		li	s2,0
 115              	.L9:
 116              	.LVL10:
 117              		.loc 1 26 18 is_stmt 1 discriminator 1
 118 00c4 93040900 		mv	s1,s2
 119              		.loc 1 26 15 is_stmt 0 discriminator 1
 120 00c8 1B091900 		addiw	s2,s2,1
 121              	.LVL11:
 122              		.loc 1 26 18 discriminator 1
 123 00cc 635A4903 		bge	s2,s4,.L8
  27:src/print.cpp ****         cc = __getc();
 124              		.loc 1 27 9 is_stmt 1
 125              		.loc 1 27 20 is_stmt 0
 126 00d0 97000000 		call	__getc@plt
 126      E7800000 
 127              	.LVL12:
  28:src/print.cpp ****         if(cc < 1)
 128              		.loc 1 28 9 is_stmt 1
 129 00d8 63040502 		beqz	a0,.L8
  29:src/print.cpp ****             break;
  30:src/print.cpp ****         c = cc;
 130              		.loc 1 30 9
 131              	.LVL13:
  31:src/print.cpp ****         buf[i++] = c;
 132              		.loc 1 31 9
 133              		.loc 1 31 16 is_stmt 0
 134 00dc B3849900 		add	s1,s3,s1
GAS LISTING /tmp/ccGCBubr.s 			page 4


 135              		.loc 1 31 18
 136 00e0 2380A400 		sb	a0,0(s1)
  32:src/print.cpp ****         if(c == '\n' || c == '\r')
 137              		.loc 1 32 9 is_stmt 1
 138 00e4 9307A000 		li	a5,10
 139 00e8 630AF500 		beq	a0,a5,.L11
 140              		.loc 1 32 22 is_stmt 0 discriminator 1
 141 00ec 9307D000 		li	a5,13
 142 00f0 E31AF5FC 		bne	a0,a5,.L9
  31:src/print.cpp ****         buf[i++] = c;
 143              		.loc 1 31 14
 144 00f4 93040900 		mv	s1,s2
 145 00f8 6F008000 		j	.L8
 146              	.L11:
 147 00fc 93040900 		mv	s1,s2
 148              	.LVL14:
 149              	.L8:
  33:src/print.cpp ****             break;
  34:src/print.cpp ****     }
  35:src/print.cpp ****     buf[i] = '\0';
 150              		.loc 1 35 5 is_stmt 1
 151              		.loc 1 35 10 is_stmt 0
 152 0100 B3849900 		add	s1,s3,s1
 153              	.LVL15:
 154              		.loc 1 35 12
 155 0104 23800400 		sb	zero,0(s1)
 156              	.L10:
  36:src/print.cpp **** 
  37:src/print.cpp ****     UNLOCK();
 157              		.loc 1 37 5 is_stmt 1
 158              		.loc 1 37 5
 159 0108 13060000 		li	a2,0
 160 010c 93051000 		li	a1,1
 161 0110 17050000 		lla	a0,.LANCHOR0
 161      13050500 
 162 0118 97000000 		call	copy_and_swap@plt
 162      E7800000 
 163              	.LVL16:
 164 0120 E31405FE 		bnez	a0,.L10
  38:src/print.cpp ****     return buf;
 165              		.loc 1 38 5
  39:src/print.cpp **** }
 166              		.loc 1 39 1 is_stmt 0
 167 0124 13850900 		mv	a0,s3
 168 0128 83308102 		ld	ra,40(sp)
 169              		.cfi_restore 1
 170 012c 03340102 		ld	s0,32(sp)
 171              		.cfi_restore 8
 172              		.cfi_def_cfa 2, 48
 173 0130 83348101 		ld	s1,24(sp)
 174              		.cfi_restore 9
 175 0134 03390101 		ld	s2,16(sp)
 176              		.cfi_restore 18
 177 0138 83398100 		ld	s3,8(sp)
 178              		.cfi_restore 19
 179              	.LVL17:
 180 013c 033A0100 		ld	s4,0(sp)
GAS LISTING /tmp/ccGCBubr.s 			page 5


 181              		.cfi_restore 20
 182 0140 13010103 		addi	sp,sp,48
 183              		.cfi_def_cfa_offset 0
 184 0144 67800000 		jr	ra
 185              		.cfi_endproc
 186              	.LFE18:
 188              		.align	2
 189              		.globl	_Z11stringToIntPKc
 191              	_Z11stringToIntPKc:
 192              	.LFB19:
  40:src/print.cpp **** 
  41:src/print.cpp **** int stringToInt(const char *s) {
 193              		.loc 1 41 32 is_stmt 1
 194              		.cfi_startproc
 195              	.LVL18:
 196 0148 130101FF 		addi	sp,sp,-16
 197              		.cfi_def_cfa_offset 16
 198 014c 23348100 		sd	s0,8(sp)
 199              		.cfi_offset 8, -8
 200 0150 13040101 		addi	s0,sp,16
 201              		.cfi_def_cfa 8, 0
 202 0154 93060500 		mv	a3,a0
  42:src/print.cpp ****     int n;
 203              		.loc 1 42 5
  43:src/print.cpp **** 
  44:src/print.cpp ****     n = 0;
 204              		.loc 1 44 5
 205              	.LVL19:
 206              		.loc 1 44 7 is_stmt 0
 207 0158 13050000 		li	a0,0
 208              	.LVL20:
 209              	.L15:
  45:src/print.cpp ****     while ('0' <= *s && *s <= '9')
 210              		.loc 1 45 5 is_stmt 1
 211              		.loc 1 45 22
 212              		.loc 1 45 19 is_stmt 0
 213 015c 03C60600 		lbu	a2,0(a3)
 214              		.loc 1 45 22
 215 0160 1B0706FD 		addiw	a4,a2,-48
 216 0164 1377F70F 		andi	a4,a4,0xff
 217 0168 93079000 		li	a5,9
 218 016c 63E0E702 		bgtu	a4,a5,.L14
  46:src/print.cpp ****         n = n * 10 + *s++ - '0';
 219              		.loc 1 46 9 is_stmt 1
 220              		.loc 1 46 15 is_stmt 0
 221 0170 9B172500 		slliw	a5,a0,2
 222 0174 BB87A700 		addw	a5,a5,a0
 223 0178 9B971700 		slliw	a5,a5,1
 224              		.loc 1 46 24
 225 017c 93861600 		addi	a3,a3,1
 226              	.LVL21:
 227              		.loc 1 46 20
 228 0180 BB87C700 		addw	a5,a5,a2
 229              		.loc 1 46 11
 230 0184 1B8507FD 		addiw	a0,a5,-48
 231              	.LVL22:
  45:src/print.cpp ****     while ('0' <= *s && *s <= '9')
GAS LISTING /tmp/ccGCBubr.s 			page 6


 232              		.loc 1 45 5
 233 0188 6FF05FFD 		j	.L15
 234              	.LVL23:
 235              	.L14:
  47:src/print.cpp ****     return n;
 236              		.loc 1 47 5 is_stmt 1
  48:src/print.cpp **** }
 237              		.loc 1 48 1 is_stmt 0
 238 018c 03348100 		ld	s0,8(sp)
 239              		.cfi_restore 8
 240              		.cfi_def_cfa 2, 16
 241 0190 13010101 		addi	sp,sp,16
 242              		.cfi_def_cfa_offset 0
 243 0194 67800000 		jr	ra
 244              		.cfi_endproc
 245              	.LFE19:
 247              		.align	2
 248              		.globl	_Z8printIntiii
 250              	_Z8printIntiii:
 251              	.LFB20:
  49:src/print.cpp **** 
  50:src/print.cpp **** char digits[] = "0123456789ABCDEF";
  51:src/print.cpp **** 
  52:src/print.cpp **** void printInt(int xx, int base, int sgn)
  53:src/print.cpp **** {
 252              		.loc 1 53 1 is_stmt 1
 253              		.cfi_startproc
 254              	.LVL24:
 255 0198 130101FC 		addi	sp,sp,-64
 256              		.cfi_def_cfa_offset 64
 257 019c 233C1102 		sd	ra,56(sp)
 258 01a0 23388102 		sd	s0,48(sp)
 259 01a4 23349102 		sd	s1,40(sp)
 260 01a8 23302103 		sd	s2,32(sp)
 261 01ac 233C3101 		sd	s3,24(sp)
 262              		.cfi_offset 1, -8
 263              		.cfi_offset 8, -16
 264              		.cfi_offset 9, -24
 265              		.cfi_offset 18, -32
 266              		.cfi_offset 19, -40
 267 01b0 13040104 		addi	s0,sp,64
 268              		.cfi_def_cfa 8, 0
 269 01b4 93040500 		mv	s1,a0
 270 01b8 13890500 		mv	s2,a1
 271 01bc 93090600 		mv	s3,a2
 272              	.LVL25:
 273              	.L18:
  54:src/print.cpp ****     LOCK();
 274              		.loc 1 54 5
 275              		.loc 1 54 5
 276 01c0 13061000 		li	a2,1
 277 01c4 93050000 		li	a1,0
 278 01c8 17050000 		lla	a0,.LANCHOR0
 278      13050500 
 279 01d0 97000000 		call	copy_and_swap@plt
 279      E7800000 
 280              	.LVL26:
GAS LISTING /tmp/ccGCBubr.s 			page 7


 281 01d8 E31405FE 		bnez	a0,.L18
  55:src/print.cpp ****     char buf[16];
 282              		.loc 1 55 5
  56:src/print.cpp ****     int i, neg;
 283              		.loc 1 56 5
  57:src/print.cpp ****     uint x;
 284              		.loc 1 57 5
  58:src/print.cpp **** 
  59:src/print.cpp ****     neg = 0;
 285              		.loc 1 59 5
 286              	.LVL27:
  60:src/print.cpp ****     if(sgn && xx < 0){
 287              		.loc 1 60 5
 288 01dc 63840900 		beqz	s3,.L19
 289              		.loc 1 60 12 is_stmt 0 discriminator 1
 290 01e0 63C40408 		bltz	s1,.L26
 291              	.L19:
  61:src/print.cpp ****         neg = 1;
  62:src/print.cpp ****         x = -xx;
  63:src/print.cpp ****     } else {
  64:src/print.cpp ****         x = xx;
 292              		.loc 1 64 9 is_stmt 1
 293              		.loc 1 64 11 is_stmt 0
 294 01e4 1B850400 		sext.w	a0,s1
 295              	.LVL28:
  59:src/print.cpp ****     if(sgn && xx < 0){
 296              		.loc 1 59 9
 297 01e8 93050000 		li	a1,0
 298              	.LVL29:
 299              	.L20:
  65:src/print.cpp ****     }
  66:src/print.cpp **** 
  67:src/print.cpp ****     i = 0;
 300              		.loc 1 67 5 is_stmt 1
 301              		.loc 1 67 7 is_stmt 0
 302 01ec 93040000 		li	s1,0
 303              	.LVL30:
 304              	.L21:
  68:src/print.cpp ****     do{
 305              		.loc 1 68 5 is_stmt 1
  69:src/print.cpp ****         buf[i++] = digits[x % base];
 306              		.loc 1 69 9
 307              		.loc 1 69 31 is_stmt 0
 308 01f0 9B070900 		sext.w	a5,s2
 309              		.loc 1 69 29
 310 01f4 3B772503 		remuw	a4,a0,s2
 311 01f8 13860400 		mv	a2,s1
 312              		.loc 1 69 14
 313 01fc 9B841400 		addiw	s1,s1,1
 314              	.LVL31:
 315              		.loc 1 69 35
 316 0200 93160702 		slli	a3,a4,32
 317 0204 93D60602 		srli	a3,a3,32
 318 0208 17070000 		lla	a4,.LANCHOR1
 318      13070700 
 319 0210 3307D700 		add	a4,a4,a3
 320 0214 83460700 		lbu	a3,0(a4)
GAS LISTING /tmp/ccGCBubr.s 			page 8


 321              		.loc 1 69 18
 322 0218 130704FD 		addi	a4,s0,-48
 323 021c 3307C700 		add	a4,a4,a2
 324 0220 2308D7FE 		sb	a3,-16(a4)
  70:src/print.cpp ****     }while((x /= base) != 0);
 325              		.loc 1 70 24 is_stmt 1
 326 0224 1B070500 		sext.w	a4,a0
 327              		.loc 1 70 15 is_stmt 0
 328 0228 3B552503 		divuw	a0,a0,s2
 329              	.LVL32:
 330              		.loc 1 70 24
 331 022c E372F7FC 		bleu	a5,a4,.L21
  71:src/print.cpp ****     if(neg)
 332              		.loc 1 71 5 is_stmt 1
 333 0230 638C0500 		beqz	a1,.L24
  72:src/print.cpp ****         buf[i++] = '-';
 334              		.loc 1 72 9
 335              	.LVL33:
 336              		.loc 1 72 18 is_stmt 0
 337 0234 930704FD 		addi	a5,s0,-48
 338 0238 B3849700 		add	s1,a5,s1
 339 023c 9307D002 		li	a5,45
 340 0240 2388F4FE 		sb	a5,-16(s1)
 341              		.loc 1 72 14
 342 0244 9B042600 		addiw	s1,a2,2
 343              	.LVL34:
 344              	.L24:
  73:src/print.cpp **** 
  74:src/print.cpp ****     while(--i >= 0)
 345              		.loc 1 74 5 is_stmt 1
 346              		.loc 1 74 15
 347 0248 9B84F4FF 		addiw	s1,s1,-1
 348              	.LVL35:
 349 024c 63C40402 		bltz	s1,.L23
  75:src/print.cpp ****         __putc(buf[i]);
 350              		.loc 1 75 9
 351              		.loc 1 75 15 is_stmt 0
 352 0250 930704FD 		addi	a5,s0,-48
 353 0254 B3879700 		add	a5,a5,s1
 354 0258 03C507FF 		lbu	a0,-16(a5)
 355 025c 97000000 		call	__putc@plt
 355      E7800000 
 356              	.LVL36:
 357 0264 6FF05FFE 		j	.L24
 358              	.LVL37:
 359              	.L26:
  61:src/print.cpp ****         x = -xx;
 360              		.loc 1 61 9 is_stmt 1
  62:src/print.cpp ****     } else {
 361              		.loc 1 62 9
  62:src/print.cpp ****     } else {
 362              		.loc 1 62 11 is_stmt 0
 363 0268 3B059040 		negw	a0,s1
 364              	.LVL38:
  61:src/print.cpp ****         x = -xx;
 365              		.loc 1 61 13
 366 026c 93051000 		li	a1,1
GAS LISTING /tmp/ccGCBubr.s 			page 9


  62:src/print.cpp ****     } else {
 367              		.loc 1 62 11
 368 0270 6FF0DFF7 		j	.L20
 369              	.LVL39:
 370              	.L23:
  76:src/print.cpp **** 
  77:src/print.cpp ****     UNLOCK();
 371              		.loc 1 77 5 is_stmt 1
 372              		.loc 1 77 5
 373 0274 13060000 		li	a2,0
 374 0278 93051000 		li	a1,1
 375 027c 17050000 		lla	a0,.LANCHOR0
 375      13050500 
 376 0284 97000000 		call	copy_and_swap@plt
 376      E7800000 
 377              	.LVL40:
 378 028c E31405FE 		bnez	a0,.L23
  78:src/print.cpp **** }
 379              		.loc 1 78 1 is_stmt 0
 380 0290 83308103 		ld	ra,56(sp)
 381              		.cfi_restore 1
 382 0294 03340103 		ld	s0,48(sp)
 383              		.cfi_restore 8
 384              		.cfi_def_cfa 2, 64
 385 0298 83348102 		ld	s1,40(sp)
 386              		.cfi_restore 9
 387 029c 03390102 		ld	s2,32(sp)
 388              		.cfi_restore 18
 389 02a0 83398101 		ld	s3,24(sp)
 390              		.cfi_restore 19
 391 02a4 13010104 		addi	sp,sp,64
 392              		.cfi_def_cfa_offset 0
 393 02a8 67800000 		jr	ra
 394              		.cfi_endproc
 395              	.LFE20:
 397              		.section	.rodata.str1.8,"aMS",@progbits,1
 398              		.align	3
 399              	.LC0:
 400 0000 73636175 		.string	"scause: "
 400      73653A20 
 400      00
 401 0009 00000000 		.align	3
 401      000000
 402              	.LC1:
 403 0010 0A736570 		.string	"\nsepc: "
 403      633A2000 
 404              		.align	3
 405              	.LC2:
 406 0018 0A737476 		.string	"\nstval: "
 406      616C3A20 
 406      00
 407              		.text
 408              		.align	2
 409              		.globl	_Z10printErrorv
 411              	_Z10printErrorv:
 412              	.LFB21:
  79:src/print.cpp **** void printError() {
GAS LISTING /tmp/ccGCBubr.s 			page 10


 413              		.loc 1 79 19 is_stmt 1
 414              		.cfi_startproc
 415 02ac 130101FD 		addi	sp,sp,-48
 416              		.cfi_def_cfa_offset 48
 417 02b0 23341102 		sd	ra,40(sp)
 418 02b4 23308102 		sd	s0,32(sp)
 419              		.cfi_offset 1, -8
 420              		.cfi_offset 8, -16
 421 02b8 13040103 		addi	s0,sp,48
 422              		.cfi_def_cfa 8, 0
 423              	.L28:
  80:src/print.cpp ****     LOCK();
 424              		.loc 1 80 5
 425              		.loc 1 80 5
 426 02bc 13061000 		li	a2,1
 427 02c0 93050000 		li	a1,0
 428 02c4 17050000 		lla	a0,.LANCHOR0
 428      13050500 
 429 02cc 97000000 		call	copy_and_swap@plt
 429      E7800000 
 430              	.LVL41:
 431 02d4 E31405FE 		bnez	a0,.L28
  81:src/print.cpp ****     printString("scause: ");
 432              		.loc 1 81 5
 433              		.loc 1 81 16 is_stmt 0
 434 02d8 17050000 		lla	a0,.LC0
 434      13050500 
 435 02e0 97000000 		call	_Z11printStringPKc
 435      E7800000 
 436              	.LVL42:
  82:src/print.cpp ****     printInt(Kernel::r_scause());
 437              		.loc 1 82 5 is_stmt 1
 438              	.LBB8:
 439              	.LBB9:
 440              		.file 2 "src/../h/kernel.h"
   1:src/../h/kernel.h **** #ifndef KERNEL_H
   2:src/../h/kernel.h **** #define KERNEL_H
   3:src/../h/kernel.h **** 
   4:src/../h/kernel.h **** #include "hw.h"
   5:src/../h/kernel.h **** 
   6:src/../h/kernel.h **** class Kernel {
   7:src/../h/kernel.h **** public:
   8:src/../h/kernel.h ****     // postavlja code u registar a0
   9:src/../h/kernel.h ****     static size_t setCode(size_t code) {
  10:src/../h/kernel.h ****         return code;
  11:src/../h/kernel.h ****     }
  12:src/../h/kernel.h **** 
  13:src/../h/kernel.h ****     // kodovi po kojima se prepoznaju sistemski pozivi
  14:src/../h/kernel.h ****     enum sysCallCodes {
  15:src/../h/kernel.h ****         mem_alloc = 0x01,
  16:src/../h/kernel.h ****         mem_free = 0x02,
  17:src/../h/kernel.h ****         thread_create = 0x11,
  18:src/../h/kernel.h ****         thread_exit = 0x12,
  19:src/../h/kernel.h ****         thread_dispatch = 0x13,
  20:src/../h/kernel.h ****         thread_start = 0x14,
  21:src/../h/kernel.h ****         sem_open = 0x21,
  22:src/../h/kernel.h ****         sem_close = 0x22,
GAS LISTING /tmp/ccGCBubr.s 			page 11


  23:src/../h/kernel.h ****         sem_wait = 0x23,
  24:src/../h/kernel.h ****         sem_signal = 0x24,
  25:src/../h/kernel.h ****         time_sleep = 0x31,
  26:src/../h/kernel.h ****         getc = 0x41,
  27:src/../h/kernel.h ****         putc = 0x42
  28:src/../h/kernel.h ****     };
  29:src/../h/kernel.h **** 
  30:src/../h/kernel.h ****     // pop sstatus.spp and sstatus.spie bits (has to be a non inline function)
  31:src/../h/kernel.h ****     static void popSppSpie();
  32:src/../h/kernel.h **** 
  33:src/../h/kernel.h ****     // cita registar scause (uzrok nastanka prekida)
  34:src/../h/kernel.h ****     static size_t r_scause() {
  35:src/../h/kernel.h ****         size_t volatile scause;
 441              		.loc 2 35 9
  36:src/../h/kernel.h ****         __asm__ volatile ("csrr %[scause], scause" : [scause] "=r"(scause));
 442              		.loc 2 36 9
 443              		.loc 2 36 76 is_stmt 0
 444              	#APP
 445              	# 36 "src/../h/kernel.h" 1
  37              	        return scause;
 446              		csrr a5, scause
 447              	# 0 "" 2
 448              	#NO_APP
 449 02ec 2334F4FE 		sd	a5,-24(s0)
 450              		.loc 2 37 9 is_stmt 1
 451              		.loc 2 37 16 is_stmt 0
 452 02f0 033584FE 		ld	a0,-24(s0)
 453              	.LBE9:
 454              	.LBE8:
 455              		.loc 1 82 13
 456 02f4 13060000 		li	a2,0
 457 02f8 9305A000 		li	a1,10
 458 02fc 1B050500 		sext.w	a0,a0
 459 0300 97000000 		call	_Z8printIntiii
 459      E7800000 
 460              	.LVL43:
  83:src/print.cpp ****     printString("\nsepc: ");
 461              		.loc 1 83 5 is_stmt 1
 462              		.loc 1 83 16 is_stmt 0
 463 0308 17050000 		lla	a0,.LC1
 463      13050500 
 464 0310 97000000 		call	_Z11printStringPKc
 464      E7800000 
 465              	.LVL44:
  84:src/print.cpp ****     printInt(Kernel::r_sepc());
 466              		.loc 1 84 5 is_stmt 1
 467              	.LBB10:
 468              	.LBB11:
  38:src/../h/kernel.h ****     }
  39:src/../h/kernel.h **** 
  40:src/../h/kernel.h ****     // upisuje u registar scause (uzrok nastanka prekida)
  41:src/../h/kernel.h ****     static void w_scause(size_t scause) {
  42:src/../h/kernel.h ****         __asm__ volatile ("csrw scause, %[scause]" : : [scause] "r"(scause));
  43:src/../h/kernel.h ****     }
  44:src/../h/kernel.h **** 
  45:src/../h/kernel.h ****     // cita registar sepc
  46:src/../h/kernel.h ****     static size_t r_sepc() {
GAS LISTING /tmp/ccGCBubr.s 			page 12


  47:src/../h/kernel.h ****         size_t volatile sepc;
 469              		.loc 2 47 9
  48:src/../h/kernel.h ****         __asm__ volatile ("csrr %[sepc], sepc" : [sepc] "=r"(sepc));
 470              		.loc 2 48 9
 471              		.loc 2 48 68 is_stmt 0
 472              	#APP
 473              	# 48 "src/../h/kernel.h" 1
  49              	        return sepc;
 474              		csrr a5, sepc
 475              	# 0 "" 2
 476              	#NO_APP
 477 031c 2330F4FE 		sd	a5,-32(s0)
 478              		.loc 2 49 9 is_stmt 1
 479              		.loc 2 49 16 is_stmt 0
 480 0320 033504FE 		ld	a0,-32(s0)
 481              	.LBE11:
 482              	.LBE10:
 483              		.loc 1 84 13
 484 0324 13060000 		li	a2,0
 485 0328 9305A000 		li	a1,10
 486 032c 1B050500 		sext.w	a0,a0
 487 0330 97000000 		call	_Z8printIntiii
 487      E7800000 
 488              	.LVL45:
  85:src/print.cpp ****     printString("\nstval: ");
 489              		.loc 1 85 5 is_stmt 1
 490              		.loc 1 85 16 is_stmt 0
 491 0338 17050000 		lla	a0,.LC2
 491      13050500 
 492 0340 97000000 		call	_Z11printStringPKc
 492      E7800000 
 493              	.LVL46:
  86:src/print.cpp ****     printInt(Kernel::r_stval());
 494              		.loc 1 86 5 is_stmt 1
 495              	.LBB12:
 496              	.LBB13:
  50:src/../h/kernel.h ****     }
  51:src/../h/kernel.h **** 
  52:src/../h/kernel.h ****     // upisuje u registar sepc
  53:src/../h/kernel.h ****     static void w_sepc(size_t sepc) {
  54:src/../h/kernel.h ****         __asm__ volatile ("csrw sepc, %[sepc]" : : [sepc] "r"(sepc));
  55:src/../h/kernel.h ****     }
  56:src/../h/kernel.h **** 
  57:src/../h/kernel.h ****     // read register stvec
  58:src/../h/kernel.h ****     static size_t r_stvec() {
  59:src/../h/kernel.h ****         size_t volatile stvec;
  60:src/../h/kernel.h ****         __asm__ volatile ("csrr %[stvec], stvec" : [stvec] "=r"(stvec));
  61:src/../h/kernel.h ****         return stvec;
  62:src/../h/kernel.h ****     }
  63:src/../h/kernel.h **** 
  64:src/../h/kernel.h ****     // write register stvec
  65:src/../h/kernel.h ****     static void w_stvec(size_t stvec) {
  66:src/../h/kernel.h ****         __asm__ volatile ("csrw stvec, %[stvec]" : : [stvec] "r"(stvec));
  67:src/../h/kernel.h ****     }
  68:src/../h/kernel.h **** 
  69:src/../h/kernel.h ****     // read register stval
  70:src/../h/kernel.h ****     static size_t r_stval() {
GAS LISTING /tmp/ccGCBubr.s 			page 13


  71:src/../h/kernel.h ****         size_t volatile stval;
 497              		.loc 2 71 9
  72:src/../h/kernel.h ****         __asm__ volatile ("csrr %[stval], stval" : [stval] "=r"(stval));
 498              		.loc 2 72 9
 499              		.loc 2 72 72 is_stmt 0
 500              	#APP
 501              	# 72 "src/../h/kernel.h" 1
  73              	        return stval;
 502              		csrr a5, stval
 503              	# 0 "" 2
 504              	#NO_APP
 505 034c 233CF4FC 		sd	a5,-40(s0)
 506              		.loc 2 73 9 is_stmt 1
 507              		.loc 2 73 16 is_stmt 0
 508 0350 033584FD 		ld	a0,-40(s0)
 509              	.LBE13:
 510              	.LBE12:
 511              		.loc 1 86 13
 512 0354 13060000 		li	a2,0
 513 0358 9305A000 		li	a1,10
 514 035c 1B050500 		sext.w	a0,a0
 515 0360 97000000 		call	_Z8printIntiii
 515      E7800000 
 516              	.LVL47:
 517              	.L29:
  87:src/print.cpp ****     UNLOCK();
 518              		.loc 1 87 5 is_stmt 1
 519              		.loc 1 87 5
 520 0368 13060000 		li	a2,0
 521 036c 93051000 		li	a1,1
 522 0370 17050000 		lla	a0,.LANCHOR0
 522      13050500 
 523 0378 97000000 		call	copy_and_swap@plt
 523      E7800000 
 524              	.LVL48:
 525 0380 E31405FE 		bnez	a0,.L29
  88:src/print.cpp **** }...
 526              		.loc 1 88 1 is_stmt 0
 527 0384 83308102 		ld	ra,40(sp)
 528              		.cfi_restore 1
 529 0388 03340102 		ld	s0,32(sp)
 530              		.cfi_restore 8
 531              		.cfi_def_cfa 2, 48
 532 038c 13010103 		addi	sp,sp,48
 533              		.cfi_def_cfa_offset 0
 534 0390 67800000 		jr	ra
 535              		.cfi_endproc
 536              	.LFE21:
 538              		.globl	digits
 539              		.globl	lockPrint
 540              		.data
 541              		.align	3
 542              		.set	.LANCHOR1,. + 0
 545              	digits:
 546 0000 30313233 		.string	"0123456789ABCDEF"
 546      34353637 
 546      38394142 
GAS LISTING /tmp/ccGCBubr.s 			page 14


 546      43444546 
 546      00
 547              		.bss
 548              		.align	3
 549              		.set	.LANCHOR0,. + 0
 552              	lockPrint:
 553 0000 00000000 		.zero	8
 553      00000000 
 554              		.text
 555              	.Letext0:
 556              		.file 3 "src/../h/hw.h"
 557              		.file 4 "src/../h/print.h"
 558              		.file 5 "src/../h/console.h"
GAS LISTING /tmp/ccGCBubr.s 			page 15


DEFINED SYMBOLS
                            *ABS*:0000000000000000 print.cpp
     /tmp/ccGCBubr.s:9      .text:0000000000000000 _Z11printStringPKc
     /tmp/ccGCBubr.s:13     .text:0000000000000000 .L0 
     /tmp/ccGCBubr.s:15     .text:0000000000000000 .L0 
     /tmp/ccGCBubr.s:16     .text:0000000000000004 .L0 
     /tmp/ccGCBubr.s:20     .text:0000000000000010 .L0 
     /tmp/ccGCBubr.s:21     .text:0000000000000010 .L0 
     /tmp/ccGCBubr.s:22     .text:0000000000000010 .L0 
     /tmp/ccGCBubr.s:24     .text:0000000000000014 .L0 
     /tmp/ccGCBubr.s:29     .text:0000000000000018 .L0 
     /tmp/ccGCBubr.s:30     .text:0000000000000018 .L0 
     /tmp/ccGCBubr.s:38     .text:0000000000000034 .L0 
     /tmp/ccGCBubr.s:39     .text:0000000000000034 .L0 
     /tmp/ccGCBubr.s:40     .text:0000000000000034 .L0 
     /tmp/ccGCBubr.s:42     .text:0000000000000038 .L0 
     /tmp/ccGCBubr.s:44     .text:000000000000003c .L0 
     /tmp/ccGCBubr.s:45     .text:000000000000003c .L0 
     /tmp/ccGCBubr.s:48     .text:0000000000000044 .L0 
     /tmp/ccGCBubr.s:49     .text:0000000000000044 .L0 
     /tmp/ccGCBubr.s:52     .text:0000000000000048 .L0 
     /tmp/ccGCBubr.s:55     .text:000000000000004c .L0 
     /tmp/ccGCBubr.s:56     .text:000000000000004c .L0 
     /tmp/ccGCBubr.s:63     .text:0000000000000068 .L0 
     /tmp/ccGCBubr.s:64     .text:000000000000006c .L0 
     /tmp/ccGCBubr.s:66     .text:0000000000000070 .L0 
     /tmp/ccGCBubr.s:67     .text:0000000000000070 .L0 
     /tmp/ccGCBubr.s:69     .text:0000000000000074 .L0 
     /tmp/ccGCBubr.s:72     .text:0000000000000078 .L0 
     /tmp/ccGCBubr.s:74     .text:000000000000007c .L0 
     /tmp/ccGCBubr.s:80     .text:000000000000007c _Z9getStringPci
     /tmp/ccGCBubr.s:83     .text:000000000000007c .L0 
     /tmp/ccGCBubr.s:85     .text:000000000000007c .L0 
     /tmp/ccGCBubr.s:86     .text:0000000000000080 .L0 
     /tmp/ccGCBubr.s:93     .text:0000000000000098 .L0 
     /tmp/ccGCBubr.s:94     .text:0000000000000098 .L0 
     /tmp/ccGCBubr.s:95     .text:0000000000000098 .L0 
     /tmp/ccGCBubr.s:96     .text:0000000000000098 .L0 
     /tmp/ccGCBubr.s:97     .text:0000000000000098 .L0 
     /tmp/ccGCBubr.s:98     .text:0000000000000098 .L0 
     /tmp/ccGCBubr.s:100    .text:000000000000009c .L0 
     /tmp/ccGCBubr.s:106    .text:00000000000000a4 .L0 
     /tmp/ccGCBubr.s:107    .text:00000000000000a4 .L0 
     /tmp/ccGCBubr.s:114    .text:00000000000000c0 .L0 
     /tmp/ccGCBubr.s:118    .text:00000000000000c4 .L0 
     /tmp/ccGCBubr.s:120    .text:00000000000000c8 .L0 
     /tmp/ccGCBubr.s:123    .text:00000000000000cc .L0 
     /tmp/ccGCBubr.s:125    .text:00000000000000d0 .L0 
     /tmp/ccGCBubr.s:126    .text:00000000000000d0 .L0 
     /tmp/ccGCBubr.s:129    .text:00000000000000d8 .L0 
     /tmp/ccGCBubr.s:132    .text:00000000000000dc .L0 
     /tmp/ccGCBubr.s:133    .text:00000000000000dc .L0 
     /tmp/ccGCBubr.s:134    .text:00000000000000dc .L0 
     /tmp/ccGCBubr.s:136    .text:00000000000000e0 .L0 
     /tmp/ccGCBubr.s:138    .text:00000000000000e4 .L0 
     /tmp/ccGCBubr.s:141    .text:00000000000000ec .L0 
     /tmp/ccGCBubr.s:144    .text:00000000000000f4 .L0 
GAS LISTING /tmp/ccGCBubr.s 			page 16


     /tmp/ccGCBubr.s:151    .text:0000000000000100 .L0 
     /tmp/ccGCBubr.s:152    .text:0000000000000100 .L0 
     /tmp/ccGCBubr.s:155    .text:0000000000000104 .L0 
     /tmp/ccGCBubr.s:158    .text:0000000000000108 .L0 
     /tmp/ccGCBubr.s:159    .text:0000000000000108 .L0 
     /tmp/ccGCBubr.s:166    .text:0000000000000124 .L0 
     /tmp/ccGCBubr.s:167    .text:0000000000000124 .L0 
     /tmp/ccGCBubr.s:169    .text:000000000000012c .L0 
     /tmp/ccGCBubr.s:171    .text:0000000000000130 .L0 
     /tmp/ccGCBubr.s:172    .text:0000000000000130 .L0 
     /tmp/ccGCBubr.s:174    .text:0000000000000134 .L0 
     /tmp/ccGCBubr.s:176    .text:0000000000000138 .L0 
     /tmp/ccGCBubr.s:178    .text:000000000000013c .L0 
     /tmp/ccGCBubr.s:181    .text:0000000000000140 .L0 
     /tmp/ccGCBubr.s:183    .text:0000000000000144 .L0 
     /tmp/ccGCBubr.s:185    .text:0000000000000148 .L0 
     /tmp/ccGCBubr.s:191    .text:0000000000000148 _Z11stringToIntPKc
     /tmp/ccGCBubr.s:194    .text:0000000000000148 .L0 
     /tmp/ccGCBubr.s:196    .text:0000000000000148 .L0 
     /tmp/ccGCBubr.s:197    .text:000000000000014c .L0 
     /tmp/ccGCBubr.s:199    .text:0000000000000150 .L0 
     /tmp/ccGCBubr.s:201    .text:0000000000000154 .L0 
     /tmp/ccGCBubr.s:204    .text:0000000000000158 .L0 
     /tmp/ccGCBubr.s:206    .text:0000000000000158 .L0 
     /tmp/ccGCBubr.s:207    .text:0000000000000158 .L0 
     /tmp/ccGCBubr.s:211    .text:000000000000015c .L0 
     /tmp/ccGCBubr.s:212    .text:000000000000015c .L0 
     /tmp/ccGCBubr.s:213    .text:000000000000015c .L0 
     /tmp/ccGCBubr.s:215    .text:0000000000000160 .L0 
     /tmp/ccGCBubr.s:220    .text:0000000000000170 .L0 
     /tmp/ccGCBubr.s:221    .text:0000000000000170 .L0 
     /tmp/ccGCBubr.s:225    .text:000000000000017c .L0 
     /tmp/ccGCBubr.s:228    .text:0000000000000180 .L0 
     /tmp/ccGCBubr.s:230    .text:0000000000000184 .L0 
     /tmp/ccGCBubr.s:233    .text:0000000000000188 .L0 
     /tmp/ccGCBubr.s:237    .text:000000000000018c .L0 
     /tmp/ccGCBubr.s:238    .text:000000000000018c .L0 
     /tmp/ccGCBubr.s:239    .text:0000000000000190 .L0 
     /tmp/ccGCBubr.s:240    .text:0000000000000190 .L0 
     /tmp/ccGCBubr.s:242    .text:0000000000000194 .L0 
     /tmp/ccGCBubr.s:244    .text:0000000000000198 .L0 
     /tmp/ccGCBubr.s:250    .text:0000000000000198 _Z8printIntiii
     /tmp/ccGCBubr.s:253    .text:0000000000000198 .L0 
     /tmp/ccGCBubr.s:255    .text:0000000000000198 .L0 
     /tmp/ccGCBubr.s:256    .text:000000000000019c .L0 
     /tmp/ccGCBubr.s:262    .text:00000000000001b0 .L0 
     /tmp/ccGCBubr.s:263    .text:00000000000001b0 .L0 
     /tmp/ccGCBubr.s:264    .text:00000000000001b0 .L0 
     /tmp/ccGCBubr.s:265    .text:00000000000001b0 .L0 
     /tmp/ccGCBubr.s:266    .text:00000000000001b0 .L0 
     /tmp/ccGCBubr.s:268    .text:00000000000001b4 .L0 
     /tmp/ccGCBubr.s:275    .text:00000000000001c0 .L0 
     /tmp/ccGCBubr.s:276    .text:00000000000001c0 .L0 
     /tmp/ccGCBubr.s:283    .text:00000000000001dc .L0 
     /tmp/ccGCBubr.s:284    .text:00000000000001dc .L0 
     /tmp/ccGCBubr.s:285    .text:00000000000001dc .L0 
     /tmp/ccGCBubr.s:287    .text:00000000000001dc .L0 
GAS LISTING /tmp/ccGCBubr.s 			page 17


     /tmp/ccGCBubr.s:288    .text:00000000000001dc .L0 
     /tmp/ccGCBubr.s:290    .text:00000000000001e0 .L0 
     /tmp/ccGCBubr.s:293    .text:00000000000001e4 .L0 
     /tmp/ccGCBubr.s:294    .text:00000000000001e4 .L0 
     /tmp/ccGCBubr.s:297    .text:00000000000001e8 .L0 
     /tmp/ccGCBubr.s:301    .text:00000000000001ec .L0 
     /tmp/ccGCBubr.s:302    .text:00000000000001ec .L0 
     /tmp/ccGCBubr.s:306    .text:00000000000001f0 .L0 
     /tmp/ccGCBubr.s:307    .text:00000000000001f0 .L0 
     /tmp/ccGCBubr.s:308    .text:00000000000001f0 .L0 
     /tmp/ccGCBubr.s:310    .text:00000000000001f4 .L0 
     /tmp/ccGCBubr.s:313    .text:00000000000001fc .L0 
     /tmp/ccGCBubr.s:316    .text:0000000000000200 .L0 
     /tmp/ccGCBubr.s:322    .text:0000000000000218 .L0 
     /tmp/ccGCBubr.s:326    .text:0000000000000224 .L0 
     /tmp/ccGCBubr.s:328    .text:0000000000000228 .L0 
     /tmp/ccGCBubr.s:331    .text:000000000000022c .L0 
     /tmp/ccGCBubr.s:333    .text:0000000000000230 .L0 
     /tmp/ccGCBubr.s:336    .text:0000000000000234 .L0 
     /tmp/ccGCBubr.s:337    .text:0000000000000234 .L0 
     /tmp/ccGCBubr.s:342    .text:0000000000000244 .L0 
     /tmp/ccGCBubr.s:346    .text:0000000000000248 .L0 
     /tmp/ccGCBubr.s:347    .text:0000000000000248 .L0 
     /tmp/ccGCBubr.s:351    .text:0000000000000250 .L0 
     /tmp/ccGCBubr.s:352    .text:0000000000000250 .L0 
     /tmp/ccGCBubr.s:361    .text:0000000000000268 .L0 
     /tmp/ccGCBubr.s:362    .text:0000000000000268 .L0 
     /tmp/ccGCBubr.s:363    .text:0000000000000268 .L0 
     /tmp/ccGCBubr.s:366    .text:000000000000026c .L0 
     /tmp/ccGCBubr.s:368    .text:0000000000000270 .L0 
     /tmp/ccGCBubr.s:372    .text:0000000000000274 .L0 
     /tmp/ccGCBubr.s:373    .text:0000000000000274 .L0 
     /tmp/ccGCBubr.s:380    .text:0000000000000290 .L0 
     /tmp/ccGCBubr.s:381    .text:0000000000000294 .L0 
     /tmp/ccGCBubr.s:383    .text:0000000000000298 .L0 
     /tmp/ccGCBubr.s:384    .text:0000000000000298 .L0 
     /tmp/ccGCBubr.s:386    .text:000000000000029c .L0 
     /tmp/ccGCBubr.s:388    .text:00000000000002a0 .L0 
     /tmp/ccGCBubr.s:390    .text:00000000000002a4 .L0 
     /tmp/ccGCBubr.s:392    .text:00000000000002a8 .L0 
     /tmp/ccGCBubr.s:394    .text:00000000000002ac .L0 
     /tmp/ccGCBubr.s:411    .text:00000000000002ac _Z10printErrorv
     /tmp/ccGCBubr.s:414    .text:00000000000002ac .L0 
     /tmp/ccGCBubr.s:415    .text:00000000000002ac .L0 
     /tmp/ccGCBubr.s:416    .text:00000000000002b0 .L0 
     /tmp/ccGCBubr.s:419    .text:00000000000002b8 .L0 
     /tmp/ccGCBubr.s:420    .text:00000000000002b8 .L0 
     /tmp/ccGCBubr.s:422    .text:00000000000002bc .L0 
     /tmp/ccGCBubr.s:425    .text:00000000000002bc .L0 
     /tmp/ccGCBubr.s:426    .text:00000000000002bc .L0 
     /tmp/ccGCBubr.s:433    .text:00000000000002d8 .L0 
     /tmp/ccGCBubr.s:434    .text:00000000000002d8 .L0 
     /tmp/ccGCBubr.s:441    .text:00000000000002e8 .L0 
     /tmp/ccGCBubr.s:442    .text:00000000000002e8 .L0 
     /tmp/ccGCBubr.s:443    .text:00000000000002e8 .L0 
   src/../h/kernel.h:36     .text:00000000000002e8 .L0 
     /tmp/ccGCBubr.s:451    .text:00000000000002f0 .L0 
GAS LISTING /tmp/ccGCBubr.s 			page 18


     /tmp/ccGCBubr.s:452    .text:00000000000002f0 .L0 
     /tmp/ccGCBubr.s:456    .text:00000000000002f4 .L0 
     /tmp/ccGCBubr.s:462    .text:0000000000000308 .L0 
     /tmp/ccGCBubr.s:463    .text:0000000000000308 .L0 
     /tmp/ccGCBubr.s:469    .text:0000000000000318 .L0 
     /tmp/ccGCBubr.s:470    .text:0000000000000318 .L0 
     /tmp/ccGCBubr.s:471    .text:0000000000000318 .L0 
   src/../h/kernel.h:48     .text:0000000000000318 .L0 
     /tmp/ccGCBubr.s:479    .text:0000000000000320 .L0 
     /tmp/ccGCBubr.s:480    .text:0000000000000320 .L0 
     /tmp/ccGCBubr.s:484    .text:0000000000000324 .L0 
     /tmp/ccGCBubr.s:490    .text:0000000000000338 .L0 
     /tmp/ccGCBubr.s:491    .text:0000000000000338 .L0 
     /tmp/ccGCBubr.s:497    .text:0000000000000348 .L0 
     /tmp/ccGCBubr.s:498    .text:0000000000000348 .L0 
     /tmp/ccGCBubr.s:499    .text:0000000000000348 .L0 
   src/../h/kernel.h:72     .text:0000000000000348 .L0 
     /tmp/ccGCBubr.s:507    .text:0000000000000350 .L0 
     /tmp/ccGCBubr.s:508    .text:0000000000000350 .L0 
     /tmp/ccGCBubr.s:512    .text:0000000000000354 .L0 
     /tmp/ccGCBubr.s:519    .text:0000000000000368 .L0 
     /tmp/ccGCBubr.s:520    .text:0000000000000368 .L0 
     /tmp/ccGCBubr.s:527    .text:0000000000000384 .L0 
     /tmp/ccGCBubr.s:528    .text:0000000000000388 .L0 
     /tmp/ccGCBubr.s:530    .text:000000000000038c .L0 
     /tmp/ccGCBubr.s:531    .text:000000000000038c .L0 
     /tmp/ccGCBubr.s:533    .text:0000000000000390 .L0 
     /tmp/ccGCBubr.s:535    .text:0000000000000394 .L0 
     /tmp/ccGCBubr.s:545    .data:0000000000000000 digits
     /tmp/ccGCBubr.s:552    .bss:0000000000000000 lockPrint
     /tmp/ccGCBubr.s:542    .data:0000000000000000 .LANCHOR1
     /tmp/ccGCBubr.s:549    .bss:0000000000000000 .LANCHOR0
     /tmp/ccGCBubr.s:559    .text:0000000000000394 .L0 
     /tmp/ccGCBubr.s:32     .text:0000000000000020 .L0 
     /tmp/ccGCBubr.s:58     .text:0000000000000054 .L0 
     /tmp/ccGCBubr.s:109    .text:00000000000000ac .L0 
     /tmp/ccGCBubr.s:161    .text:0000000000000110 .L0 
     /tmp/ccGCBubr.s:278    .text:00000000000001c8 .L0 
     /tmp/ccGCBubr.s:318    .text:0000000000000208 .L0 
     /tmp/ccGCBubr.s:375    .text:000000000000027c .L0 
     /tmp/ccGCBubr.s:428    .text:00000000000002c4 .L0 
     /tmp/ccGCBubr.s:399    .rodata.str1.8:0000000000000000 .LC0
     /tmp/ccGCBubr.s:434    .text:00000000000002d8 .L0 
     /tmp/ccGCBubr.s:402    .rodata.str1.8:0000000000000010 .LC1
     /tmp/ccGCBubr.s:463    .text:0000000000000308 .L0 
     /tmp/ccGCBubr.s:405    .rodata.str1.8:0000000000000018 .LC2
     /tmp/ccGCBubr.s:491    .text:0000000000000338 .L0 
     /tmp/ccGCBubr.s:522    .text:0000000000000370 .L0 
     /tmp/ccGCBubr.s:27     .text:0000000000000018 .L2
     /tmp/ccGCBubr.s:53     .text:000000000000004c .L3
     /tmp/ccGCBubr.s:36     .text:0000000000000034 .L4
     /tmp/ccGCBubr.s:104    .text:00000000000000a4 .L7
     /tmp/ccGCBubr.s:149    .text:0000000000000100 .L8
     /tmp/ccGCBubr.s:146    .text:00000000000000fc .L11
     /tmp/ccGCBubr.s:115    .text:00000000000000c4 .L9
     /tmp/ccGCBubr.s:156    .text:0000000000000108 .L10
     /tmp/ccGCBubr.s:235    .text:000000000000018c .L14
GAS LISTING /tmp/ccGCBubr.s 			page 19


     /tmp/ccGCBubr.s:209    .text:000000000000015c .L15
     /tmp/ccGCBubr.s:273    .text:00000000000001c0 .L18
     /tmp/ccGCBubr.s:291    .text:00000000000001e4 .L19
     /tmp/ccGCBubr.s:359    .text:0000000000000268 .L26
     /tmp/ccGCBubr.s:304    .text:00000000000001f0 .L21
     /tmp/ccGCBubr.s:344    .text:0000000000000248 .L24
     /tmp/ccGCBubr.s:370    .text:0000000000000274 .L23
     /tmp/ccGCBubr.s:299    .text:00000000000001ec .L20
     /tmp/ccGCBubr.s:423    .text:00000000000002bc .L28
     /tmp/ccGCBubr.s:517    .text:0000000000000368 .L29
     /tmp/ccGCBubr.s:1452   .debug_abbrev:0000000000000000 .Ldebug_abbrev0
     /tmp/ccGCBubr.s:2364   .debug_str:0000000000000395 .LASF69
     /tmp/ccGCBubr.s:2378   .debug_str:00000000000004b6 .LASF70
     /tmp/ccGCBubr.s:2374   .debug_str:0000000000000493 .LASF71
     /tmp/ccGCBubr.s:5      .text:0000000000000000 .Ltext0
     /tmp/ccGCBubr.s:555    .text:0000000000000394 .Letext0
     /tmp/ccGCBubr.s:2228   .debug_line:0000000000000000 .Ldebug_line0
     /tmp/ccGCBubr.s:2324   .debug_str:0000000000000273 .LASF0
     /tmp/ccGCBubr.s:2258   .debug_str:000000000000008d .LASF3
     /tmp/ccGCBubr.s:2334   .debug_str:00000000000002b9 .LASF1
     /tmp/ccGCBubr.s:2316   .debug_str:0000000000000234 .LASF2
     /tmp/ccGCBubr.s:2296   .debug_str:00000000000001a4 .LASF4
     /tmp/ccGCBubr.s:2356   .debug_str:000000000000036e .LASF5
     /tmp/ccGCBubr.s:2248   .debug_str:0000000000000059 .LASF6
     /tmp/ccGCBubr.s:2338   .debug_str:00000000000002db .LASF7
     /tmp/ccGCBubr.s:2322   .debug_str:0000000000000260 .LASF8
     /tmp/ccGCBubr.s:2370   .debug_str:000000000000047c .LASF9
     /tmp/ccGCBubr.s:2288   .debug_str:000000000000016e .LASF10
     /tmp/ccGCBubr.s:2342   .debug_str:00000000000002f3 .LASF11
     /tmp/ccGCBubr.s:2366   .debug_str:0000000000000459 .LASF12
     /tmp/ccGCBubr.s:2250   .debug_str:0000000000000060 .LASF13
     /tmp/ccGCBubr.s:2234   .debug_str:0000000000000010 .LASF14
     /tmp/ccGCBubr.s:2256   .debug_str:0000000000000081 .LASF15
     /tmp/ccGCBubr.s:2354   .debug_str:0000000000000358 .LASF16
     /tmp/ccGCBubr.s:2262   .debug_str:00000000000000a8 .LASF17
     /tmp/ccGCBubr.s:2372   .debug_str:000000000000048c .LASF72
     /tmp/ccGCBubr.s:2232   .debug_str:0000000000000008 .LASF73
     /tmp/ccGCBubr.s:2276   .debug_str:0000000000000127 .LASF74
     /tmp/ccGCBubr.s:2352   .debug_str:000000000000034d .LASF75
     /tmp/ccGCBubr.s:2344   .debug_str:0000000000000302 .LASF76
     /tmp/ccGCBubr.s:2236   .debug_str:0000000000000020 .LASF18
     /tmp/ccGCBubr.s:2266   .debug_str:00000000000000d5 .LASF20
     /tmp/ccGCBubr.s:2274   .debug_str:000000000000011e .LASF22
     /tmp/ccGCBubr.s:2260   .debug_str:0000000000000092 .LASF24
     /tmp/ccGCBubr.s:2358   .debug_str:0000000000000380 .LASF19
     /tmp/ccGCBubr.s:2320   .debug_str:000000000000024c .LASF21
     /tmp/ccGCBubr.s:2360   .debug_str:0000000000000387 .LASF23
     /tmp/ccGCBubr.s:2240   .debug_str:0000000000000030 .LASF25
     /tmp/ccGCBubr.s:2280   .debug_str:0000000000000151 .LASF26
     /tmp/ccGCBubr.s:2278   .debug_str:000000000000013c .LASF27
     /tmp/ccGCBubr.s:2230   .debug_str:0000000000000000 .LASF28
     /tmp/ccGCBubr.s:2308   .debug_str:00000000000001e7 .LASF29
     /tmp/ccGCBubr.s:2246   .debug_str:0000000000000051 .LASF30
     /tmp/ccGCBubr.s:2312   .debug_str:0000000000000206 .LASF31
     /tmp/ccGCBubr.s:2386   .debug_str:00000000000004f2 .LASF32
     /tmp/ccGCBubr.s:2290   .debug_str:000000000000017c .LASF33
     /tmp/ccGCBubr.s:2346   .debug_str:000000000000031b .LASF34
GAS LISTING /tmp/ccGCBubr.s 			page 20


     /tmp/ccGCBubr.s:2368   .debug_str:0000000000000468 .LASF35
     /tmp/ccGCBubr.s:2244   .debug_str:000000000000004a .LASF36
     /tmp/ccGCBubr.s:2348   .debug_str:0000000000000322 .LASF37
     /tmp/ccGCBubr.s:2284   .debug_str:0000000000000162 .LASF38
     /tmp/ccGCBubr.s:2298   .debug_str:00000000000001ab .LASF39
     /tmp/ccGCBubr.s:2242   .debug_str:0000000000000044 .LASF40
     /tmp/ccGCBubr.s:2328   .debug_str:000000000000028e .LASF41
     /tmp/ccGCBubr.s:2384   .debug_str:00000000000004e7 .LASF42
     /tmp/ccGCBubr.s:2314   .debug_str:000000000000021b .LASF43
     /tmp/ccGCBubr.s:2300   .debug_str:00000000000001be .LASF44
     /tmp/ccGCBubr.s:2272   .debug_str:0000000000000105 .LASF45
     /tmp/ccGCBubr.s:2254   .debug_str:0000000000000077 .LASF46
     /tmp/ccGCBubr.s:2264   .debug_str:00000000000000be .LASF47
     /tmp/ccGCBubr.s:2318   .debug_str:0000000000000242 .LASF77
     /tmp/ccGCBubr.s:2350   .debug_str:0000000000000336 .LASF78
     /tmp/ccGCBubr.s:2310   .debug_str:00000000000001fc .LASF48
     /tmp/ccGCBubr.s:2340   .debug_str:00000000000002ee .LASF49
     /tmp/ccGCBubr.s:2306   .debug_str:00000000000001e0 .LASF50
     /tmp/ccGCBubr.s:2304   .debug_str:00000000000001d5 .LASF51
     /tmp/ccGCBubr.s:2268   .debug_str:00000000000000eb .LASF53
     /tmp/ccGCBubr.s:412    .text:00000000000002ac .LFB21
     /tmp/ccGCBubr.s:536    .text:0000000000000394 .LFE21
     /tmp/ccGCBubr.s:438    .text:00000000000002e8 .LBB8
     /tmp/ccGCBubr.s:454    .text:00000000000002f4 .LBE8
     /tmp/ccGCBubr.s:467    .text:0000000000000318 .LBB10
     /tmp/ccGCBubr.s:482    .text:0000000000000324 .LBE10
     /tmp/ccGCBubr.s:495    .text:0000000000000348 .LBB12
     /tmp/ccGCBubr.s:510    .text:0000000000000354 .LBE12
     /tmp/ccGCBubr.s:430    .text:00000000000002d4 .LVL41
     /tmp/ccGCBubr.s:436    .text:00000000000002e8 .LVL42
     /tmp/ccGCBubr.s:460    .text:0000000000000308 .LVL43
     /tmp/ccGCBubr.s:465    .text:0000000000000318 .LVL44
     /tmp/ccGCBubr.s:488    .text:0000000000000338 .LVL45
     /tmp/ccGCBubr.s:493    .text:0000000000000348 .LVL46
     /tmp/ccGCBubr.s:516    .text:0000000000000368 .LVL47
     /tmp/ccGCBubr.s:524    .text:0000000000000380 .LVL48
     /tmp/ccGCBubr.s:2282   .debug_str:0000000000000159 .LASF52
     /tmp/ccGCBubr.s:2336   .debug_str:00000000000002cc .LASF54
     /tmp/ccGCBubr.s:251    .text:0000000000000198 .LFB20
     /tmp/ccGCBubr.s:395    .text:00000000000002ac .LFE20
     /tmp/ccGCBubr.s:2002   .debug_loc:0000000000000000 .LLST8
     /tmp/ccGCBubr.s:2376   .debug_str:00000000000004b1 .LASF55
     /tmp/ccGCBubr.s:2016   .debug_loc:0000000000000039 .LLST9
     /tmp/ccGCBubr.s:2030   .debug_loc:0000000000000072 .LLST10
     /tmp/ccGCBubr.s:2044   .debug_loc:00000000000000ab .LLST11
     /tmp/ccGCBubr.s:2066   .debug_loc:000000000000010a .LLST12
     /tmp/ccGCBubr.s:2083   .debug_loc:0000000000000155 .LLST13
     /tmp/ccGCBubr.s:280    .text:00000000000001d8 .LVL26
     /tmp/ccGCBubr.s:356    .text:0000000000000264 .LVL36
     /tmp/ccGCBubr.s:377    .text:000000000000028c .LVL40
     /tmp/ccGCBubr.s:2294   .debug_str:0000000000000198 .LASF56
     /tmp/ccGCBubr.s:2332   .debug_str:00000000000002a6 .LASF58
     /tmp/ccGCBubr.s:192    .text:0000000000000148 .LFB19
     /tmp/ccGCBubr.s:245    .text:0000000000000198 .LFE19
     /tmp/ccGCBubr.s:2112   .debug_loc:00000000000001ac .LLST6
     /tmp/ccGCBubr.s:2123   .debug_loc:00000000000001e2 .LLST7
     /tmp/ccGCBubr.s:2270   .debug_str:00000000000000fb .LASF57
GAS LISTING /tmp/ccGCBubr.s 			page 21


     /tmp/ccGCBubr.s:2382   .debug_str:00000000000004d7 .LASF59
     /tmp/ccGCBubr.s:81     .text:000000000000007c .LFB18
     /tmp/ccGCBubr.s:186    .text:0000000000000148 .LFE18
     /tmp/ccGCBubr.s:2145   .debug_loc:0000000000000241 .LLST1
     /tmp/ccGCBubr.s:2160   .debug_loc:000000000000028a .LLST2
     /tmp/ccGCBubr.s:2174   .debug_loc:00000000000002c3 .LLST3
     /tmp/ccGCBubr.s:2185   .debug_loc:00000000000002f9 .LLST4
     /tmp/ccGCBubr.s:2197   .debug_loc:0000000000000321 .LLST5
     /tmp/ccGCBubr.s:111    .text:00000000000000bc .LVL9
     /tmp/ccGCBubr.s:127    .text:00000000000000d8 .LVL12
     /tmp/ccGCBubr.s:163    .text:0000000000000120 .LVL16
     /tmp/ccGCBubr.s:2302   .debug_str:00000000000001c9 .LASF60
     /tmp/ccGCBubr.s:2380   .debug_str:00000000000004c4 .LASF61
     /tmp/ccGCBubr.s:10     .text:0000000000000000 .LFB17
     /tmp/ccGCBubr.s:75     .text:000000000000007c .LFE17
     /tmp/ccGCBubr.s:2252   .debug_str:0000000000000070 .LASF62
     /tmp/ccGCBubr.s:2204   .debug_loc:0000000000000344 .LLST0
     /tmp/ccGCBubr.s:34     .text:0000000000000030 .LVL2
     /tmp/ccGCBubr.s:46     .text:0000000000000044 .LVL3
     /tmp/ccGCBubr.s:60     .text:0000000000000064 .LVL5
     /tmp/ccGCBubr.s:2286   .debug_str:0000000000000168 .LASF63
     /tmp/ccGCBubr.s:2330   .debug_str:00000000000002a1 .LASF64
     /tmp/ccGCBubr.s:2238   .debug_str:0000000000000029 .LASF65
     /tmp/ccGCBubr.s:2326   .debug_str:0000000000000280 .LASF66
     /tmp/ccGCBubr.s:2362   .debug_str:000000000000038e .LASF67
     /tmp/ccGCBubr.s:2292   .debug_str:0000000000000191 .LASF68
     /tmp/ccGCBubr.s:254    .text:0000000000000198 .LVL24
     /tmp/ccGCBubr.s:272    .text:00000000000001c0 .LVL25
     /tmp/ccGCBubr.s:298    .text:00000000000001ec .LVL29
     /tmp/ccGCBubr.s:303    .text:00000000000001f0 .LVL30
     /tmp/ccGCBubr.s:314    .text:0000000000000200 .LVL31
     /tmp/ccGCBubr.s:335    .text:0000000000000234 .LVL33
     /tmp/ccGCBubr.s:343    .text:0000000000000248 .LVL34
     /tmp/ccGCBubr.s:348    .text:000000000000024c .LVL35
     /tmp/ccGCBubr.s:286    .text:00000000000001dc .LVL27
     /tmp/ccGCBubr.s:358    .text:0000000000000268 .LVL37
     /tmp/ccGCBubr.s:369    .text:0000000000000274 .LVL39
     /tmp/ccGCBubr.s:295    .text:00000000000001e8 .LVL28
     /tmp/ccGCBubr.s:329    .text:000000000000022c .LVL32
     /tmp/ccGCBubr.s:364    .text:000000000000026c .LVL38
     /tmp/ccGCBubr.s:195    .text:0000000000000148 .LVL18
     /tmp/ccGCBubr.s:208    .text:000000000000015c .LVL20
     /tmp/ccGCBubr.s:205    .text:0000000000000158 .LVL19
     /tmp/ccGCBubr.s:231    .text:0000000000000188 .LVL22
     /tmp/ccGCBubr.s:234    .text:000000000000018c .LVL23
     /tmp/ccGCBubr.s:84     .text:000000000000007c .LVL7
     /tmp/ccGCBubr.s:103    .text:00000000000000a4 .LVL8
     /tmp/ccGCBubr.s:179    .text:000000000000013c .LVL17
     /tmp/ccGCBubr.s:116    .text:00000000000000c4 .LVL10
     /tmp/ccGCBubr.s:121    .text:00000000000000cc .LVL11
     /tmp/ccGCBubr.s:148    .text:0000000000000100 .LVL14
     /tmp/ccGCBubr.s:153    .text:0000000000000104 .LVL15
     /tmp/ccGCBubr.s:131    .text:00000000000000dc .LVL13
     /tmp/ccGCBubr.s:14     .text:0000000000000000 .LVL0
     /tmp/ccGCBubr.s:26     .text:0000000000000018 .LVL1
     /tmp/ccGCBubr.s:70     .text:0000000000000074 .LVL6
     /tmp/ccGCBubr.s:560    .debug_info:0000000000000000 .Ldebug_info0
GAS LISTING /tmp/ccGCBubr.s 			page 22



UNDEFINED SYMBOLS
copy_and_swap
__putc
__getc
