GAS LISTING /tmp/ccL1hJir.s 			page 1


   1              		.file	"SCB.cpp"
   2              		.option pic
   3              		.option norelax
   4              		.text
   5              	.Ltext0:
   6              		.section	.text._ZN3SCB12createObjectEPv,"axG",@progbits,_ZN3SCB12createObjectEPv,comdat
   7              		.align	2
   8              		.weak	_ZN3SCB12createObjectEPv
  10              	_ZN3SCB12createObjectEPv:
  11              	.LFB11:
  12              		.file 1 "src/../h/SCB.h"
   1:src/../h/SCB.h **** #ifndef PROJECT_BASE_SCB_H
   2:src/../h/SCB.h **** #define PROJECT_BASE_SCB_H
   3:src/../h/SCB.h **** 
   4:src/../h/SCB.h **** #include "PCB.h"
   5:src/../h/SCB.h **** #include "Scheduler.h"
   6:src/../h/SCB.h **** 
   7:src/../h/SCB.h **** class SCB { // Semaphore Control Block
   8:src/../h/SCB.h **** public:
   9:src/../h/SCB.h ****     int getSemValue() const {
  10:src/../h/SCB.h ****         return semValue;
  11:src/../h/SCB.h ****     }
  12:src/../h/SCB.h **** 
  13:src/../h/SCB.h ****     // smanjuje vrednost semValue i ako ona padne manje od 0, blokira tekuci proces ako on treba da
  14:src/../h/SCB.h ****     // vraca 0 ako se nit uspesno probudila, -2 ako se probudila kad je semafor obrisan
  15:src/../h/SCB.h ****     int wait();
  16:src/../h/SCB.h **** 
  17:src/../h/SCB.h ****     // povecava vrednost semValue i ako je ona posle povecanja <= 0, odblokira proces ako treba da 
  18:src/../h/SCB.h ****     void signal();
  19:src/../h/SCB.h **** 
  20:src/../h/SCB.h ****     void prioritySignal();
  21:src/../h/SCB.h **** 
  22:src/../h/SCB.h ****     void* operator new(size_t size);
  23:src/../h/SCB.h ****     void operator delete(void* memSegment);
  24:src/../h/SCB.h **** 
  25:src/../h/SCB.h ****     static SCB* createSemaphore(int semValue = 1);
  26:src/../h/SCB.h **** 
  27:src/../h/SCB.h ****     static SCB* createSysSemaphore(int semValue = 1);
  28:src/../h/SCB.h **** 
  29:src/../h/SCB.h ****     // Pre zatvaranja svim procesima koji su cekali na semaforu signalizira da je semafor obrisan i
  30:src/../h/SCB.h ****     void signalClosing();
  31:src/../h/SCB.h **** 
  32:src/../h/SCB.h ****     static void createObject(void* addr) {}
  13              		.loc 1 32 17
  14              		.cfi_startproc
  15              	.LVL0:
  16 0000 130101FF 		addi	sp,sp,-16
  17              		.cfi_def_cfa_offset 16
  18 0004 23348100 		sd	s0,8(sp)
  19              		.cfi_offset 8, -8
  20 0008 13040101 		addi	s0,sp,16
  21              		.cfi_def_cfa 8, 0
  22              		.loc 1 32 43 is_stmt 0
  23 000c 03348100 		ld	s0,8(sp)
  24              		.cfi_restore 8
  25              		.cfi_def_cfa 2, 16
  26 0010 13010101 		addi	sp,sp,16
GAS LISTING /tmp/ccL1hJir.s 			page 2


  27              		.cfi_def_cfa_offset 0
  28 0014 67800000 		jr	ra
  29              		.cfi_endproc
  30              	.LFE11:
  32              		.section	.text._ZN3SCB10freeObjectEPv,"axG",@progbits,_ZN3SCB10freeObjectEPv,comdat
  33              		.align	2
  34              		.weak	_ZN3SCB10freeObjectEPv
  36              	_ZN3SCB10freeObjectEPv:
  37              	.LFB12:
  33:src/../h/SCB.h ****     static void freeObject(void* addr) {}
  38              		.loc 1 33 17 is_stmt 1
  39              		.cfi_startproc
  40              	.LVL1:
  41 0000 130101FF 		addi	sp,sp,-16
  42              		.cfi_def_cfa_offset 16
  43 0004 23348100 		sd	s0,8(sp)
  44              		.cfi_offset 8, -8
  45 0008 13040101 		addi	s0,sp,16
  46              		.cfi_def_cfa 8, 0
  47              		.loc 1 33 41 is_stmt 0
  48 000c 03348100 		ld	s0,8(sp)
  49              		.cfi_restore 8
  50              		.cfi_def_cfa 2, 16
  51 0010 13010101 		addi	sp,sp,16
  52              		.cfi_def_cfa_offset 0
  53 0014 67800000 		jr	ra
  54              		.cfi_endproc
  55              	.LFE12:
  57              		.text
  58              		.align	2
  59              		.globl	_ZN3SCB5blockEv
  61              	_ZN3SCB5blockEv:
  62              	.LFB44:
  63              		.file 2 "src/SCB.cpp"
   1:src/SCB.cpp   **** #include "../h/SCB.h"
   2:src/SCB.cpp   **** #include "../h/kernel.h"
   3:src/SCB.cpp   **** #include "../h/MemoryAllocator.h"
   4:src/SCB.cpp   **** 
   5:src/SCB.cpp   **** kmem_cache_t* SCB::scbCache = nullptr;
   6:src/SCB.cpp   **** 
   7:src/SCB.cpp   **** void SCB::block() {
  64              		.loc 2 7 19 is_stmt 1
  65              		.cfi_startproc
  66              	.LVL2:
  67 0000 130101FF 		addi	sp,sp,-16
  68              		.cfi_def_cfa_offset 16
  69 0004 23348100 		sd	s0,8(sp)
  70              		.cfi_offset 8, -8
  71 0008 13040101 		addi	s0,sp,16
  72              		.cfi_def_cfa 8, 0
   8:src/SCB.cpp   ****     PCB::running->setNextInList(nullptr);
  73              		.loc 2 8 5
  74              		.loc 2 8 32 is_stmt 0
  75 000c 97070000 		la	a5,_ZN3PCB7runningE
  75      83B70700 
  76 0014 83B70700 		ld	a5,0(a5)
  77              	.LVL3:
GAS LISTING /tmp/ccL1hJir.s 			page 3


  78              	.LBB26:
  79              	.LBB27:
  80              		.file 3 "src/../h/PCB.h"
   1:src/../h/PCB.h **** #ifndef PCB_H
   2:src/../h/PCB.h **** #define PCB_H
   3:src/../h/PCB.h **** 
   4:src/../h/PCB.h **** #include "hw.h"
   5:src/../h/PCB.h **** #include "slab.h"
   6:src/../h/PCB.h **** 
   7:src/../h/PCB.h **** extern "C" void interruptHandler();
   8:src/../h/PCB.h **** 
   9:src/../h/PCB.h **** class PCB {
  10:src/../h/PCB.h **** friend class Scheduler;
  11:src/../h/PCB.h **** friend void interruptHandler();
  12:src/../h/PCB.h **** friend class Kernel;
  13:src/../h/PCB.h **** friend class SCB;
  14:src/../h/PCB.h **** public:
  15:src/../h/PCB.h ****     // vraca true ako se proces zavrsio, false ako nije
  16:src/../h/PCB.h ****     bool isFinished() const {
  17:src/../h/PCB.h ****         return finished;
  18:src/../h/PCB.h ****     }
  19:src/../h/PCB.h ****     // vraca true ako je semafor obrisan pre nego sto je proces odblokiran
  20:src/../h/PCB.h ****     bool isSemaphoreDeleted() const {
  21:src/../h/PCB.h ****         return semDeleted;
  22:src/../h/PCB.h ****     }
  23:src/../h/PCB.h **** 
  24:src/../h/PCB.h ****     size_t getTimeSleeping() const {
  25:src/../h/PCB.h ****         return timeSleeping;
  26:src/../h/PCB.h ****     }
  27:src/../h/PCB.h **** 
  28:src/../h/PCB.h ****     void setTimeSleeping(size_t newTime) {
  29:src/../h/PCB.h ****         timeSleeping = newTime;
  30:src/../h/PCB.h ****     }
  31:src/../h/PCB.h **** 
  32:src/../h/PCB.h ****     PCB* getNextInList() const {
  33:src/../h/PCB.h ****         return nextInList;
  34:src/../h/PCB.h ****     }
  35:src/../h/PCB.h **** 
  36:src/../h/PCB.h ****     void setNextInList(PCB* next) {
  37:src/../h/PCB.h ****         nextInList = next;
  81              		.loc 3 37 9 is_stmt 1
  82              		.loc 3 37 20 is_stmt 0
  83 0018 23B00700 		sd	zero,0(a5)
  84              	.LVL4:
  85              	.LBE27:
  86              	.LBE26:
   9:src/SCB.cpp   ****     if(tail == nullptr) { // ako ne postoji kraj liste nece postojati ni pocetak
  87              		.loc 2 9 5 is_stmt 1
  88              		.loc 2 9 8 is_stmt 0
  89 001c 83378500 		ld	a5,8(a0)
  90              		.loc 2 9 5
  91 0020 63800704 		beqz	a5,.L9
  10:src/SCB.cpp   ****         head = tail = PCB::running;
  11:src/SCB.cpp   ****     }
  12:src/SCB.cpp   ****     else {
  13:src/SCB.cpp   ****         tail->setNextInList(PCB::running);
  92              		.loc 2 13 9 is_stmt 1
GAS LISTING /tmp/ccL1hJir.s 			page 4


  93              		.loc 2 13 28 is_stmt 0
  94 0024 17070000 		la	a4,_ZN3PCB7runningE
  94      03370700 
  95 002c 03370700 		ld	a4,0(a4)
  96              	.LVL5:
  97              	.LBB28:
  98              	.LBB29:
  99              		.loc 3 37 9 is_stmt 1
 100              		.loc 3 37 20 is_stmt 0
 101 0030 23B0E700 		sd	a4,0(a5)
 102              	.LVL6:
 103              	.LBE29:
 104              	.LBE28:
  14:src/SCB.cpp   ****         tail = tail->getNextInList();
 105              		.loc 2 14 9 is_stmt 1
 106              		.loc 2 14 16 is_stmt 0
 107 0034 83378500 		ld	a5,8(a0)
 108              	.LVL7:
 109              	.LBB30:
 110              	.LBB31:
  33:src/../h/PCB.h ****     }
 111              		.loc 3 33 9 is_stmt 1
  33:src/../h/PCB.h ****     }
 112              		.loc 3 33 16 is_stmt 0
 113 0038 83B70700 		ld	a5,0(a5)
 114              	.LVL8:
 115              	.LBE31:
 116              	.LBE30:
 117              		.loc 2 14 14
 118 003c 2334F500 		sd	a5,8(a0)
 119              	.L7:
  15:src/SCB.cpp   ****     }
  16:src/SCB.cpp   ****     PCB::running->setBlocked(true);
 120              		.loc 2 16 5 is_stmt 1
 121              		.loc 2 16 29 is_stmt 0
 122 0040 97070000 		la	a5,_ZN3PCB7runningE
 122      83B70700 
 123 0048 83B70700 		ld	a5,0(a5)
 124              	.LVL9:
 125              	.LBB32:
 126              	.LBB33:
  38:src/../h/PCB.h ****     }
  39:src/../h/PCB.h **** 
  40:src/../h/PCB.h ****     void setBlocked(bool newState) {
  41:src/../h/PCB.h ****         blocked = newState;
 127              		.loc 3 41 9 is_stmt 1
 128              		.loc 3 41 17 is_stmt 0
 129 004c 13071000 		li	a4,1
 130 0050 A384E702 		sb	a4,41(a5)
 131              	.LVL10:
 132              	.LBE33:
 133              	.LBE32:
  17:src/SCB.cpp   **** }
 134              		.loc 2 17 1
 135 0054 03348100 		ld	s0,8(sp)
 136              		.cfi_remember_state
 137              		.cfi_restore 8
GAS LISTING /tmp/ccL1hJir.s 			page 5


 138              		.cfi_def_cfa 2, 16
 139 0058 13010101 		addi	sp,sp,16
 140              		.cfi_def_cfa_offset 0
 141 005c 67800000 		jr	ra
 142              	.L9:
 143              		.cfi_restore_state
  10:src/SCB.cpp   ****     }
 144              		.loc 2 10 9 is_stmt 1
  10:src/SCB.cpp   ****     }
 145              		.loc 2 10 21 is_stmt 0
 146 0060 97070000 		la	a5,_ZN3PCB7runningE
 146      83B70700 
 147 0068 83B70700 		ld	a5,0(a5)
 148 006c 2334F500 		sd	a5,8(a0)
  10:src/SCB.cpp   ****     }
 149              		.loc 2 10 14
 150 0070 2330F500 		sd	a5,0(a0)
 151 0074 6FF0DFFC 		j	.L7
 152              		.cfi_endproc
 153              	.LFE44:
 155              		.align	2
 156              		.globl	_ZN3SCB7unblockEv
 158              	_ZN3SCB7unblockEv:
 159              	.LFB45:
  18:src/SCB.cpp   **** 
  19:src/SCB.cpp   **** PCB* SCB::unblock() {
 160              		.loc 2 19 21 is_stmt 1
 161              		.cfi_startproc
 162              	.LVL11:
 163 0078 130101FF 		addi	sp,sp,-16
 164              		.cfi_def_cfa_offset 16
 165 007c 23348100 		sd	s0,8(sp)
 166              		.cfi_offset 8, -8
 167 0080 13040101 		addi	s0,sp,16
 168              		.cfi_def_cfa 8, 0
 169 0084 93070500 		mv	a5,a0
  20:src/SCB.cpp   ****     if(head == nullptr) return nullptr;
 170              		.loc 2 20 5
 171              		.loc 2 20 8 is_stmt 0
 172 0088 03350500 		ld	a0,0(a0)
 173              	.LVL12:
 174              		.loc 2 20 5
 175 008c 630E0500 		beqz	a0,.L10
  21:src/SCB.cpp   ****     PCB* curr = head;
 176              		.loc 2 21 5 is_stmt 1
 177              	.LVL13:
  22:src/SCB.cpp   ****     head = head->getNextInList();
 178              		.loc 2 22 5
 179              	.LBB34:
 180              	.LBB35:
  33:src/../h/PCB.h ****     }
 181              		.loc 3 33 9
  33:src/../h/PCB.h ****     }
 182              		.loc 3 33 16 is_stmt 0
 183 0090 03370500 		ld	a4,0(a0)
 184              	.LVL14:
 185              	.LBE35:
GAS LISTING /tmp/ccL1hJir.s 			page 6


 186              	.LBE34:
 187              		.loc 2 22 10
 188 0094 23B0E700 		sd	a4,0(a5)
  23:src/SCB.cpp   ****     if(tail == curr) {
 189              		.loc 2 23 5 is_stmt 1
 190              		.loc 2 23 8 is_stmt 0
 191 0098 83B68700 		ld	a3,8(a5)
 192              		.loc 2 23 5
 193 009c 630CD500 		beq	a0,a3,.L14
 194              	.L12:
  24:src/SCB.cpp   ****         tail = head;
  25:src/SCB.cpp   ****     }
  26:src/SCB.cpp   ****     curr->setBlocked(false);
 195              		.loc 2 26 5 is_stmt 1
 196              	.LVL15:
 197              	.LBB36:
 198              	.LBB37:
 199              		.loc 3 41 9
 200              		.loc 3 41 17 is_stmt 0
 201 00a0 A3040502 		sb	zero,41(a0)
 202              	.LVL16:
 203              	.LBE37:
 204              	.LBE36:
  27:src/SCB.cpp   ****     curr->setNextInList(nullptr);
 205              		.loc 2 27 5 is_stmt 1
 206              	.LBB38:
 207              	.LBB39:
  37:src/../h/PCB.h ****     }
 208              		.loc 3 37 9
  37:src/../h/PCB.h ****     }
 209              		.loc 3 37 20 is_stmt 0
 210 00a4 23300500 		sd	zero,0(a0)
 211              	.LVL17:
 212              	.LBE39:
 213              	.LBE38:
  28:src/SCB.cpp   ****     return curr;
 214              		.loc 2 28 5 is_stmt 1
 215              	.L10:
  29:src/SCB.cpp   **** }
 216              		.loc 2 29 1 is_stmt 0
 217 00a8 03348100 		ld	s0,8(sp)
 218              		.cfi_remember_state
 219              		.cfi_restore 8
 220              		.cfi_def_cfa 2, 16
 221 00ac 13010101 		addi	sp,sp,16
 222              		.cfi_def_cfa_offset 0
 223 00b0 67800000 		jr	ra
 224              	.LVL18:
 225              	.L14:
 226              		.cfi_restore_state
  24:src/SCB.cpp   ****     }
 227              		.loc 2 24 9 is_stmt 1
  24:src/SCB.cpp   ****     }
 228              		.loc 2 24 14 is_stmt 0
 229 00b4 23B4E700 		sd	a4,8(a5)
 230 00b8 6FF09FFE 		j	.L12
 231              		.cfi_endproc
GAS LISTING /tmp/ccL1hJir.s 			page 7


 232              	.LFE45:
 234              		.align	2
 235              		.globl	_ZN3SCB4waitEv
 237              	_ZN3SCB4waitEv:
 238              	.LFB46:
  30:src/SCB.cpp   **** 
  31:src/SCB.cpp   **** int SCB::wait() {
 239              		.loc 2 31 17 is_stmt 1
 240              		.cfi_startproc
 241              	.LVL19:
  32:src/SCB.cpp   ****     if((int)(--semValue)<0) {
 242              		.loc 2 32 5
 243              		.loc 2 32 16 is_stmt 0
 244 00bc 83270501 		lw	a5,16(a0)
 245              		.loc 2 32 14
 246 00c0 9B87F7FF 		addiw	a5,a5,-1
 247              		.loc 2 32 25
 248 00c4 2328F500 		sw	a5,16(a0)
 249              		.loc 2 32 5
 250 00c8 13970702 		slli	a4,a5,32
 251 00cc 63400702 		bltz	a4,.L26
  33:src/SCB.cpp   ****         block();
  34:src/SCB.cpp   ****         PCB::timeSliceCounter = 0;
  35:src/SCB.cpp   ****         PCB::dispatch();
  36:src/SCB.cpp   ****     }
  37:src/SCB.cpp   **** 
  38:src/SCB.cpp   ****     if(PCB::running->semDeleted) { // ako se vratio kontekst, a semafor je obrisan
 252              		.loc 2 38 5 is_stmt 1
 253              		.loc 2 38 22 is_stmt 0
 254 00d0 97070000 		la	a5,_ZN3PCB7runningE
 254      83B70700 
 255 00d8 83B70700 		ld	a5,0(a5)
 256 00dc 83C7A702 		lbu	a5,42(a5)
 257              		.loc 2 38 5
 258 00e0 63940706 		bnez	a5,.L21
  39:src/SCB.cpp   ****         return -2;
  40:src/SCB.cpp   ****     }
  41:src/SCB.cpp   **** 
  42:src/SCB.cpp   ****     return 0;
 259              		.loc 2 42 12
 260 00e4 13050000 		li	a0,0
 261              	.LVL20:
 262 00e8 67800000 		ret
 263              	.LVL21:
 264              	.L26:
  31:src/SCB.cpp   ****     if((int)(--semValue)<0) {
 265              		.loc 2 31 17
 266 00ec 130101FF 		addi	sp,sp,-16
 267              		.cfi_def_cfa_offset 16
 268 00f0 23341100 		sd	ra,8(sp)
 269 00f4 23308100 		sd	s0,0(sp)
 270              		.cfi_offset 1, -8
 271              		.cfi_offset 8, -16
 272 00f8 13040101 		addi	s0,sp,16
 273              		.cfi_def_cfa 8, 0
  33:src/SCB.cpp   ****         block();
 274              		.loc 2 33 9 is_stmt 1
GAS LISTING /tmp/ccL1hJir.s 			page 8


  33:src/SCB.cpp   ****         block();
 275              		.loc 2 33 14 is_stmt 0
 276 00fc 97000000 		call	_ZN3SCB5blockEv
 276      E7800000 
 277              	.LVL22:
  34:src/SCB.cpp   ****         PCB::dispatch();
 278              		.loc 2 34 9 is_stmt 1
  34:src/SCB.cpp   ****         PCB::dispatch();
 279              		.loc 2 34 31 is_stmt 0
 280 0104 97070000 		la	a5,_ZN3PCB16timeSliceCounterE
 280      83B70700 
 281 010c 23B00700 		sd	zero,0(a5)
  35:src/SCB.cpp   ****     }
 282              		.loc 2 35 9 is_stmt 1
  35:src/SCB.cpp   ****     }
 283              		.loc 2 35 22 is_stmt 0
 284 0110 97000000 		call	_ZN3PCB8dispatchEv@plt
 284      E7800000 
 285              	.LVL23:
  38:src/SCB.cpp   ****         return -2;
 286              		.loc 2 38 5 is_stmt 1
  38:src/SCB.cpp   ****         return -2;
 287              		.loc 2 38 22 is_stmt 0
 288 0118 97070000 		la	a5,_ZN3PCB7runningE
 288      83B70700 
 289 0120 83B70700 		ld	a5,0(a5)
 290 0124 83C7A702 		lbu	a5,42(a5)
  38:src/SCB.cpp   ****         return -2;
 291              		.loc 2 38 5
 292 0128 639C0700 		bnez	a5,.L18
 293              		.loc 2 42 12
 294 012c 13050000 		li	a0,0
 295              	.L17:
  43:src/SCB.cpp   **** 
  44:src/SCB.cpp   **** }
 296              		.loc 2 44 1
 297 0130 83308100 		ld	ra,8(sp)
 298              		.cfi_remember_state
 299              		.cfi_restore 1
 300 0134 03340100 		ld	s0,0(sp)
 301              		.cfi_restore 8
 302              		.cfi_def_cfa 2, 16
 303 0138 13010101 		addi	sp,sp,16
 304              		.cfi_def_cfa_offset 0
 305 013c 67800000 		jr	ra
 306              	.L18:
 307              		.cfi_restore_state
  39:src/SCB.cpp   ****     }
 308              		.loc 2 39 17
 309 0140 1305E0FF 		li	a0,-2
 310 0144 6FF0DFFE 		j	.L17
 311              	.LVL24:
 312              	.L21:
 313              		.cfi_def_cfa_register 2
 314              		.cfi_restore 1
 315              		.cfi_restore 8
 316 0148 1305E0FF 		li	a0,-2
GAS LISTING /tmp/ccL1hJir.s 			page 9


 317              	.LVL25:
 318              		.loc 2 44 1
 319 014c 67800000 		ret
 320              		.cfi_endproc
 321              	.LFE46:
 323              		.align	2
 324              		.globl	_ZN3SCB6signalEv
 326              	_ZN3SCB6signalEv:
 327              	.LFB47:
  45:src/SCB.cpp   **** 
  46:src/SCB.cpp   **** void SCB::signal() {
 328              		.loc 2 46 20 is_stmt 1
 329              		.cfi_startproc
 330              	.LVL26:
  47:src/SCB.cpp   ****     if((int)(++semValue)<=0) {
 331              		.loc 2 47 5
 332              		.loc 2 47 16 is_stmt 0
 333 0150 83270501 		lw	a5,16(a0)
 334              		.loc 2 47 14
 335 0154 9B871700 		addiw	a5,a5,1
 336 0158 1B870700 		sext.w	a4,a5
 337              		.loc 2 47 25
 338 015c 2328F500 		sw	a5,16(a0)
 339              		.loc 2 47 5
 340 0160 6354E000 		blez	a4,.L33
 341 0164 67800000 		ret
 342              	.L33:
  46:src/SCB.cpp   ****     if((int)(++semValue)<=0) {
 343              		.loc 2 46 20
 344 0168 130101FF 		addi	sp,sp,-16
 345              		.cfi_def_cfa_offset 16
 346 016c 23341100 		sd	ra,8(sp)
 347 0170 23308100 		sd	s0,0(sp)
 348              		.cfi_offset 1, -8
 349              		.cfi_offset 8, -16
 350 0174 13040101 		addi	s0,sp,16
 351              		.cfi_def_cfa 8, 0
  48:src/SCB.cpp   ****         Scheduler::put(unblock());
 352              		.loc 2 48 9 is_stmt 1
 353              		.loc 2 48 23 is_stmt 0
 354 0178 97000000 		call	_ZN3SCB7unblockEv
 354      E7800000 
 355              	.LVL27:
 356 0180 97000000 		call	_ZN9Scheduler3putEP3PCB@plt
 356      E7800000 
 357              	.LVL28:
  49:src/SCB.cpp   ****     }
  50:src/SCB.cpp   **** 
  51:src/SCB.cpp   **** }
 358              		.loc 2 51 1
 359 0188 83308100 		ld	ra,8(sp)
 360              		.cfi_restore 1
 361 018c 03340100 		ld	s0,0(sp)
 362              		.cfi_restore 8
 363              		.cfi_def_cfa 2, 16
 364 0190 13010101 		addi	sp,sp,16
 365              		.cfi_def_cfa_offset 0
GAS LISTING /tmp/ccL1hJir.s 			page 10


 366 0194 67800000 		jr	ra
 367              		.cfi_endproc
 368              	.LFE47:
 370              		.align	2
 371              		.globl	_ZN3SCB14prioritySignalEv
 373              	_ZN3SCB14prioritySignalEv:
 374              	.LFB48:
  52:src/SCB.cpp   **** 
  53:src/SCB.cpp   **** void SCB::prioritySignal() {
 375              		.loc 2 53 28 is_stmt 1
 376              		.cfi_startproc
 377              	.LVL29:
  54:src/SCB.cpp   ****     if((int)(++semValue)<=0) {
 378              		.loc 2 54 5
 379              		.loc 2 54 16 is_stmt 0
 380 0198 83270501 		lw	a5,16(a0)
 381              		.loc 2 54 14
 382 019c 9B871700 		addiw	a5,a5,1
 383 01a0 1B870700 		sext.w	a4,a5
 384              		.loc 2 54 25
 385 01a4 2328F500 		sw	a5,16(a0)
 386              		.loc 2 54 5
 387 01a8 6354E000 		blez	a4,.L40
 388 01ac 67800000 		ret
 389              	.L40:
  53:src/SCB.cpp   ****     if((int)(++semValue)<=0) {
 390              		.loc 2 53 28
 391 01b0 130101FF 		addi	sp,sp,-16
 392              		.cfi_def_cfa_offset 16
 393 01b4 23341100 		sd	ra,8(sp)
 394 01b8 23308100 		sd	s0,0(sp)
 395              		.cfi_offset 1, -8
 396              		.cfi_offset 8, -16
 397 01bc 13040101 		addi	s0,sp,16
 398              		.cfi_def_cfa 8, 0
  55:src/SCB.cpp   ****         Scheduler::putInFront(unblock());
 399              		.loc 2 55 9 is_stmt 1
 400              		.loc 2 55 30 is_stmt 0
 401 01c0 97000000 		call	_ZN3SCB7unblockEv
 401      E7800000 
 402              	.LVL30:
 403 01c8 97000000 		call	_ZN9Scheduler10putInFrontEP3PCB@plt
 403      E7800000 
 404              	.LVL31:
  56:src/SCB.cpp   ****     }
  57:src/SCB.cpp   **** }
 405              		.loc 2 57 1
 406 01d0 83308100 		ld	ra,8(sp)
 407              		.cfi_restore 1
 408 01d4 03340100 		ld	s0,0(sp)
 409              		.cfi_restore 8
 410              		.cfi_def_cfa 2, 16
 411 01d8 13010101 		addi	sp,sp,16
 412              		.cfi_def_cfa_offset 0
 413 01dc 67800000 		jr	ra
 414              		.cfi_endproc
 415              	.LFE48:
GAS LISTING /tmp/ccL1hJir.s 			page 11


 417              		.align	2
 418              		.globl	_ZN3SCBnwEm
 420              	_ZN3SCBnwEm:
 421              	.LFB49:
  58:src/SCB.cpp   **** 
  59:src/SCB.cpp   **** void *SCB::operator new(size_t size) {
 422              		.loc 2 59 38 is_stmt 1
 423              		.cfi_startproc
 424              	.LVL32:
 425 01e0 130101FF 		addi	sp,sp,-16
 426              		.cfi_def_cfa_offset 16
 427 01e4 23341100 		sd	ra,8(sp)
 428 01e8 23308100 		sd	s0,0(sp)
 429              		.cfi_offset 1, -8
 430              		.cfi_offset 8, -16
 431 01ec 13040101 		addi	s0,sp,16
 432              		.cfi_def_cfa 8, 0
  60:src/SCB.cpp   ****     return MemoryAllocator::mem_alloc(size);
 433              		.loc 2 60 5
 434              		.loc 2 60 38 is_stmt 0
 435 01f0 97000000 		call	_ZN15MemoryAllocator9mem_allocEm@plt
 435      E7800000 
 436              	.LVL33:
  61:src/SCB.cpp   **** }
 437              		.loc 2 61 1
 438 01f8 83308100 		ld	ra,8(sp)
 439              		.cfi_restore 1
 440 01fc 03340100 		ld	s0,0(sp)
 441              		.cfi_restore 8
 442              		.cfi_def_cfa 2, 16
 443 0200 13010101 		addi	sp,sp,16
 444              		.cfi_def_cfa_offset 0
 445 0204 67800000 		jr	ra
 446              		.cfi_endproc
 447              	.LFE49:
 449              		.align	2
 450              		.globl	_ZN3SCBdlEPv
 452              	_ZN3SCBdlEPv:
 453              	.LFB50:
  62:src/SCB.cpp   **** 
  63:src/SCB.cpp   **** void SCB::operator delete(void *memSegment) {
 454              		.loc 2 63 45 is_stmt 1
 455              		.cfi_startproc
 456              	.LVL34:
 457 0208 130101FF 		addi	sp,sp,-16
 458              		.cfi_def_cfa_offset 16
 459 020c 23341100 		sd	ra,8(sp)
 460 0210 23308100 		sd	s0,0(sp)
 461              		.cfi_offset 1, -8
 462              		.cfi_offset 8, -16
 463 0214 13040101 		addi	s0,sp,16
 464              		.cfi_def_cfa 8, 0
  64:src/SCB.cpp   ****     MemoryAllocator::mem_free(memSegment);
 465              		.loc 2 64 5
 466              		.loc 2 64 30 is_stmt 0
 467 0218 97000000 		call	_ZN15MemoryAllocator8mem_freeEPv@plt
 467      E7800000 
GAS LISTING /tmp/ccL1hJir.s 			page 12


 468              	.LVL35:
  65:src/SCB.cpp   **** }
 469              		.loc 2 65 1
 470 0220 83308100 		ld	ra,8(sp)
 471              		.cfi_restore 1
 472 0224 03340100 		ld	s0,0(sp)
 473              		.cfi_restore 8
 474              		.cfi_def_cfa 2, 16
 475 0228 13010101 		addi	sp,sp,16
 476              		.cfi_def_cfa_offset 0
 477 022c 67800000 		jr	ra
 478              		.cfi_endproc
 479              	.LFE50:
 481              		.align	2
 482              		.globl	_ZN3SCB13signalClosingEv
 484              	_ZN3SCB13signalClosingEv:
 485              	.LFB51:
  66:src/SCB.cpp   **** 
  67:src/SCB.cpp   **** void SCB::signalClosing() {
 486              		.loc 2 67 27 is_stmt 1
 487              		.cfi_startproc
 488              	.LVL36:
 489 0230 130101FE 		addi	sp,sp,-32
 490              		.cfi_def_cfa_offset 32
 491 0234 233C1100 		sd	ra,24(sp)
 492 0238 23388100 		sd	s0,16(sp)
 493 023c 23349100 		sd	s1,8(sp)
 494 0240 23302101 		sd	s2,0(sp)
 495              		.cfi_offset 1, -8
 496              		.cfi_offset 8, -16
 497              		.cfi_offset 9, -24
 498              		.cfi_offset 18, -32
 499 0244 13040102 		addi	s0,sp,32
 500              		.cfi_def_cfa 8, 0
 501 0248 13090500 		mv	s2,a0
  68:src/SCB.cpp   ****     PCB* curr = head;
 502              		.loc 2 68 5
 503              		.loc 2 68 10 is_stmt 0
 504 024c 03350500 		ld	a0,0(a0)
 505              	.LVL37:
 506              	.L47:
  69:src/SCB.cpp   ****     while(curr) {
 507              		.loc 2 69 5 is_stmt 1
 508              		.loc 2 69 11
 509 0250 63020502 		beqz	a0,.L46
 510              	.LBB40:
  70:src/SCB.cpp   ****         PCB* last = curr;
 511              		.loc 2 70 9
 512              	.LVL38:
  71:src/SCB.cpp   ****         curr->setSemDeleted(true);
 513              		.loc 2 71 9
 514              	.LBB41:
 515              	.LBB42:
  42:src/../h/PCB.h ****     }
  43:src/../h/PCB.h **** 
  44:src/../h/PCB.h ****     void setSemDeleted(bool newState) {
  45:src/../h/PCB.h ****         semDeleted = newState;
GAS LISTING /tmp/ccL1hJir.s 			page 13


 516              		.loc 3 45 9
 517              		.loc 3 45 20 is_stmt 0
 518 0254 93071000 		li	a5,1
 519 0258 2305F502 		sb	a5,42(a0)
 520              	.LVL39:
 521              	.LBE42:
 522              	.LBE41:
  72:src/SCB.cpp   ****         curr->setBlocked(false);
 523              		.loc 2 72 9 is_stmt 1
 524              	.LBB43:
 525              	.LBB44:
  41:src/../h/PCB.h ****     }
 526              		.loc 3 41 9
  41:src/../h/PCB.h ****     }
 527              		.loc 3 41 17 is_stmt 0
 528 025c A3040502 		sb	zero,41(a0)
 529              	.LVL40:
 530              	.LBE44:
 531              	.LBE43:
  73:src/SCB.cpp   ****         curr = curr->getNextInList();
 532              		.loc 2 73 9 is_stmt 1
 533              	.LBB45:
 534              	.LBB46:
  33:src/../h/PCB.h ****     }
 535              		.loc 3 33 9
  33:src/../h/PCB.h ****     }
 536              		.loc 3 33 16 is_stmt 0
 537 0260 83340500 		ld	s1,0(a0)
 538              	.LVL41:
 539              	.LBE46:
 540              	.LBE45:
  74:src/SCB.cpp   ****         Scheduler::put(last);
 541              		.loc 2 74 9 is_stmt 1
 542              		.loc 2 74 23 is_stmt 0
 543 0264 97000000 		call	_ZN9Scheduler3putEP3PCB@plt
 543      E7800000 
 544              	.LVL42:
  73:src/SCB.cpp   ****         curr = curr->getNextInList();
 545              		.loc 2 73 35
 546 026c 13850400 		mv	a0,s1
 547              	.LBE40:
  69:src/SCB.cpp   ****         PCB* last = curr;
 548              		.loc 2 69 5
 549 0270 6FF01FFE 		j	.L47
 550              	.LVL43:
 551              	.L46:
  75:src/SCB.cpp   ****     }
  76:src/SCB.cpp   ****     head = tail = nullptr;
 552              		.loc 2 76 5 is_stmt 1
 553              		.loc 2 76 17 is_stmt 0
 554 0274 23340900 		sd	zero,8(s2)
 555              		.loc 2 76 10
 556 0278 23300900 		sd	zero,0(s2)
  77:src/SCB.cpp   **** }
 557              		.loc 2 77 1
 558 027c 83308101 		ld	ra,24(sp)
 559              		.cfi_restore 1
GAS LISTING /tmp/ccL1hJir.s 			page 14


 560 0280 03340101 		ld	s0,16(sp)
 561              		.cfi_restore 8
 562              		.cfi_def_cfa 2, 32
 563 0284 83348100 		ld	s1,8(sp)
 564              		.cfi_restore 9
 565 0288 03390100 		ld	s2,0(sp)
 566              		.cfi_restore 18
 567              	.LVL44:
 568 028c 13010102 		addi	sp,sp,32
 569              		.cfi_def_cfa_offset 0
 570 0290 67800000 		jr	ra
 571              		.cfi_endproc
 572              	.LFE51:
 574              		.align	2
 575              		.globl	_ZN3SCB15createSemaphoreEi
 577              	_ZN3SCB15createSemaphoreEi:
 578              	.LFB53:
  78:src/SCB.cpp   **** 
  79:src/SCB.cpp   **** SCB *SCB::createSysSemaphore(int semValue) {
  80:src/SCB.cpp   ****     if(!scbCache) initSCBCache();
  81:src/SCB.cpp   ****     SCB* object = (SCB*) kmem_cache_alloc(scbCache);
  82:src/SCB.cpp   ****     object->scbInit(semValue);
  83:src/SCB.cpp   ****     return object;
  84:src/SCB.cpp   **** }
  85:src/SCB.cpp   **** 
  86:src/SCB.cpp   **** SCB *SCB::createSemaphore(int semValue) {
 579              		.loc 2 86 41 is_stmt 1
 580              		.cfi_startproc
 581              	.LVL45:
 582 0294 130101FE 		addi	sp,sp,-32
 583              		.cfi_def_cfa_offset 32
 584 0298 233C1100 		sd	ra,24(sp)
 585 029c 23388100 		sd	s0,16(sp)
 586 02a0 23349100 		sd	s1,8(sp)
 587              		.cfi_offset 1, -8
 588              		.cfi_offset 8, -16
 589              		.cfi_offset 9, -24
 590 02a4 13040102 		addi	s0,sp,32
 591              		.cfi_def_cfa 8, 0
 592 02a8 93040500 		mv	s1,a0
  87:src/SCB.cpp   ****     return new SCB(semValue);
 593              		.loc 2 87 5
 594              		.loc 2 87 28 is_stmt 0
 595 02ac 13058001 		li	a0,24
 596              	.LVL46:
 597 02b0 97000000 		call	_ZN3SCBnwEm
 597      E7800000 
 598              	.LVL47:
 599 02b8 63080500 		beqz	a0,.L49
 600              	.LVL48:
 601              	.LBB47:
 602              	.LBB48:
  34:src/../h/SCB.h ****     static kmem_cache_t* scbCache;//TODO private
  35:src/../h/SCB.h ****     static void initSCBCache();
  36:src/../h/SCB.h **** private:
  37:src/../h/SCB.h **** 
  38:src/../h/SCB.h ****     void scbInit(int semValue);
GAS LISTING /tmp/ccL1hJir.s 			page 15


  39:src/../h/SCB.h ****     SCB(int semValue_ = 1) {
 603              		.loc 1 39 28
 604 02bc 23300500 		sd	zero,0(a0)
 605 02c0 23340500 		sd	zero,8(a0)
  40:src/../h/SCB.h ****         semValue = semValue_;
 606              		.loc 1 40 9 is_stmt 1
 607              		.loc 1 40 18 is_stmt 0
 608 02c4 23289500 		sw	s1,16(a0)
 609              	.LVL49:
 610              	.L49:
 611              	.LBE48:
 612              	.LBE47:
  88:src/SCB.cpp   **** }
 613              		.loc 2 88 1
 614 02c8 83308101 		ld	ra,24(sp)
 615              		.cfi_restore 1
 616 02cc 03340101 		ld	s0,16(sp)
 617              		.cfi_restore 8
 618              		.cfi_def_cfa 2, 32
 619 02d0 83348100 		ld	s1,8(sp)
 620              		.cfi_restore 9
 621 02d4 13010102 		addi	sp,sp,32
 622              		.cfi_def_cfa_offset 0
 623 02d8 67800000 		jr	ra
 624              		.cfi_endproc
 625              	.LFE53:
 627              		.align	2
 628              		.globl	_ZN3SCB7scbInitEi
 630              	_ZN3SCB7scbInitEi:
 631              	.LFB54:
  89:src/SCB.cpp   **** 
  90:src/SCB.cpp   **** void SCB::scbInit(int semValue_) {
 632              		.loc 2 90 34 is_stmt 1
 633              		.cfi_startproc
 634              	.LVL50:
 635 02dc 130101FF 		addi	sp,sp,-16
 636              		.cfi_def_cfa_offset 16
 637 02e0 23348100 		sd	s0,8(sp)
 638              		.cfi_offset 8, -8
 639 02e4 13040101 		addi	s0,sp,16
 640              		.cfi_def_cfa 8, 0
  91:src/SCB.cpp   ****     head = tail = nullptr;
 641              		.loc 2 91 5
 642              		.loc 2 91 17 is_stmt 0
 643 02e8 23340500 		sd	zero,8(a0)
 644              		.loc 2 91 10
 645 02ec 23300500 		sd	zero,0(a0)
  92:src/SCB.cpp   ****     semValue = semValue_;
 646              		.loc 2 92 5 is_stmt 1
 647              		.loc 2 92 14 is_stmt 0
 648 02f0 2328B500 		sw	a1,16(a0)
  93:src/SCB.cpp   **** }
 649              		.loc 2 93 1
 650 02f4 03348100 		ld	s0,8(sp)
 651              		.cfi_restore 8
 652              		.cfi_def_cfa 2, 16
 653 02f8 13010101 		addi	sp,sp,16
GAS LISTING /tmp/ccL1hJir.s 			page 16


 654              		.cfi_def_cfa_offset 0
 655 02fc 67800000 		jr	ra
 656              		.cfi_endproc
 657              	.LFE54:
 659              		.section	.rodata.str1.8,"aMS",@progbits,1
 660              		.align	3
 661              	.LC0:
 662 0000 53434200 		.string	"SCB"
 663              		.text
 664              		.align	2
 665              		.globl	_ZN3SCB12initSCBCacheEv
 667              	_ZN3SCB12initSCBCacheEv:
 668              	.LFB55:
  94:src/SCB.cpp   **** 
  95:src/SCB.cpp   **** void SCB::initSCBCache() {
 669              		.loc 2 95 26 is_stmt 1
 670              		.cfi_startproc
 671 0300 130101FF 		addi	sp,sp,-16
 672              		.cfi_def_cfa_offset 16
 673 0304 23341100 		sd	ra,8(sp)
 674 0308 23308100 		sd	s0,0(sp)
 675              		.cfi_offset 1, -8
 676              		.cfi_offset 8, -16
 677 030c 13040101 		addi	s0,sp,16
 678              		.cfi_def_cfa 8, 0
  96:src/SCB.cpp   ****     scbCache = kmem_cache_create("SCB", sizeof(SCB), &createObject, &freeObject);
 679              		.loc 2 96 5
 680              		.loc 2 96 33 is_stmt 0
 681 0310 97060000 		lla	a3,_ZN3SCB10freeObjectEPv
 681      93860600 
 682 0318 17060000 		lla	a2,_ZN3SCB12createObjectEPv
 682      13060600 
 683 0320 93058001 		li	a1,24
 684 0324 17050000 		lla	a0,.LC0
 684      13050500 
 685 032c 97000000 		call	_Z17kmem_cache_createPKcmPFvPvES3_@plt
 685      E7800000 
 686              	.LVL51:
 687              		.loc 2 96 14
 688 0334 97070000 		sd	a0,.LANCHOR0,a5
 688      23B0A700 
  97:src/SCB.cpp   **** }
 689              		.loc 2 97 1
 690 033c 83308100 		ld	ra,8(sp)
 691              		.cfi_restore 1
 692 0340 03340100 		ld	s0,0(sp)
 693              		.cfi_restore 8
 694              		.cfi_def_cfa 2, 16
 695 0344 13010101 		addi	sp,sp,16
 696              		.cfi_def_cfa_offset 0
 697 0348 67800000 		jr	ra
 698              		.cfi_endproc
 699              	.LFE55:
 701              		.align	2
 702              		.globl	_ZN3SCB18createSysSemaphoreEi
 704              	_ZN3SCB18createSysSemaphoreEi:
 705              	.LFB52:
GAS LISTING /tmp/ccL1hJir.s 			page 17


  79:src/SCB.cpp   ****     if(!scbCache) initSCBCache();
 706              		.loc 2 79 44 is_stmt 1
 707              		.cfi_startproc
 708              	.LVL52:
 709 034c 130101FE 		addi	sp,sp,-32
 710              		.cfi_def_cfa_offset 32
 711 0350 233C1100 		sd	ra,24(sp)
 712 0354 23388100 		sd	s0,16(sp)
 713 0358 23349100 		sd	s1,8(sp)
 714 035c 23302101 		sd	s2,0(sp)
 715              		.cfi_offset 1, -8
 716              		.cfi_offset 8, -16
 717              		.cfi_offset 9, -24
 718              		.cfi_offset 18, -32
 719 0360 13040102 		addi	s0,sp,32
 720              		.cfi_def_cfa 8, 0
 721 0364 13090500 		mv	s2,a0
  80:src/SCB.cpp   ****     SCB* object = (SCB*) kmem_cache_alloc(scbCache);
 722              		.loc 2 80 5
  80:src/SCB.cpp   ****     SCB* object = (SCB*) kmem_cache_alloc(scbCache);
 723              		.loc 2 80 8 is_stmt 0
 724 0368 97070000 		ld	a5,.LANCHOR0
 724      83B70700 
  80:src/SCB.cpp   ****     SCB* object = (SCB*) kmem_cache_alloc(scbCache);
 725              		.loc 2 80 5
 726 0370 63800704 		beqz	a5,.L59
 727              	.LVL53:
 728              	.L57:
  81:src/SCB.cpp   ****     object->scbInit(semValue);
 729              		.loc 2 81 5 is_stmt 1
  81:src/SCB.cpp   ****     object->scbInit(semValue);
 730              		.loc 2 81 42 is_stmt 0
 731 0374 17050000 		ld	a0,.LANCHOR0
 731      03350500 
 732 037c 97000000 		call	_Z16kmem_cache_allocP12kmem_cache_s@plt
 732      E7800000 
 733              	.LVL54:
 734 0384 93040500 		mv	s1,a0
 735              	.LVL55:
  82:src/SCB.cpp   ****     return object;
 736              		.loc 2 82 5 is_stmt 1
  82:src/SCB.cpp   ****     return object;
 737              		.loc 2 82 20 is_stmt 0
 738 0388 93050900 		mv	a1,s2
 739 038c 97000000 		call	_ZN3SCB7scbInitEi
 739      E7800000 
 740              	.LVL56:
  83:src/SCB.cpp   **** }
 741              		.loc 2 83 5 is_stmt 1
  84:src/SCB.cpp   **** 
 742              		.loc 2 84 1 is_stmt 0
 743 0394 13850400 		mv	a0,s1
 744 0398 83308101 		ld	ra,24(sp)
 745              		.cfi_remember_state
 746              		.cfi_restore 1
 747 039c 03340101 		ld	s0,16(sp)
 748              		.cfi_restore 8
GAS LISTING /tmp/ccL1hJir.s 			page 18


 749              		.cfi_def_cfa 2, 32
 750 03a0 83348100 		ld	s1,8(sp)
 751              		.cfi_restore 9
 752              	.LVL57:
 753 03a4 03390100 		ld	s2,0(sp)
 754              		.cfi_restore 18
 755 03a8 13010102 		addi	sp,sp,32
 756              		.cfi_def_cfa_offset 0
 757 03ac 67800000 		jr	ra
 758              	.LVL58:
 759              	.L59:
 760              		.cfi_restore_state
  80:src/SCB.cpp   ****     SCB* object = (SCB*) kmem_cache_alloc(scbCache);
 761              		.loc 2 80 19 is_stmt 1 discriminator 1
  80:src/SCB.cpp   ****     SCB* object = (SCB*) kmem_cache_alloc(scbCache);
 762              		.loc 2 80 31 is_stmt 0 discriminator 1
 763 03b0 97000000 		call	_ZN3SCB12initSCBCacheEv
 763      E7800000 
 764              	.LVL59:
 765 03b8 6FF0DFFB 		j	.L57
 766              		.cfi_endproc
 767              	.LFE52:
 769              		.globl	_ZN3SCB8scbCacheE
 770              		.bss
 771              		.align	3
 772              		.set	.LANCHOR0,. + 0
 775              	_ZN3SCB8scbCacheE:
 776 0000 00000000 		.zero	8
 776      00000000 
 777              		.text
 778              	.Letext0:
 779              		.file 4 "src/../h/hw.h"
 780              		.file 5 "src/../h/slab.h"
 781              		.file 6 "src/../h/Scheduler.h"
 782              		.file 7 "src/../h/MemoryAllocator.h"
GAS LISTING /tmp/ccL1hJir.s 			page 19


DEFINED SYMBOLS
                            *ABS*:0000000000000000 SCB.cpp
     /tmp/ccL1hJir.s:10     .text._ZN3SCB12createObjectEPv:0000000000000000 _ZN3SCB12createObjectEPv
     /tmp/ccL1hJir.s:14     .text._ZN3SCB12createObjectEPv:0000000000000000 .L0 
     /tmp/ccL1hJir.s:16     .text._ZN3SCB12createObjectEPv:0000000000000000 .L0 
     /tmp/ccL1hJir.s:17     .text._ZN3SCB12createObjectEPv:0000000000000004 .L0 
     /tmp/ccL1hJir.s:19     .text._ZN3SCB12createObjectEPv:0000000000000008 .L0 
     /tmp/ccL1hJir.s:21     .text._ZN3SCB12createObjectEPv:000000000000000c .L0 
     /tmp/ccL1hJir.s:23     .text._ZN3SCB12createObjectEPv:000000000000000c .L0 
     /tmp/ccL1hJir.s:24     .text._ZN3SCB12createObjectEPv:0000000000000010 .L0 
     /tmp/ccL1hJir.s:25     .text._ZN3SCB12createObjectEPv:0000000000000010 .L0 
     /tmp/ccL1hJir.s:27     .text._ZN3SCB12createObjectEPv:0000000000000014 .L0 
     /tmp/ccL1hJir.s:29     .text._ZN3SCB12createObjectEPv:0000000000000018 .L0 
     /tmp/ccL1hJir.s:36     .text._ZN3SCB10freeObjectEPv:0000000000000000 _ZN3SCB10freeObjectEPv
     /tmp/ccL1hJir.s:39     .text._ZN3SCB10freeObjectEPv:0000000000000000 .L0 
     /tmp/ccL1hJir.s:41     .text._ZN3SCB10freeObjectEPv:0000000000000000 .L0 
     /tmp/ccL1hJir.s:42     .text._ZN3SCB10freeObjectEPv:0000000000000004 .L0 
     /tmp/ccL1hJir.s:44     .text._ZN3SCB10freeObjectEPv:0000000000000008 .L0 
     /tmp/ccL1hJir.s:46     .text._ZN3SCB10freeObjectEPv:000000000000000c .L0 
     /tmp/ccL1hJir.s:48     .text._ZN3SCB10freeObjectEPv:000000000000000c .L0 
     /tmp/ccL1hJir.s:49     .text._ZN3SCB10freeObjectEPv:0000000000000010 .L0 
     /tmp/ccL1hJir.s:50     .text._ZN3SCB10freeObjectEPv:0000000000000010 .L0 
     /tmp/ccL1hJir.s:52     .text._ZN3SCB10freeObjectEPv:0000000000000014 .L0 
     /tmp/ccL1hJir.s:54     .text._ZN3SCB10freeObjectEPv:0000000000000018 .L0 
     /tmp/ccL1hJir.s:61     .text:0000000000000000 _ZN3SCB5blockEv
     /tmp/ccL1hJir.s:65     .text:0000000000000000 .L0 
     /tmp/ccL1hJir.s:67     .text:0000000000000000 .L0 
     /tmp/ccL1hJir.s:68     .text:0000000000000004 .L0 
     /tmp/ccL1hJir.s:70     .text:0000000000000008 .L0 
     /tmp/ccL1hJir.s:72     .text:000000000000000c .L0 
     /tmp/ccL1hJir.s:74     .text:000000000000000c .L0 
     /tmp/ccL1hJir.s:75     .text:000000000000000c .L0 
     /tmp/ccL1hJir.s:82     .text:0000000000000018 .L0 
     /tmp/ccL1hJir.s:83     .text:0000000000000018 .L0 
     /tmp/ccL1hJir.s:88     .text:000000000000001c .L0 
     /tmp/ccL1hJir.s:89     .text:000000000000001c .L0 
     /tmp/ccL1hJir.s:91     .text:0000000000000020 .L0 
     /tmp/ccL1hJir.s:93     .text:0000000000000024 .L0 
     /tmp/ccL1hJir.s:94     .text:0000000000000024 .L0 
     /tmp/ccL1hJir.s:100    .text:0000000000000030 .L0 
     /tmp/ccL1hJir.s:101    .text:0000000000000030 .L0 
     /tmp/ccL1hJir.s:106    .text:0000000000000034 .L0 
     /tmp/ccL1hJir.s:107    .text:0000000000000034 .L0 
     /tmp/ccL1hJir.s:112    .text:0000000000000038 .L0 
     /tmp/ccL1hJir.s:113    .text:0000000000000038 .L0 
     /tmp/ccL1hJir.s:118    .text:000000000000003c .L0 
     /tmp/ccL1hJir.s:121    .text:0000000000000040 .L0 
     /tmp/ccL1hJir.s:122    .text:0000000000000040 .L0 
     /tmp/ccL1hJir.s:128    .text:000000000000004c .L0 
     /tmp/ccL1hJir.s:129    .text:000000000000004c .L0 
     /tmp/ccL1hJir.s:135    .text:0000000000000054 .L0 
     /tmp/ccL1hJir.s:136    .text:0000000000000058 .L0 
     /tmp/ccL1hJir.s:137    .text:0000000000000058 .L0 
     /tmp/ccL1hJir.s:138    .text:0000000000000058 .L0 
     /tmp/ccL1hJir.s:140    .text:000000000000005c .L0 
     /tmp/ccL1hJir.s:143    .text:0000000000000060 .L0 
     /tmp/ccL1hJir.s:145    .text:0000000000000060 .L0 
GAS LISTING /tmp/ccL1hJir.s 			page 20


     /tmp/ccL1hJir.s:146    .text:0000000000000060 .L0 
     /tmp/ccL1hJir.s:150    .text:0000000000000070 .L0 
     /tmp/ccL1hJir.s:152    .text:0000000000000078 .L0 
     /tmp/ccL1hJir.s:158    .text:0000000000000078 _ZN3SCB7unblockEv
     /tmp/ccL1hJir.s:161    .text:0000000000000078 .L0 
     /tmp/ccL1hJir.s:163    .text:0000000000000078 .L0 
     /tmp/ccL1hJir.s:164    .text:000000000000007c .L0 
     /tmp/ccL1hJir.s:166    .text:0000000000000080 .L0 
     /tmp/ccL1hJir.s:168    .text:0000000000000084 .L0 
     /tmp/ccL1hJir.s:171    .text:0000000000000088 .L0 
     /tmp/ccL1hJir.s:172    .text:0000000000000088 .L0 
     /tmp/ccL1hJir.s:175    .text:000000000000008c .L0 
     /tmp/ccL1hJir.s:178    .text:0000000000000090 .L0 
     /tmp/ccL1hJir.s:181    .text:0000000000000090 .L0 
     /tmp/ccL1hJir.s:182    .text:0000000000000090 .L0 
     /tmp/ccL1hJir.s:183    .text:0000000000000090 .L0 
     /tmp/ccL1hJir.s:188    .text:0000000000000094 .L0 
     /tmp/ccL1hJir.s:190    .text:0000000000000098 .L0 
     /tmp/ccL1hJir.s:191    .text:0000000000000098 .L0 
     /tmp/ccL1hJir.s:193    .text:000000000000009c .L0 
     /tmp/ccL1hJir.s:199    .text:00000000000000a0 .L0 
     /tmp/ccL1hJir.s:200    .text:00000000000000a0 .L0 
     /tmp/ccL1hJir.s:201    .text:00000000000000a0 .L0 
     /tmp/ccL1hJir.s:208    .text:00000000000000a4 .L0 
     /tmp/ccL1hJir.s:209    .text:00000000000000a4 .L0 
     /tmp/ccL1hJir.s:210    .text:00000000000000a4 .L0 
     /tmp/ccL1hJir.s:216    .text:00000000000000a8 .L0 
     /tmp/ccL1hJir.s:217    .text:00000000000000a8 .L0 
     /tmp/ccL1hJir.s:218    .text:00000000000000ac .L0 
     /tmp/ccL1hJir.s:219    .text:00000000000000ac .L0 
     /tmp/ccL1hJir.s:220    .text:00000000000000ac .L0 
     /tmp/ccL1hJir.s:222    .text:00000000000000b0 .L0 
     /tmp/ccL1hJir.s:226    .text:00000000000000b4 .L0 
     /tmp/ccL1hJir.s:228    .text:00000000000000b4 .L0 
     /tmp/ccL1hJir.s:229    .text:00000000000000b4 .L0 
     /tmp/ccL1hJir.s:231    .text:00000000000000bc .L0 
     /tmp/ccL1hJir.s:237    .text:00000000000000bc _ZN3SCB4waitEv
     /tmp/ccL1hJir.s:240    .text:00000000000000bc .L0 
     /tmp/ccL1hJir.s:242    .text:00000000000000bc .L0 
     /tmp/ccL1hJir.s:243    .text:00000000000000bc .L0 
     /tmp/ccL1hJir.s:244    .text:00000000000000bc .L0 
     /tmp/ccL1hJir.s:246    .text:00000000000000c0 .L0 
     /tmp/ccL1hJir.s:248    .text:00000000000000c4 .L0 
     /tmp/ccL1hJir.s:250    .text:00000000000000c8 .L0 
     /tmp/ccL1hJir.s:253    .text:00000000000000d0 .L0 
     /tmp/ccL1hJir.s:254    .text:00000000000000d0 .L0 
     /tmp/ccL1hJir.s:258    .text:00000000000000e0 .L0 
     /tmp/ccL1hJir.s:260    .text:00000000000000e4 .L0 
     /tmp/ccL1hJir.s:266    .text:00000000000000ec .L0 
     /tmp/ccL1hJir.s:267    .text:00000000000000f0 .L0 
     /tmp/ccL1hJir.s:270    .text:00000000000000f8 .L0 
     /tmp/ccL1hJir.s:271    .text:00000000000000f8 .L0 
     /tmp/ccL1hJir.s:273    .text:00000000000000fc .L0 
     /tmp/ccL1hJir.s:275    .text:00000000000000fc .L0 
     /tmp/ccL1hJir.s:276    .text:00000000000000fc .L0 
     /tmp/ccL1hJir.s:279    .text:0000000000000104 .L0 
     /tmp/ccL1hJir.s:280    .text:0000000000000104 .L0 
GAS LISTING /tmp/ccL1hJir.s 			page 21


     /tmp/ccL1hJir.s:283    .text:0000000000000110 .L0 
     /tmp/ccL1hJir.s:284    .text:0000000000000110 .L0 
     /tmp/ccL1hJir.s:287    .text:0000000000000118 .L0 
     /tmp/ccL1hJir.s:288    .text:0000000000000118 .L0 
     /tmp/ccL1hJir.s:292    .text:0000000000000128 .L0 
     /tmp/ccL1hJir.s:294    .text:000000000000012c .L0 
     /tmp/ccL1hJir.s:297    .text:0000000000000130 .L0 
     /tmp/ccL1hJir.s:298    .text:0000000000000134 .L0 
     /tmp/ccL1hJir.s:299    .text:0000000000000134 .L0 
     /tmp/ccL1hJir.s:301    .text:0000000000000138 .L0 
     /tmp/ccL1hJir.s:302    .text:0000000000000138 .L0 
     /tmp/ccL1hJir.s:304    .text:000000000000013c .L0 
     /tmp/ccL1hJir.s:307    .text:0000000000000140 .L0 
     /tmp/ccL1hJir.s:309    .text:0000000000000140 .L0 
     /tmp/ccL1hJir.s:313    .text:0000000000000148 .L0 
     /tmp/ccL1hJir.s:314    .text:0000000000000148 .L0 
     /tmp/ccL1hJir.s:315    .text:0000000000000148 .L0 
     /tmp/ccL1hJir.s:319    .text:000000000000014c .L0 
     /tmp/ccL1hJir.s:320    .text:0000000000000150 .L0 
     /tmp/ccL1hJir.s:326    .text:0000000000000150 _ZN3SCB6signalEv
     /tmp/ccL1hJir.s:329    .text:0000000000000150 .L0 
     /tmp/ccL1hJir.s:331    .text:0000000000000150 .L0 
     /tmp/ccL1hJir.s:332    .text:0000000000000150 .L0 
     /tmp/ccL1hJir.s:333    .text:0000000000000150 .L0 
     /tmp/ccL1hJir.s:335    .text:0000000000000154 .L0 
     /tmp/ccL1hJir.s:338    .text:000000000000015c .L0 
     /tmp/ccL1hJir.s:340    .text:0000000000000160 .L0 
     /tmp/ccL1hJir.s:344    .text:0000000000000168 .L0 
     /tmp/ccL1hJir.s:345    .text:000000000000016c .L0 
     /tmp/ccL1hJir.s:348    .text:0000000000000174 .L0 
     /tmp/ccL1hJir.s:349    .text:0000000000000174 .L0 
     /tmp/ccL1hJir.s:351    .text:0000000000000178 .L0 
     /tmp/ccL1hJir.s:353    .text:0000000000000178 .L0 
     /tmp/ccL1hJir.s:354    .text:0000000000000178 .L0 
     /tmp/ccL1hJir.s:359    .text:0000000000000188 .L0 
     /tmp/ccL1hJir.s:360    .text:000000000000018c .L0 
     /tmp/ccL1hJir.s:362    .text:0000000000000190 .L0 
     /tmp/ccL1hJir.s:363    .text:0000000000000190 .L0 
     /tmp/ccL1hJir.s:365    .text:0000000000000194 .L0 
     /tmp/ccL1hJir.s:367    .text:0000000000000198 .L0 
     /tmp/ccL1hJir.s:373    .text:0000000000000198 _ZN3SCB14prioritySignalEv
     /tmp/ccL1hJir.s:376    .text:0000000000000198 .L0 
     /tmp/ccL1hJir.s:378    .text:0000000000000198 .L0 
     /tmp/ccL1hJir.s:379    .text:0000000000000198 .L0 
     /tmp/ccL1hJir.s:380    .text:0000000000000198 .L0 
     /tmp/ccL1hJir.s:382    .text:000000000000019c .L0 
     /tmp/ccL1hJir.s:385    .text:00000000000001a4 .L0 
     /tmp/ccL1hJir.s:387    .text:00000000000001a8 .L0 
     /tmp/ccL1hJir.s:391    .text:00000000000001b0 .L0 
     /tmp/ccL1hJir.s:392    .text:00000000000001b4 .L0 
     /tmp/ccL1hJir.s:395    .text:00000000000001bc .L0 
     /tmp/ccL1hJir.s:396    .text:00000000000001bc .L0 
     /tmp/ccL1hJir.s:398    .text:00000000000001c0 .L0 
     /tmp/ccL1hJir.s:400    .text:00000000000001c0 .L0 
     /tmp/ccL1hJir.s:401    .text:00000000000001c0 .L0 
     /tmp/ccL1hJir.s:406    .text:00000000000001d0 .L0 
     /tmp/ccL1hJir.s:407    .text:00000000000001d4 .L0 
GAS LISTING /tmp/ccL1hJir.s 			page 22


     /tmp/ccL1hJir.s:409    .text:00000000000001d8 .L0 
     /tmp/ccL1hJir.s:410    .text:00000000000001d8 .L0 
     /tmp/ccL1hJir.s:412    .text:00000000000001dc .L0 
     /tmp/ccL1hJir.s:414    .text:00000000000001e0 .L0 
     /tmp/ccL1hJir.s:420    .text:00000000000001e0 _ZN3SCBnwEm
     /tmp/ccL1hJir.s:423    .text:00000000000001e0 .L0 
     /tmp/ccL1hJir.s:425    .text:00000000000001e0 .L0 
     /tmp/ccL1hJir.s:426    .text:00000000000001e4 .L0 
     /tmp/ccL1hJir.s:429    .text:00000000000001ec .L0 
     /tmp/ccL1hJir.s:430    .text:00000000000001ec .L0 
     /tmp/ccL1hJir.s:432    .text:00000000000001f0 .L0 
     /tmp/ccL1hJir.s:434    .text:00000000000001f0 .L0 
     /tmp/ccL1hJir.s:435    .text:00000000000001f0 .L0 
     /tmp/ccL1hJir.s:438    .text:00000000000001f8 .L0 
     /tmp/ccL1hJir.s:439    .text:00000000000001fc .L0 
     /tmp/ccL1hJir.s:441    .text:0000000000000200 .L0 
     /tmp/ccL1hJir.s:442    .text:0000000000000200 .L0 
     /tmp/ccL1hJir.s:444    .text:0000000000000204 .L0 
     /tmp/ccL1hJir.s:446    .text:0000000000000208 .L0 
     /tmp/ccL1hJir.s:452    .text:0000000000000208 _ZN3SCBdlEPv
     /tmp/ccL1hJir.s:455    .text:0000000000000208 .L0 
     /tmp/ccL1hJir.s:457    .text:0000000000000208 .L0 
     /tmp/ccL1hJir.s:458    .text:000000000000020c .L0 
     /tmp/ccL1hJir.s:461    .text:0000000000000214 .L0 
     /tmp/ccL1hJir.s:462    .text:0000000000000214 .L0 
     /tmp/ccL1hJir.s:464    .text:0000000000000218 .L0 
     /tmp/ccL1hJir.s:466    .text:0000000000000218 .L0 
     /tmp/ccL1hJir.s:467    .text:0000000000000218 .L0 
     /tmp/ccL1hJir.s:470    .text:0000000000000220 .L0 
     /tmp/ccL1hJir.s:471    .text:0000000000000224 .L0 
     /tmp/ccL1hJir.s:473    .text:0000000000000228 .L0 
     /tmp/ccL1hJir.s:474    .text:0000000000000228 .L0 
     /tmp/ccL1hJir.s:476    .text:000000000000022c .L0 
     /tmp/ccL1hJir.s:478    .text:0000000000000230 .L0 
     /tmp/ccL1hJir.s:484    .text:0000000000000230 _ZN3SCB13signalClosingEv
     /tmp/ccL1hJir.s:487    .text:0000000000000230 .L0 
     /tmp/ccL1hJir.s:489    .text:0000000000000230 .L0 
     /tmp/ccL1hJir.s:490    .text:0000000000000234 .L0 
     /tmp/ccL1hJir.s:495    .text:0000000000000244 .L0 
     /tmp/ccL1hJir.s:496    .text:0000000000000244 .L0 
     /tmp/ccL1hJir.s:497    .text:0000000000000244 .L0 
     /tmp/ccL1hJir.s:498    .text:0000000000000244 .L0 
     /tmp/ccL1hJir.s:500    .text:0000000000000248 .L0 
     /tmp/ccL1hJir.s:503    .text:000000000000024c .L0 
     /tmp/ccL1hJir.s:504    .text:000000000000024c .L0 
     /tmp/ccL1hJir.s:508    .text:0000000000000250 .L0 
     /tmp/ccL1hJir.s:509    .text:0000000000000250 .L0 
     /tmp/ccL1hJir.s:513    .text:0000000000000254 .L0 
     /tmp/ccL1hJir.s:516    .text:0000000000000254 .L0 
     /tmp/ccL1hJir.s:517    .text:0000000000000254 .L0 
     /tmp/ccL1hJir.s:518    .text:0000000000000254 .L0 
     /tmp/ccL1hJir.s:526    .text:000000000000025c .L0 
     /tmp/ccL1hJir.s:527    .text:000000000000025c .L0 
     /tmp/ccL1hJir.s:528    .text:000000000000025c .L0 
     /tmp/ccL1hJir.s:535    .text:0000000000000260 .L0 
     /tmp/ccL1hJir.s:536    .text:0000000000000260 .L0 
     /tmp/ccL1hJir.s:537    .text:0000000000000260 .L0 
GAS LISTING /tmp/ccL1hJir.s 			page 23


     /tmp/ccL1hJir.s:542    .text:0000000000000264 .L0 
     /tmp/ccL1hJir.s:543    .text:0000000000000264 .L0 
     /tmp/ccL1hJir.s:546    .text:000000000000026c .L0 
     /tmp/ccL1hJir.s:549    .text:0000000000000270 .L0 
     /tmp/ccL1hJir.s:553    .text:0000000000000274 .L0 
     /tmp/ccL1hJir.s:554    .text:0000000000000274 .L0 
     /tmp/ccL1hJir.s:556    .text:0000000000000278 .L0 
     /tmp/ccL1hJir.s:558    .text:000000000000027c .L0 
     /tmp/ccL1hJir.s:559    .text:0000000000000280 .L0 
     /tmp/ccL1hJir.s:561    .text:0000000000000284 .L0 
     /tmp/ccL1hJir.s:562    .text:0000000000000284 .L0 
     /tmp/ccL1hJir.s:564    .text:0000000000000288 .L0 
     /tmp/ccL1hJir.s:566    .text:000000000000028c .L0 
     /tmp/ccL1hJir.s:569    .text:0000000000000290 .L0 
     /tmp/ccL1hJir.s:571    .text:0000000000000294 .L0 
     /tmp/ccL1hJir.s:577    .text:0000000000000294 _ZN3SCB15createSemaphoreEi
     /tmp/ccL1hJir.s:580    .text:0000000000000294 .L0 
     /tmp/ccL1hJir.s:582    .text:0000000000000294 .L0 
     /tmp/ccL1hJir.s:583    .text:0000000000000298 .L0 
     /tmp/ccL1hJir.s:587    .text:00000000000002a4 .L0 
     /tmp/ccL1hJir.s:588    .text:00000000000002a4 .L0 
     /tmp/ccL1hJir.s:589    .text:00000000000002a4 .L0 
     /tmp/ccL1hJir.s:591    .text:00000000000002a8 .L0 
     /tmp/ccL1hJir.s:594    .text:00000000000002ac .L0 
     /tmp/ccL1hJir.s:595    .text:00000000000002ac .L0 
     /tmp/ccL1hJir.s:604    .text:00000000000002bc .L0 
     /tmp/ccL1hJir.s:607    .text:00000000000002c4 .L0 
     /tmp/ccL1hJir.s:608    .text:00000000000002c4 .L0 
     /tmp/ccL1hJir.s:614    .text:00000000000002c8 .L0 
     /tmp/ccL1hJir.s:615    .text:00000000000002cc .L0 
     /tmp/ccL1hJir.s:617    .text:00000000000002d0 .L0 
     /tmp/ccL1hJir.s:618    .text:00000000000002d0 .L0 
     /tmp/ccL1hJir.s:620    .text:00000000000002d4 .L0 
     /tmp/ccL1hJir.s:622    .text:00000000000002d8 .L0 
     /tmp/ccL1hJir.s:624    .text:00000000000002dc .L0 
     /tmp/ccL1hJir.s:630    .text:00000000000002dc _ZN3SCB7scbInitEi
     /tmp/ccL1hJir.s:633    .text:00000000000002dc .L0 
     /tmp/ccL1hJir.s:635    .text:00000000000002dc .L0 
     /tmp/ccL1hJir.s:636    .text:00000000000002e0 .L0 
     /tmp/ccL1hJir.s:638    .text:00000000000002e4 .L0 
     /tmp/ccL1hJir.s:640    .text:00000000000002e8 .L0 
     /tmp/ccL1hJir.s:642    .text:00000000000002e8 .L0 
     /tmp/ccL1hJir.s:643    .text:00000000000002e8 .L0 
     /tmp/ccL1hJir.s:645    .text:00000000000002ec .L0 
     /tmp/ccL1hJir.s:647    .text:00000000000002f0 .L0 
     /tmp/ccL1hJir.s:648    .text:00000000000002f0 .L0 
     /tmp/ccL1hJir.s:650    .text:00000000000002f4 .L0 
     /tmp/ccL1hJir.s:651    .text:00000000000002f8 .L0 
     /tmp/ccL1hJir.s:652    .text:00000000000002f8 .L0 
     /tmp/ccL1hJir.s:654    .text:00000000000002fc .L0 
     /tmp/ccL1hJir.s:656    .text:0000000000000300 .L0 
     /tmp/ccL1hJir.s:667    .text:0000000000000300 _ZN3SCB12initSCBCacheEv
     /tmp/ccL1hJir.s:670    .text:0000000000000300 .L0 
     /tmp/ccL1hJir.s:671    .text:0000000000000300 .L0 
     /tmp/ccL1hJir.s:672    .text:0000000000000304 .L0 
     /tmp/ccL1hJir.s:675    .text:000000000000030c .L0 
     /tmp/ccL1hJir.s:676    .text:000000000000030c .L0 
GAS LISTING /tmp/ccL1hJir.s 			page 24


     /tmp/ccL1hJir.s:678    .text:0000000000000310 .L0 
     /tmp/ccL1hJir.s:680    .text:0000000000000310 .L0 
     /tmp/ccL1hJir.s:681    .text:0000000000000310 .L0 
     /tmp/ccL1hJir.s:688    .text:0000000000000334 .L0 
     /tmp/ccL1hJir.s:690    .text:000000000000033c .L0 
     /tmp/ccL1hJir.s:691    .text:0000000000000340 .L0 
     /tmp/ccL1hJir.s:693    .text:0000000000000344 .L0 
     /tmp/ccL1hJir.s:694    .text:0000000000000344 .L0 
     /tmp/ccL1hJir.s:696    .text:0000000000000348 .L0 
     /tmp/ccL1hJir.s:698    .text:000000000000034c .L0 
     /tmp/ccL1hJir.s:704    .text:000000000000034c _ZN3SCB18createSysSemaphoreEi
     /tmp/ccL1hJir.s:707    .text:000000000000034c .L0 
     /tmp/ccL1hJir.s:709    .text:000000000000034c .L0 
     /tmp/ccL1hJir.s:710    .text:0000000000000350 .L0 
     /tmp/ccL1hJir.s:715    .text:0000000000000360 .L0 
     /tmp/ccL1hJir.s:716    .text:0000000000000360 .L0 
     /tmp/ccL1hJir.s:717    .text:0000000000000360 .L0 
     /tmp/ccL1hJir.s:718    .text:0000000000000360 .L0 
     /tmp/ccL1hJir.s:720    .text:0000000000000364 .L0 
     /tmp/ccL1hJir.s:723    .text:0000000000000368 .L0 
     /tmp/ccL1hJir.s:724    .text:0000000000000368 .L0 
     /tmp/ccL1hJir.s:726    .text:0000000000000370 .L0 
     /tmp/ccL1hJir.s:730    .text:0000000000000374 .L0 
     /tmp/ccL1hJir.s:731    .text:0000000000000374 .L0 
     /tmp/ccL1hJir.s:737    .text:0000000000000388 .L0 
     /tmp/ccL1hJir.s:738    .text:0000000000000388 .L0 
     /tmp/ccL1hJir.s:742    .text:0000000000000394 .L0 
     /tmp/ccL1hJir.s:743    .text:0000000000000394 .L0 
     /tmp/ccL1hJir.s:745    .text:000000000000039c .L0 
     /tmp/ccL1hJir.s:746    .text:000000000000039c .L0 
     /tmp/ccL1hJir.s:748    .text:00000000000003a0 .L0 
     /tmp/ccL1hJir.s:749    .text:00000000000003a0 .L0 
     /tmp/ccL1hJir.s:751    .text:00000000000003a4 .L0 
     /tmp/ccL1hJir.s:754    .text:00000000000003a8 .L0 
     /tmp/ccL1hJir.s:756    .text:00000000000003ac .L0 
     /tmp/ccL1hJir.s:760    .text:00000000000003b0 .L0 
     /tmp/ccL1hJir.s:762    .text:00000000000003b0 .L0 
     /tmp/ccL1hJir.s:763    .text:00000000000003b0 .L0 
     /tmp/ccL1hJir.s:766    .text:00000000000003bc .L0 
     /tmp/ccL1hJir.s:775    .bss:0000000000000000 _ZN3SCB8scbCacheE
     /tmp/ccL1hJir.s:772    .bss:0000000000000000 .LANCHOR0
     /tmp/ccL1hJir.s:32     .text._ZN3SCB12createObjectEPv:0000000000000018 .L0 
     /tmp/ccL1hJir.s:57     .text._ZN3SCB10freeObjectEPv:0000000000000018 .L0 
     /tmp/ccL1hJir.s:783    .text:00000000000003bc .L0 
     /tmp/ccL1hJir.s:75     .text:000000000000000c .L0 
     /tmp/ccL1hJir.s:94     .text:0000000000000024 .L0 
     /tmp/ccL1hJir.s:122    .text:0000000000000040 .L0 
     /tmp/ccL1hJir.s:146    .text:0000000000000060 .L0 
     /tmp/ccL1hJir.s:254    .text:00000000000000d0 .L0 
     /tmp/ccL1hJir.s:280    .text:0000000000000104 .L0 
     /tmp/ccL1hJir.s:288    .text:0000000000000118 .L0 
     /tmp/ccL1hJir.s:681    .text:0000000000000310 .L0 
     /tmp/ccL1hJir.s:682    .text:0000000000000318 .L0 
     /tmp/ccL1hJir.s:661    .rodata.str1.8:0000000000000000 .LC0
     /tmp/ccL1hJir.s:684    .text:0000000000000324 .L0 
     /tmp/ccL1hJir.s:688    .text:0000000000000334 .L0 
     /tmp/ccL1hJir.s:724    .text:0000000000000368 .L0 
GAS LISTING /tmp/ccL1hJir.s 			page 25


     /tmp/ccL1hJir.s:731    .text:0000000000000374 .L0 
     /tmp/ccL1hJir.s:142    .text:0000000000000060 .L9
     /tmp/ccL1hJir.s:119    .text:0000000000000040 .L7
     /tmp/ccL1hJir.s:215    .text:00000000000000a8 .L10
     /tmp/ccL1hJir.s:225    .text:00000000000000b4 .L14
     /tmp/ccL1hJir.s:194    .text:00000000000000a0 .L12
     /tmp/ccL1hJir.s:264    .text:00000000000000ec .L26
     /tmp/ccL1hJir.s:312    .text:0000000000000148 .L21
     /tmp/ccL1hJir.s:306    .text:0000000000000140 .L18
     /tmp/ccL1hJir.s:295    .text:0000000000000130 .L17
     /tmp/ccL1hJir.s:342    .text:0000000000000168 .L33
     /tmp/ccL1hJir.s:389    .text:00000000000001b0 .L40
     /tmp/ccL1hJir.s:551    .text:0000000000000274 .L46
     /tmp/ccL1hJir.s:506    .text:0000000000000250 .L47
     /tmp/ccL1hJir.s:610    .text:00000000000002c8 .L49
     /tmp/ccL1hJir.s:759    .text:00000000000003b0 .L59
     /tmp/ccL1hJir.s:728    .text:0000000000000374 .L57
     /tmp/ccL1hJir.s:2488   .debug_abbrev:0000000000000000 .Ldebug_abbrev0
     /tmp/ccL1hJir.s:3938   .debug_str:000000000000008b .LASF158
     /tmp/ccL1hJir.s:4154   .debug_str:000000000000087f .LASF159
     /tmp/ccL1hJir.s:4028   .debug_str:0000000000000447 .LASF160
     /tmp/ccL1hJir.s:3908   .debug_ranges:0000000000000000 .Ldebug_ranges0
     /tmp/ccL1hJir.s:3918   .debug_line:0000000000000000 .Ldebug_line0
     /tmp/ccL1hJir.s:4034   .debug_str:000000000000047b .LASF0
     /tmp/ccL1hJir.s:4062   .debug_str:000000000000057d .LASF1
     /tmp/ccL1hJir.s:4134   .debug_str:00000000000007bb .LASF2
     /tmp/ccL1hJir.s:4142   .debug_str:00000000000007f4 .LASF4
     /tmp/ccL1hJir.s:4046   .debug_str:00000000000004d1 .LASF3
     /tmp/ccL1hJir.s:3930   .debug_str:0000000000000039 .LASF5
     /tmp/ccL1hJir.s:4114   .debug_str:0000000000000716 .LASF6
     /tmp/ccL1hJir.s:4110   .debug_str:00000000000006f3 .LASF7
     /tmp/ccL1hJir.s:4054   .debug_str:000000000000053e .LASF8
     /tmp/ccL1hJir.s:4010   .debug_str:000000000000039e .LASF9
     /tmp/ccL1hJir.s:4018   .debug_str:00000000000003e5 .LASF10
     /tmp/ccL1hJir.s:3956   .debug_str:00000000000001db .LASF11
     /tmp/ccL1hJir.s:4002   .debug_str:0000000000000368 .LASF12
     /tmp/ccL1hJir.s:3962   .debug_str:00000000000001f6 .LASF13
     /tmp/ccL1hJir.s:3954   .debug_str:00000000000001cb .LASF14
     /tmp/ccL1hJir.s:4166   .debug_str:00000000000008c1 .LASF15
     /tmp/ccL1hJir.s:3986   .debug_str:00000000000002e4 .LASF16
     /tmp/ccL1hJir.s:4162   .debug_str:00000000000008a6 .LASF17
     /tmp/ccL1hJir.s:4000   .debug_str:000000000000035b .LASF18
     /tmp/ccL1hJir.s:3998   .debug_str:000000000000034e .LASF161
     /tmp/ccL1hJir.s:4176   .debug_str:00000000000008fc .LASF19
     /tmp/ccL1hJir.s:4224   .debug_str:0000000000000aca .LASF21
     /tmp/ccL1hJir.s:3978   .debug_str:0000000000000277 .LASF20
     /tmp/ccL1hJir.s:4198   .debug_str:000000000000099f .LASF22
     /tmp/ccL1hJir.s:4174   .debug_str:00000000000008ec .LASF23
     /tmp/ccL1hJir.s:4048   .debug_str:00000000000004e3 .LASF24
     /tmp/ccL1hJir.s:3994   .debug_str:000000000000032c .LASF27
     /tmp/ccL1hJir.s:4256   .debug_str:0000000000000bdd .LASF29
     /tmp/ccL1hJir.s:4020   .debug_str:00000000000003f3 .LASF25
     /tmp/ccL1hJir.s:4066   .debug_str:0000000000000596 .LASF26
     /tmp/ccL1hJir.s:4088   .debug_str:0000000000000631 .LASF28
     /tmp/ccL1hJir.s:4254   .debug_str:0000000000000bc2 .LASF30
     /tmp/ccL1hJir.s:4178   .debug_str:0000000000000907 .LASF31
     /tmp/ccL1hJir.s:4240   .debug_str:0000000000000b59 .LASF32
GAS LISTING /tmp/ccL1hJir.s 			page 26


     /tmp/ccL1hJir.s:4204   .debug_str:00000000000009fd .LASF33
     /tmp/ccL1hJir.s:4190   .debug_str:000000000000096d .LASF34
     /tmp/ccL1hJir.s:3972   .debug_str:0000000000000253 .LASF35
     /tmp/ccL1hJir.s:4138   .debug_str:00000000000007ce .LASF36
     /tmp/ccL1hJir.s:3946   .debug_str:0000000000000196 .LASF37
     /tmp/ccL1hJir.s:4022   .debug_str:0000000000000401 .LASF38
     /tmp/ccL1hJir.s:4250   .debug_str:0000000000000ba1 .LASF39
     /tmp/ccL1hJir.s:3932   .debug_str:0000000000000040 .LASF40
     /tmp/ccL1hJir.s:4158   .debug_str:0000000000000891 .LASF162
     /tmp/ccL1hJir.s:4212   .debug_str:0000000000000a60 .LASF41
     /tmp/ccL1hJir.s:4150   .debug_str:0000000000000852 .LASF42
     /tmp/ccL1hJir.s:4064   .debug_str:0000000000000590 .LASF47
     /tmp/ccL1hJir.s:4068   .debug_str:00000000000005b0 .LASF49
     /tmp/ccL1hJir.s:4186   .debug_str:0000000000000958 .LASF51
     /tmp/ccL1hJir.s:4060   .debug_str:0000000000000578 .LASF43
     /tmp/ccL1hJir.s:4244   .debug_str:0000000000000b83 .LASF44
     /tmp/ccL1hJir.s:4248   .debug_str:0000000000000b94 .LASF45
     /tmp/ccL1hJir.s:3990   .debug_str:0000000000000313 .LASF46
     /tmp/ccL1hJir.s:3922   .debug_str:0000000000000007 .LASF53
     /tmp/ccL1hJir.s:4040   .debug_str:00000000000004a6 .LASF59
     /tmp/ccL1hJir.s:4024   .debug_str:0000000000000418 .LASF92
     /tmp/ccL1hJir.s:3942   .debug_str:0000000000000174 .LASF163
     /tmp/ccL1hJir.s:4104   .debug_str:00000000000006c9 .LASF48
     /tmp/ccL1hJir.s:3948   .debug_str:00000000000001a2 .LASF50
     /tmp/ccL1hJir.s:4124   .debug_str:0000000000000755 .LASF52
     /tmp/ccL1hJir.s:3966   .debug_str:0000000000000217 .LASF88
     /tmp/ccL1hJir.s:3992   .debug_str:000000000000031f .LASF54
     /tmp/ccL1hJir.s:3984   .debug_str:00000000000002cb .LASF56
     /tmp/ccL1hJir.s:4084   .debug_str:0000000000000617 .LASF55
     /tmp/ccL1hJir.s:3970   .debug_str:000000000000023c .LASF57
     /tmp/ccL1hJir.s:4152   .debug_str:0000000000000874 .LASF58
     /tmp/ccL1hJir.s:4058   .debug_str:000000000000055b .LASF60
     /tmp/ccL1hJir.s:3926   .debug_str:000000000000001f .LASF61
     /tmp/ccL1hJir.s:4156   .debug_str:000000000000088b .LASF62
     /tmp/ccL1hJir.s:4220   .debug_str:0000000000000ab2 .LASF63
     /tmp/ccL1hJir.s:4056   .debug_str:0000000000000551 .LASF64
     /tmp/ccL1hJir.s:4246   .debug_str:0000000000000b8f .LASF65
     /tmp/ccL1hJir.s:4160   .debug_str:000000000000089d .LASF66
     /tmp/ccL1hJir.s:4100   .debug_str:00000000000006b8 .LASF67
     /tmp/ccL1hJir.s:4076   .debug_str:00000000000005d9 .LASF68
     /tmp/ccL1hJir.s:4228   .debug_str:0000000000000aef .LASF69
     /tmp/ccL1hJir.s:3976   .debug_str:0000000000000269 .LASF70
     /tmp/ccL1hJir.s:4194   .debug_str:000000000000098b .LASF71
     /tmp/ccL1hJir.s:4148   .debug_str:0000000000000841 .LASF83
     /tmp/ccL1hJir.s:3974   .debug_str:0000000000000260 .LASF77
     /tmp/ccL1hJir.s:3936   .debug_str:0000000000000078 .LASF79
     /tmp/ccL1hJir.s:4036   .debug_str:0000000000000488 .LASF72
     /tmp/ccL1hJir.s:4214   .debug_str:0000000000000a71 .LASF73
     /tmp/ccL1hJir.s:4038   .debug_str:0000000000000497 .LASF74
     /tmp/ccL1hJir.s:4144   .debug_str:00000000000007fb .LASF75
     /tmp/ccL1hJir.s:4070   .debug_str:00000000000005c0 .LASF76
     /tmp/ccL1hJir.s:4122   .debug_str:0000000000000745 .LASF78
     /tmp/ccL1hJir.s:4230   .debug_str:0000000000000afc .LASF80
     /tmp/ccL1hJir.s:4080   .debug_str:0000000000000609 .LASF81
     /tmp/ccL1hJir.s:4008   .debug_str:0000000000000394 .LASF82
     /tmp/ccL1hJir.s:4164   .debug_str:00000000000008bc .LASF84
     /tmp/ccL1hJir.s:4098   .debug_str:00000000000006b3 .LASF85
GAS LISTING /tmp/ccL1hJir.s 			page 27


     /tmp/ccL1hJir.s:4236   .debug_str:0000000000000b3b .LASF86
     /tmp/ccL1hJir.s:4118   .debug_str:000000000000072d .LASF87
     /tmp/ccL1hJir.s:3934   .debug_str:0000000000000060 .LASF89
     /tmp/ccL1hJir.s:4044   .debug_str:00000000000004c6 .LASF90
     /tmp/ccL1hJir.s:4210   .debug_str:0000000000000a40 .LASF91
     /tmp/ccL1hJir.s:4242   .debug_str:0000000000000b6f .LASF164
     /tmp/ccL1hJir.s:3952   .debug_str:00000000000001bf .LASF93
     /tmp/ccL1hJir.s:4014   .debug_str:00000000000003c5 .LASF94
     /tmp/ccL1hJir.s:4192   .debug_str:0000000000000986 .LASF95
     /tmp/ccL1hJir.s:4222   .debug_str:0000000000000abb .LASF96
     /tmp/ccL1hJir.s:4170   .debug_str:00000000000008da .LASF97
     /tmp/ccL1hJir.s:4052   .debug_str:000000000000052d .LASF98
     /tmp/ccL1hJir.s:3928   .debug_str:000000000000002a .LASF99
     /tmp/ccL1hJir.s:4216   .debug_str:0000000000000a8f .LASF100
     /tmp/ccL1hJir.s:4180   .debug_str:0000000000000912 .LASF101
     /tmp/ccL1hJir.s:4168   .debug_str:00000000000008cd .LASF102
     /tmp/ccL1hJir.s:4130   .debug_str:0000000000000799 .LASF103
     /tmp/ccL1hJir.s:4234   .debug_str:0000000000000b20 .LASF104
     /tmp/ccL1hJir.s:4042   .debug_str:00000000000004b3 .LASF105
     /tmp/ccL1hJir.s:4202   .debug_str:00000000000009df .LASF106
     /tmp/ccL1hJir.s:4140   .debug_str:00000000000007e6 .LASF107
     /tmp/ccL1hJir.s:3980   .debug_str:000000000000028a .LASF108
     /tmp/ccL1hJir.s:3988   .debug_str:00000000000002fa .LASF109
     /tmp/ccL1hJir.s:4012   .debug_str:00000000000003ae .LASF110
     /tmp/ccL1hJir.s:4232   .debug_str:0000000000000b17 .LASF111
     /tmp/ccL1hJir.s:4128   .debug_str:000000000000078c .LASF112
     /tmp/ccL1hJir.s:4004   .debug_str:0000000000000377 .LASF113
     /tmp/ccL1hJir.s:4016   .debug_str:00000000000003dd .LASF114
     /tmp/ccL1hJir.s:3968   .debug_str:000000000000022a .LASF115
     /tmp/ccL1hJir.s:4120   .debug_str:0000000000000739 .LASF116
     /tmp/ccL1hJir.s:4032   .debug_str:0000000000000475 .LASF117
     /tmp/ccL1hJir.s:4116   .debug_str:000000000000071d .LASF118
     /tmp/ccL1hJir.s:3924   .debug_str:0000000000000017 .LASF119
     /tmp/ccL1hJir.s:4252   .debug_str:0000000000000bb0 .LASF120
     /tmp/ccL1hJir.s:4030   .debug_str:000000000000046c .LASF121
     /tmp/ccL1hJir.s:4108   .debug_str:00000000000006e3 .LASF122
     /tmp/ccL1hJir.s:3944   .debug_str:000000000000018a .LASF165
     /tmp/ccL1hJir.s:4218   .debug_str:0000000000000aa9 .LASF123
     /tmp/ccL1hJir.s:4096   .debug_str:00000000000006ae .LASF124
     /tmp/ccL1hJir.s:3958   .debug_str:00000000000001ea .LASF125
     /tmp/ccL1hJir.s:3920   .debug_str:0000000000000000 .LASF126
     /tmp/ccL1hJir.s:4126   .debug_str:000000000000075e .LASF127
     /tmp/ccL1hJir.s:4050   .debug_str:00000000000004ff .LASF166
     /tmp/ccL1hJir.s:4196   .debug_str:0000000000000995 .LASF128
     /tmp/ccL1hJir.s:4200   .debug_str:00000000000009be .LASF129
     /tmp/ccL1hJir.s:4082   .debug_str:000000000000060e .LASF130
     /tmp/ccL1hJir.s:4090   .debug_str:000000000000063f .LASF131
     /tmp/ccL1hJir.s:4188   .debug_str:0000000000000960 .LASF132
     /tmp/ccL1hJir.s:4094   .debug_str:0000000000000689 .LASF133
     /tmp/ccL1hJir.s:4106   .debug_str:00000000000006d6 .LASF134
     /tmp/ccL1hJir.s:4078   .debug_str:00000000000005e4 .LASF135
     /tmp/ccL1hJir.s:3940   .debug_str:000000000000015b .LASF136
     /tmp/ccL1hJir.s:4226   .debug_str:0000000000000ae1 .LASF137
     /tmp/ccL1hJir.s:4182   .debug_str:000000000000091e .LASF138
     /tmp/ccL1hJir.s:4092   .debug_str:0000000000000660 .LASF139
     /tmp/ccL1hJir.s:4086   .debug_str:0000000000000622 .LASF140
     /tmp/ccL1hJir.s:4146   .debug_str:0000000000000819 .LASF141
GAS LISTING /tmp/ccL1hJir.s 			page 28


     /tmp/ccL1hJir.s:4206   .debug_str:0000000000000a0b .LASF142
     /tmp/ccL1hJir.s:4184   .debug_str:000000000000092e .LASF143
     /tmp/ccL1hJir.s:4112   .debug_str:0000000000000706 .LASF144
     /tmp/ccL1hJir.s:3982   .debug_str:00000000000002a3 .LASF145
     /tmp/ccL1hJir.s:4132   .debug_str:00000000000007a9 .LASF167
     /tmp/ccL1hJir.s:668    .text:0000000000000300 .LFB55
     /tmp/ccL1hJir.s:699    .text:000000000000034c .LFE55
     /tmp/ccL1hJir.s:686    .text:0000000000000334 .LVL51
     /tmp/ccL1hJir.s:631    .text:00000000000002dc .LFB54
     /tmp/ccL1hJir.s:657    .text:0000000000000300 .LFE54
     /tmp/ccL1hJir.s:4006   .debug_str:000000000000038f .LASF148
     /tmp/ccL1hJir.s:4072   .debug_str:00000000000005ca .LASF146
     /tmp/ccL1hJir.s:578    .text:0000000000000294 .LFB53
     /tmp/ccL1hJir.s:625    .text:00000000000002dc .LFE53
     /tmp/ccL1hJir.s:3548   .debug_loc:0000000000000000 .LLST27
     /tmp/ccL1hJir.s:601    .text:00000000000002bc .LBB47
     /tmp/ccL1hJir.s:612    .text:00000000000002c8 .LBE47
     /tmp/ccL1hJir.s:3562   .debug_loc:0000000000000039 .LLST28
     /tmp/ccL1hJir.s:3569   .debug_loc:000000000000005c .LLST29
     /tmp/ccL1hJir.s:598    .text:00000000000002b8 .LVL47
     /tmp/ccL1hJir.s:705    .text:000000000000034c .LFB52
     /tmp/ccL1hJir.s:767    .text:00000000000003bc .LFE52
     /tmp/ccL1hJir.s:3576   .debug_loc:000000000000007f .LLST30
     /tmp/ccL1hJir.s:3960   .debug_str:00000000000001ef .LASF147
     /tmp/ccL1hJir.s:3601   .debug_loc:00000000000000e1 .LLST31
     /tmp/ccL1hJir.s:733    .text:0000000000000384 .LVL54
     /tmp/ccL1hJir.s:740    .text:0000000000000394 .LVL56
     /tmp/ccL1hJir.s:764    .text:00000000000003b8 .LVL59
     /tmp/ccL1hJir.s:485    .text:0000000000000230 .LFB51
     /tmp/ccL1hJir.s:572    .text:0000000000000294 .LFE51
     /tmp/ccL1hJir.s:3612   .debug_loc:0000000000000117 .LLST19
     /tmp/ccL1hJir.s:4136   .debug_str:00000000000007c9 .LASF149
     /tmp/ccL1hJir.s:3630   .debug_loc:0000000000000163 .LLST20
     /tmp/ccL1hJir.s:510    .text:0000000000000254 .LBB40
     /tmp/ccL1hJir.s:547    .text:0000000000000270 .LBE40
     /tmp/ccL1hJir.s:4074   .debug_str:00000000000005d4 .LASF150
     /tmp/ccL1hJir.s:3645   .debug_loc:00000000000001ac .LLST21
     /tmp/ccL1hJir.s:514    .text:0000000000000254 .LBB41
     /tmp/ccL1hJir.s:522    .text:000000000000025c .LBE41
     /tmp/ccL1hJir.s:3652   .debug_loc:00000000000001cf .LLST22
     /tmp/ccL1hJir.s:3660   .debug_loc:00000000000001f3 .LLST23
     /tmp/ccL1hJir.s:524    .text:000000000000025c .LBB43
     /tmp/ccL1hJir.s:531    .text:0000000000000260 .LBE43
     /tmp/ccL1hJir.s:3667   .debug_loc:0000000000000216 .LLST24
     /tmp/ccL1hJir.s:3675   .debug_loc:000000000000023a .LLST25
     /tmp/ccL1hJir.s:533    .text:0000000000000260 .LBB45
     /tmp/ccL1hJir.s:540    .text:0000000000000264 .LBE45
     /tmp/ccL1hJir.s:3682   .debug_loc:000000000000025d .LLST26
     /tmp/ccL1hJir.s:544    .text:000000000000026c .LVL42
     /tmp/ccL1hJir.s:453    .text:0000000000000208 .LFB50
     /tmp/ccL1hJir.s:479    .text:0000000000000230 .LFE50
     /tmp/ccL1hJir.s:4172   .debug_str:00000000000008e1 .LASF151
     /tmp/ccL1hJir.s:3689   .debug_loc:0000000000000280 .LLST18
     /tmp/ccL1hJir.s:468    .text:0000000000000220 .LVL35
     /tmp/ccL1hJir.s:421    .text:00000000000001e0 .LFB49
     /tmp/ccL1hJir.s:447    .text:0000000000000208 .LFE49
     /tmp/ccL1hJir.s:3703   .debug_loc:00000000000002b9 .LLST17
GAS LISTING /tmp/ccL1hJir.s 			page 29


     /tmp/ccL1hJir.s:436    .text:00000000000001f8 .LVL33
     /tmp/ccL1hJir.s:374    .text:0000000000000198 .LFB48
     /tmp/ccL1hJir.s:415    .text:00000000000001e0 .LFE48
     /tmp/ccL1hJir.s:3717   .debug_loc:00000000000002f2 .LLST16
     /tmp/ccL1hJir.s:402    .text:00000000000001c8 .LVL30
     /tmp/ccL1hJir.s:404    .text:00000000000001d0 .LVL31
     /tmp/ccL1hJir.s:327    .text:0000000000000150 .LFB47
     /tmp/ccL1hJir.s:368    .text:0000000000000198 .LFE47
     /tmp/ccL1hJir.s:3731   .debug_loc:000000000000032b .LLST15
     /tmp/ccL1hJir.s:355    .text:0000000000000180 .LVL27
     /tmp/ccL1hJir.s:357    .text:0000000000000188 .LVL28
     /tmp/ccL1hJir.s:238    .text:00000000000000bc .LFB46
     /tmp/ccL1hJir.s:321    .text:0000000000000150 .LFE46
     /tmp/ccL1hJir.s:3745   .debug_loc:0000000000000364 .LLST14
     /tmp/ccL1hJir.s:277    .text:0000000000000104 .LVL22
     /tmp/ccL1hJir.s:285    .text:0000000000000118 .LVL23
     /tmp/ccL1hJir.s:159    .text:0000000000000078 .LFB45
     /tmp/ccL1hJir.s:232    .text:00000000000000bc .LFE45
     /tmp/ccL1hJir.s:3781   .debug_loc:00000000000003ef .LLST7
     /tmp/ccL1hJir.s:3792   .debug_loc:0000000000000425 .LLST8
     /tmp/ccL1hJir.s:179    .text:0000000000000090 .LBB34
     /tmp/ccL1hJir.s:186    .text:0000000000000094 .LBE34
     /tmp/ccL1hJir.s:3803   .debug_loc:000000000000045b .LLST9
     /tmp/ccL1hJir.s:197    .text:00000000000000a0 .LBB36
     /tmp/ccL1hJir.s:204    .text:00000000000000a4 .LBE36
     /tmp/ccL1hJir.s:3810   .debug_loc:000000000000047e .LLST10
     /tmp/ccL1hJir.s:3818   .debug_loc:00000000000004a2 .LLST11
     /tmp/ccL1hJir.s:206    .text:00000000000000a4 .LBB38
     /tmp/ccL1hJir.s:213    .text:00000000000000a8 .LBE38
     /tmp/ccL1hJir.s:3825   .debug_loc:00000000000004c5 .LLST12
     /tmp/ccL1hJir.s:3833   .debug_loc:00000000000004e9 .LLST13
     /tmp/ccL1hJir.s:62     .text:0000000000000000 .LFB44
     /tmp/ccL1hJir.s:153    .text:0000000000000078 .LFE44
     /tmp/ccL1hJir.s:78     .text:0000000000000018 .LBB26
     /tmp/ccL1hJir.s:86     .text:000000000000001c .LBE26
     /tmp/ccL1hJir.s:3840   .debug_loc:000000000000050c .LLST0
     /tmp/ccL1hJir.s:3848   .debug_loc:0000000000000530 .LLST1
     /tmp/ccL1hJir.s:97     .text:0000000000000030 .LBB28
     /tmp/ccL1hJir.s:104    .text:0000000000000034 .LBE28
     /tmp/ccL1hJir.s:3855   .debug_loc:0000000000000553 .LLST2
     /tmp/ccL1hJir.s:3862   .debug_loc:0000000000000576 .LLST3
     /tmp/ccL1hJir.s:109    .text:0000000000000038 .LBB30
     /tmp/ccL1hJir.s:116    .text:000000000000003c .LBE30
     /tmp/ccL1hJir.s:3869   .debug_loc:0000000000000599 .LLST4
     /tmp/ccL1hJir.s:125    .text:000000000000004c .LBB32
     /tmp/ccL1hJir.s:133    .text:0000000000000054 .LBE32
     /tmp/ccL1hJir.s:3876   .debug_loc:00000000000005bc .LLST5
     /tmp/ccL1hJir.s:3884   .debug_loc:00000000000005e0 .LLST6
     /tmp/ccL1hJir.s:4238   .debug_str:0000000000000b4d .LASF168
     /tmp/ccL1hJir.s:37     .text._ZN3SCB10freeObjectEPv:0000000000000000 .LFB12
     /tmp/ccL1hJir.s:55     .text._ZN3SCB10freeObjectEPv:0000000000000018 .LFE12
     /tmp/ccL1hJir.s:3950   .debug_str:00000000000001ba .LASF152
     /tmp/ccL1hJir.s:11     .text._ZN3SCB12createObjectEPv:0000000000000000 .LFB11
     /tmp/ccL1hJir.s:30     .text._ZN3SCB12createObjectEPv:0000000000000018 .LFE11
     /tmp/ccL1hJir.s:4102   .debug_str:00000000000006c0 .LASF153
     /tmp/ccL1hJir.s:4208   .debug_str:0000000000000a1d .LASF154
     /tmp/ccL1hJir.s:3996   .debug_str:000000000000033c .LASF156
GAS LISTING /tmp/ccL1hJir.s 			page 30


     /tmp/ccL1hJir.s:4026   .debug_str:0000000000000423 .LASF155
     /tmp/ccL1hJir.s:3964   .debug_str:0000000000000206 .LASF157
     /tmp/ccL1hJir.s:581    .text:0000000000000294 .LVL45
     /tmp/ccL1hJir.s:596    .text:00000000000002b0 .LVL46
     /tmp/ccL1hJir.s:600    .text:00000000000002bc .LVL48
     /tmp/ccL1hJir.s:609    .text:00000000000002c8 .LVL49
     /tmp/ccL1hJir.s:708    .text:000000000000034c .LVL52
     /tmp/ccL1hJir.s:727    .text:0000000000000374 .LVL53
     /tmp/ccL1hJir.s:758    .text:00000000000003b0 .LVL58
     /tmp/ccL1hJir.s:735    .text:0000000000000388 .LVL55
     /tmp/ccL1hJir.s:752    .text:00000000000003a4 .LVL57
     /tmp/ccL1hJir.s:488    .text:0000000000000230 .LVL36
     /tmp/ccL1hJir.s:505    .text:0000000000000250 .LVL37
     /tmp/ccL1hJir.s:567    .text:000000000000028c .LVL44
     /tmp/ccL1hJir.s:538    .text:0000000000000264 .LVL41
     /tmp/ccL1hJir.s:550    .text:0000000000000274 .LVL43
     /tmp/ccL1hJir.s:512    .text:0000000000000254 .LVL38
     /tmp/ccL1hJir.s:520    .text:000000000000025c .LVL39
     /tmp/ccL1hJir.s:529    .text:0000000000000260 .LVL40
     /tmp/ccL1hJir.s:456    .text:0000000000000208 .LVL34
     /tmp/ccL1hJir.s:424    .text:00000000000001e0 .LVL32
     /tmp/ccL1hJir.s:377    .text:0000000000000198 .LVL29
     /tmp/ccL1hJir.s:330    .text:0000000000000150 .LVL26
     /tmp/ccL1hJir.s:241    .text:00000000000000bc .LVL19
     /tmp/ccL1hJir.s:261    .text:00000000000000e8 .LVL20
     /tmp/ccL1hJir.s:263    .text:00000000000000ec .LVL21
     /tmp/ccL1hJir.s:311    .text:0000000000000148 .LVL24
     /tmp/ccL1hJir.s:317    .text:000000000000014c .LVL25
     /tmp/ccL1hJir.s:162    .text:0000000000000078 .LVL11
     /tmp/ccL1hJir.s:173    .text:000000000000008c .LVL12
     /tmp/ccL1hJir.s:177    .text:0000000000000090 .LVL13
     /tmp/ccL1hJir.s:211    .text:00000000000000a8 .LVL17
     /tmp/ccL1hJir.s:224    .text:00000000000000b4 .LVL18
     /tmp/ccL1hJir.s:184    .text:0000000000000094 .LVL14
     /tmp/ccL1hJir.s:196    .text:00000000000000a0 .LVL15
     /tmp/ccL1hJir.s:202    .text:00000000000000a4 .LVL16
     /tmp/ccL1hJir.s:77     .text:0000000000000018 .LVL3
     /tmp/ccL1hJir.s:84     .text:000000000000001c .LVL4
     /tmp/ccL1hJir.s:96     .text:0000000000000030 .LVL5
     /tmp/ccL1hJir.s:102    .text:0000000000000034 .LVL6
     /tmp/ccL1hJir.s:108    .text:0000000000000038 .LVL7
     /tmp/ccL1hJir.s:114    .text:000000000000003c .LVL8
     /tmp/ccL1hJir.s:124    .text:000000000000004c .LVL9
     /tmp/ccL1hJir.s:131    .text:0000000000000054 .LVL10
     /tmp/ccL1hJir.s:784    .debug_info:0000000000000000 .Ldebug_info0
     /tmp/ccL1hJir.s:5      .text:0000000000000000 .Ltext0
     /tmp/ccL1hJir.s:778    .text:00000000000003bc .Letext0

UNDEFINED SYMBOLS
_ZN3PCB7runningE
_ZN3PCB16timeSliceCounterE
_ZN3PCB8dispatchEv
_ZN9Scheduler3putEP3PCB
_ZN9Scheduler10putInFrontEP3PCB
_ZN15MemoryAllocator9mem_allocEm
_ZN15MemoryAllocator8mem_freeEPv
_Z17kmem_cache_createPKcmPFvPvES3_
GAS LISTING /tmp/ccL1hJir.s 			page 31


_Z16kmem_cache_allocP12kmem_cache_s
