GAS LISTING /tmp/ccT1FPXP.s 			page 1


   1              		.file	"SCB.cpp"
   2              		.option pic
   3              		.option norelax
   4              		.text
   5              	.Ltext0:
   6              		.section	.text._ZN3SCB12createObjectEPv,"axG",@progbits,_ZN3SCB12createObjectEPv,comdat
   7              		.align	2
   8              		.weak	_ZN3SCB12createObjectEPv
  10              	_ZN3SCB12createObjectEPv:
  11              	.LFB11:
  12              		.file 1 "src/../h/SCB.h"
   1:src/../h/SCB.h **** #ifndef PROJECT_BASE_SCB_H
   2:src/../h/SCB.h **** #define PROJECT_BASE_SCB_H
   3:src/../h/SCB.h **** 
   4:src/../h/SCB.h **** #include "PCB.h"
   5:src/../h/SCB.h **** #include "Scheduler.h"
   6:src/../h/SCB.h **** 
   7:src/../h/SCB.h **** class SCB { // Semaphore Control Block
   8:src/../h/SCB.h **** public:
   9:src/../h/SCB.h ****     int getSemValue() const {
  10:src/../h/SCB.h ****         return semValue;
  11:src/../h/SCB.h ****     }
  12:src/../h/SCB.h **** 
  13:src/../h/SCB.h ****     // smanjuje vrednost semValue i ako ona padne manje od 0, blokira tekuci proces ako on treba da
  14:src/../h/SCB.h ****     // vraca 0 ako se nit uspesno probudila, -2 ako se probudila kad je semafor obrisan
  15:src/../h/SCB.h ****     int wait();
  16:src/../h/SCB.h **** 
  17:src/../h/SCB.h ****     // povecava vrednost semValue i ako je ona posle povecanja <= 0, odblokira proces ako treba da 
  18:src/../h/SCB.h ****     void signal();
  19:src/../h/SCB.h **** 
  20:src/../h/SCB.h ****     void prioritySignal();
  21:src/../h/SCB.h **** 
  22:src/../h/SCB.h ****     void* operator new(size_t size);
  23:src/../h/SCB.h ****     void operator delete(void* memSegment);
  24:src/../h/SCB.h **** 
  25:src/../h/SCB.h ****     static SCB* createSemaphore(int semValue = 1);
  26:src/../h/SCB.h **** 
  27:src/../h/SCB.h ****     static SCB* createSysSemaphore(int semValue = 1);
  28:src/../h/SCB.h **** 
  29:src/../h/SCB.h ****     // Pre zatvaranja svim procesima koji su cekali na semaforu signalizira da je semafor obrisan i
  30:src/../h/SCB.h ****     void signalClosing();
  31:src/../h/SCB.h **** 
  32:src/../h/SCB.h ****     static void createObject(void* addr) {}
  13              		.loc 1 32 17
  14              		.cfi_startproc
  15              	.LVL0:
  16 0000 130101FF 		addi	sp,sp,-16
  17              		.cfi_def_cfa_offset 16
  18 0004 23348100 		sd	s0,8(sp)
  19              		.cfi_offset 8, -8
  20 0008 13040101 		addi	s0,sp,16
  21              		.cfi_def_cfa 8, 0
  22              		.loc 1 32 43 is_stmt 0
  23 000c 03348100 		ld	s0,8(sp)
  24              		.cfi_restore 8
  25              		.cfi_def_cfa 2, 16
  26 0010 13010101 		addi	sp,sp,16
GAS LISTING /tmp/ccT1FPXP.s 			page 2


  27              		.cfi_def_cfa_offset 0
  28 0014 67800000 		jr	ra
  29              		.cfi_endproc
  30              	.LFE11:
  32              		.section	.text._ZN3SCB10freeObjectEPv,"axG",@progbits,_ZN3SCB10freeObjectEPv,comdat
  33              		.align	2
  34              		.weak	_ZN3SCB10freeObjectEPv
  36              	_ZN3SCB10freeObjectEPv:
  37              	.LFB12:
  33:src/../h/SCB.h ****     static void freeObject(void* addr) {}
  38              		.loc 1 33 17 is_stmt 1
  39              		.cfi_startproc
  40              	.LVL1:
  41 0000 130101FF 		addi	sp,sp,-16
  42              		.cfi_def_cfa_offset 16
  43 0004 23348100 		sd	s0,8(sp)
  44              		.cfi_offset 8, -8
  45 0008 13040101 		addi	s0,sp,16
  46              		.cfi_def_cfa 8, 0
  47              		.loc 1 33 41 is_stmt 0
  48 000c 03348100 		ld	s0,8(sp)
  49              		.cfi_restore 8
  50              		.cfi_def_cfa 2, 16
  51 0010 13010101 		addi	sp,sp,16
  52              		.cfi_def_cfa_offset 0
  53 0014 67800000 		jr	ra
  54              		.cfi_endproc
  55              	.LFE12:
  57              		.text
  58              		.align	2
  59              		.globl	_ZN3SCB5blockEv
  61              	_ZN3SCB5blockEv:
  62              	.LFB44:
  63              		.file 2 "src/SCB.cpp"
   1:src/SCB.cpp   **** #include "../h/SCB.h"
   2:src/SCB.cpp   **** #include "../h/kernel.h"
   3:src/SCB.cpp   **** #include "../h/MemoryAllocator.h"
   4:src/SCB.cpp   **** 
   5:src/SCB.cpp   **** kmem_cache_t* SCB::scbCache = nullptr;
   6:src/SCB.cpp   **** 
   7:src/SCB.cpp   **** void SCB::block() {
  64              		.loc 2 7 19 is_stmt 1
  65              		.cfi_startproc
  66              	.LVL2:
  67 0000 130101FF 		addi	sp,sp,-16
  68              		.cfi_def_cfa_offset 16
  69 0004 23348100 		sd	s0,8(sp)
  70              		.cfi_offset 8, -8
  71 0008 13040101 		addi	s0,sp,16
  72              		.cfi_def_cfa 8, 0
   8:src/SCB.cpp   ****     PCB::running->setNextInList(nullptr);
  73              		.loc 2 8 5
  74              		.loc 2 8 32 is_stmt 0
  75 000c 97070000 		la	a5,_ZN3PCB7runningE
  75      83B70700 
  76 0014 83B70700 		ld	a5,0(a5)
  77              	.LVL3:
GAS LISTING /tmp/ccT1FPXP.s 			page 3


  78              	.LBB26:
  79              	.LBB27:
  80              		.file 3 "src/../h/PCB.h"
   1:src/../h/PCB.h **** #ifndef PCB_H
   2:src/../h/PCB.h **** #define PCB_H
   3:src/../h/PCB.h **** 
   4:src/../h/PCB.h **** #include "hw.h"
   5:src/../h/PCB.h **** #include "slab.h"
   6:src/../h/PCB.h **** 
   7:src/../h/PCB.h **** extern "C" void interruptHandler();
   8:src/../h/PCB.h **** 
   9:src/../h/PCB.h **** class PCB {
  10:src/../h/PCB.h **** friend class Scheduler;
  11:src/../h/PCB.h **** friend void interruptHandler();
  12:src/../h/PCB.h **** friend class Kernel;
  13:src/../h/PCB.h **** friend class SCB;
  14:src/../h/PCB.h **** public:
  15:src/../h/PCB.h ****     // vraca true ako se proces zavrsio, false ako nije
  16:src/../h/PCB.h ****     bool isFinished() const {
  17:src/../h/PCB.h ****         return finished;
  18:src/../h/PCB.h ****     }
  19:src/../h/PCB.h ****     // vraca true ako je semafor obrisan pre nego sto je proces odblokiran
  20:src/../h/PCB.h ****     bool isSemaphoreDeleted() const {
  21:src/../h/PCB.h ****         return semDeleted;
  22:src/../h/PCB.h ****     }
  23:src/../h/PCB.h **** 
  24:src/../h/PCB.h ****     size_t getTimeSleeping() const {
  25:src/../h/PCB.h ****         return timeSleeping;
  26:src/../h/PCB.h ****     }
  27:src/../h/PCB.h **** 
  28:src/../h/PCB.h ****     void setTimeSleeping(size_t newTime) {
  29:src/../h/PCB.h ****         timeSleeping = newTime;
  30:src/../h/PCB.h ****     }
  31:src/../h/PCB.h **** 
  32:src/../h/PCB.h ****     PCB* getNextInList() const {
  33:src/../h/PCB.h ****         return nextInList;
  34:src/../h/PCB.h ****     }
  35:src/../h/PCB.h **** 
  36:src/../h/PCB.h ****     void setNextInList(PCB* next) {
  37:src/../h/PCB.h ****         nextInList = next;
  81              		.loc 3 37 9 is_stmt 1
  82              		.loc 3 37 20 is_stmt 0
  83 0018 23B00700 		sd	zero,0(a5)
  84              	.LVL4:
  85              	.LBE27:
  86              	.LBE26:
   9:src/SCB.cpp   ****     if(tail == nullptr) { // ako ne postoji kraj liste nece postojati ni pocetak
  87              		.loc 2 9 5 is_stmt 1
  88              		.loc 2 9 8 is_stmt 0
  89 001c 83378500 		ld	a5,8(a0)
  90              		.loc 2 9 5
  91 0020 63800704 		beqz	a5,.L9
  10:src/SCB.cpp   ****         head = tail = PCB::running;
  11:src/SCB.cpp   ****     }
  12:src/SCB.cpp   ****     else {
  13:src/SCB.cpp   ****         tail->setNextInList(PCB::running);
  92              		.loc 2 13 9 is_stmt 1
GAS LISTING /tmp/ccT1FPXP.s 			page 4


  93              		.loc 2 13 28 is_stmt 0
  94 0024 17070000 		la	a4,_ZN3PCB7runningE
  94      03370700 
  95 002c 03370700 		ld	a4,0(a4)
  96              	.LVL5:
  97              	.LBB28:
  98              	.LBB29:
  99              		.loc 3 37 9 is_stmt 1
 100              		.loc 3 37 20 is_stmt 0
 101 0030 23B0E700 		sd	a4,0(a5)
 102              	.LVL6:
 103              	.LBE29:
 104              	.LBE28:
  14:src/SCB.cpp   ****         tail = tail->getNextInList();
 105              		.loc 2 14 9 is_stmt 1
 106              		.loc 2 14 16 is_stmt 0
 107 0034 83378500 		ld	a5,8(a0)
 108              	.LVL7:
 109              	.LBB30:
 110              	.LBB31:
  33:src/../h/PCB.h ****     }
 111              		.loc 3 33 9 is_stmt 1
  33:src/../h/PCB.h ****     }
 112              		.loc 3 33 16 is_stmt 0
 113 0038 83B70700 		ld	a5,0(a5)
 114              	.LVL8:
 115              	.LBE31:
 116              	.LBE30:
 117              		.loc 2 14 14
 118 003c 2334F500 		sd	a5,8(a0)
 119              	.L7:
  15:src/SCB.cpp   ****     }
  16:src/SCB.cpp   ****     PCB::running->setBlocked(true);
 120              		.loc 2 16 5 is_stmt 1
 121              		.loc 2 16 29 is_stmt 0
 122 0040 97070000 		la	a5,_ZN3PCB7runningE
 122      83B70700 
 123 0048 83B70700 		ld	a5,0(a5)
 124              	.LVL9:
 125              	.LBB32:
 126              	.LBB33:
  38:src/../h/PCB.h ****     }
  39:src/../h/PCB.h **** 
  40:src/../h/PCB.h ****     void setBlocked(bool newState) {
  41:src/../h/PCB.h ****         blocked = newState;
 127              		.loc 3 41 9 is_stmt 1
 128              		.loc 3 41 17 is_stmt 0
 129 004c 13071000 		li	a4,1
 130 0050 A384E702 		sb	a4,41(a5)
 131              	.LVL10:
 132              	.LBE33:
 133              	.LBE32:
  17:src/SCB.cpp   **** }
 134              		.loc 2 17 1
 135 0054 03348100 		ld	s0,8(sp)
 136              		.cfi_remember_state
 137              		.cfi_restore 8
GAS LISTING /tmp/ccT1FPXP.s 			page 5


 138              		.cfi_def_cfa 2, 16
 139 0058 13010101 		addi	sp,sp,16
 140              		.cfi_def_cfa_offset 0
 141 005c 67800000 		jr	ra
 142              	.L9:
 143              		.cfi_restore_state
  10:src/SCB.cpp   ****     }
 144              		.loc 2 10 9 is_stmt 1
  10:src/SCB.cpp   ****     }
 145              		.loc 2 10 21 is_stmt 0
 146 0060 97070000 		la	a5,_ZN3PCB7runningE
 146      83B70700 
 147 0068 83B70700 		ld	a5,0(a5)
 148 006c 2334F500 		sd	a5,8(a0)
  10:src/SCB.cpp   ****     }
 149              		.loc 2 10 14
 150 0070 2330F500 		sd	a5,0(a0)
 151 0074 6FF0DFFC 		j	.L7
 152              		.cfi_endproc
 153              	.LFE44:
 155              		.align	2
 156              		.globl	_ZN3SCB7unblockEv
 158              	_ZN3SCB7unblockEv:
 159              	.LFB45:
  18:src/SCB.cpp   **** 
  19:src/SCB.cpp   **** PCB* SCB::unblock() {
 160              		.loc 2 19 21 is_stmt 1
 161              		.cfi_startproc
 162              	.LVL11:
 163 0078 130101FF 		addi	sp,sp,-16
 164              		.cfi_def_cfa_offset 16
 165 007c 23348100 		sd	s0,8(sp)
 166              		.cfi_offset 8, -8
 167 0080 13040101 		addi	s0,sp,16
 168              		.cfi_def_cfa 8, 0
 169 0084 93070500 		mv	a5,a0
  20:src/SCB.cpp   ****     if(head == nullptr) return nullptr;
 170              		.loc 2 20 5
 171              		.loc 2 20 8 is_stmt 0
 172 0088 03350500 		ld	a0,0(a0)
 173              	.LVL12:
 174              		.loc 2 20 5
 175 008c 630E0500 		beqz	a0,.L10
  21:src/SCB.cpp   ****     PCB* curr = head;
 176              		.loc 2 21 5 is_stmt 1
 177              	.LVL13:
  22:src/SCB.cpp   ****     head = head->getNextInList();
 178              		.loc 2 22 5
 179              	.LBB34:
 180              	.LBB35:
  33:src/../h/PCB.h ****     }
 181              		.loc 3 33 9
  33:src/../h/PCB.h ****     }
 182              		.loc 3 33 16 is_stmt 0
 183 0090 03370500 		ld	a4,0(a0)
 184              	.LVL14:
 185              	.LBE35:
GAS LISTING /tmp/ccT1FPXP.s 			page 6


 186              	.LBE34:
 187              		.loc 2 22 10
 188 0094 23B0E700 		sd	a4,0(a5)
  23:src/SCB.cpp   ****     if(tail == curr) {
 189              		.loc 2 23 5 is_stmt 1
 190              		.loc 2 23 8 is_stmt 0
 191 0098 83B68700 		ld	a3,8(a5)
 192              		.loc 2 23 5
 193 009c 630CD500 		beq	a0,a3,.L14
 194              	.L12:
  24:src/SCB.cpp   ****         tail = head;
  25:src/SCB.cpp   ****     }
  26:src/SCB.cpp   ****     curr->setBlocked(false);
 195              		.loc 2 26 5 is_stmt 1
 196              	.LVL15:
 197              	.LBB36:
 198              	.LBB37:
 199              		.loc 3 41 9
 200              		.loc 3 41 17 is_stmt 0
 201 00a0 A3040502 		sb	zero,41(a0)
 202              	.LVL16:
 203              	.LBE37:
 204              	.LBE36:
  27:src/SCB.cpp   ****     curr->setNextInList(nullptr);
 205              		.loc 2 27 5 is_stmt 1
 206              	.LBB38:
 207              	.LBB39:
  37:src/../h/PCB.h ****     }
 208              		.loc 3 37 9
  37:src/../h/PCB.h ****     }
 209              		.loc 3 37 20 is_stmt 0
 210 00a4 23300500 		sd	zero,0(a0)
 211              	.LVL17:
 212              	.LBE39:
 213              	.LBE38:
  28:src/SCB.cpp   ****     return curr;
 214              		.loc 2 28 5 is_stmt 1
 215              	.L10:
  29:src/SCB.cpp   **** }
 216              		.loc 2 29 1 is_stmt 0
 217 00a8 03348100 		ld	s0,8(sp)
 218              		.cfi_remember_state
 219              		.cfi_restore 8
 220              		.cfi_def_cfa 2, 16
 221 00ac 13010101 		addi	sp,sp,16
 222              		.cfi_def_cfa_offset 0
 223 00b0 67800000 		jr	ra
 224              	.LVL18:
 225              	.L14:
 226              		.cfi_restore_state
  24:src/SCB.cpp   ****     }
 227              		.loc 2 24 9 is_stmt 1
  24:src/SCB.cpp   ****     }
 228              		.loc 2 24 14 is_stmt 0
 229 00b4 23B4E700 		sd	a4,8(a5)
 230 00b8 6FF09FFE 		j	.L12
 231              		.cfi_endproc
GAS LISTING /tmp/ccT1FPXP.s 			page 7


 232              	.LFE45:
 234              		.align	2
 235              		.globl	_ZN3SCB4waitEv
 237              	_ZN3SCB4waitEv:
 238              	.LFB46:
  30:src/SCB.cpp   **** 
  31:src/SCB.cpp   **** int SCB::wait() {
 239              		.loc 2 31 17 is_stmt 1
 240              		.cfi_startproc
 241              	.LVL19:
  32:src/SCB.cpp   ****     if((int)(--semValue)<0) {
 242              		.loc 2 32 5
 243              		.loc 2 32 16 is_stmt 0
 244 00bc 83270501 		lw	a5,16(a0)
 245              		.loc 2 32 14
 246 00c0 9B87F7FF 		addiw	a5,a5,-1
 247              		.loc 2 32 25
 248 00c4 2328F500 		sw	a5,16(a0)
 249              		.loc 2 32 5
 250 00c8 13970702 		slli	a4,a5,32
 251 00cc 63400702 		bltz	a4,.L26
  33:src/SCB.cpp   ****         block();
  34:src/SCB.cpp   ****         PCB::timeSliceCounter = 0;
  35:src/SCB.cpp   ****         PCB::dispatch();
  36:src/SCB.cpp   ****     }
  37:src/SCB.cpp   **** 
  38:src/SCB.cpp   ****     if(PCB::running->semDeleted) { // ako se vratio kontekst, a semafor je obrisan
 252              		.loc 2 38 5 is_stmt 1
 253              		.loc 2 38 22 is_stmt 0
 254 00d0 97070000 		la	a5,_ZN3PCB7runningE
 254      83B70700 
 255 00d8 83B70700 		ld	a5,0(a5)
 256 00dc 83C7A702 		lbu	a5,42(a5)
 257              		.loc 2 38 5
 258 00e0 63940706 		bnez	a5,.L21
  39:src/SCB.cpp   ****         return -2;
  40:src/SCB.cpp   ****     }
  41:src/SCB.cpp   **** 
  42:src/SCB.cpp   ****     return 0;
 259              		.loc 2 42 12
 260 00e4 13050000 		li	a0,0
 261              	.LVL20:
 262 00e8 67800000 		ret
 263              	.LVL21:
 264              	.L26:
  31:src/SCB.cpp   ****     if((int)(--semValue)<0) {
 265              		.loc 2 31 17
 266 00ec 130101FF 		addi	sp,sp,-16
 267              		.cfi_def_cfa_offset 16
 268 00f0 23341100 		sd	ra,8(sp)
 269 00f4 23308100 		sd	s0,0(sp)
 270              		.cfi_offset 1, -8
 271              		.cfi_offset 8, -16
 272 00f8 13040101 		addi	s0,sp,16
 273              		.cfi_def_cfa 8, 0
  33:src/SCB.cpp   ****         block();
 274              		.loc 2 33 9 is_stmt 1
GAS LISTING /tmp/ccT1FPXP.s 			page 8


  33:src/SCB.cpp   ****         block();
 275              		.loc 2 33 14 is_stmt 0
 276 00fc 97000000 		call	_ZN3SCB5blockEv
 276      E7800000 
 277              	.LVL22:
  34:src/SCB.cpp   ****         PCB::dispatch();
 278              		.loc 2 34 9 is_stmt 1
  34:src/SCB.cpp   ****         PCB::dispatch();
 279              		.loc 2 34 31 is_stmt 0
 280 0104 97070000 		la	a5,_ZN3PCB16timeSliceCounterE
 280      83B70700 
 281 010c 23B00700 		sd	zero,0(a5)
  35:src/SCB.cpp   ****     }
 282              		.loc 2 35 9 is_stmt 1
  35:src/SCB.cpp   ****     }
 283              		.loc 2 35 22 is_stmt 0
 284 0110 97000000 		call	_ZN3PCB8dispatchEv@plt
 284      E7800000 
 285              	.LVL23:
  38:src/SCB.cpp   ****         return -2;
 286              		.loc 2 38 5 is_stmt 1
  38:src/SCB.cpp   ****         return -2;
 287              		.loc 2 38 22 is_stmt 0
 288 0118 97070000 		la	a5,_ZN3PCB7runningE
 288      83B70700 
 289 0120 83B70700 		ld	a5,0(a5)
 290 0124 83C7A702 		lbu	a5,42(a5)
  38:src/SCB.cpp   ****         return -2;
 291              		.loc 2 38 5
 292 0128 639C0700 		bnez	a5,.L18
 293              		.loc 2 42 12
 294 012c 13050000 		li	a0,0
 295              	.L17:
  43:src/SCB.cpp   **** 
  44:src/SCB.cpp   **** }
 296              		.loc 2 44 1
 297 0130 83308100 		ld	ra,8(sp)
 298              		.cfi_remember_state
 299              		.cfi_restore 1
 300 0134 03340100 		ld	s0,0(sp)
 301              		.cfi_restore 8
 302              		.cfi_def_cfa 2, 16
 303 0138 13010101 		addi	sp,sp,16
 304              		.cfi_def_cfa_offset 0
 305 013c 67800000 		jr	ra
 306              	.L18:
 307              		.cfi_restore_state
  39:src/SCB.cpp   ****     }
 308              		.loc 2 39 17
 309 0140 1305E0FF 		li	a0,-2
 310 0144 6FF0DFFE 		j	.L17
 311              	.LVL24:
 312              	.L21:
 313              		.cfi_def_cfa_register 2
 314              		.cfi_restore 1
 315              		.cfi_restore 8
 316 0148 1305E0FF 		li	a0,-2
GAS LISTING /tmp/ccT1FPXP.s 			page 9


 317              	.LVL25:
 318              		.loc 2 44 1
 319 014c 67800000 		ret
 320              		.cfi_endproc
 321              	.LFE46:
 323              		.align	2
 324              		.globl	_ZN3SCB6signalEv
 326              	_ZN3SCB6signalEv:
 327              	.LFB47:
  45:src/SCB.cpp   **** 
  46:src/SCB.cpp   **** void SCB::signal() {
 328              		.loc 2 46 20 is_stmt 1
 329              		.cfi_startproc
 330              	.LVL26:
  47:src/SCB.cpp   ****     if((int)(++semValue)<=0) {
 331              		.loc 2 47 5
 332              		.loc 2 47 16 is_stmt 0
 333 0150 83270501 		lw	a5,16(a0)
 334              		.loc 2 47 14
 335 0154 9B871700 		addiw	a5,a5,1
 336 0158 1B870700 		sext.w	a4,a5
 337              		.loc 2 47 25
 338 015c 2328F500 		sw	a5,16(a0)
 339              		.loc 2 47 5
 340 0160 6354E000 		blez	a4,.L33
 341 0164 67800000 		ret
 342              	.L33:
  46:src/SCB.cpp   ****     if((int)(++semValue)<=0) {
 343              		.loc 2 46 20
 344 0168 130101FF 		addi	sp,sp,-16
 345              		.cfi_def_cfa_offset 16
 346 016c 23341100 		sd	ra,8(sp)
 347 0170 23308100 		sd	s0,0(sp)
 348              		.cfi_offset 1, -8
 349              		.cfi_offset 8, -16
 350 0174 13040101 		addi	s0,sp,16
 351              		.cfi_def_cfa 8, 0
  48:src/SCB.cpp   ****         Scheduler::put(unblock());
 352              		.loc 2 48 9 is_stmt 1
 353              		.loc 2 48 23 is_stmt 0
 354 0178 97000000 		call	_ZN3SCB7unblockEv
 354      E7800000 
 355              	.LVL27:
 356 0180 97000000 		call	_ZN9Scheduler3putEP3PCB@plt
 356      E7800000 
 357              	.LVL28:
  49:src/SCB.cpp   ****     }
  50:src/SCB.cpp   **** 
  51:src/SCB.cpp   **** }
 358              		.loc 2 51 1
 359 0188 83308100 		ld	ra,8(sp)
 360              		.cfi_restore 1
 361 018c 03340100 		ld	s0,0(sp)
 362              		.cfi_restore 8
 363              		.cfi_def_cfa 2, 16
 364 0190 13010101 		addi	sp,sp,16
 365              		.cfi_def_cfa_offset 0
GAS LISTING /tmp/ccT1FPXP.s 			page 10


 366 0194 67800000 		jr	ra
 367              		.cfi_endproc
 368              	.LFE47:
 370              		.align	2
 371              		.globl	_ZN3SCB14prioritySignalEv
 373              	_ZN3SCB14prioritySignalEv:
 374              	.LFB48:
  52:src/SCB.cpp   **** 
  53:src/SCB.cpp   **** void SCB::prioritySignal() {
 375              		.loc 2 53 28 is_stmt 1
 376              		.cfi_startproc
 377              	.LVL29:
  54:src/SCB.cpp   ****     if((int)(++semValue)<=0) {
 378              		.loc 2 54 5
 379              		.loc 2 54 16 is_stmt 0
 380 0198 83270501 		lw	a5,16(a0)
 381              		.loc 2 54 14
 382 019c 9B871700 		addiw	a5,a5,1
 383 01a0 1B870700 		sext.w	a4,a5
 384              		.loc 2 54 25
 385 01a4 2328F500 		sw	a5,16(a0)
 386              		.loc 2 54 5
 387 01a8 6354E000 		blez	a4,.L40
 388 01ac 67800000 		ret
 389              	.L40:
  53:src/SCB.cpp   ****     if((int)(++semValue)<=0) {
 390              		.loc 2 53 28
 391 01b0 130101FF 		addi	sp,sp,-16
 392              		.cfi_def_cfa_offset 16
 393 01b4 23341100 		sd	ra,8(sp)
 394 01b8 23308100 		sd	s0,0(sp)
 395              		.cfi_offset 1, -8
 396              		.cfi_offset 8, -16
 397 01bc 13040101 		addi	s0,sp,16
 398              		.cfi_def_cfa 8, 0
  55:src/SCB.cpp   ****         Scheduler::putInFront(unblock());
 399              		.loc 2 55 9 is_stmt 1
 400              		.loc 2 55 30 is_stmt 0
 401 01c0 97000000 		call	_ZN3SCB7unblockEv
 401      E7800000 
 402              	.LVL30:
 403 01c8 97000000 		call	_ZN9Scheduler10putInFrontEP3PCB@plt
 403      E7800000 
 404              	.LVL31:
  56:src/SCB.cpp   ****     }
  57:src/SCB.cpp   **** }
 405              		.loc 2 57 1
 406 01d0 83308100 		ld	ra,8(sp)
 407              		.cfi_restore 1
 408 01d4 03340100 		ld	s0,0(sp)
 409              		.cfi_restore 8
 410              		.cfi_def_cfa 2, 16
 411 01d8 13010101 		addi	sp,sp,16
 412              		.cfi_def_cfa_offset 0
 413 01dc 67800000 		jr	ra
 414              		.cfi_endproc
 415              	.LFE48:
GAS LISTING /tmp/ccT1FPXP.s 			page 11


 417              		.align	2
 418              		.globl	_ZN3SCBnwEm
 420              	_ZN3SCBnwEm:
 421              	.LFB49:
  58:src/SCB.cpp   **** 
  59:src/SCB.cpp   **** void *SCB::operator new(size_t size) {
 422              		.loc 2 59 38 is_stmt 1
 423              		.cfi_startproc
 424              	.LVL32:
 425 01e0 130101FF 		addi	sp,sp,-16
 426              		.cfi_def_cfa_offset 16
 427 01e4 23341100 		sd	ra,8(sp)
 428 01e8 23308100 		sd	s0,0(sp)
 429              		.cfi_offset 1, -8
 430              		.cfi_offset 8, -16
 431 01ec 13040101 		addi	s0,sp,16
 432              		.cfi_def_cfa 8, 0
  60:src/SCB.cpp   ****     return MemoryAllocator::mem_alloc(size);
 433              		.loc 2 60 5
 434              		.loc 2 60 38 is_stmt 0
 435 01f0 97000000 		call	_ZN15MemoryAllocator9mem_allocEm@plt
 435      E7800000 
 436              	.LVL33:
  61:src/SCB.cpp   **** }
 437              		.loc 2 61 1
 438 01f8 83308100 		ld	ra,8(sp)
 439              		.cfi_restore 1
 440 01fc 03340100 		ld	s0,0(sp)
 441              		.cfi_restore 8
 442              		.cfi_def_cfa 2, 16
 443 0200 13010101 		addi	sp,sp,16
 444              		.cfi_def_cfa_offset 0
 445 0204 67800000 		jr	ra
 446              		.cfi_endproc
 447              	.LFE49:
 449              		.align	2
 450              		.globl	_ZN3SCBdlEPv
 452              	_ZN3SCBdlEPv:
 453              	.LFB50:
  62:src/SCB.cpp   **** 
  63:src/SCB.cpp   **** void SCB::operator delete(void *memSegment) {
 454              		.loc 2 63 45 is_stmt 1
 455              		.cfi_startproc
 456              	.LVL34:
 457 0208 130101FF 		addi	sp,sp,-16
 458              		.cfi_def_cfa_offset 16
 459 020c 23341100 		sd	ra,8(sp)
 460 0210 23308100 		sd	s0,0(sp)
 461              		.cfi_offset 1, -8
 462              		.cfi_offset 8, -16
 463 0214 13040101 		addi	s0,sp,16
 464              		.cfi_def_cfa 8, 0
  64:src/SCB.cpp   ****     MemoryAllocator::mem_free(memSegment);
 465              		.loc 2 64 5
 466              		.loc 2 64 30 is_stmt 0
 467 0218 97000000 		call	_ZN15MemoryAllocator8mem_freeEPv@plt
 467      E7800000 
GAS LISTING /tmp/ccT1FPXP.s 			page 12


 468              	.LVL35:
  65:src/SCB.cpp   **** }
 469              		.loc 2 65 1
 470 0220 83308100 		ld	ra,8(sp)
 471              		.cfi_restore 1
 472 0224 03340100 		ld	s0,0(sp)
 473              		.cfi_restore 8
 474              		.cfi_def_cfa 2, 16
 475 0228 13010101 		addi	sp,sp,16
 476              		.cfi_def_cfa_offset 0
 477 022c 67800000 		jr	ra
 478              		.cfi_endproc
 479              	.LFE50:
 481              		.align	2
 482              		.globl	_ZN3SCB13signalClosingEv
 484              	_ZN3SCB13signalClosingEv:
 485              	.LFB51:
  66:src/SCB.cpp   **** 
  67:src/SCB.cpp   **** void SCB::signalClosing() {
 486              		.loc 2 67 27 is_stmt 1
 487              		.cfi_startproc
 488              	.LVL36:
 489 0230 130101FE 		addi	sp,sp,-32
 490              		.cfi_def_cfa_offset 32
 491 0234 233C1100 		sd	ra,24(sp)
 492 0238 23388100 		sd	s0,16(sp)
 493 023c 23349100 		sd	s1,8(sp)
 494 0240 23302101 		sd	s2,0(sp)
 495              		.cfi_offset 1, -8
 496              		.cfi_offset 8, -16
 497              		.cfi_offset 9, -24
 498              		.cfi_offset 18, -32
 499 0244 13040102 		addi	s0,sp,32
 500              		.cfi_def_cfa 8, 0
 501 0248 13090500 		mv	s2,a0
  68:src/SCB.cpp   ****     PCB* curr = head;
 502              		.loc 2 68 5
 503              		.loc 2 68 10 is_stmt 0
 504 024c 03350500 		ld	a0,0(a0)
 505              	.LVL37:
 506              	.L47:
  69:src/SCB.cpp   ****     while(curr) {
 507              		.loc 2 69 5 is_stmt 1
 508              		.loc 2 69 11
 509 0250 63020502 		beqz	a0,.L46
 510              	.LBB40:
  70:src/SCB.cpp   ****         PCB* last = curr;
 511              		.loc 2 70 9
 512              	.LVL38:
  71:src/SCB.cpp   ****         curr->setSemDeleted(true);
 513              		.loc 2 71 9
 514              	.LBB41:
 515              	.LBB42:
  42:src/../h/PCB.h ****     }
  43:src/../h/PCB.h **** 
  44:src/../h/PCB.h ****     void setSemDeleted(bool newState) {
  45:src/../h/PCB.h ****         semDeleted = newState;
GAS LISTING /tmp/ccT1FPXP.s 			page 13


 516              		.loc 3 45 9
 517              		.loc 3 45 20 is_stmt 0
 518 0254 93071000 		li	a5,1
 519 0258 2305F502 		sb	a5,42(a0)
 520              	.LVL39:
 521              	.LBE42:
 522              	.LBE41:
  72:src/SCB.cpp   ****         curr->setBlocked(false);
 523              		.loc 2 72 9 is_stmt 1
 524              	.LBB43:
 525              	.LBB44:
  41:src/../h/PCB.h ****     }
 526              		.loc 3 41 9
  41:src/../h/PCB.h ****     }
 527              		.loc 3 41 17 is_stmt 0
 528 025c A3040502 		sb	zero,41(a0)
 529              	.LVL40:
 530              	.LBE44:
 531              	.LBE43:
  73:src/SCB.cpp   ****         curr = curr->getNextInList();
 532              		.loc 2 73 9 is_stmt 1
 533              	.LBB45:
 534              	.LBB46:
  33:src/../h/PCB.h ****     }
 535              		.loc 3 33 9
  33:src/../h/PCB.h ****     }
 536              		.loc 3 33 16 is_stmt 0
 537 0260 83340500 		ld	s1,0(a0)
 538              	.LVL41:
 539              	.LBE46:
 540              	.LBE45:
  74:src/SCB.cpp   ****         Scheduler::put(last);
 541              		.loc 2 74 9 is_stmt 1
 542              		.loc 2 74 23 is_stmt 0
 543 0264 97000000 		call	_ZN9Scheduler3putEP3PCB@plt
 543      E7800000 
 544              	.LVL42:
  73:src/SCB.cpp   ****         curr = curr->getNextInList();
 545              		.loc 2 73 35
 546 026c 13850400 		mv	a0,s1
 547              	.LBE40:
  69:src/SCB.cpp   ****         PCB* last = curr;
 548              		.loc 2 69 5
 549 0270 6FF01FFE 		j	.L47
 550              	.LVL43:
 551              	.L46:
  75:src/SCB.cpp   ****     }
  76:src/SCB.cpp   ****     head = tail = nullptr;
 552              		.loc 2 76 5 is_stmt 1
 553              		.loc 2 76 17 is_stmt 0
 554 0274 23340900 		sd	zero,8(s2)
 555              		.loc 2 76 10
 556 0278 23300900 		sd	zero,0(s2)
  77:src/SCB.cpp   **** }
 557              		.loc 2 77 1
 558 027c 83308101 		ld	ra,24(sp)
 559              		.cfi_restore 1
GAS LISTING /tmp/ccT1FPXP.s 			page 14


 560 0280 03340101 		ld	s0,16(sp)
 561              		.cfi_restore 8
 562              		.cfi_def_cfa 2, 32
 563 0284 83348100 		ld	s1,8(sp)
 564              		.cfi_restore 9
 565 0288 03390100 		ld	s2,0(sp)
 566              		.cfi_restore 18
 567              	.LVL44:
 568 028c 13010102 		addi	sp,sp,32
 569              		.cfi_def_cfa_offset 0
 570 0290 67800000 		jr	ra
 571              		.cfi_endproc
 572              	.LFE51:
 574              		.align	2
 575              		.globl	_ZN3SCB15createSemaphoreEi
 577              	_ZN3SCB15createSemaphoreEi:
 578              	.LFB53:
  78:src/SCB.cpp   **** 
  79:src/SCB.cpp   **** SCB *SCB::createSysSemaphore(int semValue) {
  80:src/SCB.cpp   ****     if(!scbCache) initSCBCache();
  81:src/SCB.cpp   ****     SCB* object = (SCB*) kmem_cache_alloc(scbCache);
  82:src/SCB.cpp   ****     object->scbInit(semValue);
  83:src/SCB.cpp   ****     return object;
  84:src/SCB.cpp   **** }
  85:src/SCB.cpp   **** 
  86:src/SCB.cpp   **** SCB *SCB::createSemaphore(int semValue) {
 579              		.loc 2 86 41 is_stmt 1
 580              		.cfi_startproc
 581              	.LVL45:
 582 0294 130101FE 		addi	sp,sp,-32
 583              		.cfi_def_cfa_offset 32
 584 0298 233C1100 		sd	ra,24(sp)
 585 029c 23388100 		sd	s0,16(sp)
 586 02a0 23349100 		sd	s1,8(sp)
 587              		.cfi_offset 1, -8
 588              		.cfi_offset 8, -16
 589              		.cfi_offset 9, -24
 590 02a4 13040102 		addi	s0,sp,32
 591              		.cfi_def_cfa 8, 0
 592 02a8 93040500 		mv	s1,a0
  87:src/SCB.cpp   ****     return new SCB(semValue);
 593              		.loc 2 87 5
 594              		.loc 2 87 28 is_stmt 0
 595 02ac 13058001 		li	a0,24
 596              	.LVL46:
 597 02b0 97000000 		call	_ZN3SCBnwEm
 597      E7800000 
 598              	.LVL47:
 599              	.LBB47:
 600              	.LBB48:
  34:src/../h/SCB.h ****     static kmem_cache_t* scbCache;//TODO private
  35:src/../h/SCB.h ****     static void initSCBCache();
  36:src/../h/SCB.h **** private:
  37:src/../h/SCB.h **** 
  38:src/../h/SCB.h ****     void scbInit(int semValue);
  39:src/../h/SCB.h ****     SCB(int semValue_ = 1) {
 601              		.loc 1 39 28
GAS LISTING /tmp/ccT1FPXP.s 			page 15


 602 02b8 23300500 		sd	zero,0(a0)
 603 02bc 23340500 		sd	zero,8(a0)
  40:src/../h/SCB.h ****         semValue = semValue_;
 604              		.loc 1 40 9 is_stmt 1
 605              		.loc 1 40 18 is_stmt 0
 606 02c0 23289500 		sw	s1,16(a0)
 607              	.LVL48:
 608              	.LBE48:
 609              	.LBE47:
  88:src/SCB.cpp   **** }
 610              		.loc 2 88 1
 611 02c4 83308101 		ld	ra,24(sp)
 612              		.cfi_restore 1
 613 02c8 03340101 		ld	s0,16(sp)
 614              		.cfi_restore 8
 615              		.cfi_def_cfa 2, 32
 616 02cc 83348100 		ld	s1,8(sp)
 617              		.cfi_restore 9
 618 02d0 13010102 		addi	sp,sp,32
 619              		.cfi_def_cfa_offset 0
 620 02d4 67800000 		jr	ra
 621              		.cfi_endproc
 622              	.LFE53:
 624              		.align	2
 625              		.globl	_ZN3SCB7scbInitEi
 627              	_ZN3SCB7scbInitEi:
 628              	.LFB54:
  89:src/SCB.cpp   **** 
  90:src/SCB.cpp   **** void SCB::scbInit(int semValue_) {
 629              		.loc 2 90 34 is_stmt 1
 630              		.cfi_startproc
 631              	.LVL49:
 632 02d8 130101FF 		addi	sp,sp,-16
 633              		.cfi_def_cfa_offset 16
 634 02dc 23348100 		sd	s0,8(sp)
 635              		.cfi_offset 8, -8
 636 02e0 13040101 		addi	s0,sp,16
 637              		.cfi_def_cfa 8, 0
  91:src/SCB.cpp   ****     head = tail = nullptr;
 638              		.loc 2 91 5
 639              		.loc 2 91 17 is_stmt 0
 640 02e4 23340500 		sd	zero,8(a0)
 641              		.loc 2 91 10
 642 02e8 23300500 		sd	zero,0(a0)
  92:src/SCB.cpp   ****     semValue = semValue_;
 643              		.loc 2 92 5 is_stmt 1
 644              		.loc 2 92 14 is_stmt 0
 645 02ec 2328B500 		sw	a1,16(a0)
  93:src/SCB.cpp   **** }
 646              		.loc 2 93 1
 647 02f0 03348100 		ld	s0,8(sp)
 648              		.cfi_restore 8
 649              		.cfi_def_cfa 2, 16
 650 02f4 13010101 		addi	sp,sp,16
 651              		.cfi_def_cfa_offset 0
 652 02f8 67800000 		jr	ra
 653              		.cfi_endproc
GAS LISTING /tmp/ccT1FPXP.s 			page 16


 654              	.LFE54:
 656              		.section	.rodata.str1.8,"aMS",@progbits,1
 657              		.align	3
 658              	.LC0:
 659 0000 53434200 		.string	"SCB"
 660              		.text
 661              		.align	2
 662              		.globl	_ZN3SCB12initSCBCacheEv
 664              	_ZN3SCB12initSCBCacheEv:
 665              	.LFB55:
  94:src/SCB.cpp   **** 
  95:src/SCB.cpp   **** void SCB::initSCBCache() {
 666              		.loc 2 95 26 is_stmt 1
 667              		.cfi_startproc
 668 02fc 130101FF 		addi	sp,sp,-16
 669              		.cfi_def_cfa_offset 16
 670 0300 23341100 		sd	ra,8(sp)
 671 0304 23308100 		sd	s0,0(sp)
 672              		.cfi_offset 1, -8
 673              		.cfi_offset 8, -16
 674 0308 13040101 		addi	s0,sp,16
 675              		.cfi_def_cfa 8, 0
  96:src/SCB.cpp   ****     scbCache = kmem_cache_create("SCB", sizeof(SCB), &createObject, &freeObject);
 676              		.loc 2 96 5
 677              		.loc 2 96 33 is_stmt 0
 678 030c 97060000 		lla	a3,_ZN3SCB10freeObjectEPv
 678      93860600 
 679 0314 17060000 		lla	a2,_ZN3SCB12createObjectEPv
 679      13060600 
 680 031c 93058001 		li	a1,24
 681 0320 17050000 		lla	a0,.LC0
 681      13050500 
 682 0328 97000000 		call	_Z17kmem_cache_createPKcmPFvPvES3_@plt
 682      E7800000 
 683              	.LVL50:
 684              		.loc 2 96 14
 685 0330 97070000 		sd	a0,.LANCHOR0,a5
 685      23B0A700 
  97:src/SCB.cpp   **** }
 686              		.loc 2 97 1
 687 0338 83308100 		ld	ra,8(sp)
 688              		.cfi_restore 1
 689 033c 03340100 		ld	s0,0(sp)
 690              		.cfi_restore 8
 691              		.cfi_def_cfa 2, 16
 692 0340 13010101 		addi	sp,sp,16
 693              		.cfi_def_cfa_offset 0
 694 0344 67800000 		jr	ra
 695              		.cfi_endproc
 696              	.LFE55:
 698              		.align	2
 699              		.globl	_ZN3SCB18createSysSemaphoreEi
 701              	_ZN3SCB18createSysSemaphoreEi:
 702              	.LFB52:
  79:src/SCB.cpp   ****     if(!scbCache) initSCBCache();
 703              		.loc 2 79 44 is_stmt 1
 704              		.cfi_startproc
GAS LISTING /tmp/ccT1FPXP.s 			page 17


 705              	.LVL51:
 706 0348 130101FE 		addi	sp,sp,-32
 707              		.cfi_def_cfa_offset 32
 708 034c 233C1100 		sd	ra,24(sp)
 709 0350 23388100 		sd	s0,16(sp)
 710 0354 23349100 		sd	s1,8(sp)
 711 0358 23302101 		sd	s2,0(sp)
 712              		.cfi_offset 1, -8
 713              		.cfi_offset 8, -16
 714              		.cfi_offset 9, -24
 715              		.cfi_offset 18, -32
 716 035c 13040102 		addi	s0,sp,32
 717              		.cfi_def_cfa 8, 0
 718 0360 13090500 		mv	s2,a0
  80:src/SCB.cpp   ****     SCB* object = (SCB*) kmem_cache_alloc(scbCache);
 719              		.loc 2 80 5
  80:src/SCB.cpp   ****     SCB* object = (SCB*) kmem_cache_alloc(scbCache);
 720              		.loc 2 80 8 is_stmt 0
 721 0364 97070000 		ld	a5,.LANCHOR0
 721      83B70700 
  80:src/SCB.cpp   ****     SCB* object = (SCB*) kmem_cache_alloc(scbCache);
 722              		.loc 2 80 5
 723 036c 63800704 		beqz	a5,.L58
 724              	.LVL52:
 725              	.L56:
  81:src/SCB.cpp   ****     object->scbInit(semValue);
 726              		.loc 2 81 5 is_stmt 1
  81:src/SCB.cpp   ****     object->scbInit(semValue);
 727              		.loc 2 81 42 is_stmt 0
 728 0370 17050000 		ld	a0,.LANCHOR0
 728      03350500 
 729 0378 97000000 		call	_Z16kmem_cache_allocP12kmem_cache_s@plt
 729      E7800000 
 730              	.LVL53:
 731 0380 93040500 		mv	s1,a0
 732              	.LVL54:
  82:src/SCB.cpp   ****     return object;
 733              		.loc 2 82 5 is_stmt 1
  82:src/SCB.cpp   ****     return object;
 734              		.loc 2 82 20 is_stmt 0
 735 0384 93050900 		mv	a1,s2
 736 0388 97000000 		call	_ZN3SCB7scbInitEi
 736      E7800000 
 737              	.LVL55:
  83:src/SCB.cpp   **** }
 738              		.loc 2 83 5 is_stmt 1
  84:src/SCB.cpp   **** 
 739              		.loc 2 84 1 is_stmt 0
 740 0390 13850400 		mv	a0,s1
 741 0394 83308101 		ld	ra,24(sp)
 742              		.cfi_remember_state
 743              		.cfi_restore 1
 744 0398 03340101 		ld	s0,16(sp)
 745              		.cfi_restore 8
 746              		.cfi_def_cfa 2, 32
 747 039c 83348100 		ld	s1,8(sp)
 748              		.cfi_restore 9
GAS LISTING /tmp/ccT1FPXP.s 			page 18


 749              	.LVL56:
 750 03a0 03390100 		ld	s2,0(sp)
 751              		.cfi_restore 18
 752 03a4 13010102 		addi	sp,sp,32
 753              		.cfi_def_cfa_offset 0
 754 03a8 67800000 		jr	ra
 755              	.LVL57:
 756              	.L58:
 757              		.cfi_restore_state
  80:src/SCB.cpp   ****     SCB* object = (SCB*) kmem_cache_alloc(scbCache);
 758              		.loc 2 80 19 is_stmt 1 discriminator 1
  80:src/SCB.cpp   ****     SCB* object = (SCB*) kmem_cache_alloc(scbCache);
 759              		.loc 2 80 31 is_stmt 0 discriminator 1
 760 03ac 97000000 		call	_ZN3SCB12initSCBCacheEv
 760      E7800000 
 761              	.LVL58:
 762 03b4 6FF0DFFB 		j	.L56
 763              		.cfi_endproc
 764              	.LFE52:
 766              		.globl	_ZN3SCB8scbCacheE
 767              		.bss
 768              		.align	3
 769              		.set	.LANCHOR0,. + 0
 772              	_ZN3SCB8scbCacheE:
 773 0000 00000000 		.zero	8
 773      00000000 
 774              		.text
 775              	.Letext0:
 776              		.file 4 "src/../h/hw.h"
 777              		.file 5 "src/../h/slab.h"
 778              		.file 6 "src/../h/Scheduler.h"
 779              		.file 7 "src/../h/MemoryAllocator.h"
GAS LISTING /tmp/ccT1FPXP.s 			page 19


DEFINED SYMBOLS
                            *ABS*:0000000000000000 SCB.cpp
     /tmp/ccT1FPXP.s:10     .text._ZN3SCB12createObjectEPv:0000000000000000 _ZN3SCB12createObjectEPv
     /tmp/ccT1FPXP.s:14     .text._ZN3SCB12createObjectEPv:0000000000000000 .L0 
     /tmp/ccT1FPXP.s:16     .text._ZN3SCB12createObjectEPv:0000000000000000 .L0 
     /tmp/ccT1FPXP.s:17     .text._ZN3SCB12createObjectEPv:0000000000000004 .L0 
     /tmp/ccT1FPXP.s:19     .text._ZN3SCB12createObjectEPv:0000000000000008 .L0 
     /tmp/ccT1FPXP.s:21     .text._ZN3SCB12createObjectEPv:000000000000000c .L0 
     /tmp/ccT1FPXP.s:23     .text._ZN3SCB12createObjectEPv:000000000000000c .L0 
     /tmp/ccT1FPXP.s:24     .text._ZN3SCB12createObjectEPv:0000000000000010 .L0 
     /tmp/ccT1FPXP.s:25     .text._ZN3SCB12createObjectEPv:0000000000000010 .L0 
     /tmp/ccT1FPXP.s:27     .text._ZN3SCB12createObjectEPv:0000000000000014 .L0 
     /tmp/ccT1FPXP.s:29     .text._ZN3SCB12createObjectEPv:0000000000000018 .L0 
     /tmp/ccT1FPXP.s:36     .text._ZN3SCB10freeObjectEPv:0000000000000000 _ZN3SCB10freeObjectEPv
     /tmp/ccT1FPXP.s:39     .text._ZN3SCB10freeObjectEPv:0000000000000000 .L0 
     /tmp/ccT1FPXP.s:41     .text._ZN3SCB10freeObjectEPv:0000000000000000 .L0 
     /tmp/ccT1FPXP.s:42     .text._ZN3SCB10freeObjectEPv:0000000000000004 .L0 
     /tmp/ccT1FPXP.s:44     .text._ZN3SCB10freeObjectEPv:0000000000000008 .L0 
     /tmp/ccT1FPXP.s:46     .text._ZN3SCB10freeObjectEPv:000000000000000c .L0 
     /tmp/ccT1FPXP.s:48     .text._ZN3SCB10freeObjectEPv:000000000000000c .L0 
     /tmp/ccT1FPXP.s:49     .text._ZN3SCB10freeObjectEPv:0000000000000010 .L0 
     /tmp/ccT1FPXP.s:50     .text._ZN3SCB10freeObjectEPv:0000000000000010 .L0 
     /tmp/ccT1FPXP.s:52     .text._ZN3SCB10freeObjectEPv:0000000000000014 .L0 
     /tmp/ccT1FPXP.s:54     .text._ZN3SCB10freeObjectEPv:0000000000000018 .L0 
     /tmp/ccT1FPXP.s:61     .text:0000000000000000 _ZN3SCB5blockEv
     /tmp/ccT1FPXP.s:65     .text:0000000000000000 .L0 
     /tmp/ccT1FPXP.s:67     .text:0000000000000000 .L0 
     /tmp/ccT1FPXP.s:68     .text:0000000000000004 .L0 
     /tmp/ccT1FPXP.s:70     .text:0000000000000008 .L0 
     /tmp/ccT1FPXP.s:72     .text:000000000000000c .L0 
     /tmp/ccT1FPXP.s:74     .text:000000000000000c .L0 
     /tmp/ccT1FPXP.s:75     .text:000000000000000c .L0 
     /tmp/ccT1FPXP.s:82     .text:0000000000000018 .L0 
     /tmp/ccT1FPXP.s:83     .text:0000000000000018 .L0 
     /tmp/ccT1FPXP.s:88     .text:000000000000001c .L0 
     /tmp/ccT1FPXP.s:89     .text:000000000000001c .L0 
     /tmp/ccT1FPXP.s:91     .text:0000000000000020 .L0 
     /tmp/ccT1FPXP.s:93     .text:0000000000000024 .L0 
     /tmp/ccT1FPXP.s:94     .text:0000000000000024 .L0 
     /tmp/ccT1FPXP.s:100    .text:0000000000000030 .L0 
     /tmp/ccT1FPXP.s:101    .text:0000000000000030 .L0 
     /tmp/ccT1FPXP.s:106    .text:0000000000000034 .L0 
     /tmp/ccT1FPXP.s:107    .text:0000000000000034 .L0 
     /tmp/ccT1FPXP.s:112    .text:0000000000000038 .L0 
     /tmp/ccT1FPXP.s:113    .text:0000000000000038 .L0 
     /tmp/ccT1FPXP.s:118    .text:000000000000003c .L0 
     /tmp/ccT1FPXP.s:121    .text:0000000000000040 .L0 
     /tmp/ccT1FPXP.s:122    .text:0000000000000040 .L0 
     /tmp/ccT1FPXP.s:128    .text:000000000000004c .L0 
     /tmp/ccT1FPXP.s:129    .text:000000000000004c .L0 
     /tmp/ccT1FPXP.s:135    .text:0000000000000054 .L0 
     /tmp/ccT1FPXP.s:136    .text:0000000000000058 .L0 
     /tmp/ccT1FPXP.s:137    .text:0000000000000058 .L0 
     /tmp/ccT1FPXP.s:138    .text:0000000000000058 .L0 
     /tmp/ccT1FPXP.s:140    .text:000000000000005c .L0 
     /tmp/ccT1FPXP.s:143    .text:0000000000000060 .L0 
     /tmp/ccT1FPXP.s:145    .text:0000000000000060 .L0 
GAS LISTING /tmp/ccT1FPXP.s 			page 20


     /tmp/ccT1FPXP.s:146    .text:0000000000000060 .L0 
     /tmp/ccT1FPXP.s:150    .text:0000000000000070 .L0 
     /tmp/ccT1FPXP.s:152    .text:0000000000000078 .L0 
     /tmp/ccT1FPXP.s:158    .text:0000000000000078 _ZN3SCB7unblockEv
     /tmp/ccT1FPXP.s:161    .text:0000000000000078 .L0 
     /tmp/ccT1FPXP.s:163    .text:0000000000000078 .L0 
     /tmp/ccT1FPXP.s:164    .text:000000000000007c .L0 
     /tmp/ccT1FPXP.s:166    .text:0000000000000080 .L0 
     /tmp/ccT1FPXP.s:168    .text:0000000000000084 .L0 
     /tmp/ccT1FPXP.s:171    .text:0000000000000088 .L0 
     /tmp/ccT1FPXP.s:172    .text:0000000000000088 .L0 
     /tmp/ccT1FPXP.s:175    .text:000000000000008c .L0 
     /tmp/ccT1FPXP.s:178    .text:0000000000000090 .L0 
     /tmp/ccT1FPXP.s:181    .text:0000000000000090 .L0 
     /tmp/ccT1FPXP.s:182    .text:0000000000000090 .L0 
     /tmp/ccT1FPXP.s:183    .text:0000000000000090 .L0 
     /tmp/ccT1FPXP.s:188    .text:0000000000000094 .L0 
     /tmp/ccT1FPXP.s:190    .text:0000000000000098 .L0 
     /tmp/ccT1FPXP.s:191    .text:0000000000000098 .L0 
     /tmp/ccT1FPXP.s:193    .text:000000000000009c .L0 
     /tmp/ccT1FPXP.s:199    .text:00000000000000a0 .L0 
     /tmp/ccT1FPXP.s:200    .text:00000000000000a0 .L0 
     /tmp/ccT1FPXP.s:201    .text:00000000000000a0 .L0 
     /tmp/ccT1FPXP.s:208    .text:00000000000000a4 .L0 
     /tmp/ccT1FPXP.s:209    .text:00000000000000a4 .L0 
     /tmp/ccT1FPXP.s:210    .text:00000000000000a4 .L0 
     /tmp/ccT1FPXP.s:216    .text:00000000000000a8 .L0 
     /tmp/ccT1FPXP.s:217    .text:00000000000000a8 .L0 
     /tmp/ccT1FPXP.s:218    .text:00000000000000ac .L0 
     /tmp/ccT1FPXP.s:219    .text:00000000000000ac .L0 
     /tmp/ccT1FPXP.s:220    .text:00000000000000ac .L0 
     /tmp/ccT1FPXP.s:222    .text:00000000000000b0 .L0 
     /tmp/ccT1FPXP.s:226    .text:00000000000000b4 .L0 
     /tmp/ccT1FPXP.s:228    .text:00000000000000b4 .L0 
     /tmp/ccT1FPXP.s:229    .text:00000000000000b4 .L0 
     /tmp/ccT1FPXP.s:231    .text:00000000000000bc .L0 
     /tmp/ccT1FPXP.s:237    .text:00000000000000bc _ZN3SCB4waitEv
     /tmp/ccT1FPXP.s:240    .text:00000000000000bc .L0 
     /tmp/ccT1FPXP.s:242    .text:00000000000000bc .L0 
     /tmp/ccT1FPXP.s:243    .text:00000000000000bc .L0 
     /tmp/ccT1FPXP.s:244    .text:00000000000000bc .L0 
     /tmp/ccT1FPXP.s:246    .text:00000000000000c0 .L0 
     /tmp/ccT1FPXP.s:248    .text:00000000000000c4 .L0 
     /tmp/ccT1FPXP.s:250    .text:00000000000000c8 .L0 
     /tmp/ccT1FPXP.s:253    .text:00000000000000d0 .L0 
     /tmp/ccT1FPXP.s:254    .text:00000000000000d0 .L0 
     /tmp/ccT1FPXP.s:258    .text:00000000000000e0 .L0 
     /tmp/ccT1FPXP.s:260    .text:00000000000000e4 .L0 
     /tmp/ccT1FPXP.s:266    .text:00000000000000ec .L0 
     /tmp/ccT1FPXP.s:267    .text:00000000000000f0 .L0 
     /tmp/ccT1FPXP.s:270    .text:00000000000000f8 .L0 
     /tmp/ccT1FPXP.s:271    .text:00000000000000f8 .L0 
     /tmp/ccT1FPXP.s:273    .text:00000000000000fc .L0 
     /tmp/ccT1FPXP.s:275    .text:00000000000000fc .L0 
     /tmp/ccT1FPXP.s:276    .text:00000000000000fc .L0 
     /tmp/ccT1FPXP.s:279    .text:0000000000000104 .L0 
     /tmp/ccT1FPXP.s:280    .text:0000000000000104 .L0 
GAS LISTING /tmp/ccT1FPXP.s 			page 21


     /tmp/ccT1FPXP.s:283    .text:0000000000000110 .L0 
     /tmp/ccT1FPXP.s:284    .text:0000000000000110 .L0 
     /tmp/ccT1FPXP.s:287    .text:0000000000000118 .L0 
     /tmp/ccT1FPXP.s:288    .text:0000000000000118 .L0 
     /tmp/ccT1FPXP.s:292    .text:0000000000000128 .L0 
     /tmp/ccT1FPXP.s:294    .text:000000000000012c .L0 
     /tmp/ccT1FPXP.s:297    .text:0000000000000130 .L0 
     /tmp/ccT1FPXP.s:298    .text:0000000000000134 .L0 
     /tmp/ccT1FPXP.s:299    .text:0000000000000134 .L0 
     /tmp/ccT1FPXP.s:301    .text:0000000000000138 .L0 
     /tmp/ccT1FPXP.s:302    .text:0000000000000138 .L0 
     /tmp/ccT1FPXP.s:304    .text:000000000000013c .L0 
     /tmp/ccT1FPXP.s:307    .text:0000000000000140 .L0 
     /tmp/ccT1FPXP.s:309    .text:0000000000000140 .L0 
     /tmp/ccT1FPXP.s:313    .text:0000000000000148 .L0 
     /tmp/ccT1FPXP.s:314    .text:0000000000000148 .L0 
     /tmp/ccT1FPXP.s:315    .text:0000000000000148 .L0 
     /tmp/ccT1FPXP.s:319    .text:000000000000014c .L0 
     /tmp/ccT1FPXP.s:320    .text:0000000000000150 .L0 
     /tmp/ccT1FPXP.s:326    .text:0000000000000150 _ZN3SCB6signalEv
     /tmp/ccT1FPXP.s:329    .text:0000000000000150 .L0 
     /tmp/ccT1FPXP.s:331    .text:0000000000000150 .L0 
     /tmp/ccT1FPXP.s:332    .text:0000000000000150 .L0 
     /tmp/ccT1FPXP.s:333    .text:0000000000000150 .L0 
     /tmp/ccT1FPXP.s:335    .text:0000000000000154 .L0 
     /tmp/ccT1FPXP.s:338    .text:000000000000015c .L0 
     /tmp/ccT1FPXP.s:340    .text:0000000000000160 .L0 
     /tmp/ccT1FPXP.s:344    .text:0000000000000168 .L0 
     /tmp/ccT1FPXP.s:345    .text:000000000000016c .L0 
     /tmp/ccT1FPXP.s:348    .text:0000000000000174 .L0 
     /tmp/ccT1FPXP.s:349    .text:0000000000000174 .L0 
     /tmp/ccT1FPXP.s:351    .text:0000000000000178 .L0 
     /tmp/ccT1FPXP.s:353    .text:0000000000000178 .L0 
     /tmp/ccT1FPXP.s:354    .text:0000000000000178 .L0 
     /tmp/ccT1FPXP.s:359    .text:0000000000000188 .L0 
     /tmp/ccT1FPXP.s:360    .text:000000000000018c .L0 
     /tmp/ccT1FPXP.s:362    .text:0000000000000190 .L0 
     /tmp/ccT1FPXP.s:363    .text:0000000000000190 .L0 
     /tmp/ccT1FPXP.s:365    .text:0000000000000194 .L0 
     /tmp/ccT1FPXP.s:367    .text:0000000000000198 .L0 
     /tmp/ccT1FPXP.s:373    .text:0000000000000198 _ZN3SCB14prioritySignalEv
     /tmp/ccT1FPXP.s:376    .text:0000000000000198 .L0 
     /tmp/ccT1FPXP.s:378    .text:0000000000000198 .L0 
     /tmp/ccT1FPXP.s:379    .text:0000000000000198 .L0 
     /tmp/ccT1FPXP.s:380    .text:0000000000000198 .L0 
     /tmp/ccT1FPXP.s:382    .text:000000000000019c .L0 
     /tmp/ccT1FPXP.s:385    .text:00000000000001a4 .L0 
     /tmp/ccT1FPXP.s:387    .text:00000000000001a8 .L0 
     /tmp/ccT1FPXP.s:391    .text:00000000000001b0 .L0 
     /tmp/ccT1FPXP.s:392    .text:00000000000001b4 .L0 
     /tmp/ccT1FPXP.s:395    .text:00000000000001bc .L0 
     /tmp/ccT1FPXP.s:396    .text:00000000000001bc .L0 
     /tmp/ccT1FPXP.s:398    .text:00000000000001c0 .L0 
     /tmp/ccT1FPXP.s:400    .text:00000000000001c0 .L0 
     /tmp/ccT1FPXP.s:401    .text:00000000000001c0 .L0 
     /tmp/ccT1FPXP.s:406    .text:00000000000001d0 .L0 
     /tmp/ccT1FPXP.s:407    .text:00000000000001d4 .L0 
GAS LISTING /tmp/ccT1FPXP.s 			page 22


     /tmp/ccT1FPXP.s:409    .text:00000000000001d8 .L0 
     /tmp/ccT1FPXP.s:410    .text:00000000000001d8 .L0 
     /tmp/ccT1FPXP.s:412    .text:00000000000001dc .L0 
     /tmp/ccT1FPXP.s:414    .text:00000000000001e0 .L0 
     /tmp/ccT1FPXP.s:420    .text:00000000000001e0 _ZN3SCBnwEm
     /tmp/ccT1FPXP.s:423    .text:00000000000001e0 .L0 
     /tmp/ccT1FPXP.s:425    .text:00000000000001e0 .L0 
     /tmp/ccT1FPXP.s:426    .text:00000000000001e4 .L0 
     /tmp/ccT1FPXP.s:429    .text:00000000000001ec .L0 
     /tmp/ccT1FPXP.s:430    .text:00000000000001ec .L0 
     /tmp/ccT1FPXP.s:432    .text:00000000000001f0 .L0 
     /tmp/ccT1FPXP.s:434    .text:00000000000001f0 .L0 
     /tmp/ccT1FPXP.s:435    .text:00000000000001f0 .L0 
     /tmp/ccT1FPXP.s:438    .text:00000000000001f8 .L0 
     /tmp/ccT1FPXP.s:439    .text:00000000000001fc .L0 
     /tmp/ccT1FPXP.s:441    .text:0000000000000200 .L0 
     /tmp/ccT1FPXP.s:442    .text:0000000000000200 .L0 
     /tmp/ccT1FPXP.s:444    .text:0000000000000204 .L0 
     /tmp/ccT1FPXP.s:446    .text:0000000000000208 .L0 
     /tmp/ccT1FPXP.s:452    .text:0000000000000208 _ZN3SCBdlEPv
     /tmp/ccT1FPXP.s:455    .text:0000000000000208 .L0 
     /tmp/ccT1FPXP.s:457    .text:0000000000000208 .L0 
     /tmp/ccT1FPXP.s:458    .text:000000000000020c .L0 
     /tmp/ccT1FPXP.s:461    .text:0000000000000214 .L0 
     /tmp/ccT1FPXP.s:462    .text:0000000000000214 .L0 
     /tmp/ccT1FPXP.s:464    .text:0000000000000218 .L0 
     /tmp/ccT1FPXP.s:466    .text:0000000000000218 .L0 
     /tmp/ccT1FPXP.s:467    .text:0000000000000218 .L0 
     /tmp/ccT1FPXP.s:470    .text:0000000000000220 .L0 
     /tmp/ccT1FPXP.s:471    .text:0000000000000224 .L0 
     /tmp/ccT1FPXP.s:473    .text:0000000000000228 .L0 
     /tmp/ccT1FPXP.s:474    .text:0000000000000228 .L0 
     /tmp/ccT1FPXP.s:476    .text:000000000000022c .L0 
     /tmp/ccT1FPXP.s:478    .text:0000000000000230 .L0 
     /tmp/ccT1FPXP.s:484    .text:0000000000000230 _ZN3SCB13signalClosingEv
     /tmp/ccT1FPXP.s:487    .text:0000000000000230 .L0 
     /tmp/ccT1FPXP.s:489    .text:0000000000000230 .L0 
     /tmp/ccT1FPXP.s:490    .text:0000000000000234 .L0 
     /tmp/ccT1FPXP.s:495    .text:0000000000000244 .L0 
     /tmp/ccT1FPXP.s:496    .text:0000000000000244 .L0 
     /tmp/ccT1FPXP.s:497    .text:0000000000000244 .L0 
     /tmp/ccT1FPXP.s:498    .text:0000000000000244 .L0 
     /tmp/ccT1FPXP.s:500    .text:0000000000000248 .L0 
     /tmp/ccT1FPXP.s:503    .text:000000000000024c .L0 
     /tmp/ccT1FPXP.s:504    .text:000000000000024c .L0 
     /tmp/ccT1FPXP.s:508    .text:0000000000000250 .L0 
     /tmp/ccT1FPXP.s:509    .text:0000000000000250 .L0 
     /tmp/ccT1FPXP.s:513    .text:0000000000000254 .L0 
     /tmp/ccT1FPXP.s:516    .text:0000000000000254 .L0 
     /tmp/ccT1FPXP.s:517    .text:0000000000000254 .L0 
     /tmp/ccT1FPXP.s:518    .text:0000000000000254 .L0 
     /tmp/ccT1FPXP.s:526    .text:000000000000025c .L0 
     /tmp/ccT1FPXP.s:527    .text:000000000000025c .L0 
     /tmp/ccT1FPXP.s:528    .text:000000000000025c .L0 
     /tmp/ccT1FPXP.s:535    .text:0000000000000260 .L0 
     /tmp/ccT1FPXP.s:536    .text:0000000000000260 .L0 
     /tmp/ccT1FPXP.s:537    .text:0000000000000260 .L0 
GAS LISTING /tmp/ccT1FPXP.s 			page 23


     /tmp/ccT1FPXP.s:542    .text:0000000000000264 .L0 
     /tmp/ccT1FPXP.s:543    .text:0000000000000264 .L0 
     /tmp/ccT1FPXP.s:546    .text:000000000000026c .L0 
     /tmp/ccT1FPXP.s:549    .text:0000000000000270 .L0 
     /tmp/ccT1FPXP.s:553    .text:0000000000000274 .L0 
     /tmp/ccT1FPXP.s:554    .text:0000000000000274 .L0 
     /tmp/ccT1FPXP.s:556    .text:0000000000000278 .L0 
     /tmp/ccT1FPXP.s:558    .text:000000000000027c .L0 
     /tmp/ccT1FPXP.s:559    .text:0000000000000280 .L0 
     /tmp/ccT1FPXP.s:561    .text:0000000000000284 .L0 
     /tmp/ccT1FPXP.s:562    .text:0000000000000284 .L0 
     /tmp/ccT1FPXP.s:564    .text:0000000000000288 .L0 
     /tmp/ccT1FPXP.s:566    .text:000000000000028c .L0 
     /tmp/ccT1FPXP.s:569    .text:0000000000000290 .L0 
     /tmp/ccT1FPXP.s:571    .text:0000000000000294 .L0 
     /tmp/ccT1FPXP.s:577    .text:0000000000000294 _ZN3SCB15createSemaphoreEi
     /tmp/ccT1FPXP.s:580    .text:0000000000000294 .L0 
     /tmp/ccT1FPXP.s:582    .text:0000000000000294 .L0 
     /tmp/ccT1FPXP.s:583    .text:0000000000000298 .L0 
     /tmp/ccT1FPXP.s:587    .text:00000000000002a4 .L0 
     /tmp/ccT1FPXP.s:588    .text:00000000000002a4 .L0 
     /tmp/ccT1FPXP.s:589    .text:00000000000002a4 .L0 
     /tmp/ccT1FPXP.s:591    .text:00000000000002a8 .L0 
     /tmp/ccT1FPXP.s:594    .text:00000000000002ac .L0 
     /tmp/ccT1FPXP.s:595    .text:00000000000002ac .L0 
     /tmp/ccT1FPXP.s:602    .text:00000000000002b8 .L0 
     /tmp/ccT1FPXP.s:605    .text:00000000000002c0 .L0 
     /tmp/ccT1FPXP.s:606    .text:00000000000002c0 .L0 
     /tmp/ccT1FPXP.s:611    .text:00000000000002c4 .L0 
     /tmp/ccT1FPXP.s:612    .text:00000000000002c8 .L0 
     /tmp/ccT1FPXP.s:614    .text:00000000000002cc .L0 
     /tmp/ccT1FPXP.s:615    .text:00000000000002cc .L0 
     /tmp/ccT1FPXP.s:617    .text:00000000000002d0 .L0 
     /tmp/ccT1FPXP.s:619    .text:00000000000002d4 .L0 
     /tmp/ccT1FPXP.s:621    .text:00000000000002d8 .L0 
     /tmp/ccT1FPXP.s:627    .text:00000000000002d8 _ZN3SCB7scbInitEi
     /tmp/ccT1FPXP.s:630    .text:00000000000002d8 .L0 
     /tmp/ccT1FPXP.s:632    .text:00000000000002d8 .L0 
     /tmp/ccT1FPXP.s:633    .text:00000000000002dc .L0 
     /tmp/ccT1FPXP.s:635    .text:00000000000002e0 .L0 
     /tmp/ccT1FPXP.s:637    .text:00000000000002e4 .L0 
     /tmp/ccT1FPXP.s:639    .text:00000000000002e4 .L0 
     /tmp/ccT1FPXP.s:640    .text:00000000000002e4 .L0 
     /tmp/ccT1FPXP.s:642    .text:00000000000002e8 .L0 
     /tmp/ccT1FPXP.s:644    .text:00000000000002ec .L0 
     /tmp/ccT1FPXP.s:645    .text:00000000000002ec .L0 
     /tmp/ccT1FPXP.s:647    .text:00000000000002f0 .L0 
     /tmp/ccT1FPXP.s:648    .text:00000000000002f4 .L0 
     /tmp/ccT1FPXP.s:649    .text:00000000000002f4 .L0 
     /tmp/ccT1FPXP.s:651    .text:00000000000002f8 .L0 
     /tmp/ccT1FPXP.s:653    .text:00000000000002fc .L0 
     /tmp/ccT1FPXP.s:664    .text:00000000000002fc _ZN3SCB12initSCBCacheEv
     /tmp/ccT1FPXP.s:667    .text:00000000000002fc .L0 
     /tmp/ccT1FPXP.s:668    .text:00000000000002fc .L0 
     /tmp/ccT1FPXP.s:669    .text:0000000000000300 .L0 
     /tmp/ccT1FPXP.s:672    .text:0000000000000308 .L0 
     /tmp/ccT1FPXP.s:673    .text:0000000000000308 .L0 
GAS LISTING /tmp/ccT1FPXP.s 			page 24


     /tmp/ccT1FPXP.s:675    .text:000000000000030c .L0 
     /tmp/ccT1FPXP.s:677    .text:000000000000030c .L0 
     /tmp/ccT1FPXP.s:678    .text:000000000000030c .L0 
     /tmp/ccT1FPXP.s:685    .text:0000000000000330 .L0 
     /tmp/ccT1FPXP.s:687    .text:0000000000000338 .L0 
     /tmp/ccT1FPXP.s:688    .text:000000000000033c .L0 
     /tmp/ccT1FPXP.s:690    .text:0000000000000340 .L0 
     /tmp/ccT1FPXP.s:691    .text:0000000000000340 .L0 
     /tmp/ccT1FPXP.s:693    .text:0000000000000344 .L0 
     /tmp/ccT1FPXP.s:695    .text:0000000000000348 .L0 
     /tmp/ccT1FPXP.s:701    .text:0000000000000348 _ZN3SCB18createSysSemaphoreEi
     /tmp/ccT1FPXP.s:704    .text:0000000000000348 .L0 
     /tmp/ccT1FPXP.s:706    .text:0000000000000348 .L0 
     /tmp/ccT1FPXP.s:707    .text:000000000000034c .L0 
     /tmp/ccT1FPXP.s:712    .text:000000000000035c .L0 
     /tmp/ccT1FPXP.s:713    .text:000000000000035c .L0 
     /tmp/ccT1FPXP.s:714    .text:000000000000035c .L0 
     /tmp/ccT1FPXP.s:715    .text:000000000000035c .L0 
     /tmp/ccT1FPXP.s:717    .text:0000000000000360 .L0 
     /tmp/ccT1FPXP.s:720    .text:0000000000000364 .L0 
     /tmp/ccT1FPXP.s:721    .text:0000000000000364 .L0 
     /tmp/ccT1FPXP.s:723    .text:000000000000036c .L0 
     /tmp/ccT1FPXP.s:727    .text:0000000000000370 .L0 
     /tmp/ccT1FPXP.s:728    .text:0000000000000370 .L0 
     /tmp/ccT1FPXP.s:734    .text:0000000000000384 .L0 
     /tmp/ccT1FPXP.s:735    .text:0000000000000384 .L0 
     /tmp/ccT1FPXP.s:739    .text:0000000000000390 .L0 
     /tmp/ccT1FPXP.s:740    .text:0000000000000390 .L0 
     /tmp/ccT1FPXP.s:742    .text:0000000000000398 .L0 
     /tmp/ccT1FPXP.s:743    .text:0000000000000398 .L0 
     /tmp/ccT1FPXP.s:745    .text:000000000000039c .L0 
     /tmp/ccT1FPXP.s:746    .text:000000000000039c .L0 
     /tmp/ccT1FPXP.s:748    .text:00000000000003a0 .L0 
     /tmp/ccT1FPXP.s:751    .text:00000000000003a4 .L0 
     /tmp/ccT1FPXP.s:753    .text:00000000000003a8 .L0 
     /tmp/ccT1FPXP.s:757    .text:00000000000003ac .L0 
     /tmp/ccT1FPXP.s:759    .text:00000000000003ac .L0 
     /tmp/ccT1FPXP.s:760    .text:00000000000003ac .L0 
     /tmp/ccT1FPXP.s:763    .text:00000000000003b8 .L0 
     /tmp/ccT1FPXP.s:772    .bss:0000000000000000 _ZN3SCB8scbCacheE
     /tmp/ccT1FPXP.s:769    .bss:0000000000000000 .LANCHOR0
     /tmp/ccT1FPXP.s:32     .text._ZN3SCB12createObjectEPv:0000000000000018 .L0 
     /tmp/ccT1FPXP.s:57     .text._ZN3SCB10freeObjectEPv:0000000000000018 .L0 
     /tmp/ccT1FPXP.s:780    .text:00000000000003b8 .L0 
     /tmp/ccT1FPXP.s:75     .text:000000000000000c .L0 
     /tmp/ccT1FPXP.s:94     .text:0000000000000024 .L0 
     /tmp/ccT1FPXP.s:122    .text:0000000000000040 .L0 
     /tmp/ccT1FPXP.s:146    .text:0000000000000060 .L0 
     /tmp/ccT1FPXP.s:254    .text:00000000000000d0 .L0 
     /tmp/ccT1FPXP.s:280    .text:0000000000000104 .L0 
     /tmp/ccT1FPXP.s:288    .text:0000000000000118 .L0 
     /tmp/ccT1FPXP.s:678    .text:000000000000030c .L0 
     /tmp/ccT1FPXP.s:679    .text:0000000000000314 .L0 
     /tmp/ccT1FPXP.s:658    .rodata.str1.8:0000000000000000 .LC0
     /tmp/ccT1FPXP.s:681    .text:0000000000000320 .L0 
     /tmp/ccT1FPXP.s:685    .text:0000000000000330 .L0 
     /tmp/ccT1FPXP.s:721    .text:0000000000000364 .L0 
GAS LISTING /tmp/ccT1FPXP.s 			page 25


     /tmp/ccT1FPXP.s:728    .text:0000000000000370 .L0 
     /tmp/ccT1FPXP.s:142    .text:0000000000000060 .L9
     /tmp/ccT1FPXP.s:119    .text:0000000000000040 .L7
     /tmp/ccT1FPXP.s:215    .text:00000000000000a8 .L10
     /tmp/ccT1FPXP.s:225    .text:00000000000000b4 .L14
     /tmp/ccT1FPXP.s:194    .text:00000000000000a0 .L12
     /tmp/ccT1FPXP.s:264    .text:00000000000000ec .L26
     /tmp/ccT1FPXP.s:312    .text:0000000000000148 .L21
     /tmp/ccT1FPXP.s:306    .text:0000000000000140 .L18
     /tmp/ccT1FPXP.s:295    .text:0000000000000130 .L17
     /tmp/ccT1FPXP.s:342    .text:0000000000000168 .L33
     /tmp/ccT1FPXP.s:389    .text:00000000000001b0 .L40
     /tmp/ccT1FPXP.s:551    .text:0000000000000274 .L46
     /tmp/ccT1FPXP.s:506    .text:0000000000000250 .L47
     /tmp/ccT1FPXP.s:756    .text:00000000000003ac .L58
     /tmp/ccT1FPXP.s:725    .text:0000000000000370 .L56
     /tmp/ccT1FPXP.s:2485   .debug_abbrev:0000000000000000 .Ldebug_abbrev0
     /tmp/ccT1FPXP.s:4185   .debug_str:000000000000089d .LASF158
     /tmp/ccT1FPXP.s:4151   .debug_str:00000000000007bc .LASF159
     /tmp/ccT1FPXP.s:4025   .debug_str:0000000000000384 .LASF160
     /tmp/ccT1FPXP.s:3905   .debug_ranges:0000000000000000 .Ldebug_ranges0
     /tmp/ccT1FPXP.s:3915   .debug_line:0000000000000000 .Ldebug_line0
     /tmp/ccT1FPXP.s:4031   .debug_str:00000000000003b8 .LASF0
     /tmp/ccT1FPXP.s:4059   .debug_str:00000000000004ba .LASF1
     /tmp/ccT1FPXP.s:4131   .debug_str:00000000000006f8 .LASF2
     /tmp/ccT1FPXP.s:4139   .debug_str:0000000000000731 .LASF4
     /tmp/ccT1FPXP.s:4043   .debug_str:000000000000040e .LASF3
     /tmp/ccT1FPXP.s:3927   .debug_str:0000000000000039 .LASF5
     /tmp/ccT1FPXP.s:4111   .debug_str:0000000000000653 .LASF6
     /tmp/ccT1FPXP.s:4107   .debug_str:0000000000000630 .LASF7
     /tmp/ccT1FPXP.s:4051   .debug_str:000000000000047b .LASF8
     /tmp/ccT1FPXP.s:4007   .debug_str:00000000000002db .LASF9
     /tmp/ccT1FPXP.s:4015   .debug_str:0000000000000322 .LASF10
     /tmp/ccT1FPXP.s:3951   .debug_str:000000000000010b .LASF11
     /tmp/ccT1FPXP.s:3999   .debug_str:00000000000002a5 .LASF12
     /tmp/ccT1FPXP.s:3957   .debug_str:0000000000000126 .LASF13
     /tmp/ccT1FPXP.s:3949   .debug_str:00000000000000fb .LASF14
     /tmp/ccT1FPXP.s:4163   .debug_str:00000000000007fe .LASF15
     /tmp/ccT1FPXP.s:3983   .debug_str:0000000000000221 .LASF16
     /tmp/ccT1FPXP.s:4159   .debug_str:00000000000007e3 .LASF17
     /tmp/ccT1FPXP.s:3997   .debug_str:0000000000000298 .LASF18
     /tmp/ccT1FPXP.s:3995   .debug_str:000000000000028b .LASF161
     /tmp/ccT1FPXP.s:4173   .debug_str:0000000000000839 .LASF19
     /tmp/ccT1FPXP.s:4221   .debug_str:0000000000000abe .LASF21
     /tmp/ccT1FPXP.s:3975   .debug_str:00000000000001b4 .LASF20
     /tmp/ccT1FPXP.s:4195   .debug_str:0000000000000993 .LASF22
     /tmp/ccT1FPXP.s:4171   .debug_str:0000000000000829 .LASF23
     /tmp/ccT1FPXP.s:4045   .debug_str:0000000000000420 .LASF24
     /tmp/ccT1FPXP.s:3991   .debug_str:0000000000000269 .LASF27
     /tmp/ccT1FPXP.s:4253   .debug_str:0000000000000bd1 .LASF29
     /tmp/ccT1FPXP.s:4017   .debug_str:0000000000000330 .LASF25
     /tmp/ccT1FPXP.s:4063   .debug_str:00000000000004d3 .LASF26
     /tmp/ccT1FPXP.s:4085   .debug_str:000000000000056e .LASF28
     /tmp/ccT1FPXP.s:4251   .debug_str:0000000000000bb6 .LASF30
     /tmp/ccT1FPXP.s:4175   .debug_str:0000000000000844 .LASF31
     /tmp/ccT1FPXP.s:4237   .debug_str:0000000000000b4d .LASF32
     /tmp/ccT1FPXP.s:4201   .debug_str:00000000000009f1 .LASF33
GAS LISTING /tmp/ccT1FPXP.s 			page 26


     /tmp/ccT1FPXP.s:4187   .debug_str:0000000000000961 .LASF34
     /tmp/ccT1FPXP.s:3969   .debug_str:0000000000000190 .LASF35
     /tmp/ccT1FPXP.s:4135   .debug_str:000000000000070b .LASF36
     /tmp/ccT1FPXP.s:3941   .debug_str:00000000000000c6 .LASF37
     /tmp/ccT1FPXP.s:4019   .debug_str:000000000000033e .LASF38
     /tmp/ccT1FPXP.s:4247   .debug_str:0000000000000b95 .LASF39
     /tmp/ccT1FPXP.s:3929   .debug_str:0000000000000040 .LASF40
     /tmp/ccT1FPXP.s:4155   .debug_str:00000000000007ce .LASF162
     /tmp/ccT1FPXP.s:4209   .debug_str:0000000000000a54 .LASF41
     /tmp/ccT1FPXP.s:4147   .debug_str:000000000000078f .LASF42
     /tmp/ccT1FPXP.s:4061   .debug_str:00000000000004cd .LASF47
     /tmp/ccT1FPXP.s:4065   .debug_str:00000000000004ed .LASF49
     /tmp/ccT1FPXP.s:4183   .debug_str:0000000000000895 .LASF51
     /tmp/ccT1FPXP.s:4057   .debug_str:00000000000004b5 .LASF43
     /tmp/ccT1FPXP.s:4241   .debug_str:0000000000000b77 .LASF44
     /tmp/ccT1FPXP.s:4245   .debug_str:0000000000000b88 .LASF45
     /tmp/ccT1FPXP.s:3987   .debug_str:0000000000000250 .LASF46
     /tmp/ccT1FPXP.s:3919   .debug_str:0000000000000007 .LASF53
     /tmp/ccT1FPXP.s:4037   .debug_str:00000000000003e3 .LASF59
     /tmp/ccT1FPXP.s:4021   .debug_str:0000000000000355 .LASF92
     /tmp/ccT1FPXP.s:3937   .debug_str:00000000000000a4 .LASF163
     /tmp/ccT1FPXP.s:4101   .debug_str:0000000000000606 .LASF48
     /tmp/ccT1FPXP.s:3943   .debug_str:00000000000000d2 .LASF50
     /tmp/ccT1FPXP.s:4121   .debug_str:0000000000000692 .LASF52
     /tmp/ccT1FPXP.s:3961   .debug_str:0000000000000147 .LASF88
     /tmp/ccT1FPXP.s:3989   .debug_str:000000000000025c .LASF54
     /tmp/ccT1FPXP.s:3981   .debug_str:0000000000000208 .LASF56
     /tmp/ccT1FPXP.s:4081   .debug_str:0000000000000554 .LASF55
     /tmp/ccT1FPXP.s:3967   .debug_str:0000000000000179 .LASF57
     /tmp/ccT1FPXP.s:4149   .debug_str:00000000000007b1 .LASF58
     /tmp/ccT1FPXP.s:4055   .debug_str:0000000000000498 .LASF60
     /tmp/ccT1FPXP.s:3923   .debug_str:000000000000001f .LASF61
     /tmp/ccT1FPXP.s:4153   .debug_str:00000000000007c8 .LASF62
     /tmp/ccT1FPXP.s:4217   .debug_str:0000000000000aa6 .LASF63
     /tmp/ccT1FPXP.s:4053   .debug_str:000000000000048e .LASF64
     /tmp/ccT1FPXP.s:4243   .debug_str:0000000000000b83 .LASF65
     /tmp/ccT1FPXP.s:4157   .debug_str:00000000000007da .LASF66
     /tmp/ccT1FPXP.s:4097   .debug_str:00000000000005f5 .LASF67
     /tmp/ccT1FPXP.s:4073   .debug_str:0000000000000516 .LASF68
     /tmp/ccT1FPXP.s:4225   .debug_str:0000000000000ae3 .LASF69
     /tmp/ccT1FPXP.s:3973   .debug_str:00000000000001a6 .LASF70
     /tmp/ccT1FPXP.s:4191   .debug_str:000000000000097f .LASF71
     /tmp/ccT1FPXP.s:4145   .debug_str:000000000000077e .LASF83
     /tmp/ccT1FPXP.s:3971   .debug_str:000000000000019d .LASF77
     /tmp/ccT1FPXP.s:3933   .debug_str:0000000000000078 .LASF79
     /tmp/ccT1FPXP.s:4033   .debug_str:00000000000003c5 .LASF72
     /tmp/ccT1FPXP.s:4211   .debug_str:0000000000000a65 .LASF73
     /tmp/ccT1FPXP.s:4035   .debug_str:00000000000003d4 .LASF74
     /tmp/ccT1FPXP.s:4141   .debug_str:0000000000000738 .LASF75
     /tmp/ccT1FPXP.s:4067   .debug_str:00000000000004fd .LASF76
     /tmp/ccT1FPXP.s:4119   .debug_str:0000000000000682 .LASF78
     /tmp/ccT1FPXP.s:4227   .debug_str:0000000000000af0 .LASF80
     /tmp/ccT1FPXP.s:4077   .debug_str:0000000000000546 .LASF81
     /tmp/ccT1FPXP.s:4005   .debug_str:00000000000002d1 .LASF82
     /tmp/ccT1FPXP.s:4161   .debug_str:00000000000007f9 .LASF84
     /tmp/ccT1FPXP.s:4095   .debug_str:00000000000005f0 .LASF85
     /tmp/ccT1FPXP.s:4233   .debug_str:0000000000000b2f .LASF86
GAS LISTING /tmp/ccT1FPXP.s 			page 27


     /tmp/ccT1FPXP.s:4115   .debug_str:000000000000066a .LASF87
     /tmp/ccT1FPXP.s:3931   .debug_str:0000000000000060 .LASF89
     /tmp/ccT1FPXP.s:4041   .debug_str:0000000000000403 .LASF90
     /tmp/ccT1FPXP.s:4207   .debug_str:0000000000000a34 .LASF91
     /tmp/ccT1FPXP.s:4239   .debug_str:0000000000000b63 .LASF164
     /tmp/ccT1FPXP.s:3947   .debug_str:00000000000000ef .LASF93
     /tmp/ccT1FPXP.s:4011   .debug_str:0000000000000302 .LASF94
     /tmp/ccT1FPXP.s:4189   .debug_str:000000000000097a .LASF95
     /tmp/ccT1FPXP.s:4219   .debug_str:0000000000000aaf .LASF96
     /tmp/ccT1FPXP.s:4167   .debug_str:0000000000000817 .LASF97
     /tmp/ccT1FPXP.s:4049   .debug_str:000000000000046a .LASF98
     /tmp/ccT1FPXP.s:3925   .debug_str:000000000000002a .LASF99
     /tmp/ccT1FPXP.s:4213   .debug_str:0000000000000a83 .LASF100
     /tmp/ccT1FPXP.s:4177   .debug_str:000000000000084f .LASF101
     /tmp/ccT1FPXP.s:4165   .debug_str:000000000000080a .LASF102
     /tmp/ccT1FPXP.s:4127   .debug_str:00000000000006d6 .LASF103
     /tmp/ccT1FPXP.s:4231   .debug_str:0000000000000b14 .LASF104
     /tmp/ccT1FPXP.s:4039   .debug_str:00000000000003f0 .LASF105
     /tmp/ccT1FPXP.s:4199   .debug_str:00000000000009d3 .LASF106
     /tmp/ccT1FPXP.s:4137   .debug_str:0000000000000723 .LASF107
     /tmp/ccT1FPXP.s:3977   .debug_str:00000000000001c7 .LASF108
     /tmp/ccT1FPXP.s:3985   .debug_str:0000000000000237 .LASF109
     /tmp/ccT1FPXP.s:4009   .debug_str:00000000000002eb .LASF110
     /tmp/ccT1FPXP.s:4229   .debug_str:0000000000000b0b .LASF111
     /tmp/ccT1FPXP.s:4125   .debug_str:00000000000006c9 .LASF112
     /tmp/ccT1FPXP.s:4001   .debug_str:00000000000002b4 .LASF113
     /tmp/ccT1FPXP.s:4013   .debug_str:000000000000031a .LASF114
     /tmp/ccT1FPXP.s:3965   .debug_str:0000000000000167 .LASF115
     /tmp/ccT1FPXP.s:4117   .debug_str:0000000000000676 .LASF116
     /tmp/ccT1FPXP.s:4029   .debug_str:00000000000003b2 .LASF117
     /tmp/ccT1FPXP.s:4113   .debug_str:000000000000065a .LASF118
     /tmp/ccT1FPXP.s:3921   .debug_str:0000000000000017 .LASF119
     /tmp/ccT1FPXP.s:4249   .debug_str:0000000000000ba4 .LASF120
     /tmp/ccT1FPXP.s:4027   .debug_str:00000000000003a9 .LASF121
     /tmp/ccT1FPXP.s:4105   .debug_str:0000000000000620 .LASF122
     /tmp/ccT1FPXP.s:3939   .debug_str:00000000000000ba .LASF165
     /tmp/ccT1FPXP.s:4215   .debug_str:0000000000000a9d .LASF123
     /tmp/ccT1FPXP.s:4093   .debug_str:00000000000005eb .LASF124
     /tmp/ccT1FPXP.s:3953   .debug_str:000000000000011a .LASF125
     /tmp/ccT1FPXP.s:3917   .debug_str:0000000000000000 .LASF126
     /tmp/ccT1FPXP.s:4123   .debug_str:000000000000069b .LASF127
     /tmp/ccT1FPXP.s:4047   .debug_str:000000000000043c .LASF166
     /tmp/ccT1FPXP.s:4193   .debug_str:0000000000000989 .LASF128
     /tmp/ccT1FPXP.s:4197   .debug_str:00000000000009b2 .LASF129
     /tmp/ccT1FPXP.s:4079   .debug_str:000000000000054b .LASF130
     /tmp/ccT1FPXP.s:4087   .debug_str:000000000000057c .LASF131
     /tmp/ccT1FPXP.s:3963   .debug_str:000000000000015a .LASF132
     /tmp/ccT1FPXP.s:4091   .debug_str:00000000000005c6 .LASF133
     /tmp/ccT1FPXP.s:4103   .debug_str:0000000000000613 .LASF134
     /tmp/ccT1FPXP.s:4075   .debug_str:0000000000000521 .LASF135
     /tmp/ccT1FPXP.s:3935   .debug_str:000000000000008b .LASF136
     /tmp/ccT1FPXP.s:4223   .debug_str:0000000000000ad5 .LASF137
     /tmp/ccT1FPXP.s:4179   .debug_str:000000000000085b .LASF138
     /tmp/ccT1FPXP.s:4089   .debug_str:000000000000059d .LASF139
     /tmp/ccT1FPXP.s:4083   .debug_str:000000000000055f .LASF140
     /tmp/ccT1FPXP.s:4143   .debug_str:0000000000000756 .LASF141
     /tmp/ccT1FPXP.s:4203   .debug_str:00000000000009ff .LASF142
GAS LISTING /tmp/ccT1FPXP.s 			page 28


     /tmp/ccT1FPXP.s:4181   .debug_str:000000000000086b .LASF143
     /tmp/ccT1FPXP.s:4109   .debug_str:0000000000000643 .LASF144
     /tmp/ccT1FPXP.s:3979   .debug_str:00000000000001e0 .LASF145
     /tmp/ccT1FPXP.s:4129   .debug_str:00000000000006e6 .LASF167
     /tmp/ccT1FPXP.s:665    .text:00000000000002fc .LFB55
     /tmp/ccT1FPXP.s:696    .text:0000000000000348 .LFE55
     /tmp/ccT1FPXP.s:683    .text:0000000000000330 .LVL50
     /tmp/ccT1FPXP.s:628    .text:00000000000002d8 .LFB54
     /tmp/ccT1FPXP.s:654    .text:00000000000002fc .LFE54
     /tmp/ccT1FPXP.s:4003   .debug_str:00000000000002cc .LASF148
     /tmp/ccT1FPXP.s:4069   .debug_str:0000000000000507 .LASF146
     /tmp/ccT1FPXP.s:578    .text:0000000000000294 .LFB53
     /tmp/ccT1FPXP.s:622    .text:00000000000002d8 .LFE53
     /tmp/ccT1FPXP.s:3545   .debug_loc:0000000000000000 .LLST27
     /tmp/ccT1FPXP.s:599    .text:00000000000002b8 .LBB47
     /tmp/ccT1FPXP.s:609    .text:00000000000002c4 .LBE47
     /tmp/ccT1FPXP.s:3559   .debug_loc:0000000000000039 .LLST28
     /tmp/ccT1FPXP.s:3566   .debug_loc:000000000000005c .LLST29
     /tmp/ccT1FPXP.s:598    .text:00000000000002b8 .LVL47
     /tmp/ccT1FPXP.s:702    .text:0000000000000348 .LFB52
     /tmp/ccT1FPXP.s:764    .text:00000000000003b8 .LFE52
     /tmp/ccT1FPXP.s:3573   .debug_loc:000000000000007f .LLST30
     /tmp/ccT1FPXP.s:3955   .debug_str:000000000000011f .LASF147
     /tmp/ccT1FPXP.s:3598   .debug_loc:00000000000000e1 .LLST31
     /tmp/ccT1FPXP.s:730    .text:0000000000000380 .LVL53
     /tmp/ccT1FPXP.s:737    .text:0000000000000390 .LVL55
     /tmp/ccT1FPXP.s:761    .text:00000000000003b4 .LVL58
     /tmp/ccT1FPXP.s:485    .text:0000000000000230 .LFB51
     /tmp/ccT1FPXP.s:572    .text:0000000000000294 .LFE51
     /tmp/ccT1FPXP.s:3609   .debug_loc:0000000000000117 .LLST19
     /tmp/ccT1FPXP.s:4133   .debug_str:0000000000000706 .LASF149
     /tmp/ccT1FPXP.s:3627   .debug_loc:0000000000000163 .LLST20
     /tmp/ccT1FPXP.s:510    .text:0000000000000254 .LBB40
     /tmp/ccT1FPXP.s:547    .text:0000000000000270 .LBE40
     /tmp/ccT1FPXP.s:4071   .debug_str:0000000000000511 .LASF150
     /tmp/ccT1FPXP.s:3642   .debug_loc:00000000000001ac .LLST21
     /tmp/ccT1FPXP.s:514    .text:0000000000000254 .LBB41
     /tmp/ccT1FPXP.s:522    .text:000000000000025c .LBE41
     /tmp/ccT1FPXP.s:3649   .debug_loc:00000000000001cf .LLST22
     /tmp/ccT1FPXP.s:3657   .debug_loc:00000000000001f3 .LLST23
     /tmp/ccT1FPXP.s:524    .text:000000000000025c .LBB43
     /tmp/ccT1FPXP.s:531    .text:0000000000000260 .LBE43
     /tmp/ccT1FPXP.s:3664   .debug_loc:0000000000000216 .LLST24
     /tmp/ccT1FPXP.s:3672   .debug_loc:000000000000023a .LLST25
     /tmp/ccT1FPXP.s:533    .text:0000000000000260 .LBB45
     /tmp/ccT1FPXP.s:540    .text:0000000000000264 .LBE45
     /tmp/ccT1FPXP.s:3679   .debug_loc:000000000000025d .LLST26
     /tmp/ccT1FPXP.s:544    .text:000000000000026c .LVL42
     /tmp/ccT1FPXP.s:453    .text:0000000000000208 .LFB50
     /tmp/ccT1FPXP.s:479    .text:0000000000000230 .LFE50
     /tmp/ccT1FPXP.s:4169   .debug_str:000000000000081e .LASF151
     /tmp/ccT1FPXP.s:3686   .debug_loc:0000000000000280 .LLST18
     /tmp/ccT1FPXP.s:468    .text:0000000000000220 .LVL35
     /tmp/ccT1FPXP.s:421    .text:00000000000001e0 .LFB49
     /tmp/ccT1FPXP.s:447    .text:0000000000000208 .LFE49
     /tmp/ccT1FPXP.s:3700   .debug_loc:00000000000002b9 .LLST17
     /tmp/ccT1FPXP.s:436    .text:00000000000001f8 .LVL33
GAS LISTING /tmp/ccT1FPXP.s 			page 29


     /tmp/ccT1FPXP.s:374    .text:0000000000000198 .LFB48
     /tmp/ccT1FPXP.s:415    .text:00000000000001e0 .LFE48
     /tmp/ccT1FPXP.s:3714   .debug_loc:00000000000002f2 .LLST16
     /tmp/ccT1FPXP.s:402    .text:00000000000001c8 .LVL30
     /tmp/ccT1FPXP.s:404    .text:00000000000001d0 .LVL31
     /tmp/ccT1FPXP.s:327    .text:0000000000000150 .LFB47
     /tmp/ccT1FPXP.s:368    .text:0000000000000198 .LFE47
     /tmp/ccT1FPXP.s:3728   .debug_loc:000000000000032b .LLST15
     /tmp/ccT1FPXP.s:355    .text:0000000000000180 .LVL27
     /tmp/ccT1FPXP.s:357    .text:0000000000000188 .LVL28
     /tmp/ccT1FPXP.s:238    .text:00000000000000bc .LFB46
     /tmp/ccT1FPXP.s:321    .text:0000000000000150 .LFE46
     /tmp/ccT1FPXP.s:3742   .debug_loc:0000000000000364 .LLST14
     /tmp/ccT1FPXP.s:277    .text:0000000000000104 .LVL22
     /tmp/ccT1FPXP.s:285    .text:0000000000000118 .LVL23
     /tmp/ccT1FPXP.s:159    .text:0000000000000078 .LFB45
     /tmp/ccT1FPXP.s:232    .text:00000000000000bc .LFE45
     /tmp/ccT1FPXP.s:3778   .debug_loc:00000000000003ef .LLST7
     /tmp/ccT1FPXP.s:3789   .debug_loc:0000000000000425 .LLST8
     /tmp/ccT1FPXP.s:179    .text:0000000000000090 .LBB34
     /tmp/ccT1FPXP.s:186    .text:0000000000000094 .LBE34
     /tmp/ccT1FPXP.s:3800   .debug_loc:000000000000045b .LLST9
     /tmp/ccT1FPXP.s:197    .text:00000000000000a0 .LBB36
     /tmp/ccT1FPXP.s:204    .text:00000000000000a4 .LBE36
     /tmp/ccT1FPXP.s:3807   .debug_loc:000000000000047e .LLST10
     /tmp/ccT1FPXP.s:3815   .debug_loc:00000000000004a2 .LLST11
     /tmp/ccT1FPXP.s:206    .text:00000000000000a4 .LBB38
     /tmp/ccT1FPXP.s:213    .text:00000000000000a8 .LBE38
     /tmp/ccT1FPXP.s:3822   .debug_loc:00000000000004c5 .LLST12
     /tmp/ccT1FPXP.s:3830   .debug_loc:00000000000004e9 .LLST13
     /tmp/ccT1FPXP.s:62     .text:0000000000000000 .LFB44
     /tmp/ccT1FPXP.s:153    .text:0000000000000078 .LFE44
     /tmp/ccT1FPXP.s:78     .text:0000000000000018 .LBB26
     /tmp/ccT1FPXP.s:86     .text:000000000000001c .LBE26
     /tmp/ccT1FPXP.s:3837   .debug_loc:000000000000050c .LLST0
     /tmp/ccT1FPXP.s:3845   .debug_loc:0000000000000530 .LLST1
     /tmp/ccT1FPXP.s:97     .text:0000000000000030 .LBB28
     /tmp/ccT1FPXP.s:104    .text:0000000000000034 .LBE28
     /tmp/ccT1FPXP.s:3852   .debug_loc:0000000000000553 .LLST2
     /tmp/ccT1FPXP.s:3859   .debug_loc:0000000000000576 .LLST3
     /tmp/ccT1FPXP.s:109    .text:0000000000000038 .LBB30
     /tmp/ccT1FPXP.s:116    .text:000000000000003c .LBE30
     /tmp/ccT1FPXP.s:3866   .debug_loc:0000000000000599 .LLST4
     /tmp/ccT1FPXP.s:125    .text:000000000000004c .LBB32
     /tmp/ccT1FPXP.s:133    .text:0000000000000054 .LBE32
     /tmp/ccT1FPXP.s:3873   .debug_loc:00000000000005bc .LLST5
     /tmp/ccT1FPXP.s:3881   .debug_loc:00000000000005e0 .LLST6
     /tmp/ccT1FPXP.s:4235   .debug_str:0000000000000b41 .LASF168
     /tmp/ccT1FPXP.s:37     .text._ZN3SCB10freeObjectEPv:0000000000000000 .LFB12
     /tmp/ccT1FPXP.s:55     .text._ZN3SCB10freeObjectEPv:0000000000000018 .LFE12
     /tmp/ccT1FPXP.s:3945   .debug_str:00000000000000ea .LASF152
     /tmp/ccT1FPXP.s:11     .text._ZN3SCB12createObjectEPv:0000000000000000 .LFB11
     /tmp/ccT1FPXP.s:30     .text._ZN3SCB12createObjectEPv:0000000000000018 .LFE11
     /tmp/ccT1FPXP.s:4099   .debug_str:00000000000005fd .LASF153
     /tmp/ccT1FPXP.s:4205   .debug_str:0000000000000a11 .LASF154
     /tmp/ccT1FPXP.s:3993   .debug_str:0000000000000279 .LASF156
     /tmp/ccT1FPXP.s:4023   .debug_str:0000000000000360 .LASF155
GAS LISTING /tmp/ccT1FPXP.s 			page 30


     /tmp/ccT1FPXP.s:3959   .debug_str:0000000000000136 .LASF157
     /tmp/ccT1FPXP.s:581    .text:0000000000000294 .LVL45
     /tmp/ccT1FPXP.s:596    .text:00000000000002b0 .LVL46
     /tmp/ccT1FPXP.s:607    .text:00000000000002c4 .LVL48
     /tmp/ccT1FPXP.s:705    .text:0000000000000348 .LVL51
     /tmp/ccT1FPXP.s:724    .text:0000000000000370 .LVL52
     /tmp/ccT1FPXP.s:755    .text:00000000000003ac .LVL57
     /tmp/ccT1FPXP.s:732    .text:0000000000000384 .LVL54
     /tmp/ccT1FPXP.s:749    .text:00000000000003a0 .LVL56
     /tmp/ccT1FPXP.s:488    .text:0000000000000230 .LVL36
     /tmp/ccT1FPXP.s:505    .text:0000000000000250 .LVL37
     /tmp/ccT1FPXP.s:567    .text:000000000000028c .LVL44
     /tmp/ccT1FPXP.s:538    .text:0000000000000264 .LVL41
     /tmp/ccT1FPXP.s:550    .text:0000000000000274 .LVL43
     /tmp/ccT1FPXP.s:512    .text:0000000000000254 .LVL38
     /tmp/ccT1FPXP.s:520    .text:000000000000025c .LVL39
     /tmp/ccT1FPXP.s:529    .text:0000000000000260 .LVL40
     /tmp/ccT1FPXP.s:456    .text:0000000000000208 .LVL34
     /tmp/ccT1FPXP.s:424    .text:00000000000001e0 .LVL32
     /tmp/ccT1FPXP.s:377    .text:0000000000000198 .LVL29
     /tmp/ccT1FPXP.s:330    .text:0000000000000150 .LVL26
     /tmp/ccT1FPXP.s:241    .text:00000000000000bc .LVL19
     /tmp/ccT1FPXP.s:261    .text:00000000000000e8 .LVL20
     /tmp/ccT1FPXP.s:263    .text:00000000000000ec .LVL21
     /tmp/ccT1FPXP.s:311    .text:0000000000000148 .LVL24
     /tmp/ccT1FPXP.s:317    .text:000000000000014c .LVL25
     /tmp/ccT1FPXP.s:162    .text:0000000000000078 .LVL11
     /tmp/ccT1FPXP.s:173    .text:000000000000008c .LVL12
     /tmp/ccT1FPXP.s:177    .text:0000000000000090 .LVL13
     /tmp/ccT1FPXP.s:211    .text:00000000000000a8 .LVL17
     /tmp/ccT1FPXP.s:224    .text:00000000000000b4 .LVL18
     /tmp/ccT1FPXP.s:184    .text:0000000000000094 .LVL14
     /tmp/ccT1FPXP.s:196    .text:00000000000000a0 .LVL15
     /tmp/ccT1FPXP.s:202    .text:00000000000000a4 .LVL16
     /tmp/ccT1FPXP.s:77     .text:0000000000000018 .LVL3
     /tmp/ccT1FPXP.s:84     .text:000000000000001c .LVL4
     /tmp/ccT1FPXP.s:96     .text:0000000000000030 .LVL5
     /tmp/ccT1FPXP.s:102    .text:0000000000000034 .LVL6
     /tmp/ccT1FPXP.s:108    .text:0000000000000038 .LVL7
     /tmp/ccT1FPXP.s:114    .text:000000000000003c .LVL8
     /tmp/ccT1FPXP.s:124    .text:000000000000004c .LVL9
     /tmp/ccT1FPXP.s:131    .text:0000000000000054 .LVL10
     /tmp/ccT1FPXP.s:781    .debug_info:0000000000000000 .Ldebug_info0
     /tmp/ccT1FPXP.s:5      .text:0000000000000000 .Ltext0
     /tmp/ccT1FPXP.s:775    .text:00000000000003b8 .Letext0

UNDEFINED SYMBOLS
_ZN3PCB7runningE
_ZN3PCB16timeSliceCounterE
_ZN3PCB8dispatchEv
_ZN9Scheduler3putEP3PCB
_ZN9Scheduler10putInFrontEP3PCB
_ZN15MemoryAllocator9mem_allocEm
_ZN15MemoryAllocator8mem_freeEPv
_Z17kmem_cache_createPKcmPFvPvES3_
_Z16kmem_cache_allocP12kmem_cache_s
