GAS LISTING /tmp/cctosQp0.s 			page 1


   1              		.file	"SCB.cpp"
   2              		.option pic
   3              		.option norelax
   4              		.text
   5              	.Ltext0:
   6              		.align	2
   7              		.globl	_ZN3SCB5blockEv
   9              	_ZN3SCB5blockEv:
  10              	.LFB33:
  11              		.file 1 "src/SCB.cpp"
   1:src/SCB.cpp   **** #include "../h/SCB.h"
   2:src/SCB.cpp   **** #include "../h/kernel.h"
   3:src/SCB.cpp   **** #include "../h/MemoryAllocator.h"
   4:src/SCB.cpp   **** 
   5:src/SCB.cpp   **** void SCB::block() {
  12              		.loc 1 5 19
  13              		.cfi_startproc
  14              	.LVL0:
  15 0000 130101FF 		addi	sp,sp,-16
  16              		.cfi_def_cfa_offset 16
  17 0004 23348100 		sd	s0,8(sp)
  18              		.cfi_offset 8, -8
  19 0008 13040101 		addi	s0,sp,16
  20              		.cfi_def_cfa 8, 0
   6:src/SCB.cpp   ****     PCB::running->nextInList = nullptr;
  21              		.loc 1 6 5
  22              		.loc 1 6 19 is_stmt 0
  23 000c 97070000 		la	a5,_ZN3PCB7runningE
  23      83B70700 
  24 0014 83B70700 		ld	a5,0(a5)
  25              		.loc 1 6 30
  26 0018 23B00700 		sd	zero,0(a5)
   7:src/SCB.cpp   ****     if(tail == nullptr) { // ako ne postoji kraj liste nece postojati ni pocetak
  27              		.loc 1 7 5 is_stmt 1
  28              		.loc 1 7 8 is_stmt 0
  29 001c 83378500 		ld	a5,8(a0)
  30              		.loc 1 7 5
  31 0020 63800704 		beqz	a5,.L5
   8:src/SCB.cpp   ****         head = tail = PCB::running;
   9:src/SCB.cpp   ****     }
  10:src/SCB.cpp   ****     else {
  11:src/SCB.cpp   ****         tail->nextInList = PCB::running;
  32              		.loc 1 11 9 is_stmt 1
  33              		.loc 1 11 26 is_stmt 0
  34 0024 17070000 		la	a4,_ZN3PCB7runningE
  34      03370700 
  35 002c 03370700 		ld	a4,0(a4)
  36 0030 23B0E700 		sd	a4,0(a5)
  12:src/SCB.cpp   ****         tail = tail->nextInList;
  37              		.loc 1 12 9 is_stmt 1
  38              		.loc 1 12 16 is_stmt 0
  39 0034 83378500 		ld	a5,8(a0)
  40              		.loc 1 12 22
  41 0038 83B70700 		ld	a5,0(a5)
  42              		.loc 1 12 14
  43 003c 2334F500 		sd	a5,8(a0)
  44              	.L3:
GAS LISTING /tmp/cctosQp0.s 			page 2


  13:src/SCB.cpp   ****     }
  14:src/SCB.cpp   ****     PCB::running->blocked = true;
  45              		.loc 1 14 5 is_stmt 1
  46              		.loc 1 14 19 is_stmt 0
  47 0040 97070000 		la	a5,_ZN3PCB7runningE
  47      83B70700 
  48 0048 83B70700 		ld	a5,0(a5)
  49              		.loc 1 14 27
  50 004c 13071000 		li	a4,1
  51 0050 A384E702 		sb	a4,41(a5)
  15:src/SCB.cpp   ****     //PCB::yield(); // ovo treba da radi sistemski poziv
  16:src/SCB.cpp   **** }
  52              		.loc 1 16 1
  53 0054 03348100 		ld	s0,8(sp)
  54              		.cfi_remember_state
  55              		.cfi_restore 8
  56              		.cfi_def_cfa 2, 16
  57 0058 13010101 		addi	sp,sp,16
  58              		.cfi_def_cfa_offset 0
  59 005c 67800000 		jr	ra
  60              	.L5:
  61              		.cfi_restore_state
   8:src/SCB.cpp   ****     }
  62              		.loc 1 8 9 is_stmt 1
   8:src/SCB.cpp   ****     }
  63              		.loc 1 8 21 is_stmt 0
  64 0060 97070000 		la	a5,_ZN3PCB7runningE
  64      83B70700 
  65 0068 83B70700 		ld	a5,0(a5)
  66 006c 2334F500 		sd	a5,8(a0)
   8:src/SCB.cpp   ****     }
  67              		.loc 1 8 14
  68 0070 2330F500 		sd	a5,0(a0)
  69 0074 6FF0DFFC 		j	.L3
  70              		.cfi_endproc
  71              	.LFE33:
  73              		.align	2
  74              		.globl	_ZN3SCB7unblockEv
  76              	_ZN3SCB7unblockEv:
  77              	.LFB34:
  17:src/SCB.cpp   **** 
  18:src/SCB.cpp   **** PCB* SCB::unblock() {
  78              		.loc 1 18 21 is_stmt 1
  79              		.cfi_startproc
  80              	.LVL1:
  81 0078 130101FF 		addi	sp,sp,-16
  82              		.cfi_def_cfa_offset 16
  83 007c 23348100 		sd	s0,8(sp)
  84              		.cfi_offset 8, -8
  85 0080 13040101 		addi	s0,sp,16
  86              		.cfi_def_cfa 8, 0
  87 0084 93070500 		mv	a5,a0
  19:src/SCB.cpp   ****     if(head == nullptr) return nullptr;
  88              		.loc 1 19 5
  89              		.loc 1 19 8 is_stmt 0
  90 0088 03350500 		ld	a0,0(a0)
  91              	.LVL2:
GAS LISTING /tmp/cctosQp0.s 			page 3


  92              		.loc 1 19 5
  93 008c 630E0500 		beqz	a0,.L6
  20:src/SCB.cpp   ****     PCB* curr = head;
  94              		.loc 1 20 5 is_stmt 1
  95              	.LVL3:
  21:src/SCB.cpp   ****     head = head->nextInList;
  96              		.loc 1 21 5
  97              		.loc 1 21 18 is_stmt 0
  98 0090 03370500 		ld	a4,0(a0)
  99              		.loc 1 21 10
 100 0094 23B0E700 		sd	a4,0(a5)
  22:src/SCB.cpp   ****     if(tail == curr) {
 101              		.loc 1 22 5 is_stmt 1
 102              		.loc 1 22 8 is_stmt 0
 103 0098 83B68700 		ld	a3,8(a5)
 104              		.loc 1 22 5
 105 009c 630CD500 		beq	a0,a3,.L10
 106              	.L8:
  23:src/SCB.cpp   ****         tail = head;
  24:src/SCB.cpp   ****     }
  25:src/SCB.cpp   ****     curr->blocked = false;
 107              		.loc 1 25 5 is_stmt 1
 108              		.loc 1 25 19 is_stmt 0
 109 00a0 A3040502 		sb	zero,41(a0)
  26:src/SCB.cpp   ****     curr->nextInList = nullptr;
 110              		.loc 1 26 5 is_stmt 1
 111              		.loc 1 26 22 is_stmt 0
 112 00a4 23300500 		sd	zero,0(a0)
  27:src/SCB.cpp   ****     return curr;
 113              		.loc 1 27 5 is_stmt 1
 114              	.LVL4:
 115              	.L6:
  28:src/SCB.cpp   **** }
 116              		.loc 1 28 1 is_stmt 0
 117 00a8 03348100 		ld	s0,8(sp)
 118              		.cfi_remember_state
 119              		.cfi_restore 8
 120              		.cfi_def_cfa 2, 16
 121 00ac 13010101 		addi	sp,sp,16
 122              		.cfi_def_cfa_offset 0
 123 00b0 67800000 		jr	ra
 124              	.LVL5:
 125              	.L10:
 126              		.cfi_restore_state
  23:src/SCB.cpp   ****     }
 127              		.loc 1 23 9 is_stmt 1
  23:src/SCB.cpp   ****     }
 128              		.loc 1 23 14 is_stmt 0
 129 00b4 23B4E700 		sd	a4,8(a5)
 130 00b8 6FF09FFE 		j	.L8
 131              		.cfi_endproc
 132              	.LFE34:
 134              		.align	2
 135              		.globl	_ZN3SCB4waitEv
 137              	_ZN3SCB4waitEv:
 138              	.LFB35:
  29:src/SCB.cpp   **** 
GAS LISTING /tmp/cctosQp0.s 			page 4


  30:src/SCB.cpp   **** bool SCB::wait() {
 139              		.loc 1 30 18 is_stmt 1
 140              		.cfi_startproc
 141              	.LVL6:
  31:src/SCB.cpp   ****     //Kernel::mc_sstatus(Kernel::SSTATUS_SIE); // zabranjuju se prekidi
  32:src/SCB.cpp   ****     if((int)(--semValue)<0) {
 142              		.loc 1 32 5
 143              		.loc 1 32 16 is_stmt 0
 144 00bc 83270501 		lw	a5,16(a0)
 145              		.loc 1 32 14
 146 00c0 9B87F7FF 		addiw	a5,a5,-1
 147              		.loc 1 32 25
 148 00c4 2328F500 		sw	a5,16(a0)
 149              		.loc 1 32 5
 150 00c8 13970702 		slli	a4,a5,32
 151 00cc 63460700 		bltz	a4,.L18
  33:src/SCB.cpp   ****         block();
  34:src/SCB.cpp   ****         return true;
  35:src/SCB.cpp   ****     }
  36:src/SCB.cpp   ****     return false;
 152              		.loc 1 36 12
 153 00d0 13050000 		li	a0,0
 154              	.LVL7:
  37:src/SCB.cpp   ****     //Kernel::ms_sstatus(Kernel::SSTATUS_SIE); // dozvoljavaju se prekidi
  38:src/SCB.cpp   **** }
 155              		.loc 1 38 1
 156 00d4 67800000 		ret
 157              	.LVL8:
 158              	.L18:
  30:src/SCB.cpp   ****     //Kernel::mc_sstatus(Kernel::SSTATUS_SIE); // zabranjuju se prekidi
 159              		.loc 1 30 18
 160 00d8 130101FF 		addi	sp,sp,-16
 161              		.cfi_def_cfa_offset 16
 162 00dc 23341100 		sd	ra,8(sp)
 163 00e0 23308100 		sd	s0,0(sp)
 164              		.cfi_offset 1, -8
 165              		.cfi_offset 8, -16
 166 00e4 13040101 		addi	s0,sp,16
 167              		.cfi_def_cfa 8, 0
  33:src/SCB.cpp   ****         block();
 168              		.loc 1 33 9 is_stmt 1
  33:src/SCB.cpp   ****         block();
 169              		.loc 1 33 14 is_stmt 0
 170 00e8 97000000 		call	_ZN3SCB5blockEv
 170      E7800000 
 171              	.LVL9:
  34:src/SCB.cpp   ****     }
 172              		.loc 1 34 9 is_stmt 1
  34:src/SCB.cpp   ****     }
 173              		.loc 1 34 16 is_stmt 0
 174 00f0 13051000 		li	a0,1
 175              		.loc 1 38 1
 176 00f4 83308100 		ld	ra,8(sp)
 177              		.cfi_restore 1
 178 00f8 03340100 		ld	s0,0(sp)
 179              		.cfi_restore 8
 180              		.cfi_def_cfa 2, 16
GAS LISTING /tmp/cctosQp0.s 			page 5


 181 00fc 13010101 		addi	sp,sp,16
 182              		.cfi_def_cfa_offset 0
 183 0100 67800000 		jr	ra
 184              		.cfi_endproc
 185              	.LFE35:
 187              		.align	2
 188              		.globl	_ZN3SCB6signalEv
 190              	_ZN3SCB6signalEv:
 191              	.LFB36:
  39:src/SCB.cpp   **** 
  40:src/SCB.cpp   **** PCB* SCB::signal() {
 192              		.loc 1 40 20 is_stmt 1
 193              		.cfi_startproc
 194              	.LVL10:
  41:src/SCB.cpp   ****     //Kernel::mc_sstatus(Kernel::SSTATUS_SIE); // zabranjuju se prekidi
  42:src/SCB.cpp   ****     if((int)(++semValue)<=0) {
 195              		.loc 1 42 5
 196              		.loc 1 42 16 is_stmt 0
 197 0104 83270501 		lw	a5,16(a0)
 198              		.loc 1 42 14
 199 0108 9B871700 		addiw	a5,a5,1
 200 010c 1B870700 		sext.w	a4,a5
 201              		.loc 1 42 25
 202 0110 2328F500 		sw	a5,16(a0)
 203              		.loc 1 42 5
 204 0114 6356E000 		blez	a4,.L26
  43:src/SCB.cpp   ****         return unblock();
  44:src/SCB.cpp   ****     }
  45:src/SCB.cpp   ****     return nullptr;
 205              		.loc 1 45 12
 206 0118 13050000 		li	a0,0
 207              	.LVL11:
  46:src/SCB.cpp   ****     //Kernel::ms_sstatus(Kernel::SSTATUS_SIE); // dozvoljavaju se prekidi
  47:src/SCB.cpp   **** }
 208              		.loc 1 47 1
 209 011c 67800000 		ret
 210              	.LVL12:
 211              	.L26:
  40:src/SCB.cpp   ****     //Kernel::mc_sstatus(Kernel::SSTATUS_SIE); // zabranjuju se prekidi
 212              		.loc 1 40 20
 213 0120 130101FF 		addi	sp,sp,-16
 214              		.cfi_def_cfa_offset 16
 215 0124 23341100 		sd	ra,8(sp)
 216 0128 23308100 		sd	s0,0(sp)
 217              		.cfi_offset 1, -8
 218              		.cfi_offset 8, -16
 219 012c 13040101 		addi	s0,sp,16
 220              		.cfi_def_cfa 8, 0
  43:src/SCB.cpp   ****         return unblock();
 221              		.loc 1 43 9 is_stmt 1
  43:src/SCB.cpp   ****         return unblock();
 222              		.loc 1 43 23 is_stmt 0
 223 0130 97000000 		call	_ZN3SCB7unblockEv
 223      E7800000 
 224              	.LVL13:
 225              		.loc 1 47 1
 226 0138 83308100 		ld	ra,8(sp)
GAS LISTING /tmp/cctosQp0.s 			page 6


 227              		.cfi_restore 1
 228 013c 03340100 		ld	s0,0(sp)
 229              		.cfi_restore 8
 230              		.cfi_def_cfa 2, 16
 231 0140 13010101 		addi	sp,sp,16
 232              		.cfi_def_cfa_offset 0
 233 0144 67800000 		jr	ra
 234              		.cfi_endproc
 235              	.LFE36:
 237              		.align	2
 238              		.globl	_ZN3SCBnwEm
 240              	_ZN3SCBnwEm:
 241              	.LFB37:
  48:src/SCB.cpp   **** 
  49:src/SCB.cpp   **** void *SCB::operator new(size_t size) {
 242              		.loc 1 49 38 is_stmt 1
 243              		.cfi_startproc
 244              	.LVL14:
 245 0148 130101FF 		addi	sp,sp,-16
 246              		.cfi_def_cfa_offset 16
 247 014c 23341100 		sd	ra,8(sp)
 248 0150 23308100 		sd	s0,0(sp)
 249              		.cfi_offset 1, -8
 250              		.cfi_offset 8, -16
 251 0154 13040101 		addi	s0,sp,16
 252              		.cfi_def_cfa 8, 0
  50:src/SCB.cpp   ****     return MemoryAllocator::mem_alloc(size);
 253              		.loc 1 50 5
 254              		.loc 1 50 38 is_stmt 0
 255 0158 97000000 		call	_ZN15MemoryAllocator9mem_allocEm@plt
 255      E7800000 
 256              	.LVL15:
  51:src/SCB.cpp   **** }
 257              		.loc 1 51 1
 258 0160 83308100 		ld	ra,8(sp)
 259              		.cfi_restore 1
 260 0164 03340100 		ld	s0,0(sp)
 261              		.cfi_restore 8
 262              		.cfi_def_cfa 2, 16
 263 0168 13010101 		addi	sp,sp,16
 264              		.cfi_def_cfa_offset 0
 265 016c 67800000 		jr	ra
 266              		.cfi_endproc
 267              	.LFE37:
 269              		.align	2
 270              		.globl	_ZN3SCBdlEPv
 272              	_ZN3SCBdlEPv:
 273              	.LFB38:
  52:src/SCB.cpp   **** 
  53:src/SCB.cpp   **** void SCB::operator delete(void *memSegment) {
 274              		.loc 1 53 45 is_stmt 1
 275              		.cfi_startproc
 276              	.LVL16:
 277 0170 130101FF 		addi	sp,sp,-16
 278              		.cfi_def_cfa_offset 16
 279 0174 23341100 		sd	ra,8(sp)
 280 0178 23308100 		sd	s0,0(sp)
GAS LISTING /tmp/cctosQp0.s 			page 7


 281              		.cfi_offset 1, -8
 282              		.cfi_offset 8, -16
 283 017c 13040101 		addi	s0,sp,16
 284              		.cfi_def_cfa 8, 0
  54:src/SCB.cpp   ****     MemoryAllocator::mem_free(memSegment);
 285              		.loc 1 54 5
 286              		.loc 1 54 30 is_stmt 0
 287 0180 97000000 		call	_ZN15MemoryAllocator8mem_freeEPv@plt
 287      E7800000 
 288              	.LVL17:
  55:src/SCB.cpp   **** }
 289              		.loc 1 55 1
 290 0188 83308100 		ld	ra,8(sp)
 291              		.cfi_restore 1
 292 018c 03340100 		ld	s0,0(sp)
 293              		.cfi_restore 8
 294              		.cfi_def_cfa 2, 16
 295 0190 13010101 		addi	sp,sp,16
 296              		.cfi_def_cfa_offset 0
 297 0194 67800000 		jr	ra
 298              		.cfi_endproc
 299              	.LFE38:
 301              		.align	2
 302              		.globl	_ZN3SCB13signalClosingEv
 304              	_ZN3SCB13signalClosingEv:
 305              	.LFB39:
  56:src/SCB.cpp   **** 
  57:src/SCB.cpp   **** void SCB::signalClosing() {
 306              		.loc 1 57 27 is_stmt 1
 307              		.cfi_startproc
 308              	.LVL18:
 309 0198 130101FE 		addi	sp,sp,-32
 310              		.cfi_def_cfa_offset 32
 311 019c 233C1100 		sd	ra,24(sp)
 312 01a0 23388100 		sd	s0,16(sp)
 313 01a4 23349100 		sd	s1,8(sp)
 314 01a8 23302101 		sd	s2,0(sp)
 315              		.cfi_offset 1, -8
 316              		.cfi_offset 8, -16
 317              		.cfi_offset 9, -24
 318              		.cfi_offset 18, -32
 319 01ac 13040102 		addi	s0,sp,32
 320              		.cfi_def_cfa 8, 0
 321 01b0 13090500 		mv	s2,a0
  58:src/SCB.cpp   ****     PCB* curr = head;
 322              		.loc 1 58 5
 323              		.loc 1 58 10 is_stmt 0
 324 01b4 03350500 		ld	a0,0(a0)
 325              	.LVL19:
 326              	.L33:
  59:src/SCB.cpp   ****     while(curr) {
 327              		.loc 1 59 5 is_stmt 1
 328              		.loc 1 59 11
 329 01b8 63020502 		beqz	a0,.L32
 330              	.LBB2:
  60:src/SCB.cpp   ****         PCB* last = curr;
 331              		.loc 1 60 9
GAS LISTING /tmp/cctosQp0.s 			page 8


 332              	.LVL20:
  61:src/SCB.cpp   ****         curr->semDeleted = true;
 333              		.loc 1 61 9
 334              		.loc 1 61 26 is_stmt 0
 335 01bc 93071000 		li	a5,1
 336 01c0 2305F502 		sb	a5,42(a0)
  62:src/SCB.cpp   ****         curr->blocked = false;
 337              		.loc 1 62 9 is_stmt 1
 338              		.loc 1 62 23 is_stmt 0
 339 01c4 A3040502 		sb	zero,41(a0)
  63:src/SCB.cpp   ****         curr = curr->nextInList;
 340              		.loc 1 63 9 is_stmt 1
 341              		.loc 1 63 14 is_stmt 0
 342 01c8 83340500 		ld	s1,0(a0)
 343              	.LVL21:
  64:src/SCB.cpp   ****         Scheduler::put(last);
 344              		.loc 1 64 9 is_stmt 1
 345              		.loc 1 64 23 is_stmt 0
 346 01cc 97000000 		call	_ZN9Scheduler3putEP3PCB@plt
 346      E7800000 
 347              	.LVL22:
  63:src/SCB.cpp   ****         curr = curr->nextInList;
 348              		.loc 1 63 14
 349 01d4 13850400 		mv	a0,s1
 350              	.LBE2:
  59:src/SCB.cpp   ****         PCB* last = curr;
 351              		.loc 1 59 5
 352 01d8 6FF01FFE 		j	.L33
 353              	.LVL23:
 354              	.L32:
  65:src/SCB.cpp   ****     }
  66:src/SCB.cpp   ****     head = tail = nullptr;
 355              		.loc 1 66 5 is_stmt 1
 356              		.loc 1 66 17 is_stmt 0
 357 01dc 23340900 		sd	zero,8(s2)
 358              		.loc 1 66 10
 359 01e0 23300900 		sd	zero,0(s2)
  67:src/SCB.cpp   **** }
 360              		.loc 1 67 1
 361 01e4 83308101 		ld	ra,24(sp)
 362              		.cfi_restore 1
 363 01e8 03340101 		ld	s0,16(sp)
 364              		.cfi_restore 8
 365              		.cfi_def_cfa 2, 32
 366 01ec 83348100 		ld	s1,8(sp)
 367              		.cfi_restore 9
 368 01f0 03390100 		ld	s2,0(sp)
 369              		.cfi_restore 18
 370              	.LVL24:
 371 01f4 13010102 		addi	sp,sp,32
 372              		.cfi_def_cfa_offset 0
 373 01f8 67800000 		jr	ra
 374              		.cfi_endproc
 375              	.LFE39:
 377              	.Letext0:
 378              		.file 2 "src/../h/hw.h"
 379              		.file 3 "src/../h/PCB.h"
GAS LISTING /tmp/cctosQp0.s 			page 9


 380              		.file 4 "src/../h/Scheduler.h"
 381              		.file 5 "src/../h/SCB.h"
 382              		.file 6 "src/../h/MemoryAllocator.h"
GAS LISTING /tmp/cctosQp0.s 			page 10

