GAS LISTING /tmp/ccykqii8.s 			page 1


   1              		.file	"SCB.cpp"
   2              		.option pic
   3              		.option norelax
   4              		.text
   5              	.Ltext0:
   6              		.align	2
   7              		.globl	_ZN3SCB5blockEv
   9              	_ZN3SCB5blockEv:
  10              	.LFB43:
  11              		.file 1 "src/SCB.cpp"
   1:src/SCB.cpp   **** #include "../h/SCB.h"
   2:src/SCB.cpp   **** #include "../h/kernel.h"
   3:src/SCB.cpp   **** #include "../h/MemoryAllocator.h"
   4:src/SCB.cpp   **** 
   5:src/SCB.cpp   **** void SCB::block() {
  12              		.loc 1 5 19
  13              		.cfi_startproc
  14              	.LVL0:
  15 0000 130101FF 		addi	sp,sp,-16
  16              		.cfi_def_cfa_offset 16
  17 0004 23348100 		sd	s0,8(sp)
  18              		.cfi_offset 8, -8
  19 0008 13040101 		addi	s0,sp,16
  20              		.cfi_def_cfa 8, 0
   6:src/SCB.cpp   ****     PCB::running->setNextInList(nullptr);
  21              		.loc 1 6 5
  22              		.loc 1 6 32 is_stmt 0
  23 000c 97070000 		la	a5,_ZN3PCB7runningE
  23      83B70700 
  24 0014 83B70700 		ld	a5,0(a5)
  25              	.LVL1:
  26              	.LBB23:
  27              	.LBB24:
  28              		.file 2 "src/../h/PCB.h"
   1:src/../h/PCB.h **** #ifndef PCB_H
   2:src/../h/PCB.h **** #define PCB_H
   3:src/../h/PCB.h **** 
   4:src/../h/PCB.h **** #include "hw.h"
   5:src/../h/PCB.h **** #include "slab.h"
   6:src/../h/PCB.h **** 
   7:src/../h/PCB.h **** extern "C" void interruptHandler();
   8:src/../h/PCB.h **** 
   9:src/../h/PCB.h **** class PCB {
  10:src/../h/PCB.h **** friend class Scheduler;
  11:src/../h/PCB.h **** friend void interruptHandler();
  12:src/../h/PCB.h **** friend class Kernel;
  13:src/../h/PCB.h **** friend class SCB;
  14:src/../h/PCB.h **** public:
  15:src/../h/PCB.h ****     // vraca true ako se proces zavrsio, false ako nije
  16:src/../h/PCB.h ****     bool isFinished() const {
  17:src/../h/PCB.h ****         return finished;
  18:src/../h/PCB.h ****     }
  19:src/../h/PCB.h ****     // vraca true ako je semafor obrisan pre nego sto je proces odblokiran
  20:src/../h/PCB.h ****     bool isSemaphoreDeleted() const {
  21:src/../h/PCB.h ****         return semDeleted;
  22:src/../h/PCB.h ****     }
  23:src/../h/PCB.h **** 
GAS LISTING /tmp/ccykqii8.s 			page 2


  24:src/../h/PCB.h ****     size_t getTimeSleeping() const {
  25:src/../h/PCB.h ****         return timeSleeping;
  26:src/../h/PCB.h ****     }
  27:src/../h/PCB.h **** 
  28:src/../h/PCB.h ****     void setTimeSleeping(size_t newTime) {
  29:src/../h/PCB.h ****         timeSleeping = newTime;
  30:src/../h/PCB.h ****     }
  31:src/../h/PCB.h **** 
  32:src/../h/PCB.h ****     PCB* getNextInList() const {
  33:src/../h/PCB.h ****         return nextInList;
  34:src/../h/PCB.h ****     }
  35:src/../h/PCB.h **** 
  36:src/../h/PCB.h ****     void setNextInList(PCB* next) {
  37:src/../h/PCB.h ****         nextInList = next;
  29              		.loc 2 37 9 is_stmt 1
  30              		.loc 2 37 20 is_stmt 0
  31 0018 23B00700 		sd	zero,0(a5)
  32              	.LVL2:
  33              	.LBE24:
  34              	.LBE23:
   7:src/SCB.cpp   ****     if(tail == nullptr) { // ako ne postoji kraj liste nece postojati ni pocetak
  35              		.loc 1 7 5 is_stmt 1
  36              		.loc 1 7 8 is_stmt 0
  37 001c 83378500 		ld	a5,8(a0)
  38              		.loc 1 7 5
  39 0020 63800704 		beqz	a5,.L5
   8:src/SCB.cpp   ****         head = tail = PCB::running;
   9:src/SCB.cpp   ****     }
  10:src/SCB.cpp   ****     else {
  11:src/SCB.cpp   ****         tail->setNextInList(PCB::running);
  40              		.loc 1 11 9 is_stmt 1
  41              		.loc 1 11 28 is_stmt 0
  42 0024 17070000 		la	a4,_ZN3PCB7runningE
  42      03370700 
  43 002c 03370700 		ld	a4,0(a4)
  44              	.LVL3:
  45              	.LBB25:
  46              	.LBB26:
  47              		.loc 2 37 9 is_stmt 1
  48              		.loc 2 37 20 is_stmt 0
  49 0030 23B0E700 		sd	a4,0(a5)
  50              	.LVL4:
  51              	.LBE26:
  52              	.LBE25:
  12:src/SCB.cpp   ****         tail = tail->getNextInList();
  53              		.loc 1 12 9 is_stmt 1
  54              		.loc 1 12 16 is_stmt 0
  55 0034 83378500 		ld	a5,8(a0)
  56              	.LVL5:
  57              	.LBB27:
  58              	.LBB28:
  33:src/../h/PCB.h ****     }
  59              		.loc 2 33 9 is_stmt 1
  33:src/../h/PCB.h ****     }
  60              		.loc 2 33 16 is_stmt 0
  61 0038 83B70700 		ld	a5,0(a5)
  62              	.LVL6:
GAS LISTING /tmp/ccykqii8.s 			page 3


  63              	.LBE28:
  64              	.LBE27:
  65              		.loc 1 12 14
  66 003c 2334F500 		sd	a5,8(a0)
  67              	.L3:
  13:src/SCB.cpp   ****     }
  14:src/SCB.cpp   ****     PCB::running->setBlocked(true);
  68              		.loc 1 14 5 is_stmt 1
  69              		.loc 1 14 29 is_stmt 0
  70 0040 97070000 		la	a5,_ZN3PCB7runningE
  70      83B70700 
  71 0048 83B70700 		ld	a5,0(a5)
  72              	.LVL7:
  73              	.LBB29:
  74              	.LBB30:
  38:src/../h/PCB.h ****     }
  39:src/../h/PCB.h **** 
  40:src/../h/PCB.h ****     void setBlocked(bool newState) {
  41:src/../h/PCB.h ****         blocked = newState;
  75              		.loc 2 41 9 is_stmt 1
  76              		.loc 2 41 17 is_stmt 0
  77 004c 13071000 		li	a4,1
  78 0050 A384E702 		sb	a4,41(a5)
  79              	.LVL8:
  80              	.LBE30:
  81              	.LBE29:
  15:src/SCB.cpp   **** }
  82              		.loc 1 15 1
  83 0054 03348100 		ld	s0,8(sp)
  84              		.cfi_remember_state
  85              		.cfi_restore 8
  86              		.cfi_def_cfa 2, 16
  87 0058 13010101 		addi	sp,sp,16
  88              		.cfi_def_cfa_offset 0
  89 005c 67800000 		jr	ra
  90              	.L5:
  91              		.cfi_restore_state
   8:src/SCB.cpp   ****     }
  92              		.loc 1 8 9 is_stmt 1
   8:src/SCB.cpp   ****     }
  93              		.loc 1 8 21 is_stmt 0
  94 0060 97070000 		la	a5,_ZN3PCB7runningE
  94      83B70700 
  95 0068 83B70700 		ld	a5,0(a5)
  96 006c 2334F500 		sd	a5,8(a0)
   8:src/SCB.cpp   ****     }
  97              		.loc 1 8 14
  98 0070 2330F500 		sd	a5,0(a0)
  99 0074 6FF0DFFC 		j	.L3
 100              		.cfi_endproc
 101              	.LFE43:
 103              		.align	2
 104              		.globl	_ZN3SCB7unblockEv
 106              	_ZN3SCB7unblockEv:
 107              	.LFB44:
  16:src/SCB.cpp   **** 
  17:src/SCB.cpp   **** PCB* SCB::unblock() {
GAS LISTING /tmp/ccykqii8.s 			page 4


 108              		.loc 1 17 21 is_stmt 1
 109              		.cfi_startproc
 110              	.LVL9:
 111 0078 130101FF 		addi	sp,sp,-16
 112              		.cfi_def_cfa_offset 16
 113 007c 23348100 		sd	s0,8(sp)
 114              		.cfi_offset 8, -8
 115 0080 13040101 		addi	s0,sp,16
 116              		.cfi_def_cfa 8, 0
 117 0084 93070500 		mv	a5,a0
  18:src/SCB.cpp   ****     if(head == nullptr) return nullptr;
 118              		.loc 1 18 5
 119              		.loc 1 18 8 is_stmt 0
 120 0088 03350500 		ld	a0,0(a0)
 121              	.LVL10:
 122              		.loc 1 18 5
 123 008c 630E0500 		beqz	a0,.L6
  19:src/SCB.cpp   ****     PCB* curr = head;
 124              		.loc 1 19 5 is_stmt 1
 125              	.LVL11:
  20:src/SCB.cpp   ****     head = head->getNextInList();
 126              		.loc 1 20 5
 127              	.LBB31:
 128              	.LBB32:
  33:src/../h/PCB.h ****     }
 129              		.loc 2 33 9
  33:src/../h/PCB.h ****     }
 130              		.loc 2 33 16 is_stmt 0
 131 0090 03370500 		ld	a4,0(a0)
 132              	.LVL12:
 133              	.LBE32:
 134              	.LBE31:
 135              		.loc 1 20 10
 136 0094 23B0E700 		sd	a4,0(a5)
  21:src/SCB.cpp   ****     if(tail == curr) {
 137              		.loc 1 21 5 is_stmt 1
 138              		.loc 1 21 8 is_stmt 0
 139 0098 83B68700 		ld	a3,8(a5)
 140              		.loc 1 21 5
 141 009c 630CD500 		beq	a0,a3,.L10
 142              	.L8:
  22:src/SCB.cpp   ****         tail = head;
  23:src/SCB.cpp   ****     }
  24:src/SCB.cpp   ****     curr->setBlocked(false);
 143              		.loc 1 24 5 is_stmt 1
 144              	.LVL13:
 145              	.LBB33:
 146              	.LBB34:
 147              		.loc 2 41 9
 148              		.loc 2 41 17 is_stmt 0
 149 00a0 A3040502 		sb	zero,41(a0)
 150              	.LVL14:
 151              	.LBE34:
 152              	.LBE33:
  25:src/SCB.cpp   ****     curr->setNextInList(nullptr);
 153              		.loc 1 25 5 is_stmt 1
 154              	.LBB35:
GAS LISTING /tmp/ccykqii8.s 			page 5


 155              	.LBB36:
  37:src/../h/PCB.h ****     }
 156              		.loc 2 37 9
  37:src/../h/PCB.h ****     }
 157              		.loc 2 37 20 is_stmt 0
 158 00a4 23300500 		sd	zero,0(a0)
 159              	.LVL15:
 160              	.LBE36:
 161              	.LBE35:
  26:src/SCB.cpp   ****     return curr;
 162              		.loc 1 26 5 is_stmt 1
 163              	.L6:
  27:src/SCB.cpp   **** }
 164              		.loc 1 27 1 is_stmt 0
 165 00a8 03348100 		ld	s0,8(sp)
 166              		.cfi_remember_state
 167              		.cfi_restore 8
 168              		.cfi_def_cfa 2, 16
 169 00ac 13010101 		addi	sp,sp,16
 170              		.cfi_def_cfa_offset 0
 171 00b0 67800000 		jr	ra
 172              	.LVL16:
 173              	.L10:
 174              		.cfi_restore_state
  22:src/SCB.cpp   ****     }
 175              		.loc 1 22 9 is_stmt 1
  22:src/SCB.cpp   ****     }
 176              		.loc 1 22 14 is_stmt 0
 177 00b4 23B4E700 		sd	a4,8(a5)
 178 00b8 6FF09FFE 		j	.L8
 179              		.cfi_endproc
 180              	.LFE44:
 182              		.align	2
 183              		.globl	_ZN3SCB4waitEv
 185              	_ZN3SCB4waitEv:
 186              	.LFB45:
  28:src/SCB.cpp   **** 
  29:src/SCB.cpp   **** int SCB::wait() {
 187              		.loc 1 29 17 is_stmt 1
 188              		.cfi_startproc
 189              	.LVL17:
  30:src/SCB.cpp   ****     if((int)(--semValue)<0) {
 190              		.loc 1 30 5
 191              		.loc 1 30 16 is_stmt 0
 192 00bc 83270501 		lw	a5,16(a0)
 193              		.loc 1 30 14
 194 00c0 9B87F7FF 		addiw	a5,a5,-1
 195              		.loc 1 30 25
 196 00c4 2328F500 		sw	a5,16(a0)
 197              		.loc 1 30 5
 198 00c8 13970702 		slli	a4,a5,32
 199 00cc 63400702 		bltz	a4,.L22
  31:src/SCB.cpp   ****         block();
  32:src/SCB.cpp   ****         PCB::timeSliceCounter = 0;
  33:src/SCB.cpp   ****         PCB::dispatch();
  34:src/SCB.cpp   ****     }
  35:src/SCB.cpp   **** 
GAS LISTING /tmp/ccykqii8.s 			page 6


  36:src/SCB.cpp   ****     if(PCB::running->semDeleted) { // ako se vratio kontekst, a semafor je obrisan
 200              		.loc 1 36 5 is_stmt 1
 201              		.loc 1 36 22 is_stmt 0
 202 00d0 97070000 		la	a5,_ZN3PCB7runningE
 202      83B70700 
 203 00d8 83B70700 		ld	a5,0(a5)
 204 00dc 83C7A702 		lbu	a5,42(a5)
 205              		.loc 1 36 5
 206 00e0 63940706 		bnez	a5,.L17
  37:src/SCB.cpp   ****         return -2;
  38:src/SCB.cpp   ****     }
  39:src/SCB.cpp   **** 
  40:src/SCB.cpp   ****     return 0;
 207              		.loc 1 40 12
 208 00e4 13050000 		li	a0,0
 209              	.LVL18:
 210 00e8 67800000 		ret
 211              	.LVL19:
 212              	.L22:
  29:src/SCB.cpp   ****     if((int)(--semValue)<0) {
 213              		.loc 1 29 17
 214 00ec 130101FF 		addi	sp,sp,-16
 215              		.cfi_def_cfa_offset 16
 216 00f0 23341100 		sd	ra,8(sp)
 217 00f4 23308100 		sd	s0,0(sp)
 218              		.cfi_offset 1, -8
 219              		.cfi_offset 8, -16
 220 00f8 13040101 		addi	s0,sp,16
 221              		.cfi_def_cfa 8, 0
  31:src/SCB.cpp   ****         block();
 222              		.loc 1 31 9 is_stmt 1
  31:src/SCB.cpp   ****         block();
 223              		.loc 1 31 14 is_stmt 0
 224 00fc 97000000 		call	_ZN3SCB5blockEv
 224      E7800000 
 225              	.LVL20:
  32:src/SCB.cpp   ****         PCB::dispatch();
 226              		.loc 1 32 9 is_stmt 1
  32:src/SCB.cpp   ****         PCB::dispatch();
 227              		.loc 1 32 31 is_stmt 0
 228 0104 97070000 		la	a5,_ZN3PCB16timeSliceCounterE
 228      83B70700 
 229 010c 23B00700 		sd	zero,0(a5)
  33:src/SCB.cpp   ****     }
 230              		.loc 1 33 9 is_stmt 1
  33:src/SCB.cpp   ****     }
 231              		.loc 1 33 22 is_stmt 0
 232 0110 97000000 		call	_ZN3PCB8dispatchEv@plt
 232      E7800000 
 233              	.LVL21:
  36:src/SCB.cpp   ****         return -2;
 234              		.loc 1 36 5 is_stmt 1
  36:src/SCB.cpp   ****         return -2;
 235              		.loc 1 36 22 is_stmt 0
 236 0118 97070000 		la	a5,_ZN3PCB7runningE
 236      83B70700 
 237 0120 83B70700 		ld	a5,0(a5)
GAS LISTING /tmp/ccykqii8.s 			page 7


 238 0124 83C7A702 		lbu	a5,42(a5)
  36:src/SCB.cpp   ****         return -2;
 239              		.loc 1 36 5
 240 0128 639C0700 		bnez	a5,.L14
 241              		.loc 1 40 12
 242 012c 13050000 		li	a0,0
 243              	.L13:
  41:src/SCB.cpp   **** 
  42:src/SCB.cpp   **** }
 244              		.loc 1 42 1
 245 0130 83308100 		ld	ra,8(sp)
 246              		.cfi_remember_state
 247              		.cfi_restore 1
 248 0134 03340100 		ld	s0,0(sp)
 249              		.cfi_restore 8
 250              		.cfi_def_cfa 2, 16
 251 0138 13010101 		addi	sp,sp,16
 252              		.cfi_def_cfa_offset 0
 253 013c 67800000 		jr	ra
 254              	.L14:
 255              		.cfi_restore_state
  37:src/SCB.cpp   ****     }
 256              		.loc 1 37 17
 257 0140 1305E0FF 		li	a0,-2
 258 0144 6FF0DFFE 		j	.L13
 259              	.LVL22:
 260              	.L17:
 261              		.cfi_def_cfa_register 2
 262              		.cfi_restore 1
 263              		.cfi_restore 8
 264 0148 1305E0FF 		li	a0,-2
 265              	.LVL23:
 266              		.loc 1 42 1
 267 014c 67800000 		ret
 268              		.cfi_endproc
 269              	.LFE45:
 271              		.align	2
 272              		.globl	_ZN3SCB6signalEv
 274              	_ZN3SCB6signalEv:
 275              	.LFB46:
  43:src/SCB.cpp   **** 
  44:src/SCB.cpp   **** void SCB::signal() {
 276              		.loc 1 44 20 is_stmt 1
 277              		.cfi_startproc
 278              	.LVL24:
  45:src/SCB.cpp   ****     if((int)(++semValue)<=0) {
 279              		.loc 1 45 5
 280              		.loc 1 45 16 is_stmt 0
 281 0150 83270501 		lw	a5,16(a0)
 282              		.loc 1 45 14
 283 0154 9B871700 		addiw	a5,a5,1
 284 0158 1B870700 		sext.w	a4,a5
 285              		.loc 1 45 25
 286 015c 2328F500 		sw	a5,16(a0)
 287              		.loc 1 45 5
 288 0160 6354E000 		blez	a4,.L29
 289 0164 67800000 		ret
GAS LISTING /tmp/ccykqii8.s 			page 8


 290              	.L29:
  44:src/SCB.cpp   ****     if((int)(++semValue)<=0) {
 291              		.loc 1 44 20
 292 0168 130101FF 		addi	sp,sp,-16
 293              		.cfi_def_cfa_offset 16
 294 016c 23341100 		sd	ra,8(sp)
 295 0170 23308100 		sd	s0,0(sp)
 296              		.cfi_offset 1, -8
 297              		.cfi_offset 8, -16
 298 0174 13040101 		addi	s0,sp,16
 299              		.cfi_def_cfa 8, 0
  46:src/SCB.cpp   ****         Scheduler::put(unblock());
 300              		.loc 1 46 9 is_stmt 1
 301              		.loc 1 46 23 is_stmt 0
 302 0178 97000000 		call	_ZN3SCB7unblockEv
 302      E7800000 
 303              	.LVL25:
 304 0180 97000000 		call	_ZN9Scheduler3putEP3PCB@plt
 304      E7800000 
 305              	.LVL26:
  47:src/SCB.cpp   ****     }
  48:src/SCB.cpp   **** 
  49:src/SCB.cpp   **** }
 306              		.loc 1 49 1
 307 0188 83308100 		ld	ra,8(sp)
 308              		.cfi_restore 1
 309 018c 03340100 		ld	s0,0(sp)
 310              		.cfi_restore 8
 311              		.cfi_def_cfa 2, 16
 312 0190 13010101 		addi	sp,sp,16
 313              		.cfi_def_cfa_offset 0
 314 0194 67800000 		jr	ra
 315              		.cfi_endproc
 316              	.LFE46:
 318              		.align	2
 319              		.globl	_ZN3SCB14prioritySignalEv
 321              	_ZN3SCB14prioritySignalEv:
 322              	.LFB47:
  50:src/SCB.cpp   **** 
  51:src/SCB.cpp   **** void SCB::prioritySignal() {
 323              		.loc 1 51 28 is_stmt 1
 324              		.cfi_startproc
 325              	.LVL27:
  52:src/SCB.cpp   ****     if((int)(++semValue)<=0) {
 326              		.loc 1 52 5
 327              		.loc 1 52 16 is_stmt 0
 328 0198 83270501 		lw	a5,16(a0)
 329              		.loc 1 52 14
 330 019c 9B871700 		addiw	a5,a5,1
 331 01a0 1B870700 		sext.w	a4,a5
 332              		.loc 1 52 25
 333 01a4 2328F500 		sw	a5,16(a0)
 334              		.loc 1 52 5
 335 01a8 6354E000 		blez	a4,.L36
 336 01ac 67800000 		ret
 337              	.L36:
  51:src/SCB.cpp   ****     if((int)(++semValue)<=0) {
GAS LISTING /tmp/ccykqii8.s 			page 9


 338              		.loc 1 51 28
 339 01b0 130101FF 		addi	sp,sp,-16
 340              		.cfi_def_cfa_offset 16
 341 01b4 23341100 		sd	ra,8(sp)
 342 01b8 23308100 		sd	s0,0(sp)
 343              		.cfi_offset 1, -8
 344              		.cfi_offset 8, -16
 345 01bc 13040101 		addi	s0,sp,16
 346              		.cfi_def_cfa 8, 0
  53:src/SCB.cpp   ****         Scheduler::putInFront(unblock());
 347              		.loc 1 53 9 is_stmt 1
 348              		.loc 1 53 30 is_stmt 0
 349 01c0 97000000 		call	_ZN3SCB7unblockEv
 349      E7800000 
 350              	.LVL28:
 351 01c8 97000000 		call	_ZN9Scheduler10putInFrontEP3PCB@plt
 351      E7800000 
 352              	.LVL29:
  54:src/SCB.cpp   ****     }
  55:src/SCB.cpp   **** }
 353              		.loc 1 55 1
 354 01d0 83308100 		ld	ra,8(sp)
 355              		.cfi_restore 1
 356 01d4 03340100 		ld	s0,0(sp)
 357              		.cfi_restore 8
 358              		.cfi_def_cfa 2, 16
 359 01d8 13010101 		addi	sp,sp,16
 360              		.cfi_def_cfa_offset 0
 361 01dc 67800000 		jr	ra
 362              		.cfi_endproc
 363              	.LFE47:
 365              		.align	2
 366              		.globl	_ZN3SCBnwEm
 368              	_ZN3SCBnwEm:
 369              	.LFB48:
  56:src/SCB.cpp   **** 
  57:src/SCB.cpp   **** void *SCB::operator new(size_t size) {
 370              		.loc 1 57 38 is_stmt 1
 371              		.cfi_startproc
 372              	.LVL30:
 373 01e0 130101FF 		addi	sp,sp,-16
 374              		.cfi_def_cfa_offset 16
 375 01e4 23341100 		sd	ra,8(sp)
 376 01e8 23308100 		sd	s0,0(sp)
 377              		.cfi_offset 1, -8
 378              		.cfi_offset 8, -16
 379 01ec 13040101 		addi	s0,sp,16
 380              		.cfi_def_cfa 8, 0
  58:src/SCB.cpp   ****     return MemoryAllocator::mem_alloc(size);
 381              		.loc 1 58 5
 382              		.loc 1 58 38 is_stmt 0
 383 01f0 97000000 		call	_ZN15MemoryAllocator9mem_allocEm@plt
 383      E7800000 
 384              	.LVL31:
  59:src/SCB.cpp   **** }
 385              		.loc 1 59 1
 386 01f8 83308100 		ld	ra,8(sp)
GAS LISTING /tmp/ccykqii8.s 			page 10


 387              		.cfi_restore 1
 388 01fc 03340100 		ld	s0,0(sp)
 389              		.cfi_restore 8
 390              		.cfi_def_cfa 2, 16
 391 0200 13010101 		addi	sp,sp,16
 392              		.cfi_def_cfa_offset 0
 393 0204 67800000 		jr	ra
 394              		.cfi_endproc
 395              	.LFE48:
 397              		.align	2
 398              		.globl	_ZN3SCBdlEPv
 400              	_ZN3SCBdlEPv:
 401              	.LFB49:
  60:src/SCB.cpp   **** 
  61:src/SCB.cpp   **** void SCB::operator delete(void *memSegment) {
 402              		.loc 1 61 45 is_stmt 1
 403              		.cfi_startproc
 404              	.LVL32:
 405 0208 130101FF 		addi	sp,sp,-16
 406              		.cfi_def_cfa_offset 16
 407 020c 23341100 		sd	ra,8(sp)
 408 0210 23308100 		sd	s0,0(sp)
 409              		.cfi_offset 1, -8
 410              		.cfi_offset 8, -16
 411 0214 13040101 		addi	s0,sp,16
 412              		.cfi_def_cfa 8, 0
  62:src/SCB.cpp   ****     MemoryAllocator::mem_free(memSegment);
 413              		.loc 1 62 5
 414              		.loc 1 62 30 is_stmt 0
 415 0218 97000000 		call	_ZN15MemoryAllocator8mem_freeEPv@plt
 415      E7800000 
 416              	.LVL33:
  63:src/SCB.cpp   **** }
 417              		.loc 1 63 1
 418 0220 83308100 		ld	ra,8(sp)
 419              		.cfi_restore 1
 420 0224 03340100 		ld	s0,0(sp)
 421              		.cfi_restore 8
 422              		.cfi_def_cfa 2, 16
 423 0228 13010101 		addi	sp,sp,16
 424              		.cfi_def_cfa_offset 0
 425 022c 67800000 		jr	ra
 426              		.cfi_endproc
 427              	.LFE49:
 429              		.align	2
 430              		.globl	_ZN3SCB13signalClosingEv
 432              	_ZN3SCB13signalClosingEv:
 433              	.LFB50:
  64:src/SCB.cpp   **** 
  65:src/SCB.cpp   **** void SCB::signalClosing() {
 434              		.loc 1 65 27 is_stmt 1
 435              		.cfi_startproc
 436              	.LVL34:
 437 0230 130101FE 		addi	sp,sp,-32
 438              		.cfi_def_cfa_offset 32
 439 0234 233C1100 		sd	ra,24(sp)
 440 0238 23388100 		sd	s0,16(sp)
GAS LISTING /tmp/ccykqii8.s 			page 11


 441 023c 23349100 		sd	s1,8(sp)
 442 0240 23302101 		sd	s2,0(sp)
 443              		.cfi_offset 1, -8
 444              		.cfi_offset 8, -16
 445              		.cfi_offset 9, -24
 446              		.cfi_offset 18, -32
 447 0244 13040102 		addi	s0,sp,32
 448              		.cfi_def_cfa 8, 0
 449 0248 13090500 		mv	s2,a0
  66:src/SCB.cpp   ****     PCB* curr = head;
 450              		.loc 1 66 5
 451              		.loc 1 66 10 is_stmt 0
 452 024c 03350500 		ld	a0,0(a0)
 453              	.LVL35:
 454              	.L43:
  67:src/SCB.cpp   ****     while(curr) {
 455              		.loc 1 67 5 is_stmt 1
 456              		.loc 1 67 11
 457 0250 63020502 		beqz	a0,.L42
 458              	.LBB37:
  68:src/SCB.cpp   ****         PCB* last = curr;
 459              		.loc 1 68 9
 460              	.LVL36:
  69:src/SCB.cpp   ****         curr->setSemDeleted(true);
 461              		.loc 1 69 9
 462              	.LBB38:
 463              	.LBB39:
  42:src/../h/PCB.h ****     }
  43:src/../h/PCB.h **** 
  44:src/../h/PCB.h ****     void setSemDeleted(bool newState) {
  45:src/../h/PCB.h ****         semDeleted = newState;
 464              		.loc 2 45 9
 465              		.loc 2 45 20 is_stmt 0
 466 0254 93071000 		li	a5,1
 467 0258 2305F502 		sb	a5,42(a0)
 468              	.LVL37:
 469              	.LBE39:
 470              	.LBE38:
  70:src/SCB.cpp   ****         curr->setBlocked(false);
 471              		.loc 1 70 9 is_stmt 1
 472              	.LBB40:
 473              	.LBB41:
  41:src/../h/PCB.h ****     }
 474              		.loc 2 41 9
  41:src/../h/PCB.h ****     }
 475              		.loc 2 41 17 is_stmt 0
 476 025c A3040502 		sb	zero,41(a0)
 477              	.LVL38:
 478              	.LBE41:
 479              	.LBE40:
  71:src/SCB.cpp   ****         curr = curr->getNextInList();
 480              		.loc 1 71 9 is_stmt 1
 481              	.LBB42:
 482              	.LBB43:
  33:src/../h/PCB.h ****     }
 483              		.loc 2 33 9
  33:src/../h/PCB.h ****     }
GAS LISTING /tmp/ccykqii8.s 			page 12


 484              		.loc 2 33 16 is_stmt 0
 485 0260 83340500 		ld	s1,0(a0)
 486              	.LVL39:
 487              	.LBE43:
 488              	.LBE42:
  72:src/SCB.cpp   ****         Scheduler::put(last);
 489              		.loc 1 72 9 is_stmt 1
 490              		.loc 1 72 23 is_stmt 0
 491 0264 97000000 		call	_ZN9Scheduler3putEP3PCB@plt
 491      E7800000 
 492              	.LVL40:
  71:src/SCB.cpp   ****         curr = curr->getNextInList();
 493              		.loc 1 71 35
 494 026c 13850400 		mv	a0,s1
 495              	.LBE37:
  67:src/SCB.cpp   ****         PCB* last = curr;
 496              		.loc 1 67 5
 497 0270 6FF01FFE 		j	.L43
 498              	.LVL41:
 499              	.L42:
  73:src/SCB.cpp   ****     }
  74:src/SCB.cpp   ****     head = tail = nullptr;
 500              		.loc 1 74 5 is_stmt 1
 501              		.loc 1 74 17 is_stmt 0
 502 0274 23340900 		sd	zero,8(s2)
 503              		.loc 1 74 10
 504 0278 23300900 		sd	zero,0(s2)
  75:src/SCB.cpp   **** }
 505              		.loc 1 75 1
 506 027c 83308101 		ld	ra,24(sp)
 507              		.cfi_restore 1
 508 0280 03340101 		ld	s0,16(sp)
 509              		.cfi_restore 8
 510              		.cfi_def_cfa 2, 32
 511 0284 83348100 		ld	s1,8(sp)
 512              		.cfi_restore 9
 513 0288 03390100 		ld	s2,0(sp)
 514              		.cfi_restore 18
 515              	.LVL42:
 516 028c 13010102 		addi	sp,sp,32
 517              		.cfi_def_cfa_offset 0
 518 0290 67800000 		jr	ra
 519              		.cfi_endproc
 520              	.LFE50:
 522              	.Letext0:
 523              		.file 3 "src/../h/hw.h"
 524              		.file 4 "src/../h/slab.h"
 525              		.file 5 "src/../h/Scheduler.h"
 526              		.file 6 "src/../h/SCB.h"
 527              		.file 7 "src/../h/MemoryAllocator.h"
GAS LISTING /tmp/ccykqii8.s 			page 13


DEFINED SYMBOLS
                            *ABS*:0000000000000000 SCB.cpp
     /tmp/ccykqii8.s:9      .text:0000000000000000 _ZN3SCB5blockEv
     /tmp/ccykqii8.s:13     .text:0000000000000000 .L0 
     /tmp/ccykqii8.s:15     .text:0000000000000000 .L0 
     /tmp/ccykqii8.s:16     .text:0000000000000004 .L0 
     /tmp/ccykqii8.s:18     .text:0000000000000008 .L0 
     /tmp/ccykqii8.s:20     .text:000000000000000c .L0 
     /tmp/ccykqii8.s:22     .text:000000000000000c .L0 
     /tmp/ccykqii8.s:23     .text:000000000000000c .L0 
     /tmp/ccykqii8.s:30     .text:0000000000000018 .L0 
     /tmp/ccykqii8.s:31     .text:0000000000000018 .L0 
     /tmp/ccykqii8.s:36     .text:000000000000001c .L0 
     /tmp/ccykqii8.s:37     .text:000000000000001c .L0 
     /tmp/ccykqii8.s:39     .text:0000000000000020 .L0 
     /tmp/ccykqii8.s:41     .text:0000000000000024 .L0 
     /tmp/ccykqii8.s:42     .text:0000000000000024 .L0 
     /tmp/ccykqii8.s:48     .text:0000000000000030 .L0 
     /tmp/ccykqii8.s:49     .text:0000000000000030 .L0 
     /tmp/ccykqii8.s:54     .text:0000000000000034 .L0 
     /tmp/ccykqii8.s:55     .text:0000000000000034 .L0 
     /tmp/ccykqii8.s:60     .text:0000000000000038 .L0 
     /tmp/ccykqii8.s:61     .text:0000000000000038 .L0 
     /tmp/ccykqii8.s:66     .text:000000000000003c .L0 
     /tmp/ccykqii8.s:69     .text:0000000000000040 .L0 
     /tmp/ccykqii8.s:70     .text:0000000000000040 .L0 
     /tmp/ccykqii8.s:76     .text:000000000000004c .L0 
     /tmp/ccykqii8.s:77     .text:000000000000004c .L0 
     /tmp/ccykqii8.s:83     .text:0000000000000054 .L0 
     /tmp/ccykqii8.s:84     .text:0000000000000058 .L0 
     /tmp/ccykqii8.s:85     .text:0000000000000058 .L0 
     /tmp/ccykqii8.s:86     .text:0000000000000058 .L0 
     /tmp/ccykqii8.s:88     .text:000000000000005c .L0 
     /tmp/ccykqii8.s:91     .text:0000000000000060 .L0 
     /tmp/ccykqii8.s:93     .text:0000000000000060 .L0 
     /tmp/ccykqii8.s:94     .text:0000000000000060 .L0 
     /tmp/ccykqii8.s:98     .text:0000000000000070 .L0 
     /tmp/ccykqii8.s:100    .text:0000000000000078 .L0 
     /tmp/ccykqii8.s:106    .text:0000000000000078 _ZN3SCB7unblockEv
     /tmp/ccykqii8.s:109    .text:0000000000000078 .L0 
     /tmp/ccykqii8.s:111    .text:0000000000000078 .L0 
     /tmp/ccykqii8.s:112    .text:000000000000007c .L0 
     /tmp/ccykqii8.s:114    .text:0000000000000080 .L0 
     /tmp/ccykqii8.s:116    .text:0000000000000084 .L0 
     /tmp/ccykqii8.s:119    .text:0000000000000088 .L0 
     /tmp/ccykqii8.s:120    .text:0000000000000088 .L0 
     /tmp/ccykqii8.s:123    .text:000000000000008c .L0 
     /tmp/ccykqii8.s:126    .text:0000000000000090 .L0 
     /tmp/ccykqii8.s:129    .text:0000000000000090 .L0 
     /tmp/ccykqii8.s:130    .text:0000000000000090 .L0 
     /tmp/ccykqii8.s:131    .text:0000000000000090 .L0 
     /tmp/ccykqii8.s:136    .text:0000000000000094 .L0 
     /tmp/ccykqii8.s:138    .text:0000000000000098 .L0 
     /tmp/ccykqii8.s:139    .text:0000000000000098 .L0 
     /tmp/ccykqii8.s:141    .text:000000000000009c .L0 
     /tmp/ccykqii8.s:147    .text:00000000000000a0 .L0 
     /tmp/ccykqii8.s:148    .text:00000000000000a0 .L0 
GAS LISTING /tmp/ccykqii8.s 			page 14


     /tmp/ccykqii8.s:149    .text:00000000000000a0 .L0 
     /tmp/ccykqii8.s:156    .text:00000000000000a4 .L0 
     /tmp/ccykqii8.s:157    .text:00000000000000a4 .L0 
     /tmp/ccykqii8.s:158    .text:00000000000000a4 .L0 
     /tmp/ccykqii8.s:164    .text:00000000000000a8 .L0 
     /tmp/ccykqii8.s:165    .text:00000000000000a8 .L0 
     /tmp/ccykqii8.s:166    .text:00000000000000ac .L0 
     /tmp/ccykqii8.s:167    .text:00000000000000ac .L0 
     /tmp/ccykqii8.s:168    .text:00000000000000ac .L0 
     /tmp/ccykqii8.s:170    .text:00000000000000b0 .L0 
     /tmp/ccykqii8.s:174    .text:00000000000000b4 .L0 
     /tmp/ccykqii8.s:176    .text:00000000000000b4 .L0 
     /tmp/ccykqii8.s:177    .text:00000000000000b4 .L0 
     /tmp/ccykqii8.s:179    .text:00000000000000bc .L0 
     /tmp/ccykqii8.s:185    .text:00000000000000bc _ZN3SCB4waitEv
     /tmp/ccykqii8.s:188    .text:00000000000000bc .L0 
     /tmp/ccykqii8.s:190    .text:00000000000000bc .L0 
     /tmp/ccykqii8.s:191    .text:00000000000000bc .L0 
     /tmp/ccykqii8.s:192    .text:00000000000000bc .L0 
     /tmp/ccykqii8.s:194    .text:00000000000000c0 .L0 
     /tmp/ccykqii8.s:196    .text:00000000000000c4 .L0 
     /tmp/ccykqii8.s:198    .text:00000000000000c8 .L0 
     /tmp/ccykqii8.s:201    .text:00000000000000d0 .L0 
     /tmp/ccykqii8.s:202    .text:00000000000000d0 .L0 
     /tmp/ccykqii8.s:206    .text:00000000000000e0 .L0 
     /tmp/ccykqii8.s:208    .text:00000000000000e4 .L0 
     /tmp/ccykqii8.s:214    .text:00000000000000ec .L0 
     /tmp/ccykqii8.s:215    .text:00000000000000f0 .L0 
     /tmp/ccykqii8.s:218    .text:00000000000000f8 .L0 
     /tmp/ccykqii8.s:219    .text:00000000000000f8 .L0 
     /tmp/ccykqii8.s:221    .text:00000000000000fc .L0 
     /tmp/ccykqii8.s:223    .text:00000000000000fc .L0 
     /tmp/ccykqii8.s:224    .text:00000000000000fc .L0 
     /tmp/ccykqii8.s:227    .text:0000000000000104 .L0 
     /tmp/ccykqii8.s:228    .text:0000000000000104 .L0 
     /tmp/ccykqii8.s:231    .text:0000000000000110 .L0 
     /tmp/ccykqii8.s:232    .text:0000000000000110 .L0 
     /tmp/ccykqii8.s:235    .text:0000000000000118 .L0 
     /tmp/ccykqii8.s:236    .text:0000000000000118 .L0 
     /tmp/ccykqii8.s:240    .text:0000000000000128 .L0 
     /tmp/ccykqii8.s:242    .text:000000000000012c .L0 
     /tmp/ccykqii8.s:245    .text:0000000000000130 .L0 
     /tmp/ccykqii8.s:246    .text:0000000000000134 .L0 
     /tmp/ccykqii8.s:247    .text:0000000000000134 .L0 
     /tmp/ccykqii8.s:249    .text:0000000000000138 .L0 
     /tmp/ccykqii8.s:250    .text:0000000000000138 .L0 
     /tmp/ccykqii8.s:252    .text:000000000000013c .L0 
     /tmp/ccykqii8.s:255    .text:0000000000000140 .L0 
     /tmp/ccykqii8.s:257    .text:0000000000000140 .L0 
     /tmp/ccykqii8.s:261    .text:0000000000000148 .L0 
     /tmp/ccykqii8.s:262    .text:0000000000000148 .L0 
     /tmp/ccykqii8.s:263    .text:0000000000000148 .L0 
     /tmp/ccykqii8.s:267    .text:000000000000014c .L0 
     /tmp/ccykqii8.s:268    .text:0000000000000150 .L0 
     /tmp/ccykqii8.s:274    .text:0000000000000150 _ZN3SCB6signalEv
     /tmp/ccykqii8.s:277    .text:0000000000000150 .L0 
     /tmp/ccykqii8.s:279    .text:0000000000000150 .L0 
GAS LISTING /tmp/ccykqii8.s 			page 15


     /tmp/ccykqii8.s:280    .text:0000000000000150 .L0 
     /tmp/ccykqii8.s:281    .text:0000000000000150 .L0 
     /tmp/ccykqii8.s:283    .text:0000000000000154 .L0 
     /tmp/ccykqii8.s:286    .text:000000000000015c .L0 
     /tmp/ccykqii8.s:288    .text:0000000000000160 .L0 
     /tmp/ccykqii8.s:292    .text:0000000000000168 .L0 
     /tmp/ccykqii8.s:293    .text:000000000000016c .L0 
     /tmp/ccykqii8.s:296    .text:0000000000000174 .L0 
     /tmp/ccykqii8.s:297    .text:0000000000000174 .L0 
     /tmp/ccykqii8.s:299    .text:0000000000000178 .L0 
     /tmp/ccykqii8.s:301    .text:0000000000000178 .L0 
     /tmp/ccykqii8.s:302    .text:0000000000000178 .L0 
     /tmp/ccykqii8.s:307    .text:0000000000000188 .L0 
     /tmp/ccykqii8.s:308    .text:000000000000018c .L0 
     /tmp/ccykqii8.s:310    .text:0000000000000190 .L0 
     /tmp/ccykqii8.s:311    .text:0000000000000190 .L0 
     /tmp/ccykqii8.s:313    .text:0000000000000194 .L0 
     /tmp/ccykqii8.s:315    .text:0000000000000198 .L0 
     /tmp/ccykqii8.s:321    .text:0000000000000198 _ZN3SCB14prioritySignalEv
     /tmp/ccykqii8.s:324    .text:0000000000000198 .L0 
     /tmp/ccykqii8.s:326    .text:0000000000000198 .L0 
     /tmp/ccykqii8.s:327    .text:0000000000000198 .L0 
     /tmp/ccykqii8.s:328    .text:0000000000000198 .L0 
     /tmp/ccykqii8.s:330    .text:000000000000019c .L0 
     /tmp/ccykqii8.s:333    .text:00000000000001a4 .L0 
     /tmp/ccykqii8.s:335    .text:00000000000001a8 .L0 
     /tmp/ccykqii8.s:339    .text:00000000000001b0 .L0 
     /tmp/ccykqii8.s:340    .text:00000000000001b4 .L0 
     /tmp/ccykqii8.s:343    .text:00000000000001bc .L0 
     /tmp/ccykqii8.s:344    .text:00000000000001bc .L0 
     /tmp/ccykqii8.s:346    .text:00000000000001c0 .L0 
     /tmp/ccykqii8.s:348    .text:00000000000001c0 .L0 
     /tmp/ccykqii8.s:349    .text:00000000000001c0 .L0 
     /tmp/ccykqii8.s:354    .text:00000000000001d0 .L0 
     /tmp/ccykqii8.s:355    .text:00000000000001d4 .L0 
     /tmp/ccykqii8.s:357    .text:00000000000001d8 .L0 
     /tmp/ccykqii8.s:358    .text:00000000000001d8 .L0 
     /tmp/ccykqii8.s:360    .text:00000000000001dc .L0 
     /tmp/ccykqii8.s:362    .text:00000000000001e0 .L0 
     /tmp/ccykqii8.s:368    .text:00000000000001e0 _ZN3SCBnwEm
     /tmp/ccykqii8.s:371    .text:00000000000001e0 .L0 
     /tmp/ccykqii8.s:373    .text:00000000000001e0 .L0 
     /tmp/ccykqii8.s:374    .text:00000000000001e4 .L0 
     /tmp/ccykqii8.s:377    .text:00000000000001ec .L0 
     /tmp/ccykqii8.s:378    .text:00000000000001ec .L0 
     /tmp/ccykqii8.s:380    .text:00000000000001f0 .L0 
     /tmp/ccykqii8.s:382    .text:00000000000001f0 .L0 
     /tmp/ccykqii8.s:383    .text:00000000000001f0 .L0 
     /tmp/ccykqii8.s:386    .text:00000000000001f8 .L0 
     /tmp/ccykqii8.s:387    .text:00000000000001fc .L0 
     /tmp/ccykqii8.s:389    .text:0000000000000200 .L0 
     /tmp/ccykqii8.s:390    .text:0000000000000200 .L0 
     /tmp/ccykqii8.s:392    .text:0000000000000204 .L0 
     /tmp/ccykqii8.s:394    .text:0000000000000208 .L0 
     /tmp/ccykqii8.s:400    .text:0000000000000208 _ZN3SCBdlEPv
     /tmp/ccykqii8.s:403    .text:0000000000000208 .L0 
     /tmp/ccykqii8.s:405    .text:0000000000000208 .L0 
GAS LISTING /tmp/ccykqii8.s 			page 16


     /tmp/ccykqii8.s:406    .text:000000000000020c .L0 
     /tmp/ccykqii8.s:409    .text:0000000000000214 .L0 
     /tmp/ccykqii8.s:410    .text:0000000000000214 .L0 
     /tmp/ccykqii8.s:412    .text:0000000000000218 .L0 
     /tmp/ccykqii8.s:414    .text:0000000000000218 .L0 
     /tmp/ccykqii8.s:415    .text:0000000000000218 .L0 
     /tmp/ccykqii8.s:418    .text:0000000000000220 .L0 
     /tmp/ccykqii8.s:419    .text:0000000000000224 .L0 
     /tmp/ccykqii8.s:421    .text:0000000000000228 .L0 
     /tmp/ccykqii8.s:422    .text:0000000000000228 .L0 
     /tmp/ccykqii8.s:424    .text:000000000000022c .L0 
     /tmp/ccykqii8.s:426    .text:0000000000000230 .L0 
     /tmp/ccykqii8.s:432    .text:0000000000000230 _ZN3SCB13signalClosingEv
     /tmp/ccykqii8.s:435    .text:0000000000000230 .L0 
     /tmp/ccykqii8.s:437    .text:0000000000000230 .L0 
     /tmp/ccykqii8.s:438    .text:0000000000000234 .L0 
     /tmp/ccykqii8.s:443    .text:0000000000000244 .L0 
     /tmp/ccykqii8.s:444    .text:0000000000000244 .L0 
     /tmp/ccykqii8.s:445    .text:0000000000000244 .L0 
     /tmp/ccykqii8.s:446    .text:0000000000000244 .L0 
     /tmp/ccykqii8.s:448    .text:0000000000000248 .L0 
     /tmp/ccykqii8.s:451    .text:000000000000024c .L0 
     /tmp/ccykqii8.s:452    .text:000000000000024c .L0 
     /tmp/ccykqii8.s:456    .text:0000000000000250 .L0 
     /tmp/ccykqii8.s:457    .text:0000000000000250 .L0 
     /tmp/ccykqii8.s:461    .text:0000000000000254 .L0 
     /tmp/ccykqii8.s:464    .text:0000000000000254 .L0 
     /tmp/ccykqii8.s:465    .text:0000000000000254 .L0 
     /tmp/ccykqii8.s:466    .text:0000000000000254 .L0 
     /tmp/ccykqii8.s:474    .text:000000000000025c .L0 
     /tmp/ccykqii8.s:475    .text:000000000000025c .L0 
     /tmp/ccykqii8.s:476    .text:000000000000025c .L0 
     /tmp/ccykqii8.s:483    .text:0000000000000260 .L0 
     /tmp/ccykqii8.s:484    .text:0000000000000260 .L0 
     /tmp/ccykqii8.s:485    .text:0000000000000260 .L0 
     /tmp/ccykqii8.s:490    .text:0000000000000264 .L0 
     /tmp/ccykqii8.s:491    .text:0000000000000264 .L0 
     /tmp/ccykqii8.s:494    .text:000000000000026c .L0 
     /tmp/ccykqii8.s:497    .text:0000000000000270 .L0 
     /tmp/ccykqii8.s:501    .text:0000000000000274 .L0 
     /tmp/ccykqii8.s:502    .text:0000000000000274 .L0 
     /tmp/ccykqii8.s:504    .text:0000000000000278 .L0 
     /tmp/ccykqii8.s:506    .text:000000000000027c .L0 
     /tmp/ccykqii8.s:507    .text:0000000000000280 .L0 
     /tmp/ccykqii8.s:509    .text:0000000000000284 .L0 
     /tmp/ccykqii8.s:510    .text:0000000000000284 .L0 
     /tmp/ccykqii8.s:512    .text:0000000000000288 .L0 
     /tmp/ccykqii8.s:514    .text:000000000000028c .L0 
     /tmp/ccykqii8.s:517    .text:0000000000000290 .L0 
     /tmp/ccykqii8.s:519    .text:0000000000000294 .L0 
     /tmp/ccykqii8.s:528    .text:0000000000000294 .L0 
     /tmp/ccykqii8.s:23     .text:000000000000000c .L0 
     /tmp/ccykqii8.s:42     .text:0000000000000024 .L0 
     /tmp/ccykqii8.s:70     .text:0000000000000040 .L0 
     /tmp/ccykqii8.s:94     .text:0000000000000060 .L0 
     /tmp/ccykqii8.s:202    .text:00000000000000d0 .L0 
     /tmp/ccykqii8.s:228    .text:0000000000000104 .L0 
GAS LISTING /tmp/ccykqii8.s 			page 17


     /tmp/ccykqii8.s:236    .text:0000000000000118 .L0 
     /tmp/ccykqii8.s:90     .text:0000000000000060 .L5
     /tmp/ccykqii8.s:67     .text:0000000000000040 .L3
     /tmp/ccykqii8.s:163    .text:00000000000000a8 .L6
     /tmp/ccykqii8.s:173    .text:00000000000000b4 .L10
     /tmp/ccykqii8.s:142    .text:00000000000000a0 .L8
     /tmp/ccykqii8.s:212    .text:00000000000000ec .L22
     /tmp/ccykqii8.s:260    .text:0000000000000148 .L17
     /tmp/ccykqii8.s:254    .text:0000000000000140 .L14
     /tmp/ccykqii8.s:243    .text:0000000000000130 .L13
     /tmp/ccykqii8.s:290    .text:0000000000000168 .L29
     /tmp/ccykqii8.s:337    .text:00000000000001b0 .L36
     /tmp/ccykqii8.s:499    .text:0000000000000274 .L42
     /tmp/ccykqii8.s:454    .text:0000000000000250 .L43
     /tmp/ccykqii8.s:1940   .debug_abbrev:0000000000000000 .Ldebug_abbrev0
     /tmp/ccykqii8.s:3442   .debug_str:00000000000007a7 .LASF142
     /tmp/ccykqii8.s:3408   .debug_str:00000000000006c6 .LASF143
     /tmp/ccykqii8.s:3292   .debug_str:00000000000002cf .LASF144
     /tmp/ccykqii8.s:5      .text:0000000000000000 .Ltext0
     /tmp/ccykqii8.s:522    .text:0000000000000294 .Letext0
     /tmp/ccykqii8.s:3202   .debug_line:0000000000000000 .Ldebug_line0
     /tmp/ccykqii8.s:3298   .debug_str:0000000000000303 .LASF0
     /tmp/ccykqii8.s:3324   .debug_str:00000000000003f2 .LASF1
     /tmp/ccykqii8.s:3388   .debug_str:0000000000000602 .LASF2
     /tmp/ccykqii8.s:3396   .debug_str:000000000000063b .LASF4
     /tmp/ccykqii8.s:3308   .debug_str:0000000000000346 .LASF3
     /tmp/ccykqii8.s:3214   .debug_str:0000000000000039 .LASF5
     /tmp/ccykqii8.s:3372   .debug_str:000000000000057c .LASF6
     /tmp/ccykqii8.s:3368   .debug_str:0000000000000559 .LASF7
     /tmp/ccykqii8.s:3316   .debug_str:00000000000003b3 .LASF8
     /tmp/ccykqii8.s:3280   .debug_str:0000000000000269 .LASF9
     /tmp/ccykqii8.s:3284   .debug_str:0000000000000291 .LASF10
     /tmp/ccykqii8.s:3236   .debug_str:0000000000000106 .LASF11
     /tmp/ccykqii8.s:3274   .debug_str:000000000000024b .LASF12
     /tmp/ccykqii8.s:3240   .debug_str:000000000000011a .LASF13
     /tmp/ccykqii8.s:3234   .debug_str:00000000000000f6 .LASF14
     /tmp/ccykqii8.s:3420   .debug_str:0000000000000708 .LASF15
     /tmp/ccykqii8.s:3262   .debug_str:00000000000001f2 .LASF16
     /tmp/ccykqii8.s:3416   .debug_str:00000000000006ed .LASF17
     /tmp/ccykqii8.s:3272   .debug_str:000000000000023e .LASF18
     /tmp/ccykqii8.s:3270   .debug_str:0000000000000231 .LASF145
     /tmp/ccykqii8.s:3430   .debug_str:0000000000000743 .LASF19
     /tmp/ccykqii8.s:3474   .debug_str:0000000000000987 .LASF21
     /tmp/ccykqii8.s:3254   .debug_str:0000000000000185 .LASF20
     /tmp/ccykqii8.s:3452   .debug_str:000000000000089d .LASF22
     /tmp/ccykqii8.s:3428   .debug_str:0000000000000733 .LASF23
     /tmp/ccykqii8.s:3310   .debug_str:0000000000000358 .LASF24
     /tmp/ccykqii8.s:3268   .debug_str:0000000000000221 .LASF27
     /tmp/ccykqii8.s:3504   .debug_str:0000000000000a8a .LASF29
     /tmp/ccykqii8.s:3286   .debug_str:000000000000029f .LASF25
     /tmp/ccykqii8.s:3328   .debug_str:000000000000040b .LASF26
     /tmp/ccykqii8.s:3348   .debug_str:000000000000049c .LASF28
     /tmp/ccykqii8.s:3502   .debug_str:0000000000000a6f .LASF30
     /tmp/ccykqii8.s:3432   .debug_str:000000000000074e .LASF31
     /tmp/ccykqii8.s:3488   .debug_str:0000000000000a06 .LASF32
     /tmp/ccykqii8.s:3456   .debug_str:00000000000008dd .LASF33
     /tmp/ccykqii8.s:3444   .debug_str:000000000000086b .LASF34
GAS LISTING /tmp/ccykqii8.s 			page 18


     /tmp/ccykqii8.s:3248   .debug_str:0000000000000161 .LASF35
     /tmp/ccykqii8.s:3392   .debug_str:0000000000000615 .LASF36
     /tmp/ccykqii8.s:3228   .debug_str:00000000000000c6 .LASF37
     /tmp/ccykqii8.s:3288   .debug_str:00000000000002ad .LASF38
     /tmp/ccykqii8.s:3498   .debug_str:0000000000000a4e .LASF39
     /tmp/ccykqii8.s:3216   .debug_str:0000000000000040 .LASF40
     /tmp/ccykqii8.s:3412   .debug_str:00000000000006d8 .LASF146
     /tmp/ccykqii8.s:3462   .debug_str:000000000000091d .LASF41
     /tmp/ccykqii8.s:3404   .debug_str:0000000000000699 .LASF42
     /tmp/ccykqii8.s:3326   .debug_str:0000000000000405 .LASF47
     /tmp/ccykqii8.s:3330   .debug_str:0000000000000425 .LASF49
     /tmp/ccykqii8.s:3440   .debug_str:000000000000079f .LASF51
     /tmp/ccykqii8.s:3322   .debug_str:00000000000003ed .LASF43
     /tmp/ccykqii8.s:3492   .debug_str:0000000000000a30 .LASF44
     /tmp/ccykqii8.s:3496   .debug_str:0000000000000a41 .LASF45
     /tmp/ccykqii8.s:3264   .debug_str:0000000000000208 .LASF46
     /tmp/ccykqii8.s:3206   .debug_str:0000000000000007 .LASF53
     /tmp/ccykqii8.s:3304   .debug_str:000000000000032e .LASF59
     /tmp/ccykqii8.s:3290   .debug_str:00000000000002c4 .LASF92
     /tmp/ccykqii8.s:3224   .debug_str:00000000000000a4 .LASF147
     /tmp/ccykqii8.s:3362   .debug_str:000000000000052f .LASF48
     /tmp/ccykqii8.s:3230   .debug_str:00000000000000d2 .LASF50
     /tmp/ccykqii8.s:3382   .debug_str:00000000000005bb .LASF52
     /tmp/ccykqii8.s:3242   .debug_str:000000000000012a .LASF88
     /tmp/ccykqii8.s:3266   .debug_str:0000000000000214 .LASF54
     /tmp/ccykqii8.s:3260   .debug_str:00000000000001d9 .LASF56
     /tmp/ccykqii8.s:3344   .debug_str:0000000000000482 .LASF55
     /tmp/ccykqii8.s:3246   .debug_str:000000000000014a .LASF57
     /tmp/ccykqii8.s:3406   .debug_str:00000000000006bb .LASF58
     /tmp/ccykqii8.s:3320   .debug_str:00000000000003d0 .LASF60
     /tmp/ccykqii8.s:3210   .debug_str:000000000000001f .LASF61
     /tmp/ccykqii8.s:3410   .debug_str:00000000000006d2 .LASF62
     /tmp/ccykqii8.s:3470   .debug_str:000000000000096f .LASF63
     /tmp/ccykqii8.s:3318   .debug_str:00000000000003c6 .LASF64
     /tmp/ccykqii8.s:3494   .debug_str:0000000000000a3c .LASF65
     /tmp/ccykqii8.s:3414   .debug_str:00000000000006e4 .LASF66
     /tmp/ccykqii8.s:3358   .debug_str:000000000000051e .LASF67
     /tmp/ccykqii8.s:3336   .debug_str:0000000000000444 .LASF68
     /tmp/ccykqii8.s:3478   .debug_str:00000000000009ac .LASF69
     /tmp/ccykqii8.s:3252   .debug_str:0000000000000177 .LASF70
     /tmp/ccykqii8.s:3448   .debug_str:0000000000000889 .LASF71
     /tmp/ccykqii8.s:3402   .debug_str:0000000000000688 .LASF83
     /tmp/ccykqii8.s:3250   .debug_str:000000000000016e .LASF77
     /tmp/ccykqii8.s:3220   .debug_str:0000000000000078 .LASF79
     /tmp/ccykqii8.s:3300   .debug_str:0000000000000310 .LASF72
     /tmp/ccykqii8.s:3464   .debug_str:000000000000092e .LASF73
     /tmp/ccykqii8.s:3302   .debug_str:000000000000031f .LASF74
     /tmp/ccykqii8.s:3398   .debug_str:0000000000000642 .LASF75
     /tmp/ccykqii8.s:3332   .debug_str:0000000000000435 .LASF76
     /tmp/ccykqii8.s:3380   .debug_str:00000000000005ab .LASF78
     /tmp/ccykqii8.s:3480   .debug_str:00000000000009b9 .LASF80
     /tmp/ccykqii8.s:3340   .debug_str:0000000000000474 .LASF81
     /tmp/ccykqii8.s:3278   .debug_str:000000000000025f .LASF82
     /tmp/ccykqii8.s:3418   .debug_str:0000000000000703 .LASF84
     /tmp/ccykqii8.s:3356   .debug_str:0000000000000519 .LASF85
     /tmp/ccykqii8.s:3486   .debug_str:00000000000009f4 .LASF86
     /tmp/ccykqii8.s:3376   .debug_str:0000000000000593 .LASF87
GAS LISTING /tmp/ccykqii8.s 			page 19


     /tmp/ccykqii8.s:3218   .debug_str:0000000000000060 .LASF89
     /tmp/ccykqii8.s:3306   .debug_str:000000000000033b .LASF90
     /tmp/ccykqii8.s:3460   .debug_str:00000000000008fd .LASF91
     /tmp/ccykqii8.s:3490   .debug_str:0000000000000a1c .LASF148
     /tmp/ccykqii8.s:3232   .debug_str:00000000000000ea .LASF93
     /tmp/ccykqii8.s:3282   .debug_str:0000000000000279 .LASF94
     /tmp/ccykqii8.s:3446   .debug_str:0000000000000884 .LASF95
     /tmp/ccykqii8.s:3472   .debug_str:0000000000000978 .LASF96
     /tmp/ccykqii8.s:3424   .debug_str:0000000000000721 .LASF97
     /tmp/ccykqii8.s:3314   .debug_str:00000000000003a2 .LASF98
     /tmp/ccykqii8.s:3212   .debug_str:000000000000002a .LASF99
     /tmp/ccykqii8.s:3466   .debug_str:000000000000094c .LASF100
     /tmp/ccykqii8.s:3434   .debug_str:0000000000000759 .LASF101
     /tmp/ccykqii8.s:3422   .debug_str:0000000000000714 .LASF102
     /tmp/ccykqii8.s:3386   .debug_str:00000000000005f2 .LASF103
     /tmp/ccykqii8.s:3484   .debug_str:00000000000009d9 .LASF104
     /tmp/ccykqii8.s:3394   .debug_str:000000000000062d .LASF105
     /tmp/ccykqii8.s:3256   .debug_str:0000000000000198 .LASF106
     /tmp/ccykqii8.s:3378   .debug_str:000000000000059f .LASF107
     /tmp/ccykqii8.s:3296   .debug_str:00000000000002fd .LASF108
     /tmp/ccykqii8.s:3374   .debug_str:0000000000000583 .LASF109
     /tmp/ccykqii8.s:3208   .debug_str:0000000000000017 .LASF110
     /tmp/ccykqii8.s:3500   .debug_str:0000000000000a5d .LASF111
     /tmp/ccykqii8.s:3294   .debug_str:00000000000002f4 .LASF112
     /tmp/ccykqii8.s:3366   .debug_str:0000000000000549 .LASF113
     /tmp/ccykqii8.s:3226   .debug_str:00000000000000ba .LASF149
     /tmp/ccykqii8.s:3468   .debug_str:0000000000000966 .LASF114
     /tmp/ccykqii8.s:3482   .debug_str:00000000000009d4 .LASF115
     /tmp/ccykqii8.s:3238   .debug_str:0000000000000115 .LASF116
     /tmp/ccykqii8.s:3204   .debug_str:0000000000000000 .LASF117
     /tmp/ccykqii8.s:3384   .debug_str:00000000000005c4 .LASF118
     /tmp/ccykqii8.s:3312   .debug_str:0000000000000374 .LASF150
     /tmp/ccykqii8.s:3450   .debug_str:0000000000000893 .LASF119
     /tmp/ccykqii8.s:3454   .debug_str:00000000000008bc .LASF120
     /tmp/ccykqii8.s:3342   .debug_str:0000000000000479 .LASF121
     /tmp/ccykqii8.s:3350   .debug_str:00000000000004aa .LASF122
     /tmp/ccykqii8.s:3244   .debug_str:000000000000013d .LASF123
     /tmp/ccykqii8.s:3354   .debug_str:00000000000004f4 .LASF124
     /tmp/ccykqii8.s:3364   .debug_str:000000000000053c .LASF125
     /tmp/ccykqii8.s:3338   .debug_str:000000000000044f .LASF126
     /tmp/ccykqii8.s:3222   .debug_str:000000000000008b .LASF127
     /tmp/ccykqii8.s:3476   .debug_str:000000000000099e .LASF128
     /tmp/ccykqii8.s:3436   .debug_str:0000000000000765 .LASF129
     /tmp/ccykqii8.s:3352   .debug_str:00000000000004cb .LASF130
     /tmp/ccykqii8.s:3346   .debug_str:000000000000048d .LASF131
     /tmp/ccykqii8.s:3400   .debug_str:0000000000000660 .LASF132
     /tmp/ccykqii8.s:3458   .debug_str:00000000000008eb .LASF133
     /tmp/ccykqii8.s:3438   .debug_str:0000000000000775 .LASF134
     /tmp/ccykqii8.s:3370   .debug_str:000000000000056c .LASF135
     /tmp/ccykqii8.s:3258   .debug_str:00000000000001b1 .LASF136
     /tmp/ccykqii8.s:433    .text:0000000000000230 .LFB50
     /tmp/ccykqii8.s:520    .text:0000000000000294 .LFE50
     /tmp/ccykqii8.s:3276   .debug_str:000000000000025a .LASF140
     /tmp/ccykqii8.s:2910   .debug_loc:0000000000000000 .LLST19
     /tmp/ccykqii8.s:3390   .debug_str:0000000000000610 .LASF137
     /tmp/ccykqii8.s:2928   .debug_loc:000000000000004c .LLST20
     /tmp/ccykqii8.s:458    .text:0000000000000254 .LBB37
GAS LISTING /tmp/ccykqii8.s 			page 20


     /tmp/ccykqii8.s:495    .text:0000000000000270 .LBE37
     /tmp/ccykqii8.s:3334   .debug_str:000000000000043f .LASF138
     /tmp/ccykqii8.s:2943   .debug_loc:0000000000000095 .LLST21
     /tmp/ccykqii8.s:462    .text:0000000000000254 .LBB38
     /tmp/ccykqii8.s:470    .text:000000000000025c .LBE38
     /tmp/ccykqii8.s:2950   .debug_loc:00000000000000b8 .LLST22
     /tmp/ccykqii8.s:2958   .debug_loc:00000000000000dc .LLST23
     /tmp/ccykqii8.s:472    .text:000000000000025c .LBB40
     /tmp/ccykqii8.s:479    .text:0000000000000260 .LBE40
     /tmp/ccykqii8.s:2965   .debug_loc:00000000000000ff .LLST24
     /tmp/ccykqii8.s:2973   .debug_loc:0000000000000123 .LLST25
     /tmp/ccykqii8.s:481    .text:0000000000000260 .LBB42
     /tmp/ccykqii8.s:488    .text:0000000000000264 .LBE42
     /tmp/ccykqii8.s:2980   .debug_loc:0000000000000146 .LLST26
     /tmp/ccykqii8.s:492    .text:000000000000026c .LVL40
     /tmp/ccykqii8.s:401    .text:0000000000000208 .LFB49
     /tmp/ccykqii8.s:427    .text:0000000000000230 .LFE49
     /tmp/ccykqii8.s:3426   .debug_str:0000000000000728 .LASF139
     /tmp/ccykqii8.s:2987   .debug_loc:0000000000000169 .LLST18
     /tmp/ccykqii8.s:416    .text:0000000000000220 .LVL33
     /tmp/ccykqii8.s:369    .text:00000000000001e0 .LFB48
     /tmp/ccykqii8.s:395    .text:0000000000000208 .LFE48
     /tmp/ccykqii8.s:3001   .debug_loc:00000000000001a2 .LLST17
     /tmp/ccykqii8.s:384    .text:00000000000001f8 .LVL31
     /tmp/ccykqii8.s:322    .text:0000000000000198 .LFB47
     /tmp/ccykqii8.s:363    .text:00000000000001e0 .LFE47
     /tmp/ccykqii8.s:3015   .debug_loc:00000000000001db .LLST16
     /tmp/ccykqii8.s:350    .text:00000000000001c8 .LVL28
     /tmp/ccykqii8.s:352    .text:00000000000001d0 .LVL29
     /tmp/ccykqii8.s:275    .text:0000000000000150 .LFB46
     /tmp/ccykqii8.s:316    .text:0000000000000198 .LFE46
     /tmp/ccykqii8.s:3029   .debug_loc:0000000000000214 .LLST15
     /tmp/ccykqii8.s:303    .text:0000000000000180 .LVL25
     /tmp/ccykqii8.s:305    .text:0000000000000188 .LVL26
     /tmp/ccykqii8.s:186    .text:00000000000000bc .LFB45
     /tmp/ccykqii8.s:269    .text:0000000000000150 .LFE45
     /tmp/ccykqii8.s:3043   .debug_loc:000000000000024d .LLST14
     /tmp/ccykqii8.s:225    .text:0000000000000104 .LVL20
     /tmp/ccykqii8.s:233    .text:0000000000000118 .LVL21
     /tmp/ccykqii8.s:107    .text:0000000000000078 .LFB44
     /tmp/ccykqii8.s:180    .text:00000000000000bc .LFE44
     /tmp/ccykqii8.s:3079   .debug_loc:00000000000002d8 .LLST7
     /tmp/ccykqii8.s:3090   .debug_loc:000000000000030e .LLST8
     /tmp/ccykqii8.s:127    .text:0000000000000090 .LBB31
     /tmp/ccykqii8.s:134    .text:0000000000000094 .LBE31
     /tmp/ccykqii8.s:3101   .debug_loc:0000000000000344 .LLST9
     /tmp/ccykqii8.s:145    .text:00000000000000a0 .LBB33
     /tmp/ccykqii8.s:152    .text:00000000000000a4 .LBE33
     /tmp/ccykqii8.s:3108   .debug_loc:0000000000000367 .LLST10
     /tmp/ccykqii8.s:3116   .debug_loc:000000000000038b .LLST11
     /tmp/ccykqii8.s:154    .text:00000000000000a4 .LBB35
     /tmp/ccykqii8.s:161    .text:00000000000000a8 .LBE35
     /tmp/ccykqii8.s:3123   .debug_loc:00000000000003ae .LLST12
     /tmp/ccykqii8.s:3131   .debug_loc:00000000000003d2 .LLST13
     /tmp/ccykqii8.s:10     .text:0000000000000000 .LFB43
     /tmp/ccykqii8.s:101    .text:0000000000000078 .LFE43
     /tmp/ccykqii8.s:26     .text:0000000000000018 .LBB23
GAS LISTING /tmp/ccykqii8.s 			page 21


     /tmp/ccykqii8.s:34     .text:000000000000001c .LBE23
     /tmp/ccykqii8.s:3138   .debug_loc:00000000000003f5 .LLST0
     /tmp/ccykqii8.s:3146   .debug_loc:0000000000000419 .LLST1
     /tmp/ccykqii8.s:45     .text:0000000000000030 .LBB25
     /tmp/ccykqii8.s:52     .text:0000000000000034 .LBE25
     /tmp/ccykqii8.s:3153   .debug_loc:000000000000043c .LLST2
     /tmp/ccykqii8.s:3160   .debug_loc:000000000000045f .LLST3
     /tmp/ccykqii8.s:57     .text:0000000000000038 .LBB27
     /tmp/ccykqii8.s:64     .text:000000000000003c .LBE27
     /tmp/ccykqii8.s:3167   .debug_loc:0000000000000482 .LLST4
     /tmp/ccykqii8.s:73     .text:000000000000004c .LBB29
     /tmp/ccykqii8.s:81     .text:0000000000000054 .LBE29
     /tmp/ccykqii8.s:3174   .debug_loc:00000000000004a5 .LLST5
     /tmp/ccykqii8.s:3182   .debug_loc:00000000000004c9 .LLST6
     /tmp/ccykqii8.s:3360   .debug_str:0000000000000526 .LASF141
     /tmp/ccykqii8.s:436    .text:0000000000000230 .LVL34
     /tmp/ccykqii8.s:453    .text:0000000000000250 .LVL35
     /tmp/ccykqii8.s:515    .text:000000000000028c .LVL42
     /tmp/ccykqii8.s:486    .text:0000000000000264 .LVL39
     /tmp/ccykqii8.s:498    .text:0000000000000274 .LVL41
     /tmp/ccykqii8.s:460    .text:0000000000000254 .LVL36
     /tmp/ccykqii8.s:468    .text:000000000000025c .LVL37
     /tmp/ccykqii8.s:477    .text:0000000000000260 .LVL38
     /tmp/ccykqii8.s:404    .text:0000000000000208 .LVL32
     /tmp/ccykqii8.s:372    .text:00000000000001e0 .LVL30
     /tmp/ccykqii8.s:325    .text:0000000000000198 .LVL27
     /tmp/ccykqii8.s:278    .text:0000000000000150 .LVL24
     /tmp/ccykqii8.s:189    .text:00000000000000bc .LVL17
     /tmp/ccykqii8.s:209    .text:00000000000000e8 .LVL18
     /tmp/ccykqii8.s:211    .text:00000000000000ec .LVL19
     /tmp/ccykqii8.s:259    .text:0000000000000148 .LVL22
     /tmp/ccykqii8.s:265    .text:000000000000014c .LVL23
     /tmp/ccykqii8.s:110    .text:0000000000000078 .LVL9
     /tmp/ccykqii8.s:121    .text:000000000000008c .LVL10
     /tmp/ccykqii8.s:125    .text:0000000000000090 .LVL11
     /tmp/ccykqii8.s:159    .text:00000000000000a8 .LVL15
     /tmp/ccykqii8.s:172    .text:00000000000000b4 .LVL16
     /tmp/ccykqii8.s:132    .text:0000000000000094 .LVL12
     /tmp/ccykqii8.s:144    .text:00000000000000a0 .LVL13
     /tmp/ccykqii8.s:150    .text:00000000000000a4 .LVL14
     /tmp/ccykqii8.s:25     .text:0000000000000018 .LVL1
     /tmp/ccykqii8.s:32     .text:000000000000001c .LVL2
     /tmp/ccykqii8.s:44     .text:0000000000000030 .LVL3
     /tmp/ccykqii8.s:50     .text:0000000000000034 .LVL4
     /tmp/ccykqii8.s:56     .text:0000000000000038 .LVL5
     /tmp/ccykqii8.s:62     .text:000000000000003c .LVL6
     /tmp/ccykqii8.s:72     .text:000000000000004c .LVL7
     /tmp/ccykqii8.s:79     .text:0000000000000054 .LVL8
     /tmp/ccykqii8.s:529    .debug_info:0000000000000000 .Ldebug_info0

UNDEFINED SYMBOLS
_ZN3PCB7runningE
_ZN3PCB16timeSliceCounterE
_ZN3PCB8dispatchEv
_ZN9Scheduler3putEP3PCB
_ZN9Scheduler10putInFrontEP3PCB
_ZN15MemoryAllocator9mem_allocEm
GAS LISTING /tmp/ccykqii8.s 			page 22


_ZN15MemoryAllocator8mem_freeEPv
