GAS LISTING /tmp/cctosQp0.s 			page 1


   1              		.file	"SCB.cpp"
   2              		.option pic
   3              		.option norelax
   4              		.text
   5              	.Ltext0:
   6              		.align	2
   7              		.globl	_ZN3SCB5blockEv
   9              	_ZN3SCB5blockEv:
  10              	.LFB33:
  11              		.file 1 "src/SCB.cpp"
   1:src/SCB.cpp   **** #include "../h/SCB.h"
   2:src/SCB.cpp   **** #include "../h/kernel.h"
   3:src/SCB.cpp   **** #include "../h/MemoryAllocator.h"
   4:src/SCB.cpp   **** 
   5:src/SCB.cpp   **** void SCB::block() {
  12              		.loc 1 5 19
  13              		.cfi_startproc
  14              	.LVL0:
  15 0000 130101FF 		addi	sp,sp,-16
  16              		.cfi_def_cfa_offset 16
  17 0004 23348100 		sd	s0,8(sp)
  18              		.cfi_offset 8, -8
  19 0008 13040101 		addi	s0,sp,16
  20              		.cfi_def_cfa 8, 0
   6:src/SCB.cpp   ****     PCB::running->nextInList = nullptr;
  21              		.loc 1 6 5
  22              		.loc 1 6 19 is_stmt 0
  23 000c 97070000 		la	a5,_ZN3PCB7runningE
  23      83B70700 
  24 0014 83B70700 		ld	a5,0(a5)
  25              		.loc 1 6 30
  26 0018 23B00700 		sd	zero,0(a5)
   7:src/SCB.cpp   ****     if(tail == nullptr) { // ako ne postoji kraj liste nece postojati ni pocetak
  27              		.loc 1 7 5 is_stmt 1
  28              		.loc 1 7 8 is_stmt 0
  29 001c 83378500 		ld	a5,8(a0)
  30              		.loc 1 7 5
  31 0020 63800704 		beqz	a5,.L5
   8:src/SCB.cpp   ****         head = tail = PCB::running;
   9:src/SCB.cpp   ****     }
  10:src/SCB.cpp   ****     else {
  11:src/SCB.cpp   ****         tail->nextInList = PCB::running;
  32              		.loc 1 11 9 is_stmt 1
  33              		.loc 1 11 26 is_stmt 0
  34 0024 17070000 		la	a4,_ZN3PCB7runningE
  34      03370700 
  35 002c 03370700 		ld	a4,0(a4)
  36 0030 23B0E700 		sd	a4,0(a5)
  12:src/SCB.cpp   ****         tail = tail->nextInList;
  37              		.loc 1 12 9 is_stmt 1
  38              		.loc 1 12 16 is_stmt 0
  39 0034 83378500 		ld	a5,8(a0)
  40              		.loc 1 12 22
  41 0038 83B70700 		ld	a5,0(a5)
  42              		.loc 1 12 14
  43 003c 2334F500 		sd	a5,8(a0)
  44              	.L3:
GAS LISTING /tmp/cctosQp0.s 			page 2


  13:src/SCB.cpp   ****     }
  14:src/SCB.cpp   ****     PCB::running->blocked = true;
  45              		.loc 1 14 5 is_stmt 1
  46              		.loc 1 14 19 is_stmt 0
  47 0040 97070000 		la	a5,_ZN3PCB7runningE
  47      83B70700 
  48 0048 83B70700 		ld	a5,0(a5)
  49              		.loc 1 14 27
  50 004c 13071000 		li	a4,1
  51 0050 A384E702 		sb	a4,41(a5)
  15:src/SCB.cpp   ****     //PCB::yield(); // ovo treba da radi sistemski poziv
  16:src/SCB.cpp   **** }
  52              		.loc 1 16 1
  53 0054 03348100 		ld	s0,8(sp)
  54              		.cfi_remember_state
  55              		.cfi_restore 8
  56              		.cfi_def_cfa 2, 16
  57 0058 13010101 		addi	sp,sp,16
  58              		.cfi_def_cfa_offset 0
  59 005c 67800000 		jr	ra
  60              	.L5:
  61              		.cfi_restore_state
   8:src/SCB.cpp   ****     }
  62              		.loc 1 8 9 is_stmt 1
   8:src/SCB.cpp   ****     }
  63              		.loc 1 8 21 is_stmt 0
  64 0060 97070000 		la	a5,_ZN3PCB7runningE
  64      83B70700 
  65 0068 83B70700 		ld	a5,0(a5)
  66 006c 2334F500 		sd	a5,8(a0)
   8:src/SCB.cpp   ****     }
  67              		.loc 1 8 14
  68 0070 2330F500 		sd	a5,0(a0)
  69 0074 6FF0DFFC 		j	.L3
  70              		.cfi_endproc
  71              	.LFE33:
  73              		.align	2
  74              		.globl	_ZN3SCB7unblockEv
  76              	_ZN3SCB7unblockEv:
  77              	.LFB34:
  17:src/SCB.cpp   **** 
  18:src/SCB.cpp   **** PCB* SCB::unblock() {
  78              		.loc 1 18 21 is_stmt 1
  79              		.cfi_startproc
  80              	.LVL1:
  81 0078 130101FF 		addi	sp,sp,-16
  82              		.cfi_def_cfa_offset 16
  83 007c 23348100 		sd	s0,8(sp)
  84              		.cfi_offset 8, -8
  85 0080 13040101 		addi	s0,sp,16
  86              		.cfi_def_cfa 8, 0
  87 0084 93070500 		mv	a5,a0
  19:src/SCB.cpp   ****     if(head == nullptr) return nullptr;
  88              		.loc 1 19 5
  89              		.loc 1 19 8 is_stmt 0
  90 0088 03350500 		ld	a0,0(a0)
  91              	.LVL2:
GAS LISTING /tmp/cctosQp0.s 			page 3


  92              		.loc 1 19 5
  93 008c 630E0500 		beqz	a0,.L6
  20:src/SCB.cpp   ****     PCB* curr = head;
  94              		.loc 1 20 5 is_stmt 1
  95              	.LVL3:
  21:src/SCB.cpp   ****     head = head->nextInList;
  96              		.loc 1 21 5
  97              		.loc 1 21 18 is_stmt 0
  98 0090 03370500 		ld	a4,0(a0)
  99              		.loc 1 21 10
 100 0094 23B0E700 		sd	a4,0(a5)
  22:src/SCB.cpp   ****     if(tail == curr) {
 101              		.loc 1 22 5 is_stmt 1
 102              		.loc 1 22 8 is_stmt 0
 103 0098 83B68700 		ld	a3,8(a5)
 104              		.loc 1 22 5
 105 009c 630CD500 		beq	a0,a3,.L10
 106              	.L8:
  23:src/SCB.cpp   ****         tail = head;
  24:src/SCB.cpp   ****     }
  25:src/SCB.cpp   ****     curr->blocked = false;
 107              		.loc 1 25 5 is_stmt 1
 108              		.loc 1 25 19 is_stmt 0
 109 00a0 A3040502 		sb	zero,41(a0)
  26:src/SCB.cpp   ****     curr->nextInList = nullptr;
 110              		.loc 1 26 5 is_stmt 1
 111              		.loc 1 26 22 is_stmt 0
 112 00a4 23300500 		sd	zero,0(a0)
  27:src/SCB.cpp   ****     return curr;
 113              		.loc 1 27 5 is_stmt 1
 114              	.LVL4:
 115              	.L6:
  28:src/SCB.cpp   **** }
 116              		.loc 1 28 1 is_stmt 0
 117 00a8 03348100 		ld	s0,8(sp)
 118              		.cfi_remember_state
 119              		.cfi_restore 8
 120              		.cfi_def_cfa 2, 16
 121 00ac 13010101 		addi	sp,sp,16
 122              		.cfi_def_cfa_offset 0
 123 00b0 67800000 		jr	ra
 124              	.LVL5:
 125              	.L10:
 126              		.cfi_restore_state
  23:src/SCB.cpp   ****     }
 127              		.loc 1 23 9 is_stmt 1
  23:src/SCB.cpp   ****     }
 128              		.loc 1 23 14 is_stmt 0
 129 00b4 23B4E700 		sd	a4,8(a5)
 130 00b8 6FF09FFE 		j	.L8
 131              		.cfi_endproc
 132              	.LFE34:
 134              		.align	2
 135              		.globl	_ZN3SCB4waitEv
 137              	_ZN3SCB4waitEv:
 138              	.LFB35:
  29:src/SCB.cpp   **** 
GAS LISTING /tmp/cctosQp0.s 			page 4


  30:src/SCB.cpp   **** bool SCB::wait() {
 139              		.loc 1 30 18 is_stmt 1
 140              		.cfi_startproc
 141              	.LVL6:
  31:src/SCB.cpp   ****     //Kernel::mc_sstatus(Kernel::SSTATUS_SIE); // zabranjuju se prekidi
  32:src/SCB.cpp   ****     if((int)(--semValue)<0) {
 142              		.loc 1 32 5
 143              		.loc 1 32 16 is_stmt 0
 144 00bc 83270501 		lw	a5,16(a0)
 145              		.loc 1 32 14
 146 00c0 9B87F7FF 		addiw	a5,a5,-1
 147              		.loc 1 32 25
 148 00c4 2328F500 		sw	a5,16(a0)
 149              		.loc 1 32 5
 150 00c8 13970702 		slli	a4,a5,32
 151 00cc 63460700 		bltz	a4,.L18
  33:src/SCB.cpp   ****         block();
  34:src/SCB.cpp   ****         return true;
  35:src/SCB.cpp   ****     }
  36:src/SCB.cpp   ****     return false;
 152              		.loc 1 36 12
 153 00d0 13050000 		li	a0,0
 154              	.LVL7:
  37:src/SCB.cpp   ****     //Kernel::ms_sstatus(Kernel::SSTATUS_SIE); // dozvoljavaju se prekidi
  38:src/SCB.cpp   **** }
 155              		.loc 1 38 1
 156 00d4 67800000 		ret
 157              	.LVL8:
 158              	.L18:
  30:src/SCB.cpp   ****     //Kernel::mc_sstatus(Kernel::SSTATUS_SIE); // zabranjuju se prekidi
 159              		.loc 1 30 18
 160 00d8 130101FF 		addi	sp,sp,-16
 161              		.cfi_def_cfa_offset 16
 162 00dc 23341100 		sd	ra,8(sp)
 163 00e0 23308100 		sd	s0,0(sp)
 164              		.cfi_offset 1, -8
 165              		.cfi_offset 8, -16
 166 00e4 13040101 		addi	s0,sp,16
 167              		.cfi_def_cfa 8, 0
  33:src/SCB.cpp   ****         block();
 168              		.loc 1 33 9 is_stmt 1
  33:src/SCB.cpp   ****         block();
 169              		.loc 1 33 14 is_stmt 0
 170 00e8 97000000 		call	_ZN3SCB5blockEv
 170      E7800000 
 171              	.LVL9:
  34:src/SCB.cpp   ****     }
 172              		.loc 1 34 9 is_stmt 1
  34:src/SCB.cpp   ****     }
 173              		.loc 1 34 16 is_stmt 0
 174 00f0 13051000 		li	a0,1
 175              		.loc 1 38 1
 176 00f4 83308100 		ld	ra,8(sp)
 177              		.cfi_restore 1
 178 00f8 03340100 		ld	s0,0(sp)
 179              		.cfi_restore 8
 180              		.cfi_def_cfa 2, 16
GAS LISTING /tmp/cctosQp0.s 			page 5


 181 00fc 13010101 		addi	sp,sp,16
 182              		.cfi_def_cfa_offset 0
 183 0100 67800000 		jr	ra
 184              		.cfi_endproc
 185              	.LFE35:
 187              		.align	2
 188              		.globl	_ZN3SCB6signalEv
 190              	_ZN3SCB6signalEv:
 191              	.LFB36:
  39:src/SCB.cpp   **** 
  40:src/SCB.cpp   **** PCB* SCB::signal() {
 192              		.loc 1 40 20 is_stmt 1
 193              		.cfi_startproc
 194              	.LVL10:
  41:src/SCB.cpp   ****     //Kernel::mc_sstatus(Kernel::SSTATUS_SIE); // zabranjuju se prekidi
  42:src/SCB.cpp   ****     if((int)(++semValue)<=0) {
 195              		.loc 1 42 5
 196              		.loc 1 42 16 is_stmt 0
 197 0104 83270501 		lw	a5,16(a0)
 198              		.loc 1 42 14
 199 0108 9B871700 		addiw	a5,a5,1
 200 010c 1B870700 		sext.w	a4,a5
 201              		.loc 1 42 25
 202 0110 2328F500 		sw	a5,16(a0)
 203              		.loc 1 42 5
 204 0114 6356E000 		blez	a4,.L26
  43:src/SCB.cpp   ****         return unblock();
  44:src/SCB.cpp   ****     }
  45:src/SCB.cpp   ****     return nullptr;
 205              		.loc 1 45 12
 206 0118 13050000 		li	a0,0
 207              	.LVL11:
  46:src/SCB.cpp   ****     //Kernel::ms_sstatus(Kernel::SSTATUS_SIE); // dozvoljavaju se prekidi
  47:src/SCB.cpp   **** }
 208              		.loc 1 47 1
 209 011c 67800000 		ret
 210              	.LVL12:
 211              	.L26:
  40:src/SCB.cpp   ****     //Kernel::mc_sstatus(Kernel::SSTATUS_SIE); // zabranjuju se prekidi
 212              		.loc 1 40 20
 213 0120 130101FF 		addi	sp,sp,-16
 214              		.cfi_def_cfa_offset 16
 215 0124 23341100 		sd	ra,8(sp)
 216 0128 23308100 		sd	s0,0(sp)
 217              		.cfi_offset 1, -8
 218              		.cfi_offset 8, -16
 219 012c 13040101 		addi	s0,sp,16
 220              		.cfi_def_cfa 8, 0
  43:src/SCB.cpp   ****         return unblock();
 221              		.loc 1 43 9 is_stmt 1
  43:src/SCB.cpp   ****         return unblock();
 222              		.loc 1 43 23 is_stmt 0
 223 0130 97000000 		call	_ZN3SCB7unblockEv
 223      E7800000 
 224              	.LVL13:
 225              		.loc 1 47 1
 226 0138 83308100 		ld	ra,8(sp)
GAS LISTING /tmp/cctosQp0.s 			page 6


 227              		.cfi_restore 1
 228 013c 03340100 		ld	s0,0(sp)
 229              		.cfi_restore 8
 230              		.cfi_def_cfa 2, 16
 231 0140 13010101 		addi	sp,sp,16
 232              		.cfi_def_cfa_offset 0
 233 0144 67800000 		jr	ra
 234              		.cfi_endproc
 235              	.LFE36:
 237              		.align	2
 238              		.globl	_ZN3SCBnwEm
 240              	_ZN3SCBnwEm:
 241              	.LFB37:
  48:src/SCB.cpp   **** 
  49:src/SCB.cpp   **** void *SCB::operator new(size_t size) {
 242              		.loc 1 49 38 is_stmt 1
 243              		.cfi_startproc
 244              	.LVL14:
 245 0148 130101FF 		addi	sp,sp,-16
 246              		.cfi_def_cfa_offset 16
 247 014c 23341100 		sd	ra,8(sp)
 248 0150 23308100 		sd	s0,0(sp)
 249              		.cfi_offset 1, -8
 250              		.cfi_offset 8, -16
 251 0154 13040101 		addi	s0,sp,16
 252              		.cfi_def_cfa 8, 0
  50:src/SCB.cpp   ****     return MemoryAllocator::mem_alloc(size);
 253              		.loc 1 50 5
 254              		.loc 1 50 38 is_stmt 0
 255 0158 97000000 		call	_ZN15MemoryAllocator9mem_allocEm@plt
 255      E7800000 
 256              	.LVL15:
  51:src/SCB.cpp   **** }
 257              		.loc 1 51 1
 258 0160 83308100 		ld	ra,8(sp)
 259              		.cfi_restore 1
 260 0164 03340100 		ld	s0,0(sp)
 261              		.cfi_restore 8
 262              		.cfi_def_cfa 2, 16
 263 0168 13010101 		addi	sp,sp,16
 264              		.cfi_def_cfa_offset 0
 265 016c 67800000 		jr	ra
 266              		.cfi_endproc
 267              	.LFE37:
 269              		.align	2
 270              		.globl	_ZN3SCBdlEPv
 272              	_ZN3SCBdlEPv:
 273              	.LFB38:
  52:src/SCB.cpp   **** 
  53:src/SCB.cpp   **** void SCB::operator delete(void *memSegment) {
 274              		.loc 1 53 45 is_stmt 1
 275              		.cfi_startproc
 276              	.LVL16:
 277 0170 130101FF 		addi	sp,sp,-16
 278              		.cfi_def_cfa_offset 16
 279 0174 23341100 		sd	ra,8(sp)
 280 0178 23308100 		sd	s0,0(sp)
GAS LISTING /tmp/cctosQp0.s 			page 7


 281              		.cfi_offset 1, -8
 282              		.cfi_offset 8, -16
 283 017c 13040101 		addi	s0,sp,16
 284              		.cfi_def_cfa 8, 0
  54:src/SCB.cpp   ****     MemoryAllocator::mem_free(memSegment);
 285              		.loc 1 54 5
 286              		.loc 1 54 30 is_stmt 0
 287 0180 97000000 		call	_ZN15MemoryAllocator8mem_freeEPv@plt
 287      E7800000 
 288              	.LVL17:
  55:src/SCB.cpp   **** }
 289              		.loc 1 55 1
 290 0188 83308100 		ld	ra,8(sp)
 291              		.cfi_restore 1
 292 018c 03340100 		ld	s0,0(sp)
 293              		.cfi_restore 8
 294              		.cfi_def_cfa 2, 16
 295 0190 13010101 		addi	sp,sp,16
 296              		.cfi_def_cfa_offset 0
 297 0194 67800000 		jr	ra
 298              		.cfi_endproc
 299              	.LFE38:
 301              		.align	2
 302              		.globl	_ZN3SCB13signalClosingEv
 304              	_ZN3SCB13signalClosingEv:
 305              	.LFB39:
  56:src/SCB.cpp   **** 
  57:src/SCB.cpp   **** void SCB::signalClosing() {
 306              		.loc 1 57 27 is_stmt 1
 307              		.cfi_startproc
 308              	.LVL18:
 309 0198 130101FE 		addi	sp,sp,-32
 310              		.cfi_def_cfa_offset 32
 311 019c 233C1100 		sd	ra,24(sp)
 312 01a0 23388100 		sd	s0,16(sp)
 313 01a4 23349100 		sd	s1,8(sp)
 314 01a8 23302101 		sd	s2,0(sp)
 315              		.cfi_offset 1, -8
 316              		.cfi_offset 8, -16
 317              		.cfi_offset 9, -24
 318              		.cfi_offset 18, -32
 319 01ac 13040102 		addi	s0,sp,32
 320              		.cfi_def_cfa 8, 0
 321 01b0 13090500 		mv	s2,a0
  58:src/SCB.cpp   ****     PCB* curr = head;
 322              		.loc 1 58 5
 323              		.loc 1 58 10 is_stmt 0
 324 01b4 03350500 		ld	a0,0(a0)
 325              	.LVL19:
 326              	.L33:
  59:src/SCB.cpp   ****     while(curr) {
 327              		.loc 1 59 5 is_stmt 1
 328              		.loc 1 59 11
 329 01b8 63020502 		beqz	a0,.L32
 330              	.LBB2:
  60:src/SCB.cpp   ****         PCB* last = curr;
 331              		.loc 1 60 9
GAS LISTING /tmp/cctosQp0.s 			page 8


 332              	.LVL20:
  61:src/SCB.cpp   ****         curr->semDeleted = true;
 333              		.loc 1 61 9
 334              		.loc 1 61 26 is_stmt 0
 335 01bc 93071000 		li	a5,1
 336 01c0 2305F502 		sb	a5,42(a0)
  62:src/SCB.cpp   ****         curr->blocked = false;
 337              		.loc 1 62 9 is_stmt 1
 338              		.loc 1 62 23 is_stmt 0
 339 01c4 A3040502 		sb	zero,41(a0)
  63:src/SCB.cpp   ****         curr = curr->nextInList;
 340              		.loc 1 63 9 is_stmt 1
 341              		.loc 1 63 14 is_stmt 0
 342 01c8 83340500 		ld	s1,0(a0)
 343              	.LVL21:
  64:src/SCB.cpp   ****         Scheduler::put(last);
 344              		.loc 1 64 9 is_stmt 1
 345              		.loc 1 64 23 is_stmt 0
 346 01cc 97000000 		call	_ZN9Scheduler3putEP3PCB@plt
 346      E7800000 
 347              	.LVL22:
  63:src/SCB.cpp   ****         curr = curr->nextInList;
 348              		.loc 1 63 14
 349 01d4 13850400 		mv	a0,s1
 350              	.LBE2:
  59:src/SCB.cpp   ****         PCB* last = curr;
 351              		.loc 1 59 5
 352 01d8 6FF01FFE 		j	.L33
 353              	.LVL23:
 354              	.L32:
  65:src/SCB.cpp   ****     }
  66:src/SCB.cpp   ****     head = tail = nullptr;
 355              		.loc 1 66 5 is_stmt 1
 356              		.loc 1 66 17 is_stmt 0
 357 01dc 23340900 		sd	zero,8(s2)
 358              		.loc 1 66 10
 359 01e0 23300900 		sd	zero,0(s2)
  67:src/SCB.cpp   **** }
 360              		.loc 1 67 1
 361 01e4 83308101 		ld	ra,24(sp)
 362              		.cfi_restore 1
 363 01e8 03340101 		ld	s0,16(sp)
 364              		.cfi_restore 8
 365              		.cfi_def_cfa 2, 32
 366 01ec 83348100 		ld	s1,8(sp)
 367              		.cfi_restore 9
 368 01f0 03390100 		ld	s2,0(sp)
 369              		.cfi_restore 18
 370              	.LVL24:
 371 01f4 13010102 		addi	sp,sp,32
 372              		.cfi_def_cfa_offset 0
 373 01f8 67800000 		jr	ra
 374              		.cfi_endproc
 375              	.LFE39:
 377              	.Letext0:
 378              		.file 2 "src/../h/hw.h"
 379              		.file 3 "src/../h/PCB.h"
GAS LISTING /tmp/cctosQp0.s 			page 9


 380              		.file 4 "src/../h/Scheduler.h"
 381              		.file 5 "src/../h/SCB.h"
 382              		.file 6 "src/../h/MemoryAllocator.h"
GAS LISTING /tmp/cctosQp0.s 			page 10


DEFINED SYMBOLS
                            *ABS*:0000000000000000 SCB.cpp
     /tmp/cctosQp0.s:9      .text:0000000000000000 _ZN3SCB5blockEv
     /tmp/cctosQp0.s:13     .text:0000000000000000 .L0 
     /tmp/cctosQp0.s:15     .text:0000000000000000 .L0 
     /tmp/cctosQp0.s:16     .text:0000000000000004 .L0 
     /tmp/cctosQp0.s:18     .text:0000000000000008 .L0 
     /tmp/cctosQp0.s:20     .text:000000000000000c .L0 
     /tmp/cctosQp0.s:22     .text:000000000000000c .L0 
     /tmp/cctosQp0.s:23     .text:000000000000000c .L0 
     /tmp/cctosQp0.s:26     .text:0000000000000018 .L0 
     /tmp/cctosQp0.s:28     .text:000000000000001c .L0 
     /tmp/cctosQp0.s:29     .text:000000000000001c .L0 
     /tmp/cctosQp0.s:31     .text:0000000000000020 .L0 
     /tmp/cctosQp0.s:33     .text:0000000000000024 .L0 
     /tmp/cctosQp0.s:34     .text:0000000000000024 .L0 
     /tmp/cctosQp0.s:38     .text:0000000000000034 .L0 
     /tmp/cctosQp0.s:39     .text:0000000000000034 .L0 
     /tmp/cctosQp0.s:41     .text:0000000000000038 .L0 
     /tmp/cctosQp0.s:43     .text:000000000000003c .L0 
     /tmp/cctosQp0.s:46     .text:0000000000000040 .L0 
     /tmp/cctosQp0.s:47     .text:0000000000000040 .L0 
     /tmp/cctosQp0.s:50     .text:000000000000004c .L0 
     /tmp/cctosQp0.s:53     .text:0000000000000054 .L0 
     /tmp/cctosQp0.s:54     .text:0000000000000058 .L0 
     /tmp/cctosQp0.s:55     .text:0000000000000058 .L0 
     /tmp/cctosQp0.s:56     .text:0000000000000058 .L0 
     /tmp/cctosQp0.s:58     .text:000000000000005c .L0 
     /tmp/cctosQp0.s:61     .text:0000000000000060 .L0 
     /tmp/cctosQp0.s:63     .text:0000000000000060 .L0 
     /tmp/cctosQp0.s:64     .text:0000000000000060 .L0 
     /tmp/cctosQp0.s:68     .text:0000000000000070 .L0 
     /tmp/cctosQp0.s:70     .text:0000000000000078 .L0 
     /tmp/cctosQp0.s:76     .text:0000000000000078 _ZN3SCB7unblockEv
     /tmp/cctosQp0.s:79     .text:0000000000000078 .L0 
     /tmp/cctosQp0.s:81     .text:0000000000000078 .L0 
     /tmp/cctosQp0.s:82     .text:000000000000007c .L0 
     /tmp/cctosQp0.s:84     .text:0000000000000080 .L0 
     /tmp/cctosQp0.s:86     .text:0000000000000084 .L0 
     /tmp/cctosQp0.s:89     .text:0000000000000088 .L0 
     /tmp/cctosQp0.s:90     .text:0000000000000088 .L0 
     /tmp/cctosQp0.s:93     .text:000000000000008c .L0 
     /tmp/cctosQp0.s:96     .text:0000000000000090 .L0 
     /tmp/cctosQp0.s:97     .text:0000000000000090 .L0 
     /tmp/cctosQp0.s:98     .text:0000000000000090 .L0 
     /tmp/cctosQp0.s:100    .text:0000000000000094 .L0 
     /tmp/cctosQp0.s:102    .text:0000000000000098 .L0 
     /tmp/cctosQp0.s:103    .text:0000000000000098 .L0 
     /tmp/cctosQp0.s:105    .text:000000000000009c .L0 
     /tmp/cctosQp0.s:108    .text:00000000000000a0 .L0 
     /tmp/cctosQp0.s:109    .text:00000000000000a0 .L0 
     /tmp/cctosQp0.s:111    .text:00000000000000a4 .L0 
     /tmp/cctosQp0.s:112    .text:00000000000000a4 .L0 
     /tmp/cctosQp0.s:116    .text:00000000000000a8 .L0 
     /tmp/cctosQp0.s:117    .text:00000000000000a8 .L0 
     /tmp/cctosQp0.s:118    .text:00000000000000ac .L0 
     /tmp/cctosQp0.s:119    .text:00000000000000ac .L0 
GAS LISTING /tmp/cctosQp0.s 			page 11


     /tmp/cctosQp0.s:120    .text:00000000000000ac .L0 
     /tmp/cctosQp0.s:122    .text:00000000000000b0 .L0 
     /tmp/cctosQp0.s:126    .text:00000000000000b4 .L0 
     /tmp/cctosQp0.s:128    .text:00000000000000b4 .L0 
     /tmp/cctosQp0.s:129    .text:00000000000000b4 .L0 
     /tmp/cctosQp0.s:131    .text:00000000000000bc .L0 
     /tmp/cctosQp0.s:137    .text:00000000000000bc _ZN3SCB4waitEv
     /tmp/cctosQp0.s:140    .text:00000000000000bc .L0 
     /tmp/cctosQp0.s:142    .text:00000000000000bc .L0 
     /tmp/cctosQp0.s:143    .text:00000000000000bc .L0 
     /tmp/cctosQp0.s:144    .text:00000000000000bc .L0 
     /tmp/cctosQp0.s:146    .text:00000000000000c0 .L0 
     /tmp/cctosQp0.s:148    .text:00000000000000c4 .L0 
     /tmp/cctosQp0.s:150    .text:00000000000000c8 .L0 
     /tmp/cctosQp0.s:153    .text:00000000000000d0 .L0 
     /tmp/cctosQp0.s:156    .text:00000000000000d4 .L0 
     /tmp/cctosQp0.s:160    .text:00000000000000d8 .L0 
     /tmp/cctosQp0.s:161    .text:00000000000000dc .L0 
     /tmp/cctosQp0.s:164    .text:00000000000000e4 .L0 
     /tmp/cctosQp0.s:165    .text:00000000000000e4 .L0 
     /tmp/cctosQp0.s:167    .text:00000000000000e8 .L0 
     /tmp/cctosQp0.s:169    .text:00000000000000e8 .L0 
     /tmp/cctosQp0.s:170    .text:00000000000000e8 .L0 
     /tmp/cctosQp0.s:173    .text:00000000000000f0 .L0 
     /tmp/cctosQp0.s:174    .text:00000000000000f0 .L0 
     /tmp/cctosQp0.s:176    .text:00000000000000f4 .L0 
     /tmp/cctosQp0.s:177    .text:00000000000000f8 .L0 
     /tmp/cctosQp0.s:179    .text:00000000000000fc .L0 
     /tmp/cctosQp0.s:180    .text:00000000000000fc .L0 
     /tmp/cctosQp0.s:182    .text:0000000000000100 .L0 
     /tmp/cctosQp0.s:184    .text:0000000000000104 .L0 
     /tmp/cctosQp0.s:190    .text:0000000000000104 _ZN3SCB6signalEv
     /tmp/cctosQp0.s:193    .text:0000000000000104 .L0 
     /tmp/cctosQp0.s:195    .text:0000000000000104 .L0 
     /tmp/cctosQp0.s:196    .text:0000000000000104 .L0 
     /tmp/cctosQp0.s:197    .text:0000000000000104 .L0 
     /tmp/cctosQp0.s:199    .text:0000000000000108 .L0 
     /tmp/cctosQp0.s:202    .text:0000000000000110 .L0 
     /tmp/cctosQp0.s:204    .text:0000000000000114 .L0 
     /tmp/cctosQp0.s:206    .text:0000000000000118 .L0 
     /tmp/cctosQp0.s:209    .text:000000000000011c .L0 
     /tmp/cctosQp0.s:213    .text:0000000000000120 .L0 
     /tmp/cctosQp0.s:214    .text:0000000000000124 .L0 
     /tmp/cctosQp0.s:217    .text:000000000000012c .L0 
     /tmp/cctosQp0.s:218    .text:000000000000012c .L0 
     /tmp/cctosQp0.s:220    .text:0000000000000130 .L0 
     /tmp/cctosQp0.s:222    .text:0000000000000130 .L0 
     /tmp/cctosQp0.s:223    .text:0000000000000130 .L0 
     /tmp/cctosQp0.s:226    .text:0000000000000138 .L0 
     /tmp/cctosQp0.s:227    .text:000000000000013c .L0 
     /tmp/cctosQp0.s:229    .text:0000000000000140 .L0 
     /tmp/cctosQp0.s:230    .text:0000000000000140 .L0 
     /tmp/cctosQp0.s:232    .text:0000000000000144 .L0 
     /tmp/cctosQp0.s:234    .text:0000000000000148 .L0 
     /tmp/cctosQp0.s:240    .text:0000000000000148 _ZN3SCBnwEm
     /tmp/cctosQp0.s:243    .text:0000000000000148 .L0 
     /tmp/cctosQp0.s:245    .text:0000000000000148 .L0 
GAS LISTING /tmp/cctosQp0.s 			page 12


     /tmp/cctosQp0.s:246    .text:000000000000014c .L0 
     /tmp/cctosQp0.s:249    .text:0000000000000154 .L0 
     /tmp/cctosQp0.s:250    .text:0000000000000154 .L0 
     /tmp/cctosQp0.s:252    .text:0000000000000158 .L0 
     /tmp/cctosQp0.s:254    .text:0000000000000158 .L0 
     /tmp/cctosQp0.s:255    .text:0000000000000158 .L0 
     /tmp/cctosQp0.s:258    .text:0000000000000160 .L0 
     /tmp/cctosQp0.s:259    .text:0000000000000164 .L0 
     /tmp/cctosQp0.s:261    .text:0000000000000168 .L0 
     /tmp/cctosQp0.s:262    .text:0000000000000168 .L0 
     /tmp/cctosQp0.s:264    .text:000000000000016c .L0 
     /tmp/cctosQp0.s:266    .text:0000000000000170 .L0 
     /tmp/cctosQp0.s:272    .text:0000000000000170 _ZN3SCBdlEPv
     /tmp/cctosQp0.s:275    .text:0000000000000170 .L0 
     /tmp/cctosQp0.s:277    .text:0000000000000170 .L0 
     /tmp/cctosQp0.s:278    .text:0000000000000174 .L0 
     /tmp/cctosQp0.s:281    .text:000000000000017c .L0 
     /tmp/cctosQp0.s:282    .text:000000000000017c .L0 
     /tmp/cctosQp0.s:284    .text:0000000000000180 .L0 
     /tmp/cctosQp0.s:286    .text:0000000000000180 .L0 
     /tmp/cctosQp0.s:287    .text:0000000000000180 .L0 
     /tmp/cctosQp0.s:290    .text:0000000000000188 .L0 
     /tmp/cctosQp0.s:291    .text:000000000000018c .L0 
     /tmp/cctosQp0.s:293    .text:0000000000000190 .L0 
     /tmp/cctosQp0.s:294    .text:0000000000000190 .L0 
     /tmp/cctosQp0.s:296    .text:0000000000000194 .L0 
     /tmp/cctosQp0.s:298    .text:0000000000000198 .L0 
     /tmp/cctosQp0.s:304    .text:0000000000000198 _ZN3SCB13signalClosingEv
     /tmp/cctosQp0.s:307    .text:0000000000000198 .L0 
     /tmp/cctosQp0.s:309    .text:0000000000000198 .L0 
     /tmp/cctosQp0.s:310    .text:000000000000019c .L0 
     /tmp/cctosQp0.s:315    .text:00000000000001ac .L0 
     /tmp/cctosQp0.s:316    .text:00000000000001ac .L0 
     /tmp/cctosQp0.s:317    .text:00000000000001ac .L0 
     /tmp/cctosQp0.s:318    .text:00000000000001ac .L0 
     /tmp/cctosQp0.s:320    .text:00000000000001b0 .L0 
     /tmp/cctosQp0.s:323    .text:00000000000001b4 .L0 
     /tmp/cctosQp0.s:324    .text:00000000000001b4 .L0 
     /tmp/cctosQp0.s:328    .text:00000000000001b8 .L0 
     /tmp/cctosQp0.s:329    .text:00000000000001b8 .L0 
     /tmp/cctosQp0.s:333    .text:00000000000001bc .L0 
     /tmp/cctosQp0.s:334    .text:00000000000001bc .L0 
     /tmp/cctosQp0.s:335    .text:00000000000001bc .L0 
     /tmp/cctosQp0.s:338    .text:00000000000001c4 .L0 
     /tmp/cctosQp0.s:339    .text:00000000000001c4 .L0 
     /tmp/cctosQp0.s:341    .text:00000000000001c8 .L0 
     /tmp/cctosQp0.s:342    .text:00000000000001c8 .L0 
     /tmp/cctosQp0.s:345    .text:00000000000001cc .L0 
     /tmp/cctosQp0.s:346    .text:00000000000001cc .L0 
     /tmp/cctosQp0.s:349    .text:00000000000001d4 .L0 
     /tmp/cctosQp0.s:352    .text:00000000000001d8 .L0 
     /tmp/cctosQp0.s:356    .text:00000000000001dc .L0 
     /tmp/cctosQp0.s:357    .text:00000000000001dc .L0 
     /tmp/cctosQp0.s:359    .text:00000000000001e0 .L0 
     /tmp/cctosQp0.s:361    .text:00000000000001e4 .L0 
     /tmp/cctosQp0.s:362    .text:00000000000001e8 .L0 
     /tmp/cctosQp0.s:364    .text:00000000000001ec .L0 
GAS LISTING /tmp/cctosQp0.s 			page 13


     /tmp/cctosQp0.s:365    .text:00000000000001ec .L0 
     /tmp/cctosQp0.s:367    .text:00000000000001f0 .L0 
     /tmp/cctosQp0.s:369    .text:00000000000001f4 .L0 
     /tmp/cctosQp0.s:372    .text:00000000000001f8 .L0 
     /tmp/cctosQp0.s:374    .text:00000000000001fc .L0 
     /tmp/cctosQp0.s:383    .text:00000000000001fc .L0 
     /tmp/cctosQp0.s:23     .text:000000000000000c .L0 
     /tmp/cctosQp0.s:34     .text:0000000000000024 .L0 
     /tmp/cctosQp0.s:47     .text:0000000000000040 .L0 
     /tmp/cctosQp0.s:64     .text:0000000000000060 .L0 
     /tmp/cctosQp0.s:60     .text:0000000000000060 .L5
     /tmp/cctosQp0.s:44     .text:0000000000000040 .L3
     /tmp/cctosQp0.s:115    .text:00000000000000a8 .L6
     /tmp/cctosQp0.s:125    .text:00000000000000b4 .L10
     /tmp/cctosQp0.s:106    .text:00000000000000a0 .L8
     /tmp/cctosQp0.s:158    .text:00000000000000d8 .L18
     /tmp/cctosQp0.s:211    .text:0000000000000120 .L26
     /tmp/cctosQp0.s:354    .text:00000000000001dc .L32
     /tmp/cctosQp0.s:326    .text:00000000000001b8 .L33
     /tmp/cctosQp0.s:1333   .debug_abbrev:0000000000000000 .Ldebug_abbrev0
     /tmp/cctosQp0.s:2565   .debug_str:00000000000005b9 .LASF101
     /tmp/cctosQp0.s:2507   .debug_str:000000000000042d .LASF102
     /tmp/cctosQp0.s:2589   .debug_str:0000000000000737 .LASF103
     /tmp/cctosQp0.s:5      .text:0000000000000000 .Ltext0
     /tmp/cctosQp0.s:377    .text:00000000000001fc .Letext0
     /tmp/cctosQp0.s:2375   .debug_line:0000000000000000 .Ldebug_line0
     /tmp/cctosQp0.s:2499   .debug_str:00000000000003f9 .LASF0
     /tmp/cctosQp0.s:2513   .debug_str:0000000000000471 .LASF1
     /tmp/cctosQp0.s:2483   .debug_str:0000000000000367 .LASF2
     /tmp/cctosQp0.s:2457   .debug_str:000000000000026a .LASF4
     /tmp/cctosQp0.s:2551   .debug_str:000000000000055b .LASF3
     /tmp/cctosQp0.s:2393   .debug_str:0000000000000095 .LASF5
     /tmp/cctosQp0.s:2515   .debug_str:0000000000000484 .LASF6
     /tmp/cctosQp0.s:2497   .debug_str:00000000000003e6 .LASF7
     /tmp/cctosQp0.s:2573   .debug_str:00000000000006b0 .LASF8
     /tmp/cctosQp0.s:2447   .debug_str:0000000000000217 .LASF9
     /tmp/cctosQp0.s:2529   .debug_str:00000000000004db .LASF10
     /tmp/cctosQp0.s:2567   .debug_str:000000000000067d .LASF11
     /tmp/cctosQp0.s:2397   .debug_str:00000000000000a4 .LASF12
     /tmp/cctosQp0.s:2381   .debug_str:0000000000000030 .LASF13
     /tmp/cctosQp0.s:2403   .debug_str:00000000000000ce .LASF14
     /tmp/cctosQp0.s:2545   .debug_str:0000000000000533 .LASF15
     /tmp/cctosQp0.s:2413   .debug_str:0000000000000108 .LASF16
     /tmp/cctosQp0.s:2517   .debug_str:0000000000000497 .LASF17
     /tmp/cctosQp0.s:2521   .debug_str:00000000000004a9 .LASF19
     /tmp/cctosQp0.s:2537   .debug_str:00000000000004fd .LASF18
     /tmp/cctosQp0.s:2435   .debug_str:00000000000001ca .LASF20
     /tmp/cctosQp0.s:2443   .debug_str:00000000000001fb .LASF21
     /tmp/cctosQp0.s:2595   .debug_str:0000000000000771 .LASF23
     /tmp/cctosQp0.s:2527   .debug_str:00000000000004cf .LASF104
     /tmp/cctosQp0.s:2547   .debug_str:0000000000000549 .LASF105
     /tmp/cctosQp0.s:2579   .debug_str:00000000000006d6 .LASF106
     /tmp/cctosQp0.s:2437   .debug_str:00000000000001e9 .LASF91
     /tmp/cctosQp0.s:2541   .debug_str:000000000000051c .LASF22
     /tmp/cctosQp0.s:2493   .debug_str:00000000000003ca .LASF24
     /tmp/cctosQp0.s:2587   .debug_str:000000000000072a .LASF25
     /tmp/cctosQp0.s:2459   .debug_str:0000000000000271 .LASF26
GAS LISTING /tmp/cctosQp0.s 			page 14


     /tmp/cctosQp0.s:2559   .debug_str:0000000000000597 .LASF27
     /tmp/cctosQp0.s:2561   .debug_str:00000000000005a7 .LASF64
     /tmp/cctosQp0.s:2401   .debug_str:00000000000000c3 .LASF56
     /tmp/cctosQp0.s:2425   .debug_str:0000000000000171 .LASF107
     /tmp/cctosQp0.s:2387   .debug_str:0000000000000062 .LASF54
     /tmp/cctosQp0.s:2485   .debug_str:0000000000000375 .LASF28
     /tmp/cctosQp0.s:2505   .debug_str:0000000000000427 .LASF29
     /tmp/cctosQp0.s:2571   .debug_str:00000000000006a7 .LASF30
     /tmp/cctosQp0.s:2405   .debug_str:00000000000000da .LASF31
     /tmp/cctosQp0.s:2523   .debug_str:00000000000004c0 .LASF32
     /tmp/cctosQp0.s:2461   .debug_str:000000000000027d .LASF33
     /tmp/cctosQp0.s:2377   .debug_str:0000000000000000 .LASF34
     /tmp/cctosQp0.s:2411   .debug_str:00000000000000fd .LASF35
     /tmp/cctosQp0.s:2427   .debug_str:0000000000000187 .LASF36
     /tmp/cctosQp0.s:2509   .debug_str:0000000000000439 .LASF37
     /tmp/cctosQp0.s:2553   .debug_str:000000000000056d .LASF49
     /tmp/cctosQp0.s:2501   .debug_str:0000000000000406 .LASF43
     /tmp/cctosQp0.s:2453   .debug_str:0000000000000243 .LASF45
     /tmp/cctosQp0.s:2391   .debug_str:0000000000000086 .LASF38
     /tmp/cctosQp0.s:2585   .debug_str:000000000000070c .LASF40
     /tmp/cctosQp0.s:2399   .debug_str:00000000000000b4 .LASF39
     /tmp/cctosQp0.s:2477   .debug_str:0000000000000334 .LASF41
     /tmp/cctosQp0.s:2489   .debug_str:00000000000003a5 .LASF42
     /tmp/cctosQp0.s:2407   .debug_str:00000000000000e4 .LASF44
     /tmp/cctosQp0.s:2491   .debug_str:00000000000003af .LASF46
     /tmp/cctosQp0.s:2441   .debug_str:00000000000001f6 .LASF47
     /tmp/cctosQp0.s:2525   .debug_str:00000000000004c5 .LASF48
     /tmp/cctosQp0.s:2421   .debug_str:000000000000015e .LASF50
     /tmp/cctosQp0.s:2479   .debug_str:0000000000000352 .LASF51
     /tmp/cctosQp0.s:2591   .debug_str:0000000000000755 .LASF52
     /tmp/cctosQp0.s:2555   .debug_str:000000000000057e .LASF53
     /tmp/cctosQp0.s:2471   .debug_str:00000000000002f0 .LASF55
     /tmp/cctosQp0.s:2455   .debug_str:0000000000000256 .LASF108
     /tmp/cctosQp0.s:2549   .debug_str:000000000000054f .LASF57
     /tmp/cctosQp0.s:2503   .debug_str:000000000000040f .LASF58
     /tmp/cctosQp0.s:2439   .debug_str:00000000000001f1 .LASF59
     /tmp/cctosQp0.s:2449   .debug_str:0000000000000225 .LASF60
     /tmp/cctosQp0.s:2519   .debug_str:00000000000004a2 .LASF61
     /tmp/cctosQp0.s:2389   .debug_str:0000000000000075 .LASF62
     /tmp/cctosQp0.s:2431   .debug_str:00000000000001ae .LASF63
     /tmp/cctosQp0.s:2445   .debug_str:000000000000020a .LASF65
     /tmp/cctosQp0.s:2593   .debug_str:0000000000000761 .LASF66
     /tmp/cctosQp0.s:2569   .debug_str:000000000000068c .LASF67
     /tmp/cctosQp0.s:2415   .debug_str:000000000000011e .LASF68
     /tmp/cctosQp0.s:2385   .debug_str:0000000000000049 .LASF69
     /tmp/cctosQp0.s:2575   .debug_str:00000000000006c0 .LASF70
     /tmp/cctosQp0.s:2465   .debug_str:00000000000002b4 .LASF71
     /tmp/cctosQp0.s:2481   .debug_str:0000000000000357 .LASF72
     /tmp/cctosQp0.s:2395   .debug_str:000000000000009c .LASF73
     /tmp/cctosQp0.s:2543   .debug_str:0000000000000521 .LASF74
     /tmp/cctosQp0.s:2409   .debug_str:00000000000000f4 .LASF75
     /tmp/cctosQp0.s:2495   .debug_str:00000000000003d6 .LASF76
     /tmp/cctosQp0.s:2539   .debug_str:0000000000000510 .LASF109
     /tmp/cctosQp0.s:2383   .debug_str:0000000000000040 .LASF77
     /tmp/cctosQp0.s:2563   .debug_str:00000000000005b4 .LASF78
     /tmp/cctosQp0.s:2597   .debug_str:0000000000000791 .LASF79
     /tmp/cctosQp0.s:2557   .debug_str:0000000000000590 .LASF80
GAS LISTING /tmp/cctosQp0.s 			page 15


     /tmp/cctosQp0.s:2463   .debug_str:0000000000000286 .LASF81
     /tmp/cctosQp0.s:2511   .debug_str:0000000000000443 .LASF110
     /tmp/cctosQp0.s:2577   .debug_str:00000000000006cc .LASF82
     /tmp/cctosQp0.s:2583   .debug_str:00000000000006eb .LASF83
     /tmp/cctosQp0.s:2533   .debug_str:00000000000004ef .LASF84
     /tmp/cctosQp0.s:2473   .debug_str:0000000000000308 .LASF85
     /tmp/cctosQp0.s:2417   .debug_str:000000000000012c .LASF86
     /tmp/cctosQp0.s:2487   .debug_str:0000000000000380 .LASF87
     /tmp/cctosQp0.s:2469   .debug_str:00000000000002e3 .LASF88
     /tmp/cctosQp0.s:2419   .debug_str:0000000000000139 .LASF89
     /tmp/cctosQp0.s:2429   .debug_str:0000000000000195 .LASF90
     /tmp/cctosQp0.s:2423   .debug_str:0000000000000163 .LASF92
     /tmp/cctosQp0.s:2433   .debug_str:00000000000001ba .LASF93
     /tmp/cctosQp0.s:2467   .debug_str:00000000000002ba .LASF94
     /tmp/cctosQp0.s:2451   .debug_str:0000000000000234 .LASF95
     /tmp/cctosQp0.s:2379   .debug_str:0000000000000008 .LASF96
     /tmp/cctosQp0.s:305    .text:0000000000000198 .LFB39
     /tmp/cctosQp0.s:375    .text:00000000000001fc .LFE39
     /tmp/cctosQp0.s:2535   .debug_str:00000000000004f8 .LASF100
     /tmp/cctosQp0.s:2222   .debug_loc:0000000000000000 .LLST6
     /tmp/cctosQp0.s:2531   .debug_str:00000000000004ea .LASF97
     /tmp/cctosQp0.s:2240   .debug_loc:000000000000004c .LLST7
     /tmp/cctosQp0.s:330    .text:00000000000001bc .LBB2
     /tmp/cctosQp0.s:350    .text:00000000000001d8 .LBE2
     /tmp/cctosQp0.s:2581   .debug_str:00000000000006e6 .LASF98
     /tmp/cctosQp0.s:2255   .debug_loc:0000000000000095 .LLST8
     /tmp/cctosQp0.s:347    .text:00000000000001d4 .LVL22
     /tmp/cctosQp0.s:273    .text:0000000000000170 .LFB38
     /tmp/cctosQp0.s:299    .text:0000000000000198 .LFE38
     /tmp/cctosQp0.s:2475   .debug_str:0000000000000329 .LASF99
     /tmp/cctosQp0.s:2262   .debug_loc:00000000000000b8 .LLST5
     /tmp/cctosQp0.s:288    .text:0000000000000188 .LVL17
     /tmp/cctosQp0.s:241    .text:0000000000000148 .LFB37
     /tmp/cctosQp0.s:267    .text:0000000000000170 .LFE37
     /tmp/cctosQp0.s:2276   .debug_loc:00000000000000f1 .LLST4
     /tmp/cctosQp0.s:256    .text:0000000000000160 .LVL15
     /tmp/cctosQp0.s:191    .text:0000000000000104 .LFB36
     /tmp/cctosQp0.s:235    .text:0000000000000148 .LFE36
     /tmp/cctosQp0.s:2290   .debug_loc:000000000000012a .LLST3
     /tmp/cctosQp0.s:224    .text:0000000000000138 .LVL13
     /tmp/cctosQp0.s:138    .text:00000000000000bc .LFB35
     /tmp/cctosQp0.s:185    .text:0000000000000104 .LFE35
     /tmp/cctosQp0.s:2315   .debug_loc:000000000000018c .LLST2
     /tmp/cctosQp0.s:171    .text:00000000000000f0 .LVL9
     /tmp/cctosQp0.s:77     .text:0000000000000078 .LFB34
     /tmp/cctosQp0.s:132    .text:00000000000000bc .LFE34
     /tmp/cctosQp0.s:2340   .debug_loc:00000000000001ee .LLST0
     /tmp/cctosQp0.s:2351   .debug_loc:0000000000000224 .LLST1
     /tmp/cctosQp0.s:10     .text:0000000000000000 .LFB33
     /tmp/cctosQp0.s:71     .text:0000000000000078 .LFE33
     /tmp/cctosQp0.s:308    .text:0000000000000198 .LVL18
     /tmp/cctosQp0.s:325    .text:00000000000001b8 .LVL19
     /tmp/cctosQp0.s:370    .text:00000000000001f4 .LVL24
     /tmp/cctosQp0.s:343    .text:00000000000001cc .LVL21
     /tmp/cctosQp0.s:353    .text:00000000000001dc .LVL23
     /tmp/cctosQp0.s:332    .text:00000000000001bc .LVL20
     /tmp/cctosQp0.s:276    .text:0000000000000170 .LVL16
GAS LISTING /tmp/cctosQp0.s 			page 16


     /tmp/cctosQp0.s:244    .text:0000000000000148 .LVL14
     /tmp/cctosQp0.s:194    .text:0000000000000104 .LVL10
     /tmp/cctosQp0.s:207    .text:000000000000011c .LVL11
     /tmp/cctosQp0.s:210    .text:0000000000000120 .LVL12
     /tmp/cctosQp0.s:141    .text:00000000000000bc .LVL6
     /tmp/cctosQp0.s:154    .text:00000000000000d4 .LVL7
     /tmp/cctosQp0.s:157    .text:00000000000000d8 .LVL8
     /tmp/cctosQp0.s:80     .text:0000000000000078 .LVL1
     /tmp/cctosQp0.s:91     .text:000000000000008c .LVL2
     /tmp/cctosQp0.s:95     .text:0000000000000090 .LVL3
     /tmp/cctosQp0.s:114    .text:00000000000000a8 .LVL4
     /tmp/cctosQp0.s:124    .text:00000000000000b4 .LVL5
     /tmp/cctosQp0.s:384    .debug_info:0000000000000000 .Ldebug_info0

UNDEFINED SYMBOLS
_ZN3PCB7runningE
_ZN15MemoryAllocator9mem_allocEm
_ZN15MemoryAllocator8mem_freeEPv
_ZN9Scheduler3putEP3PCB
