GAS LISTING /tmp/ccFo0xxN.s 			page 1


   1              		.file	"SCB.cpp"
   2              		.option pic
   3              		.option norelax
   4              		.text
   5              	.Ltext0:
   6              		.align	2
   7              		.globl	_ZN3SCB5blockEv
   9              	_ZN3SCB5blockEv:
  10              	.LFB39:
  11              		.file 1 "src/SCB.cpp"
   1:src/SCB.cpp   **** #include "../h/SCB.h"
   2:src/SCB.cpp   **** #include "../h/kernel.h"
   3:src/SCB.cpp   **** #include "../h/MemoryAllocator.h"
   4:src/SCB.cpp   **** 
   5:src/SCB.cpp   **** void SCB::block() {
  12              		.loc 1 5 19
  13              		.cfi_startproc
  14              	.LVL0:
  15 0000 130101FF 		addi	sp,sp,-16
  16              		.cfi_def_cfa_offset 16
  17 0004 23348100 		sd	s0,8(sp)
  18              		.cfi_offset 8, -8
  19 0008 13040101 		addi	s0,sp,16
  20              		.cfi_def_cfa 8, 0
   6:src/SCB.cpp   ****     PCB::running->setNextInList(nullptr);
  21              		.loc 1 6 5
  22              		.loc 1 6 32 is_stmt 0
  23 000c 97070000 		la	a5,_ZN3PCB7runningE
  23      83B70700 
  24 0014 83B70700 		ld	a5,0(a5)
  25              	.LVL1:
  26              	.LBB23:
  27              	.LBB24:
  28              		.file 2 "src/../h/PCB.h"
   1:src/../h/PCB.h **** #ifndef PCB_H
   2:src/../h/PCB.h **** #define PCB_H
   3:src/../h/PCB.h **** 
   4:src/../h/PCB.h **** #include "hw.h"
   5:src/../h/PCB.h **** 
   6:src/../h/PCB.h **** extern "C" void interruptHandler();
   7:src/../h/PCB.h **** 
   8:src/../h/PCB.h **** class PCB {
   9:src/../h/PCB.h **** friend class Scheduler;
  10:src/../h/PCB.h **** friend void interruptHandler();
  11:src/../h/PCB.h **** friend class Kernel;
  12:src/../h/PCB.h **** friend class SCB;
  13:src/../h/PCB.h **** public:
  14:src/../h/PCB.h ****     // vraca true ako se proces zavrsio, false ako nije
  15:src/../h/PCB.h ****     bool isFinished() const {
  16:src/../h/PCB.h ****         return finished;
  17:src/../h/PCB.h ****     }
  18:src/../h/PCB.h ****     // vraca true ako je semafor obrisan pre nego sto je proces odblokiran
  19:src/../h/PCB.h ****     bool isSemaphoreDeleted() const {
  20:src/../h/PCB.h ****         return semDeleted;
  21:src/../h/PCB.h ****     }
  22:src/../h/PCB.h **** 
  23:src/../h/PCB.h ****     size_t getTimeSleeping() const {
GAS LISTING /tmp/ccFo0xxN.s 			page 2


  24:src/../h/PCB.h ****         return timeSleeping;
  25:src/../h/PCB.h ****     }
  26:src/../h/PCB.h **** 
  27:src/../h/PCB.h ****     void setTimeSleeping(size_t newTime) {
  28:src/../h/PCB.h ****         timeSleeping = newTime;
  29:src/../h/PCB.h ****     }
  30:src/../h/PCB.h **** 
  31:src/../h/PCB.h ****     PCB* getNextInList() const {
  32:src/../h/PCB.h ****         return nextInList;
  33:src/../h/PCB.h ****     }
  34:src/../h/PCB.h **** 
  35:src/../h/PCB.h ****     void setNextInList(PCB* next) {
  36:src/../h/PCB.h ****         nextInList = next;
  29              		.loc 2 36 9 is_stmt 1
  30              		.loc 2 36 20 is_stmt 0
  31 0018 23B00700 		sd	zero,0(a5)
  32              	.LVL2:
  33              	.LBE24:
  34              	.LBE23:
   7:src/SCB.cpp   ****     if(tail == nullptr) { // ako ne postoji kraj liste nece postojati ni pocetak
  35              		.loc 1 7 5 is_stmt 1
  36              		.loc 1 7 8 is_stmt 0
  37 001c 83378500 		ld	a5,8(a0)
  38              		.loc 1 7 5
  39 0020 63800704 		beqz	a5,.L5
   8:src/SCB.cpp   ****         head = tail = PCB::running;
   9:src/SCB.cpp   ****     }
  10:src/SCB.cpp   ****     else {
  11:src/SCB.cpp   ****         tail->setNextInList(PCB::running);
  40              		.loc 1 11 9 is_stmt 1
  41              		.loc 1 11 28 is_stmt 0
  42 0024 17070000 		la	a4,_ZN3PCB7runningE
  42      03370700 
  43 002c 03370700 		ld	a4,0(a4)
  44              	.LVL3:
  45              	.LBB25:
  46              	.LBB26:
  47              		.loc 2 36 9 is_stmt 1
  48              		.loc 2 36 20 is_stmt 0
  49 0030 23B0E700 		sd	a4,0(a5)
  50              	.LVL4:
  51              	.LBE26:
  52              	.LBE25:
  12:src/SCB.cpp   ****         tail = tail->getNextInList();
  53              		.loc 1 12 9 is_stmt 1
  54              		.loc 1 12 16 is_stmt 0
  55 0034 83378500 		ld	a5,8(a0)
  56              	.LVL5:
  57              	.LBB27:
  58              	.LBB28:
  32:src/../h/PCB.h ****     }
  59              		.loc 2 32 9 is_stmt 1
  32:src/../h/PCB.h ****     }
  60              		.loc 2 32 16 is_stmt 0
  61 0038 83B70700 		ld	a5,0(a5)
  62              	.LVL6:
  63              	.LBE28:
GAS LISTING /tmp/ccFo0xxN.s 			page 3


  64              	.LBE27:
  65              		.loc 1 12 14
  66 003c 2334F500 		sd	a5,8(a0)
  67              	.L3:
  13:src/SCB.cpp   ****     }
  14:src/SCB.cpp   ****     PCB::running->setBlocked(true);
  68              		.loc 1 14 5 is_stmt 1
  69              		.loc 1 14 29 is_stmt 0
  70 0040 97070000 		la	a5,_ZN3PCB7runningE
  70      83B70700 
  71 0048 83B70700 		ld	a5,0(a5)
  72              	.LVL7:
  73              	.LBB29:
  74              	.LBB30:
  37:src/../h/PCB.h ****     }
  38:src/../h/PCB.h **** 
  39:src/../h/PCB.h ****     void setBlocked(bool newState) {
  40:src/../h/PCB.h ****         blocked = newState;
  75              		.loc 2 40 9 is_stmt 1
  76              		.loc 2 40 17 is_stmt 0
  77 004c 13071000 		li	a4,1
  78 0050 A384E702 		sb	a4,41(a5)
  79              	.LVL8:
  80              	.LBE30:
  81              	.LBE29:
  15:src/SCB.cpp   **** }
  82              		.loc 1 15 1
  83 0054 03348100 		ld	s0,8(sp)
  84              		.cfi_remember_state
  85              		.cfi_restore 8
  86              		.cfi_def_cfa 2, 16
  87 0058 13010101 		addi	sp,sp,16
  88              		.cfi_def_cfa_offset 0
  89 005c 67800000 		jr	ra
  90              	.L5:
  91              		.cfi_restore_state
   8:src/SCB.cpp   ****     }
  92              		.loc 1 8 9 is_stmt 1
   8:src/SCB.cpp   ****     }
  93              		.loc 1 8 21 is_stmt 0
  94 0060 97070000 		la	a5,_ZN3PCB7runningE
  94      83B70700 
  95 0068 83B70700 		ld	a5,0(a5)
  96 006c 2334F500 		sd	a5,8(a0)
   8:src/SCB.cpp   ****     }
  97              		.loc 1 8 14
  98 0070 2330F500 		sd	a5,0(a0)
  99 0074 6FF0DFFC 		j	.L3
 100              		.cfi_endproc
 101              	.LFE39:
 103              		.align	2
 104              		.globl	_ZN3SCB7unblockEv
 106              	_ZN3SCB7unblockEv:
 107              	.LFB40:
  16:src/SCB.cpp   **** 
  17:src/SCB.cpp   **** PCB* SCB::unblock() {
 108              		.loc 1 17 21 is_stmt 1
GAS LISTING /tmp/ccFo0xxN.s 			page 4


 109              		.cfi_startproc
 110              	.LVL9:
 111 0078 130101FF 		addi	sp,sp,-16
 112              		.cfi_def_cfa_offset 16
 113 007c 23348100 		sd	s0,8(sp)
 114              		.cfi_offset 8, -8
 115 0080 13040101 		addi	s0,sp,16
 116              		.cfi_def_cfa 8, 0
 117 0084 93070500 		mv	a5,a0
  18:src/SCB.cpp   ****     if(head == nullptr) return nullptr;
 118              		.loc 1 18 5
 119              		.loc 1 18 8 is_stmt 0
 120 0088 03350500 		ld	a0,0(a0)
 121              	.LVL10:
 122              		.loc 1 18 5
 123 008c 630E0500 		beqz	a0,.L6
  19:src/SCB.cpp   ****     PCB* curr = head;
 124              		.loc 1 19 5 is_stmt 1
 125              	.LVL11:
  20:src/SCB.cpp   ****     head = head->getNextInList();
 126              		.loc 1 20 5
 127              	.LBB31:
 128              	.LBB32:
  32:src/../h/PCB.h ****     }
 129              		.loc 2 32 9
  32:src/../h/PCB.h ****     }
 130              		.loc 2 32 16 is_stmt 0
 131 0090 03370500 		ld	a4,0(a0)
 132              	.LVL12:
 133              	.LBE32:
 134              	.LBE31:
 135              		.loc 1 20 10
 136 0094 23B0E700 		sd	a4,0(a5)
  21:src/SCB.cpp   ****     if(tail == curr) {
 137              		.loc 1 21 5 is_stmt 1
 138              		.loc 1 21 8 is_stmt 0
 139 0098 83B68700 		ld	a3,8(a5)
 140              		.loc 1 21 5
 141 009c 630CD500 		beq	a0,a3,.L10
 142              	.L8:
  22:src/SCB.cpp   ****         tail = head;
  23:src/SCB.cpp   ****     }
  24:src/SCB.cpp   ****     curr->setBlocked(false);
 143              		.loc 1 24 5 is_stmt 1
 144              	.LVL13:
 145              	.LBB33:
 146              	.LBB34:
 147              		.loc 2 40 9
 148              		.loc 2 40 17 is_stmt 0
 149 00a0 A3040502 		sb	zero,41(a0)
 150              	.LVL14:
 151              	.LBE34:
 152              	.LBE33:
  25:src/SCB.cpp   ****     curr->setNextInList(nullptr);
 153              		.loc 1 25 5 is_stmt 1
 154              	.LBB35:
 155              	.LBB36:
GAS LISTING /tmp/ccFo0xxN.s 			page 5


  36:src/../h/PCB.h ****     }
 156              		.loc 2 36 9
  36:src/../h/PCB.h ****     }
 157              		.loc 2 36 20 is_stmt 0
 158 00a4 23300500 		sd	zero,0(a0)
 159              	.LVL15:
 160              	.LBE36:
 161              	.LBE35:
  26:src/SCB.cpp   ****     return curr;
 162              		.loc 1 26 5 is_stmt 1
 163              	.L6:
  27:src/SCB.cpp   **** }
 164              		.loc 1 27 1 is_stmt 0
 165 00a8 03348100 		ld	s0,8(sp)
 166              		.cfi_remember_state
 167              		.cfi_restore 8
 168              		.cfi_def_cfa 2, 16
 169 00ac 13010101 		addi	sp,sp,16
 170              		.cfi_def_cfa_offset 0
 171 00b0 67800000 		jr	ra
 172              	.LVL16:
 173              	.L10:
 174              		.cfi_restore_state
  22:src/SCB.cpp   ****     }
 175              		.loc 1 22 9 is_stmt 1
  22:src/SCB.cpp   ****     }
 176              		.loc 1 22 14 is_stmt 0
 177 00b4 23B4E700 		sd	a4,8(a5)
 178 00b8 6FF09FFE 		j	.L8
 179              		.cfi_endproc
 180              	.LFE40:
 182              		.align	2
 183              		.globl	_ZN3SCB4waitEv
 185              	_ZN3SCB4waitEv:
 186              	.LFB41:
  28:src/SCB.cpp   **** 
  29:src/SCB.cpp   **** int SCB::wait() {
 187              		.loc 1 29 17 is_stmt 1
 188              		.cfi_startproc
 189              	.LVL17:
  30:src/SCB.cpp   ****     if((int)(--semValue)<0) {
 190              		.loc 1 30 5
 191              		.loc 1 30 16 is_stmt 0
 192 00bc 83270501 		lw	a5,16(a0)
 193              		.loc 1 30 14
 194 00c0 9B87F7FF 		addiw	a5,a5,-1
 195              		.loc 1 30 25
 196 00c4 2328F500 		sw	a5,16(a0)
 197              		.loc 1 30 5
 198 00c8 13970702 		slli	a4,a5,32
 199 00cc 63400702 		bltz	a4,.L22
  31:src/SCB.cpp   ****         block();
  32:src/SCB.cpp   ****         PCB::timeSliceCounter = 0;
  33:src/SCB.cpp   ****         PCB::dispatch();
  34:src/SCB.cpp   ****     }
  35:src/SCB.cpp   **** 
  36:src/SCB.cpp   ****     if(PCB::running->semDeleted) { // ako se vratio kontekst, a semafor je obrisan
GAS LISTING /tmp/ccFo0xxN.s 			page 6


 200              		.loc 1 36 5 is_stmt 1
 201              		.loc 1 36 22 is_stmt 0
 202 00d0 97070000 		la	a5,_ZN3PCB7runningE
 202      83B70700 
 203 00d8 83B70700 		ld	a5,0(a5)
 204 00dc 83C7A702 		lbu	a5,42(a5)
 205              		.loc 1 36 5
 206 00e0 63940706 		bnez	a5,.L17
  37:src/SCB.cpp   ****         return -2;
  38:src/SCB.cpp   ****     }
  39:src/SCB.cpp   **** 
  40:src/SCB.cpp   ****     return 0;
 207              		.loc 1 40 12
 208 00e4 13050000 		li	a0,0
 209              	.LVL18:
 210 00e8 67800000 		ret
 211              	.LVL19:
 212              	.L22:
  29:src/SCB.cpp   ****     if((int)(--semValue)<0) {
 213              		.loc 1 29 17
 214 00ec 130101FF 		addi	sp,sp,-16
 215              		.cfi_def_cfa_offset 16
 216 00f0 23341100 		sd	ra,8(sp)
 217 00f4 23308100 		sd	s0,0(sp)
 218              		.cfi_offset 1, -8
 219              		.cfi_offset 8, -16
 220 00f8 13040101 		addi	s0,sp,16
 221              		.cfi_def_cfa 8, 0
  31:src/SCB.cpp   ****         block();
 222              		.loc 1 31 9 is_stmt 1
  31:src/SCB.cpp   ****         block();
 223              		.loc 1 31 14 is_stmt 0
 224 00fc 97000000 		call	_ZN3SCB5blockEv
 224      E7800000 
 225              	.LVL20:
  32:src/SCB.cpp   ****         PCB::dispatch();
 226              		.loc 1 32 9 is_stmt 1
  32:src/SCB.cpp   ****         PCB::dispatch();
 227              		.loc 1 32 31 is_stmt 0
 228 0104 97070000 		la	a5,_ZN3PCB16timeSliceCounterE
 228      83B70700 
 229 010c 23B00700 		sd	zero,0(a5)
  33:src/SCB.cpp   ****     }
 230              		.loc 1 33 9 is_stmt 1
  33:src/SCB.cpp   ****     }
 231              		.loc 1 33 22 is_stmt 0
 232 0110 97000000 		call	_ZN3PCB8dispatchEv@plt
 232      E7800000 
 233              	.LVL21:
  36:src/SCB.cpp   ****         return -2;
 234              		.loc 1 36 5 is_stmt 1
  36:src/SCB.cpp   ****         return -2;
 235              		.loc 1 36 22 is_stmt 0
 236 0118 97070000 		la	a5,_ZN3PCB7runningE
 236      83B70700 
 237 0120 83B70700 		ld	a5,0(a5)
 238 0124 83C7A702 		lbu	a5,42(a5)
GAS LISTING /tmp/ccFo0xxN.s 			page 7


  36:src/SCB.cpp   ****         return -2;
 239              		.loc 1 36 5
 240 0128 639C0700 		bnez	a5,.L14
 241              		.loc 1 40 12
 242 012c 13050000 		li	a0,0
 243              	.L13:
  41:src/SCB.cpp   **** 
  42:src/SCB.cpp   **** }
 244              		.loc 1 42 1
 245 0130 83308100 		ld	ra,8(sp)
 246              		.cfi_remember_state
 247              		.cfi_restore 1
 248 0134 03340100 		ld	s0,0(sp)
 249              		.cfi_restore 8
 250              		.cfi_def_cfa 2, 16
 251 0138 13010101 		addi	sp,sp,16
 252              		.cfi_def_cfa_offset 0
 253 013c 67800000 		jr	ra
 254              	.L14:
 255              		.cfi_restore_state
  37:src/SCB.cpp   ****     }
 256              		.loc 1 37 17
 257 0140 1305E0FF 		li	a0,-2
 258 0144 6FF0DFFE 		j	.L13
 259              	.LVL22:
 260              	.L17:
 261              		.cfi_def_cfa_register 2
 262              		.cfi_restore 1
 263              		.cfi_restore 8
 264 0148 1305E0FF 		li	a0,-2
 265              	.LVL23:
 266              		.loc 1 42 1
 267 014c 67800000 		ret
 268              		.cfi_endproc
 269              	.LFE41:
 271              		.align	2
 272              		.globl	_ZN3SCB6signalEv
 274              	_ZN3SCB6signalEv:
 275              	.LFB42:
  43:src/SCB.cpp   **** 
  44:src/SCB.cpp   **** void SCB::signal() {
 276              		.loc 1 44 20 is_stmt 1
 277              		.cfi_startproc
 278              	.LVL24:
  45:src/SCB.cpp   ****     if((int)(++semValue)<=0) {
 279              		.loc 1 45 5
 280              		.loc 1 45 16 is_stmt 0
 281 0150 83270501 		lw	a5,16(a0)
 282              		.loc 1 45 14
 283 0154 9B871700 		addiw	a5,a5,1
 284 0158 1B870700 		sext.w	a4,a5
 285              		.loc 1 45 25
 286 015c 2328F500 		sw	a5,16(a0)
 287              		.loc 1 45 5
 288 0160 6354E000 		blez	a4,.L29
 289 0164 67800000 		ret
 290              	.L29:
GAS LISTING /tmp/ccFo0xxN.s 			page 8


  44:src/SCB.cpp   ****     if((int)(++semValue)<=0) {
 291              		.loc 1 44 20
 292 0168 130101FF 		addi	sp,sp,-16
 293              		.cfi_def_cfa_offset 16
 294 016c 23341100 		sd	ra,8(sp)
 295 0170 23308100 		sd	s0,0(sp)
 296              		.cfi_offset 1, -8
 297              		.cfi_offset 8, -16
 298 0174 13040101 		addi	s0,sp,16
 299              		.cfi_def_cfa 8, 0
  46:src/SCB.cpp   ****         Scheduler::put(unblock());
 300              		.loc 1 46 9 is_stmt 1
 301              		.loc 1 46 23 is_stmt 0
 302 0178 97000000 		call	_ZN3SCB7unblockEv
 302      E7800000 
 303              	.LVL25:
 304 0180 97000000 		call	_ZN9Scheduler3putEP3PCB@plt
 304      E7800000 
 305              	.LVL26:
  47:src/SCB.cpp   ****     }
  48:src/SCB.cpp   **** }
 306              		.loc 1 48 1
 307 0188 83308100 		ld	ra,8(sp)
 308              		.cfi_restore 1
 309 018c 03340100 		ld	s0,0(sp)
 310              		.cfi_restore 8
 311              		.cfi_def_cfa 2, 16
 312 0190 13010101 		addi	sp,sp,16
 313              		.cfi_def_cfa_offset 0
 314 0194 67800000 		jr	ra
 315              		.cfi_endproc
 316              	.LFE42:
 318              		.align	2
 319              		.globl	_ZN3SCBnwEm
 321              	_ZN3SCBnwEm:
 322              	.LFB43:
  49:src/SCB.cpp   **** 
  50:src/SCB.cpp   **** void *SCB::operator new(size_t size) {
 323              		.loc 1 50 38 is_stmt 1
 324              		.cfi_startproc
 325              	.LVL27:
 326 0198 130101FF 		addi	sp,sp,-16
 327              		.cfi_def_cfa_offset 16
 328 019c 23341100 		sd	ra,8(sp)
 329 01a0 23308100 		sd	s0,0(sp)
 330              		.cfi_offset 1, -8
 331              		.cfi_offset 8, -16
 332 01a4 13040101 		addi	s0,sp,16
 333              		.cfi_def_cfa 8, 0
  51:src/SCB.cpp   ****     return MemoryAllocator::mem_alloc(size);
 334              		.loc 1 51 5
 335              		.loc 1 51 38 is_stmt 0
 336 01a8 97000000 		call	_ZN15MemoryAllocator9mem_allocEm@plt
 336      E7800000 
 337              	.LVL28:
  52:src/SCB.cpp   **** }
 338              		.loc 1 52 1
GAS LISTING /tmp/ccFo0xxN.s 			page 9


 339 01b0 83308100 		ld	ra,8(sp)
 340              		.cfi_restore 1
 341 01b4 03340100 		ld	s0,0(sp)
 342              		.cfi_restore 8
 343              		.cfi_def_cfa 2, 16
 344 01b8 13010101 		addi	sp,sp,16
 345              		.cfi_def_cfa_offset 0
 346 01bc 67800000 		jr	ra
 347              		.cfi_endproc
 348              	.LFE43:
 350              		.align	2
 351              		.globl	_ZN3SCBdlEPv
 353              	_ZN3SCBdlEPv:
 354              	.LFB44:
  53:src/SCB.cpp   **** 
  54:src/SCB.cpp   **** void SCB::operator delete(void *memSegment) {
 355              		.loc 1 54 45 is_stmt 1
 356              		.cfi_startproc
 357              	.LVL29:
 358 01c0 130101FF 		addi	sp,sp,-16
 359              		.cfi_def_cfa_offset 16
 360 01c4 23341100 		sd	ra,8(sp)
 361 01c8 23308100 		sd	s0,0(sp)
 362              		.cfi_offset 1, -8
 363              		.cfi_offset 8, -16
 364 01cc 13040101 		addi	s0,sp,16
 365              		.cfi_def_cfa 8, 0
  55:src/SCB.cpp   ****     MemoryAllocator::mem_free(memSegment);
 366              		.loc 1 55 5
 367              		.loc 1 55 30 is_stmt 0
 368 01d0 97000000 		call	_ZN15MemoryAllocator8mem_freeEPv@plt
 368      E7800000 
 369              	.LVL30:
  56:src/SCB.cpp   **** }
 370              		.loc 1 56 1
 371 01d8 83308100 		ld	ra,8(sp)
 372              		.cfi_restore 1
 373 01dc 03340100 		ld	s0,0(sp)
 374              		.cfi_restore 8
 375              		.cfi_def_cfa 2, 16
 376 01e0 13010101 		addi	sp,sp,16
 377              		.cfi_def_cfa_offset 0
 378 01e4 67800000 		jr	ra
 379              		.cfi_endproc
 380              	.LFE44:
 382              		.align	2
 383              		.globl	_ZN3SCB13signalClosingEv
 385              	_ZN3SCB13signalClosingEv:
 386              	.LFB45:
  57:src/SCB.cpp   **** 
  58:src/SCB.cpp   **** void SCB::signalClosing() {
 387              		.loc 1 58 27 is_stmt 1
 388              		.cfi_startproc
 389              	.LVL31:
 390 01e8 130101FE 		addi	sp,sp,-32
 391              		.cfi_def_cfa_offset 32
 392 01ec 233C1100 		sd	ra,24(sp)
GAS LISTING /tmp/ccFo0xxN.s 			page 10


 393 01f0 23388100 		sd	s0,16(sp)
 394 01f4 23349100 		sd	s1,8(sp)
 395 01f8 23302101 		sd	s2,0(sp)
 396              		.cfi_offset 1, -8
 397              		.cfi_offset 8, -16
 398              		.cfi_offset 9, -24
 399              		.cfi_offset 18, -32
 400 01fc 13040102 		addi	s0,sp,32
 401              		.cfi_def_cfa 8, 0
 402 0200 13090500 		mv	s2,a0
  59:src/SCB.cpp   ****     PCB* curr = head;
 403              		.loc 1 59 5
 404              		.loc 1 59 10 is_stmt 0
 405 0204 03350500 		ld	a0,0(a0)
 406              	.LVL32:
 407              	.L36:
  60:src/SCB.cpp   ****     while(curr) {
 408              		.loc 1 60 5 is_stmt 1
 409              		.loc 1 60 11
 410 0208 63020502 		beqz	a0,.L35
 411              	.LBB37:
  61:src/SCB.cpp   ****         PCB* last = curr;
 412              		.loc 1 61 9
 413              	.LVL33:
  62:src/SCB.cpp   ****         curr->setSemDeleted(true);
 414              		.loc 1 62 9
 415              	.LBB38:
 416              	.LBB39:
  41:src/../h/PCB.h ****     }
  42:src/../h/PCB.h **** 
  43:src/../h/PCB.h ****     void setSemDeleted(bool newState) {
  44:src/../h/PCB.h ****         semDeleted = newState;
 417              		.loc 2 44 9
 418              		.loc 2 44 20 is_stmt 0
 419 020c 93071000 		li	a5,1
 420 0210 2305F502 		sb	a5,42(a0)
 421              	.LVL34:
 422              	.LBE39:
 423              	.LBE38:
  63:src/SCB.cpp   ****         curr->setBlocked(false);
 424              		.loc 1 63 9 is_stmt 1
 425              	.LBB40:
 426              	.LBB41:
  40:src/../h/PCB.h ****     }
 427              		.loc 2 40 9
  40:src/../h/PCB.h ****     }
 428              		.loc 2 40 17 is_stmt 0
 429 0214 A3040502 		sb	zero,41(a0)
 430              	.LVL35:
 431              	.LBE41:
 432              	.LBE40:
  64:src/SCB.cpp   ****         curr = curr->getNextInList();
 433              		.loc 1 64 9 is_stmt 1
 434              	.LBB42:
 435              	.LBB43:
  32:src/../h/PCB.h ****     }
 436              		.loc 2 32 9
GAS LISTING /tmp/ccFo0xxN.s 			page 11


  32:src/../h/PCB.h ****     }
 437              		.loc 2 32 16 is_stmt 0
 438 0218 83340500 		ld	s1,0(a0)
 439              	.LVL36:
 440              	.LBE43:
 441              	.LBE42:
  65:src/SCB.cpp   ****         Scheduler::put(last);
 442              		.loc 1 65 9 is_stmt 1
 443              		.loc 1 65 23 is_stmt 0
 444 021c 97000000 		call	_ZN9Scheduler3putEP3PCB@plt
 444      E7800000 
 445              	.LVL37:
  64:src/SCB.cpp   ****         curr = curr->getNextInList();
 446              		.loc 1 64 35
 447 0224 13850400 		mv	a0,s1
 448              	.LBE37:
  60:src/SCB.cpp   ****         PCB* last = curr;
 449              		.loc 1 60 5
 450 0228 6FF01FFE 		j	.L36
 451              	.LVL38:
 452              	.L35:
  66:src/SCB.cpp   ****     }
  67:src/SCB.cpp   ****     head = tail = nullptr;
 453              		.loc 1 67 5 is_stmt 1
 454              		.loc 1 67 17 is_stmt 0
 455 022c 23340900 		sd	zero,8(s2)
 456              		.loc 1 67 10
 457 0230 23300900 		sd	zero,0(s2)
  68:src/SCB.cpp   **** }
 458              		.loc 1 68 1
 459 0234 83308101 		ld	ra,24(sp)
 460              		.cfi_restore 1
 461 0238 03340101 		ld	s0,16(sp)
 462              		.cfi_restore 8
 463              		.cfi_def_cfa 2, 32
 464 023c 83348100 		ld	s1,8(sp)
 465              		.cfi_restore 9
 466 0240 03390100 		ld	s2,0(sp)
 467              		.cfi_restore 18
 468              	.LVL39:
 469 0244 13010102 		addi	sp,sp,32
 470              		.cfi_def_cfa_offset 0
 471 0248 67800000 		jr	ra
 472              		.cfi_endproc
 473              	.LFE45:
 475              	.Letext0:
 476              		.file 3 "src/../h/hw.h"
 477              		.file 4 "src/../h/Scheduler.h"
 478              		.file 5 "src/../h/SCB.h"
 479              		.file 6 "src/../h/MemoryAllocator.h"
GAS LISTING /tmp/ccFo0xxN.s 			page 12


DEFINED SYMBOLS
                            *ABS*:0000000000000000 SCB.cpp
     /tmp/ccFo0xxN.s:9      .text:0000000000000000 _ZN3SCB5blockEv
     /tmp/ccFo0xxN.s:13     .text:0000000000000000 .L0 
     /tmp/ccFo0xxN.s:15     .text:0000000000000000 .L0 
     /tmp/ccFo0xxN.s:16     .text:0000000000000004 .L0 
     /tmp/ccFo0xxN.s:18     .text:0000000000000008 .L0 
     /tmp/ccFo0xxN.s:20     .text:000000000000000c .L0 
     /tmp/ccFo0xxN.s:22     .text:000000000000000c .L0 
     /tmp/ccFo0xxN.s:23     .text:000000000000000c .L0 
     /tmp/ccFo0xxN.s:30     .text:0000000000000018 .L0 
     /tmp/ccFo0xxN.s:31     .text:0000000000000018 .L0 
     /tmp/ccFo0xxN.s:36     .text:000000000000001c .L0 
     /tmp/ccFo0xxN.s:37     .text:000000000000001c .L0 
     /tmp/ccFo0xxN.s:39     .text:0000000000000020 .L0 
     /tmp/ccFo0xxN.s:41     .text:0000000000000024 .L0 
     /tmp/ccFo0xxN.s:42     .text:0000000000000024 .L0 
     /tmp/ccFo0xxN.s:48     .text:0000000000000030 .L0 
     /tmp/ccFo0xxN.s:49     .text:0000000000000030 .L0 
     /tmp/ccFo0xxN.s:54     .text:0000000000000034 .L0 
     /tmp/ccFo0xxN.s:55     .text:0000000000000034 .L0 
     /tmp/ccFo0xxN.s:60     .text:0000000000000038 .L0 
     /tmp/ccFo0xxN.s:61     .text:0000000000000038 .L0 
     /tmp/ccFo0xxN.s:66     .text:000000000000003c .L0 
     /tmp/ccFo0xxN.s:69     .text:0000000000000040 .L0 
     /tmp/ccFo0xxN.s:70     .text:0000000000000040 .L0 
     /tmp/ccFo0xxN.s:76     .text:000000000000004c .L0 
     /tmp/ccFo0xxN.s:77     .text:000000000000004c .L0 
     /tmp/ccFo0xxN.s:83     .text:0000000000000054 .L0 
     /tmp/ccFo0xxN.s:84     .text:0000000000000058 .L0 
     /tmp/ccFo0xxN.s:85     .text:0000000000000058 .L0 
     /tmp/ccFo0xxN.s:86     .text:0000000000000058 .L0 
     /tmp/ccFo0xxN.s:88     .text:000000000000005c .L0 
     /tmp/ccFo0xxN.s:91     .text:0000000000000060 .L0 
     /tmp/ccFo0xxN.s:93     .text:0000000000000060 .L0 
     /tmp/ccFo0xxN.s:94     .text:0000000000000060 .L0 
     /tmp/ccFo0xxN.s:98     .text:0000000000000070 .L0 
     /tmp/ccFo0xxN.s:100    .text:0000000000000078 .L0 
     /tmp/ccFo0xxN.s:106    .text:0000000000000078 _ZN3SCB7unblockEv
     /tmp/ccFo0xxN.s:109    .text:0000000000000078 .L0 
     /tmp/ccFo0xxN.s:111    .text:0000000000000078 .L0 
     /tmp/ccFo0xxN.s:112    .text:000000000000007c .L0 
     /tmp/ccFo0xxN.s:114    .text:0000000000000080 .L0 
     /tmp/ccFo0xxN.s:116    .text:0000000000000084 .L0 
     /tmp/ccFo0xxN.s:119    .text:0000000000000088 .L0 
     /tmp/ccFo0xxN.s:120    .text:0000000000000088 .L0 
     /tmp/ccFo0xxN.s:123    .text:000000000000008c .L0 
     /tmp/ccFo0xxN.s:126    .text:0000000000000090 .L0 
     /tmp/ccFo0xxN.s:129    .text:0000000000000090 .L0 
     /tmp/ccFo0xxN.s:130    .text:0000000000000090 .L0 
     /tmp/ccFo0xxN.s:131    .text:0000000000000090 .L0 
     /tmp/ccFo0xxN.s:136    .text:0000000000000094 .L0 
     /tmp/ccFo0xxN.s:138    .text:0000000000000098 .L0 
     /tmp/ccFo0xxN.s:139    .text:0000000000000098 .L0 
     /tmp/ccFo0xxN.s:141    .text:000000000000009c .L0 
     /tmp/ccFo0xxN.s:147    .text:00000000000000a0 .L0 
     /tmp/ccFo0xxN.s:148    .text:00000000000000a0 .L0 
GAS LISTING /tmp/ccFo0xxN.s 			page 13


     /tmp/ccFo0xxN.s:149    .text:00000000000000a0 .L0 
     /tmp/ccFo0xxN.s:156    .text:00000000000000a4 .L0 
     /tmp/ccFo0xxN.s:157    .text:00000000000000a4 .L0 
     /tmp/ccFo0xxN.s:158    .text:00000000000000a4 .L0 
     /tmp/ccFo0xxN.s:164    .text:00000000000000a8 .L0 
     /tmp/ccFo0xxN.s:165    .text:00000000000000a8 .L0 
     /tmp/ccFo0xxN.s:166    .text:00000000000000ac .L0 
     /tmp/ccFo0xxN.s:167    .text:00000000000000ac .L0 
     /tmp/ccFo0xxN.s:168    .text:00000000000000ac .L0 
     /tmp/ccFo0xxN.s:170    .text:00000000000000b0 .L0 
     /tmp/ccFo0xxN.s:174    .text:00000000000000b4 .L0 
     /tmp/ccFo0xxN.s:176    .text:00000000000000b4 .L0 
     /tmp/ccFo0xxN.s:177    .text:00000000000000b4 .L0 
     /tmp/ccFo0xxN.s:179    .text:00000000000000bc .L0 
     /tmp/ccFo0xxN.s:185    .text:00000000000000bc _ZN3SCB4waitEv
     /tmp/ccFo0xxN.s:188    .text:00000000000000bc .L0 
     /tmp/ccFo0xxN.s:190    .text:00000000000000bc .L0 
     /tmp/ccFo0xxN.s:191    .text:00000000000000bc .L0 
     /tmp/ccFo0xxN.s:192    .text:00000000000000bc .L0 
     /tmp/ccFo0xxN.s:194    .text:00000000000000c0 .L0 
     /tmp/ccFo0xxN.s:196    .text:00000000000000c4 .L0 
     /tmp/ccFo0xxN.s:198    .text:00000000000000c8 .L0 
     /tmp/ccFo0xxN.s:201    .text:00000000000000d0 .L0 
     /tmp/ccFo0xxN.s:202    .text:00000000000000d0 .L0 
     /tmp/ccFo0xxN.s:206    .text:00000000000000e0 .L0 
     /tmp/ccFo0xxN.s:208    .text:00000000000000e4 .L0 
     /tmp/ccFo0xxN.s:214    .text:00000000000000ec .L0 
     /tmp/ccFo0xxN.s:215    .text:00000000000000f0 .L0 
     /tmp/ccFo0xxN.s:218    .text:00000000000000f8 .L0 
     /tmp/ccFo0xxN.s:219    .text:00000000000000f8 .L0 
     /tmp/ccFo0xxN.s:221    .text:00000000000000fc .L0 
     /tmp/ccFo0xxN.s:223    .text:00000000000000fc .L0 
     /tmp/ccFo0xxN.s:224    .text:00000000000000fc .L0 
     /tmp/ccFo0xxN.s:227    .text:0000000000000104 .L0 
     /tmp/ccFo0xxN.s:228    .text:0000000000000104 .L0 
     /tmp/ccFo0xxN.s:231    .text:0000000000000110 .L0 
     /tmp/ccFo0xxN.s:232    .text:0000000000000110 .L0 
     /tmp/ccFo0xxN.s:235    .text:0000000000000118 .L0 
     /tmp/ccFo0xxN.s:236    .text:0000000000000118 .L0 
     /tmp/ccFo0xxN.s:240    .text:0000000000000128 .L0 
     /tmp/ccFo0xxN.s:242    .text:000000000000012c .L0 
     /tmp/ccFo0xxN.s:245    .text:0000000000000130 .L0 
     /tmp/ccFo0xxN.s:246    .text:0000000000000134 .L0 
     /tmp/ccFo0xxN.s:247    .text:0000000000000134 .L0 
     /tmp/ccFo0xxN.s:249    .text:0000000000000138 .L0 
     /tmp/ccFo0xxN.s:250    .text:0000000000000138 .L0 
     /tmp/ccFo0xxN.s:252    .text:000000000000013c .L0 
     /tmp/ccFo0xxN.s:255    .text:0000000000000140 .L0 
     /tmp/ccFo0xxN.s:257    .text:0000000000000140 .L0 
     /tmp/ccFo0xxN.s:261    .text:0000000000000148 .L0 
     /tmp/ccFo0xxN.s:262    .text:0000000000000148 .L0 
     /tmp/ccFo0xxN.s:263    .text:0000000000000148 .L0 
     /tmp/ccFo0xxN.s:267    .text:000000000000014c .L0 
     /tmp/ccFo0xxN.s:268    .text:0000000000000150 .L0 
     /tmp/ccFo0xxN.s:274    .text:0000000000000150 _ZN3SCB6signalEv
     /tmp/ccFo0xxN.s:277    .text:0000000000000150 .L0 
     /tmp/ccFo0xxN.s:279    .text:0000000000000150 .L0 
GAS LISTING /tmp/ccFo0xxN.s 			page 14


     /tmp/ccFo0xxN.s:280    .text:0000000000000150 .L0 
     /tmp/ccFo0xxN.s:281    .text:0000000000000150 .L0 
     /tmp/ccFo0xxN.s:283    .text:0000000000000154 .L0 
     /tmp/ccFo0xxN.s:286    .text:000000000000015c .L0 
     /tmp/ccFo0xxN.s:288    .text:0000000000000160 .L0 
     /tmp/ccFo0xxN.s:292    .text:0000000000000168 .L0 
     /tmp/ccFo0xxN.s:293    .text:000000000000016c .L0 
     /tmp/ccFo0xxN.s:296    .text:0000000000000174 .L0 
     /tmp/ccFo0xxN.s:297    .text:0000000000000174 .L0 
     /tmp/ccFo0xxN.s:299    .text:0000000000000178 .L0 
     /tmp/ccFo0xxN.s:301    .text:0000000000000178 .L0 
     /tmp/ccFo0xxN.s:302    .text:0000000000000178 .L0 
     /tmp/ccFo0xxN.s:307    .text:0000000000000188 .L0 
     /tmp/ccFo0xxN.s:308    .text:000000000000018c .L0 
     /tmp/ccFo0xxN.s:310    .text:0000000000000190 .L0 
     /tmp/ccFo0xxN.s:311    .text:0000000000000190 .L0 
     /tmp/ccFo0xxN.s:313    .text:0000000000000194 .L0 
     /tmp/ccFo0xxN.s:315    .text:0000000000000198 .L0 
     /tmp/ccFo0xxN.s:321    .text:0000000000000198 _ZN3SCBnwEm
     /tmp/ccFo0xxN.s:324    .text:0000000000000198 .L0 
     /tmp/ccFo0xxN.s:326    .text:0000000000000198 .L0 
     /tmp/ccFo0xxN.s:327    .text:000000000000019c .L0 
     /tmp/ccFo0xxN.s:330    .text:00000000000001a4 .L0 
     /tmp/ccFo0xxN.s:331    .text:00000000000001a4 .L0 
     /tmp/ccFo0xxN.s:333    .text:00000000000001a8 .L0 
     /tmp/ccFo0xxN.s:335    .text:00000000000001a8 .L0 
     /tmp/ccFo0xxN.s:336    .text:00000000000001a8 .L0 
     /tmp/ccFo0xxN.s:339    .text:00000000000001b0 .L0 
     /tmp/ccFo0xxN.s:340    .text:00000000000001b4 .L0 
     /tmp/ccFo0xxN.s:342    .text:00000000000001b8 .L0 
     /tmp/ccFo0xxN.s:343    .text:00000000000001b8 .L0 
     /tmp/ccFo0xxN.s:345    .text:00000000000001bc .L0 
     /tmp/ccFo0xxN.s:347    .text:00000000000001c0 .L0 
     /tmp/ccFo0xxN.s:353    .text:00000000000001c0 _ZN3SCBdlEPv
     /tmp/ccFo0xxN.s:356    .text:00000000000001c0 .L0 
     /tmp/ccFo0xxN.s:358    .text:00000000000001c0 .L0 
     /tmp/ccFo0xxN.s:359    .text:00000000000001c4 .L0 
     /tmp/ccFo0xxN.s:362    .text:00000000000001cc .L0 
     /tmp/ccFo0xxN.s:363    .text:00000000000001cc .L0 
     /tmp/ccFo0xxN.s:365    .text:00000000000001d0 .L0 
     /tmp/ccFo0xxN.s:367    .text:00000000000001d0 .L0 
     /tmp/ccFo0xxN.s:368    .text:00000000000001d0 .L0 
     /tmp/ccFo0xxN.s:371    .text:00000000000001d8 .L0 
     /tmp/ccFo0xxN.s:372    .text:00000000000001dc .L0 
     /tmp/ccFo0xxN.s:374    .text:00000000000001e0 .L0 
     /tmp/ccFo0xxN.s:375    .text:00000000000001e0 .L0 
     /tmp/ccFo0xxN.s:377    .text:00000000000001e4 .L0 
     /tmp/ccFo0xxN.s:379    .text:00000000000001e8 .L0 
     /tmp/ccFo0xxN.s:385    .text:00000000000001e8 _ZN3SCB13signalClosingEv
     /tmp/ccFo0xxN.s:388    .text:00000000000001e8 .L0 
     /tmp/ccFo0xxN.s:390    .text:00000000000001e8 .L0 
     /tmp/ccFo0xxN.s:391    .text:00000000000001ec .L0 
     /tmp/ccFo0xxN.s:396    .text:00000000000001fc .L0 
     /tmp/ccFo0xxN.s:397    .text:00000000000001fc .L0 
     /tmp/ccFo0xxN.s:398    .text:00000000000001fc .L0 
     /tmp/ccFo0xxN.s:399    .text:00000000000001fc .L0 
     /tmp/ccFo0xxN.s:401    .text:0000000000000200 .L0 
GAS LISTING /tmp/ccFo0xxN.s 			page 15


     /tmp/ccFo0xxN.s:404    .text:0000000000000204 .L0 
     /tmp/ccFo0xxN.s:405    .text:0000000000000204 .L0 
     /tmp/ccFo0xxN.s:409    .text:0000000000000208 .L0 
     /tmp/ccFo0xxN.s:410    .text:0000000000000208 .L0 
     /tmp/ccFo0xxN.s:414    .text:000000000000020c .L0 
     /tmp/ccFo0xxN.s:417    .text:000000000000020c .L0 
     /tmp/ccFo0xxN.s:418    .text:000000000000020c .L0 
     /tmp/ccFo0xxN.s:419    .text:000000000000020c .L0 
     /tmp/ccFo0xxN.s:427    .text:0000000000000214 .L0 
     /tmp/ccFo0xxN.s:428    .text:0000000000000214 .L0 
     /tmp/ccFo0xxN.s:429    .text:0000000000000214 .L0 
     /tmp/ccFo0xxN.s:436    .text:0000000000000218 .L0 
     /tmp/ccFo0xxN.s:437    .text:0000000000000218 .L0 
     /tmp/ccFo0xxN.s:438    .text:0000000000000218 .L0 
     /tmp/ccFo0xxN.s:443    .text:000000000000021c .L0 
     /tmp/ccFo0xxN.s:444    .text:000000000000021c .L0 
     /tmp/ccFo0xxN.s:447    .text:0000000000000224 .L0 
     /tmp/ccFo0xxN.s:450    .text:0000000000000228 .L0 
     /tmp/ccFo0xxN.s:454    .text:000000000000022c .L0 
     /tmp/ccFo0xxN.s:455    .text:000000000000022c .L0 
     /tmp/ccFo0xxN.s:457    .text:0000000000000230 .L0 
     /tmp/ccFo0xxN.s:459    .text:0000000000000234 .L0 
     /tmp/ccFo0xxN.s:460    .text:0000000000000238 .L0 
     /tmp/ccFo0xxN.s:462    .text:000000000000023c .L0 
     /tmp/ccFo0xxN.s:463    .text:000000000000023c .L0 
     /tmp/ccFo0xxN.s:465    .text:0000000000000240 .L0 
     /tmp/ccFo0xxN.s:467    .text:0000000000000244 .L0 
     /tmp/ccFo0xxN.s:470    .text:0000000000000248 .L0 
     /tmp/ccFo0xxN.s:472    .text:000000000000024c .L0 
     /tmp/ccFo0xxN.s:480    .text:000000000000024c .L0 
     /tmp/ccFo0xxN.s:23     .text:000000000000000c .L0 
     /tmp/ccFo0xxN.s:42     .text:0000000000000024 .L0 
     /tmp/ccFo0xxN.s:70     .text:0000000000000040 .L0 
     /tmp/ccFo0xxN.s:94     .text:0000000000000060 .L0 
     /tmp/ccFo0xxN.s:202    .text:00000000000000d0 .L0 
     /tmp/ccFo0xxN.s:228    .text:0000000000000104 .L0 
     /tmp/ccFo0xxN.s:236    .text:0000000000000118 .L0 
     /tmp/ccFo0xxN.s:90     .text:0000000000000060 .L5
     /tmp/ccFo0xxN.s:67     .text:0000000000000040 .L3
     /tmp/ccFo0xxN.s:163    .text:00000000000000a8 .L6
     /tmp/ccFo0xxN.s:173    .text:00000000000000b4 .L10
     /tmp/ccFo0xxN.s:142    .text:00000000000000a0 .L8
     /tmp/ccFo0xxN.s:212    .text:00000000000000ec .L22
     /tmp/ccFo0xxN.s:260    .text:0000000000000148 .L17
     /tmp/ccFo0xxN.s:254    .text:0000000000000140 .L14
     /tmp/ccFo0xxN.s:243    .text:0000000000000130 .L13
     /tmp/ccFo0xxN.s:290    .text:0000000000000168 .L29
     /tmp/ccFo0xxN.s:452    .text:000000000000022c .L35
     /tmp/ccFo0xxN.s:407    .text:0000000000000208 .L36
     /tmp/ccFo0xxN.s:1722   .debug_abbrev:0000000000000000 .Ldebug_abbrev0
     /tmp/ccFo0xxN.s:3155   .debug_str:00000000000005f2 .LASF115
     /tmp/ccFo0xxN.s:3125   .debug_str:000000000000052e .LASF116
     /tmp/ccFo0xxN.s:3127   .debug_str:000000000000053a .LASF117
     /tmp/ccFo0xxN.s:5      .text:0000000000000000 .Ltext0
     /tmp/ccFo0xxN.s:475    .text:000000000000024c .Letext0
     /tmp/ccFo0xxN.s:2961   .debug_line:0000000000000000 .Ldebug_line0
     /tmp/ccFo0xxN.s:3033   .debug_str:0000000000000208 .LASF0
GAS LISTING /tmp/ccFo0xxN.s 			page 16


     /tmp/ccFo0xxN.s:3055   .debug_str:00000000000002cf .LASF1
     /tmp/ccFo0xxN.s:3111   .debug_str:00000000000004af .LASF2
     /tmp/ccFo0xxN.s:3117   .debug_str:00000000000004d0 .LASF4
     /tmp/ccFo0xxN.s:3041   .debug_str:0000000000000240 .LASF3
     /tmp/ccFo0xxN.s:2971   .debug_str:000000000000002a .LASF5
     /tmp/ccFo0xxN.s:3095   .debug_str:000000000000041b .LASF6
     /tmp/ccFo0xxN.s:3049   .debug_str:00000000000002ad .LASF7
     /tmp/ccFo0xxN.s:3019   .debug_str:00000000000001aa .LASF8
     /tmp/ccFo0xxN.s:3023   .debug_str:00000000000001d2 .LASF9
     /tmp/ccFo0xxN.s:2989   .debug_str:00000000000000d3 .LASF10
     /tmp/ccFo0xxN.s:3013   .debug_str:000000000000018c .LASF11
     /tmp/ccFo0xxN.s:2993   .debug_str:00000000000000e7 .LASF12
     /tmp/ccFo0xxN.s:2987   .debug_str:00000000000000c3 .LASF13
     /tmp/ccFo0xxN.s:3137   .debug_str:0000000000000588 .LASF14
     /tmp/ccFo0xxN.s:3007   .debug_str:000000000000015a .LASF15
     /tmp/ccFo0xxN.s:3133   .debug_str:000000000000056d .LASF16
     /tmp/ccFo0xxN.s:3145   .debug_str:00000000000005b8 .LASF17
     /tmp/ccFo0xxN.s:3181   .debug_str:000000000000077e .LASF19
     /tmp/ccFo0xxN.s:3003   .debug_str:000000000000012e .LASF18
     /tmp/ccFo0xxN.s:3165   .debug_str:00000000000006e8 .LASF20
     /tmp/ccFo0xxN.s:3143   .debug_str:00000000000005a8 .LASF21
     /tmp/ccFo0xxN.s:3043   .debug_str:0000000000000252 .LASF22
     /tmp/ccFo0xxN.s:3011   .debug_str:000000000000017c .LASF25
     /tmp/ccFo0xxN.s:3211   .debug_str:0000000000000881 .LASF27
     /tmp/ccFo0xxN.s:3025   .debug_str:00000000000001e0 .LASF23
     /tmp/ccFo0xxN.s:3059   .debug_str:00000000000002e8 .LASF24
     /tmp/ccFo0xxN.s:3077   .debug_str:000000000000036b .LASF26
     /tmp/ccFo0xxN.s:3209   .debug_str:0000000000000866 .LASF28
     /tmp/ccFo0xxN.s:3147   .debug_str:00000000000005c3 .LASF29
     /tmp/ccFo0xxN.s:3195   .debug_str:00000000000007fd .LASF30
     /tmp/ccFo0xxN.s:3169   .debug_str:0000000000000728 .LASF31
     /tmp/ccFo0xxN.s:3157   .debug_str:00000000000006b6 .LASF32
     /tmp/ccFo0xxN.s:3205   .debug_str:0000000000000845 .LASF33
     /tmp/ccFo0xxN.s:2973   .debug_str:0000000000000031 .LASF34
     /tmp/ccFo0xxN.s:3129   .debug_str:0000000000000558 .LASF118
     /tmp/ccFo0xxN.s:3057   .debug_str:00000000000002e2 .LASF119
     /tmp/ccFo0xxN.s:3061   .debug_str:0000000000000302 .LASF120
     /tmp/ccFo0xxN.s:3153   .debug_str:00000000000005ea .LASF66
     /tmp/ccFo0xxN.s:3053   .debug_str:00000000000002ca .LASF35
     /tmp/ccFo0xxN.s:3199   .debug_str:0000000000000827 .LASF36
     /tmp/ccFo0xxN.s:3203   .debug_str:0000000000000838 .LASF37
     /tmp/ccFo0xxN.s:3009   .debug_str:0000000000000170 .LASF38
     /tmp/ccFo0xxN.s:2965   .debug_str:0000000000000007 .LASF39
     /tmp/ccFo0xxN.s:3039   .debug_str:0000000000000233 .LASF78
     /tmp/ccFo0xxN.s:3027   .debug_str:00000000000001ee .LASF70
     /tmp/ccFo0xxN.s:2981   .debug_str:0000000000000095 .LASF121
     /tmp/ccFo0xxN.s:2995   .debug_str:00000000000000f7 .LASF68
     /tmp/ccFo0xxN.s:2969   .debug_str:000000000000001f .LASF40
     /tmp/ccFo0xxN.s:3073   .debug_str:0000000000000356 .LASF41
     /tmp/ccFo0xxN.s:3177   .debug_str:0000000000000766 .LASF42
     /tmp/ccFo0xxN.s:3051   .debug_str:00000000000002c0 .LASF43
     /tmp/ccFo0xxN.s:3201   .debug_str:0000000000000833 .LASF44
     /tmp/ccFo0xxN.s:3131   .debug_str:0000000000000564 .LASF45
     /tmp/ccFo0xxN.s:3087   .debug_str:00000000000003ed .LASF46
     /tmp/ccFo0xxN.s:3067   .debug_str:0000000000000321 .LASF47
     /tmp/ccFo0xxN.s:3185   .debug_str:00000000000007a3 .LASF48
     /tmp/ccFo0xxN.s:3001   .debug_str:0000000000000120 .LASF49
GAS LISTING /tmp/ccFo0xxN.s 			page 17


     /tmp/ccFo0xxN.s:3161   .debug_str:00000000000006d4 .LASF50
     /tmp/ccFo0xxN.s:3123   .debug_str:000000000000051d .LASF62
     /tmp/ccFo0xxN.s:2999   .debug_str:0000000000000117 .LASF56
     /tmp/ccFo0xxN.s:2977   .debug_str:0000000000000069 .LASF58
     /tmp/ccFo0xxN.s:3035   .debug_str:0000000000000215 .LASF51
     /tmp/ccFo0xxN.s:3173   .debug_str:000000000000073f .LASF53
     /tmp/ccFo0xxN.s:3037   .debug_str:0000000000000224 .LASF52
     /tmp/ccFo0xxN.s:3119   .debug_str:00000000000004d7 .LASF54
     /tmp/ccFo0xxN.s:3063   .debug_str:0000000000000312 .LASF55
     /tmp/ccFo0xxN.s:3103   .debug_str:0000000000000456 .LASF57
     /tmp/ccFo0xxN.s:3187   .debug_str:00000000000007b0 .LASF59
     /tmp/ccFo0xxN.s:3071   .debug_str:0000000000000351 .LASF60
     /tmp/ccFo0xxN.s:3017   .debug_str:00000000000001a0 .LASF61
     /tmp/ccFo0xxN.s:3135   .debug_str:0000000000000583 .LASF63
     /tmp/ccFo0xxN.s:3085   .debug_str:00000000000003e8 .LASF64
     /tmp/ccFo0xxN.s:3193   .debug_str:00000000000007eb .LASF65
     /tmp/ccFo0xxN.s:3099   .debug_str:000000000000043e .LASF67
     /tmp/ccFo0xxN.s:2975   .debug_str:0000000000000051 .LASF69
     /tmp/ccFo0xxN.s:3197   .debug_str:0000000000000813 .LASF122
     /tmp/ccFo0xxN.s:2985   .debug_str:00000000000000b7 .LASF71
     /tmp/ccFo0xxN.s:3021   .debug_str:00000000000001ba .LASF72
     /tmp/ccFo0xxN.s:3159   .debug_str:00000000000006cf .LASF73
     /tmp/ccFo0xxN.s:3179   .debug_str:000000000000076f .LASF74
     /tmp/ccFo0xxN.s:3141   .debug_str:00000000000005a1 .LASF75
     /tmp/ccFo0xxN.s:3047   .debug_str:000000000000029c .LASF76
     /tmp/ccFo0xxN.s:3149   .debug_str:00000000000005ce .LASF77
     /tmp/ccFo0xxN.s:3139   .debug_str:0000000000000594 .LASF79
     /tmp/ccFo0xxN.s:3109   .debug_str:000000000000049f .LASF80
     /tmp/ccFo0xxN.s:3191   .debug_str:00000000000007d0 .LASF81
     /tmp/ccFo0xxN.s:3115   .debug_str:00000000000004c2 .LASF82
     /tmp/ccFo0xxN.s:3005   .debug_str:0000000000000141 .LASF83
     /tmp/ccFo0xxN.s:3101   .debug_str:000000000000044a .LASF84
     /tmp/ccFo0xxN.s:3031   .debug_str:0000000000000202 .LASF85
     /tmp/ccFo0xxN.s:3097   .debug_str:000000000000042e .LASF86
     /tmp/ccFo0xxN.s:2967   .debug_str:0000000000000017 .LASF87
     /tmp/ccFo0xxN.s:3207   .debug_str:0000000000000854 .LASF88
     /tmp/ccFo0xxN.s:3029   .debug_str:00000000000001f9 .LASF89
     /tmp/ccFo0xxN.s:3093   .debug_str:000000000000040b .LASF90
     /tmp/ccFo0xxN.s:2983   .debug_str:00000000000000ab .LASF123
     /tmp/ccFo0xxN.s:3175   .debug_str:000000000000075d .LASF91
     /tmp/ccFo0xxN.s:3189   .debug_str:00000000000007cb .LASF92
     /tmp/ccFo0xxN.s:2991   .debug_str:00000000000000e2 .LASF93
     /tmp/ccFo0xxN.s:2963   .debug_str:0000000000000000 .LASF94
     /tmp/ccFo0xxN.s:3107   .debug_str:0000000000000471 .LASF95
     /tmp/ccFo0xxN.s:3045   .debug_str:000000000000026e .LASF124
     /tmp/ccFo0xxN.s:3163   .debug_str:00000000000006de .LASF96
     /tmp/ccFo0xxN.s:3167   .debug_str:0000000000000707 .LASF97
     /tmp/ccFo0xxN.s:3171   .debug_str:0000000000000736 .LASF98
     /tmp/ccFo0xxN.s:3079   .debug_str:0000000000000379 .LASF99
     /tmp/ccFo0xxN.s:2997   .debug_str:000000000000010a .LASF100
     /tmp/ccFo0xxN.s:3083   .debug_str:00000000000003c3 .LASF101
     /tmp/ccFo0xxN.s:3091   .debug_str:00000000000003fe .LASF102
     /tmp/ccFo0xxN.s:3069   .debug_str:000000000000032c .LASF103
     /tmp/ccFo0xxN.s:2979   .debug_str:000000000000007c .LASF104
     /tmp/ccFo0xxN.s:3183   .debug_str:0000000000000795 .LASF105
     /tmp/ccFo0xxN.s:3151   .debug_str:00000000000005da .LASF106
     /tmp/ccFo0xxN.s:3081   .debug_str:000000000000039a .LASF107
GAS LISTING /tmp/ccFo0xxN.s 			page 18


     /tmp/ccFo0xxN.s:3075   .debug_str:000000000000035c .LASF108
     /tmp/ccFo0xxN.s:3121   .debug_str:00000000000004f5 .LASF109
     /tmp/ccFo0xxN.s:386    .text:00000000000001e8 .LFB45
     /tmp/ccFo0xxN.s:473    .text:000000000000024c .LFE45
     /tmp/ccFo0xxN.s:3015   .debug_str:000000000000019b .LASF113
     /tmp/ccFo0xxN.s:2683   .debug_loc:0000000000000000 .LLST18
     /tmp/ccFo0xxN.s:3113   .debug_str:00000000000004bd .LASF110
     /tmp/ccFo0xxN.s:2701   .debug_loc:000000000000004c .LLST19
     /tmp/ccFo0xxN.s:411    .text:000000000000020c .LBB37
     /tmp/ccFo0xxN.s:448    .text:0000000000000228 .LBE37
     /tmp/ccFo0xxN.s:3065   .debug_str:000000000000031c .LASF111
     /tmp/ccFo0xxN.s:2716   .debug_loc:0000000000000095 .LLST20
     /tmp/ccFo0xxN.s:415    .text:000000000000020c .LBB38
     /tmp/ccFo0xxN.s:423    .text:0000000000000214 .LBE38
     /tmp/ccFo0xxN.s:2723   .debug_loc:00000000000000b8 .LLST21
     /tmp/ccFo0xxN.s:2731   .debug_loc:00000000000000dc .LLST22
     /tmp/ccFo0xxN.s:425    .text:0000000000000214 .LBB40
     /tmp/ccFo0xxN.s:432    .text:0000000000000218 .LBE40
     /tmp/ccFo0xxN.s:2738   .debug_loc:00000000000000ff .LLST23
     /tmp/ccFo0xxN.s:2746   .debug_loc:0000000000000123 .LLST24
     /tmp/ccFo0xxN.s:434    .text:0000000000000218 .LBB42
     /tmp/ccFo0xxN.s:441    .text:000000000000021c .LBE42
     /tmp/ccFo0xxN.s:2753   .debug_loc:0000000000000146 .LLST25
     /tmp/ccFo0xxN.s:445    .text:0000000000000224 .LVL37
     /tmp/ccFo0xxN.s:354    .text:00000000000001c0 .LFB44
     /tmp/ccFo0xxN.s:380    .text:00000000000001e8 .LFE44
     /tmp/ccFo0xxN.s:3105   .debug_str:0000000000000466 .LASF112
     /tmp/ccFo0xxN.s:2760   .debug_loc:0000000000000169 .LLST17
     /tmp/ccFo0xxN.s:369    .text:00000000000001d8 .LVL30
     /tmp/ccFo0xxN.s:322    .text:0000000000000198 .LFB43
     /tmp/ccFo0xxN.s:348    .text:00000000000001c0 .LFE43
     /tmp/ccFo0xxN.s:2774   .debug_loc:00000000000001a2 .LLST16
     /tmp/ccFo0xxN.s:337    .text:00000000000001b0 .LVL28
     /tmp/ccFo0xxN.s:275    .text:0000000000000150 .LFB42
     /tmp/ccFo0xxN.s:316    .text:0000000000000198 .LFE42
     /tmp/ccFo0xxN.s:2788   .debug_loc:00000000000001db .LLST15
     /tmp/ccFo0xxN.s:303    .text:0000000000000180 .LVL25
     /tmp/ccFo0xxN.s:305    .text:0000000000000188 .LVL26
     /tmp/ccFo0xxN.s:186    .text:00000000000000bc .LFB41
     /tmp/ccFo0xxN.s:269    .text:0000000000000150 .LFE41
     /tmp/ccFo0xxN.s:2802   .debug_loc:0000000000000214 .LLST14
     /tmp/ccFo0xxN.s:225    .text:0000000000000104 .LVL20
     /tmp/ccFo0xxN.s:233    .text:0000000000000118 .LVL21
     /tmp/ccFo0xxN.s:107    .text:0000000000000078 .LFB40
     /tmp/ccFo0xxN.s:180    .text:00000000000000bc .LFE40
     /tmp/ccFo0xxN.s:2838   .debug_loc:000000000000029f .LLST7
     /tmp/ccFo0xxN.s:2849   .debug_loc:00000000000002d5 .LLST8
     /tmp/ccFo0xxN.s:127    .text:0000000000000090 .LBB31
     /tmp/ccFo0xxN.s:134    .text:0000000000000094 .LBE31
     /tmp/ccFo0xxN.s:2860   .debug_loc:000000000000030b .LLST9
     /tmp/ccFo0xxN.s:145    .text:00000000000000a0 .LBB33
     /tmp/ccFo0xxN.s:152    .text:00000000000000a4 .LBE33
     /tmp/ccFo0xxN.s:2867   .debug_loc:000000000000032e .LLST10
     /tmp/ccFo0xxN.s:2875   .debug_loc:0000000000000352 .LLST11
     /tmp/ccFo0xxN.s:154    .text:00000000000000a4 .LBB35
     /tmp/ccFo0xxN.s:161    .text:00000000000000a8 .LBE35
     /tmp/ccFo0xxN.s:2882   .debug_loc:0000000000000375 .LLST12
GAS LISTING /tmp/ccFo0xxN.s 			page 19


     /tmp/ccFo0xxN.s:2890   .debug_loc:0000000000000399 .LLST13
     /tmp/ccFo0xxN.s:10     .text:0000000000000000 .LFB39
     /tmp/ccFo0xxN.s:101    .text:0000000000000078 .LFE39
     /tmp/ccFo0xxN.s:26     .text:0000000000000018 .LBB23
     /tmp/ccFo0xxN.s:34     .text:000000000000001c .LBE23
     /tmp/ccFo0xxN.s:2897   .debug_loc:00000000000003bc .LLST0
     /tmp/ccFo0xxN.s:2905   .debug_loc:00000000000003e0 .LLST1
     /tmp/ccFo0xxN.s:45     .text:0000000000000030 .LBB25
     /tmp/ccFo0xxN.s:52     .text:0000000000000034 .LBE25
     /tmp/ccFo0xxN.s:2912   .debug_loc:0000000000000403 .LLST2
     /tmp/ccFo0xxN.s:2919   .debug_loc:0000000000000426 .LLST3
     /tmp/ccFo0xxN.s:57     .text:0000000000000038 .LBB27
     /tmp/ccFo0xxN.s:64     .text:000000000000003c .LBE27
     /tmp/ccFo0xxN.s:2926   .debug_loc:0000000000000449 .LLST4
     /tmp/ccFo0xxN.s:73     .text:000000000000004c .LBB29
     /tmp/ccFo0xxN.s:81     .text:0000000000000054 .LBE29
     /tmp/ccFo0xxN.s:2933   .debug_loc:000000000000046c .LLST5
     /tmp/ccFo0xxN.s:2941   .debug_loc:0000000000000490 .LLST6
     /tmp/ccFo0xxN.s:3089   .debug_str:00000000000003f5 .LASF114
     /tmp/ccFo0xxN.s:389    .text:00000000000001e8 .LVL31
     /tmp/ccFo0xxN.s:406    .text:0000000000000208 .LVL32
     /tmp/ccFo0xxN.s:468    .text:0000000000000244 .LVL39
     /tmp/ccFo0xxN.s:439    .text:000000000000021c .LVL36
     /tmp/ccFo0xxN.s:451    .text:000000000000022c .LVL38
     /tmp/ccFo0xxN.s:413    .text:000000000000020c .LVL33
     /tmp/ccFo0xxN.s:421    .text:0000000000000214 .LVL34
     /tmp/ccFo0xxN.s:430    .text:0000000000000218 .LVL35
     /tmp/ccFo0xxN.s:357    .text:00000000000001c0 .LVL29
     /tmp/ccFo0xxN.s:325    .text:0000000000000198 .LVL27
     /tmp/ccFo0xxN.s:278    .text:0000000000000150 .LVL24
     /tmp/ccFo0xxN.s:189    .text:00000000000000bc .LVL17
     /tmp/ccFo0xxN.s:209    .text:00000000000000e8 .LVL18
     /tmp/ccFo0xxN.s:211    .text:00000000000000ec .LVL19
     /tmp/ccFo0xxN.s:259    .text:0000000000000148 .LVL22
     /tmp/ccFo0xxN.s:265    .text:000000000000014c .LVL23
     /tmp/ccFo0xxN.s:110    .text:0000000000000078 .LVL9
     /tmp/ccFo0xxN.s:121    .text:000000000000008c .LVL10
     /tmp/ccFo0xxN.s:125    .text:0000000000000090 .LVL11
     /tmp/ccFo0xxN.s:159    .text:00000000000000a8 .LVL15
     /tmp/ccFo0xxN.s:172    .text:00000000000000b4 .LVL16
     /tmp/ccFo0xxN.s:132    .text:0000000000000094 .LVL12
     /tmp/ccFo0xxN.s:144    .text:00000000000000a0 .LVL13
     /tmp/ccFo0xxN.s:150    .text:00000000000000a4 .LVL14
     /tmp/ccFo0xxN.s:25     .text:0000000000000018 .LVL1
     /tmp/ccFo0xxN.s:32     .text:000000000000001c .LVL2
     /tmp/ccFo0xxN.s:44     .text:0000000000000030 .LVL3
     /tmp/ccFo0xxN.s:50     .text:0000000000000034 .LVL4
     /tmp/ccFo0xxN.s:56     .text:0000000000000038 .LVL5
     /tmp/ccFo0xxN.s:62     .text:000000000000003c .LVL6
     /tmp/ccFo0xxN.s:72     .text:000000000000004c .LVL7
     /tmp/ccFo0xxN.s:79     .text:0000000000000054 .LVL8
     /tmp/ccFo0xxN.s:481    .debug_info:0000000000000000 .Ldebug_info0

UNDEFINED SYMBOLS
_ZN3PCB7runningE
_ZN3PCB16timeSliceCounterE
_ZN3PCB8dispatchEv
GAS LISTING /tmp/ccFo0xxN.s 			page 20


_ZN9Scheduler3putEP3PCB
_ZN15MemoryAllocator9mem_allocEm
_ZN15MemoryAllocator8mem_freeEPv
