GAS LISTING /tmp/ccG1i9NV.s 			page 1


   1              		.file	"Scheduler.cpp"
   2              		.option pic
   3              		.option norelax
   4              		.text
   5              	.Ltext0:
   6              		.align	2
   7              		.globl	_ZN9Scheduler3putEP3PCB
   9              	_ZN9Scheduler3putEP3PCB:
  10              	.LFB2:
  11              		.file 1 "src/Scheduler.cpp"
   1:src/Scheduler.cpp **** #include "../h/Scheduler.h"
   2:src/Scheduler.cpp **** 
   3:src/Scheduler.cpp **** PCB* Scheduler::idleProcess = nullptr; // TODO: napraviti idleProcess koji uposleno ceka da se pokr
   4:src/Scheduler.cpp **** PCB* Scheduler::head = nullptr;
   5:src/Scheduler.cpp **** PCB* Scheduler::tail = nullptr;
   6:src/Scheduler.cpp **** 
   7:src/Scheduler.cpp **** void Scheduler::put(PCB *process) {
  12              		.loc 1 7 35
  13              		.cfi_startproc
  14              	.LVL0:
  15 0000 130101FF 		addi	sp,sp,-16
  16              		.cfi_def_cfa_offset 16
  17 0004 23348100 		sd	s0,8(sp)
  18              		.cfi_offset 8, -8
  19 0008 13040101 		addi	s0,sp,16
  20              		.cfi_def_cfa 8, 0
   8:src/Scheduler.cpp ****     if(!process) return;
  21              		.loc 1 8 5
  22 000c 63060502 		beqz	a0,.L1
   9:src/Scheduler.cpp ****     process->nextInList = nullptr;
  23              		.loc 1 9 5
  24              		.loc 1 9 25 is_stmt 0
  25 0010 23300500 		sd	zero,0(a0)
  10:src/Scheduler.cpp ****     if(tail == nullptr) { // ako ne postoji kraj liste nece postojati ni pocetak
  26              		.loc 1 10 5 is_stmt 1
  27              		.loc 1 10 13 is_stmt 0
  28 0014 97070000 		ld	a5,.LANCHOR0
  28      83B70700 
  29              		.loc 1 10 5
  30 001c 63840702 		beqz	a5,.L5
  11:src/Scheduler.cpp ****         head = tail = process;
  12:src/Scheduler.cpp ****     }
  13:src/Scheduler.cpp ****     else {
  14:src/Scheduler.cpp ****         tail->nextInList = process;
  31              		.loc 1 14 9 is_stmt 1
  32              		.loc 1 14 26 is_stmt 0
  33 0020 23B0A700 		sd	a0,0(a5)
  15:src/Scheduler.cpp ****         tail = tail->nextInList;
  34              		.loc 1 15 9 is_stmt 1
  35              		.loc 1 15 22 is_stmt 0
  36 0024 97070000 		lla	a5,.LANCHOR0
  36      93870700 
  37 002c 03B70700 		ld	a4,0(a5)
  38 0030 03370700 		ld	a4,0(a4)
  39              		.loc 1 15 14
  40 0034 23B0E700 		sd	a4,0(a5)
  41              	.L1:
GAS LISTING /tmp/ccG1i9NV.s 			page 2


  16:src/Scheduler.cpp ****     }
  17:src/Scheduler.cpp **** }
  42              		.loc 1 17 1
  43 0038 03348100 		ld	s0,8(sp)
  44              		.cfi_remember_state
  45              		.cfi_restore 8
  46              		.cfi_def_cfa 2, 16
  47 003c 13010101 		addi	sp,sp,16
  48              		.cfi_def_cfa_offset 0
  49 0040 67800000 		jr	ra
  50              	.L5:
  51              		.cfi_restore_state
  11:src/Scheduler.cpp ****     }
  52              		.loc 1 11 9 is_stmt 1
  11:src/Scheduler.cpp ****     }
  53              		.loc 1 11 21 is_stmt 0
  54 0044 97070000 		lla	a5,.LANCHOR0
  54      93870700 
  55 004c 23B0A700 		sd	a0,0(a5)
  11:src/Scheduler.cpp ****     }
  56              		.loc 1 11 14
  57 0050 23B4A700 		sd	a0,8(a5)
  58 0054 6FF05FFE 		j	.L1
  59              		.cfi_endproc
  60              	.LFE2:
  62              		.align	2
  63              		.globl	_ZN9Scheduler3getEv
  65              	_ZN9Scheduler3getEv:
  66              	.LFB3:
  18:src/Scheduler.cpp **** 
  19:src/Scheduler.cpp **** PCB *Scheduler::get() {
  67              		.loc 1 19 23 is_stmt 1
  68              		.cfi_startproc
  69 0058 130101FF 		addi	sp,sp,-16
  70              		.cfi_def_cfa_offset 16
  71 005c 23348100 		sd	s0,8(sp)
  72              		.cfi_offset 8, -8
  73 0060 13040101 		addi	s0,sp,16
  74              		.cfi_def_cfa 8, 0
  20:src/Scheduler.cpp ****     if(head == nullptr) {
  75              		.loc 1 20 5
  76              		.loc 1 20 13 is_stmt 0
  77 0064 17050000 		ld	a0,.LANCHOR0+8
  77      03350500 
  78              		.loc 1 20 5
  79 006c 63040502 		beqz	a0,.L10
  21:src/Scheduler.cpp ****         return idleProcess;
  22:src/Scheduler.cpp ****     }
  23:src/Scheduler.cpp ****     PCB* curr = head;
  80              		.loc 1 23 5 is_stmt 1
  81              	.LVL1:
  24:src/Scheduler.cpp ****     head = head->nextInList;
  82              		.loc 1 24 5
  83              		.loc 1 24 18 is_stmt 0
  84 0070 03370500 		ld	a4,0(a0)
  85              		.loc 1 24 10
  86 0074 97070000 		lla	a5,.LANCHOR0
GAS LISTING /tmp/ccG1i9NV.s 			page 3


  86      93870700 
  87 007c 23B4E700 		sd	a4,8(a5)
  25:src/Scheduler.cpp ****     if(tail == curr) {
  88              		.loc 1 25 5 is_stmt 1
  89              		.loc 1 25 13 is_stmt 0
  90 0080 83B70700 		ld	a5,0(a5)
  91              		.loc 1 25 5
  92 0084 630EF500 		beq	a0,a5,.L11
  93              	.LVL2:
  94              	.L6:
  26:src/Scheduler.cpp ****         tail = head;
  27:src/Scheduler.cpp ****     }
  28:src/Scheduler.cpp ****     return curr;
  29:src/Scheduler.cpp **** }
  95              		.loc 1 29 1
  96 0088 03348100 		ld	s0,8(sp)
  97              		.cfi_remember_state
  98              		.cfi_restore 8
  99              		.cfi_def_cfa 2, 16
 100 008c 13010101 		addi	sp,sp,16
 101              		.cfi_def_cfa_offset 0
 102 0090 67800000 		jr	ra
 103              	.L10:
 104              		.cfi_restore_state
  21:src/Scheduler.cpp ****     }
 105              		.loc 1 21 9 is_stmt 1
  21:src/Scheduler.cpp ****     }
 106              		.loc 1 21 16 is_stmt 0
 107 0094 17050000 		ld	a0,.LANCHOR0+16
 107      03350500 
 108 009c 6FF0DFFE 		j	.L6
 109              	.LVL3:
 110              	.L11:
  26:src/Scheduler.cpp ****         tail = head;
 111              		.loc 1 26 9 is_stmt 1
  26:src/Scheduler.cpp ****         tail = head;
 112              		.loc 1 26 14 is_stmt 0
 113 00a0 97070000 		sd	a4,.LANCHOR0,a5
 113      23B0E700 
 114 00a8 6FF01FFE 		j	.L6
 115              		.cfi_endproc
 116              	.LFE3:
 118              		.globl	_ZN9Scheduler4tailE
 119              		.globl	_ZN9Scheduler4headE
 120              		.globl	_ZN9Scheduler11idleProcessE
 121              		.bss
 122              		.align	3
 123              		.set	.LANCHOR0,. + 0
 126              	_ZN9Scheduler4tailE:
 127 0000 00000000 		.zero	8
 127      00000000 
 130              	_ZN9Scheduler4headE:
 131 0008 00000000 		.zero	8
 131      00000000 
 134              	_ZN9Scheduler11idleProcessE:
 135 0010 00000000 		.zero	8
 135      00000000 
GAS LISTING /tmp/ccG1i9NV.s 			page 4


 136              		.text
 137              	.Letext0:
 138              		.file 2 "src/../h/hw.h"
 139              		.file 3 "src/../h/PCB.h"
 140              		.file 4 "src/../h/Scheduler.h"
GAS LISTING /tmp/ccG1i9NV.s 			page 5


DEFINED SYMBOLS
                            *ABS*:0000000000000000 Scheduler.cpp
     /tmp/ccG1i9NV.s:9      .text:0000000000000000 _ZN9Scheduler3putEP3PCB
     /tmp/ccG1i9NV.s:13     .text:0000000000000000 .L0 
     /tmp/ccG1i9NV.s:15     .text:0000000000000000 .L0 
     /tmp/ccG1i9NV.s:16     .text:0000000000000004 .L0 
     /tmp/ccG1i9NV.s:18     .text:0000000000000008 .L0 
     /tmp/ccG1i9NV.s:20     .text:000000000000000c .L0 
     /tmp/ccG1i9NV.s:22     .text:000000000000000c .L0 
     /tmp/ccG1i9NV.s:24     .text:0000000000000010 .L0 
     /tmp/ccG1i9NV.s:25     .text:0000000000000010 .L0 
     /tmp/ccG1i9NV.s:27     .text:0000000000000014 .L0 
     /tmp/ccG1i9NV.s:28     .text:0000000000000014 .L0 
     /tmp/ccG1i9NV.s:30     .text:000000000000001c .L0 
     /tmp/ccG1i9NV.s:32     .text:0000000000000020 .L0 
     /tmp/ccG1i9NV.s:33     .text:0000000000000020 .L0 
     /tmp/ccG1i9NV.s:35     .text:0000000000000024 .L0 
     /tmp/ccG1i9NV.s:36     .text:0000000000000024 .L0 
     /tmp/ccG1i9NV.s:40     .text:0000000000000034 .L0 
     /tmp/ccG1i9NV.s:43     .text:0000000000000038 .L0 
     /tmp/ccG1i9NV.s:44     .text:000000000000003c .L0 
     /tmp/ccG1i9NV.s:45     .text:000000000000003c .L0 
     /tmp/ccG1i9NV.s:46     .text:000000000000003c .L0 
     /tmp/ccG1i9NV.s:48     .text:0000000000000040 .L0 
     /tmp/ccG1i9NV.s:51     .text:0000000000000044 .L0 
     /tmp/ccG1i9NV.s:53     .text:0000000000000044 .L0 
     /tmp/ccG1i9NV.s:54     .text:0000000000000044 .L0 
     /tmp/ccG1i9NV.s:57     .text:0000000000000050 .L0 
     /tmp/ccG1i9NV.s:59     .text:0000000000000058 .L0 
     /tmp/ccG1i9NV.s:65     .text:0000000000000058 _ZN9Scheduler3getEv
     /tmp/ccG1i9NV.s:68     .text:0000000000000058 .L0 
     /tmp/ccG1i9NV.s:69     .text:0000000000000058 .L0 
     /tmp/ccG1i9NV.s:70     .text:000000000000005c .L0 
     /tmp/ccG1i9NV.s:72     .text:0000000000000060 .L0 
     /tmp/ccG1i9NV.s:74     .text:0000000000000064 .L0 
     /tmp/ccG1i9NV.s:76     .text:0000000000000064 .L0 
     /tmp/ccG1i9NV.s:77     .text:0000000000000064 .L0 
     /tmp/ccG1i9NV.s:79     .text:000000000000006c .L0 
     /tmp/ccG1i9NV.s:82     .text:0000000000000070 .L0 
     /tmp/ccG1i9NV.s:83     .text:0000000000000070 .L0 
     /tmp/ccG1i9NV.s:84     .text:0000000000000070 .L0 
     /tmp/ccG1i9NV.s:86     .text:0000000000000074 .L0 
     /tmp/ccG1i9NV.s:89     .text:0000000000000080 .L0 
     /tmp/ccG1i9NV.s:90     .text:0000000000000080 .L0 
     /tmp/ccG1i9NV.s:92     .text:0000000000000084 .L0 
     /tmp/ccG1i9NV.s:96     .text:0000000000000088 .L0 
     /tmp/ccG1i9NV.s:97     .text:000000000000008c .L0 
     /tmp/ccG1i9NV.s:98     .text:000000000000008c .L0 
     /tmp/ccG1i9NV.s:99     .text:000000000000008c .L0 
     /tmp/ccG1i9NV.s:101    .text:0000000000000090 .L0 
     /tmp/ccG1i9NV.s:104    .text:0000000000000094 .L0 
     /tmp/ccG1i9NV.s:106    .text:0000000000000094 .L0 
     /tmp/ccG1i9NV.s:107    .text:0000000000000094 .L0 
     /tmp/ccG1i9NV.s:112    .text:00000000000000a0 .L0 
     /tmp/ccG1i9NV.s:113    .text:00000000000000a0 .L0 
     /tmp/ccG1i9NV.s:115    .text:00000000000000ac .L0 
     /tmp/ccG1i9NV.s:126    .bss:0000000000000000 _ZN9Scheduler4tailE
GAS LISTING /tmp/ccG1i9NV.s 			page 6


     /tmp/ccG1i9NV.s:130    .bss:0000000000000008 _ZN9Scheduler4headE
     /tmp/ccG1i9NV.s:134    .bss:0000000000000010 _ZN9Scheduler11idleProcessE
     /tmp/ccG1i9NV.s:123    .bss:0000000000000000 .LANCHOR0
     /tmp/ccG1i9NV.s:141    .text:00000000000000ac .L0 
     /tmp/ccG1i9NV.s:28     .text:0000000000000014 .L0 
     /tmp/ccG1i9NV.s:36     .text:0000000000000024 .L0 
     /tmp/ccG1i9NV.s:54     .text:0000000000000044 .L0 
     /tmp/ccG1i9NV.s:77     .text:0000000000000064 .L0 
     /tmp/ccG1i9NV.s:86     .text:0000000000000074 .L0 
     /tmp/ccG1i9NV.s:107    .text:0000000000000094 .L0 
     /tmp/ccG1i9NV.s:113    .text:00000000000000a0 .L0 
     /tmp/ccG1i9NV.s:41     .text:0000000000000038 .L1
     /tmp/ccG1i9NV.s:50     .text:0000000000000044 .L5
     /tmp/ccG1i9NV.s:103    .text:0000000000000094 .L10
     /tmp/ccG1i9NV.s:110    .text:00000000000000a0 .L11
     /tmp/ccG1i9NV.s:94     .text:0000000000000088 .L6
     /tmp/ccG1i9NV.s:657    .debug_abbrev:0000000000000000 .Ldebug_abbrev0
     /tmp/ccG1i9NV.s:1388   .debug_str:00000000000001e0 .LASF58
     /tmp/ccG1i9NV.s:1402   .debug_str:0000000000000312 .LASF59
     /tmp/ccG1i9NV.s:1454   .debug_str:000000000000046a .LASF60
     /tmp/ccG1i9NV.s:5      .text:0000000000000000 .Ltext0
     /tmp/ccG1i9NV.s:137    .text:00000000000000ac .Letext0
     /tmp/ccG1i9NV.s:1324   .debug_line:0000000000000000 .Ldebug_line0
     /tmp/ccG1i9NV.s:1408   .debug_str:0000000000000336 .LASF0
     /tmp/ccG1i9NV.s:1376   .debug_str:0000000000000186 .LASF1
     /tmp/ccG1i9NV.s:1368   .debug_str:0000000000000147 .LASF2
     /tmp/ccG1i9NV.s:1344   .debug_str:0000000000000081 .LASF4
     /tmp/ccG1i9NV.s:1374   .debug_str:0000000000000174 .LASF3
     /tmp/ccG1i9NV.s:1334   .debug_str:000000000000003f .LASF5
     /tmp/ccG1i9NV.s:1328   .debug_str:000000000000000f .LASF6
     /tmp/ccG1i9NV.s:1360   .debug_str:000000000000010c .LASF7
     /tmp/ccG1i9NV.s:1426   .debug_str:00000000000003b7 .LASF8
     /tmp/ccG1i9NV.s:1342   .debug_str:0000000000000073 .LASF9
     /tmp/ccG1i9NV.s:1466   .debug_str:00000000000004c8 .LASF10
     /tmp/ccG1i9NV.s:1366   .debug_str:0000000000000138 .LASF11
     /tmp/ccG1i9NV.s:1452   .debug_str:000000000000045a .LASF12
     /tmp/ccG1i9NV.s:1432   .debug_str:00000000000003e2 .LASF13
     /tmp/ccG1i9NV.s:1380   .debug_str:00000000000001a2 .LASF14
     /tmp/ccG1i9NV.s:1352   .debug_str:00000000000000be .LASF15
     /tmp/ccG1i9NV.s:1428   .debug_str:00000000000003c7 .LASF16
     /tmp/ccG1i9NV.s:1364   .debug_str:000000000000012d .LASF61
     /tmp/ccG1i9NV.s:1356   .debug_str:00000000000000ea .LASF62
     /tmp/ccG1i9NV.s:1414   .debug_str:000000000000035b .LASF17
     /tmp/ccG1i9NV.s:1464   .debug_str:00000000000004b1 .LASF19
     /tmp/ccG1i9NV.s:1326   .debug_str:0000000000000000 .LASF18
     /tmp/ccG1i9NV.s:1386   .debug_str:00000000000001c0 .LASF20
     /tmp/ccG1i9NV.s:1440   .debug_str:0000000000000418 .LASF63
     /tmp/ccG1i9NV.s:1404   .debug_str:0000000000000324 .LASF64
     /tmp/ccG1i9NV.s:1422   .debug_str:0000000000000389 .LASF65
     /tmp/ccG1i9NV.s:1410   .debug_str:0000000000000343 .LASF66
     /tmp/ccG1i9NV.s:1430   .debug_str:00000000000003dd .LASF21
     /tmp/ccG1i9NV.s:1462   .debug_str:00000000000004a5 .LASF22
     /tmp/ccG1i9NV.s:1456   .debug_str:0000000000000488 .LASF23
     /tmp/ccG1i9NV.s:1372   .debug_str:0000000000000168 .LASF24
     /tmp/ccG1i9NV.s:1412   .debug_str:000000000000034b .LASF25
     /tmp/ccG1i9NV.s:1436   .debug_str:00000000000003fa .LASF67
     /tmp/ccG1i9NV.s:1358   .debug_str:0000000000000101 .LASF53
GAS LISTING /tmp/ccG1i9NV.s 			page 7


     /tmp/ccG1i9NV.s:1354   .debug_str:00000000000000d4 .LASF68
     /tmp/ccG1i9NV.s:1330   .debug_str:0000000000000022 .LASF51
     /tmp/ccG1i9NV.s:1460   .debug_str:000000000000049a .LASF26
     /tmp/ccG1i9NV.s:1346   .debug_str:0000000000000088 .LASF27
     /tmp/ccG1i9NV.s:1418   .debug_str:0000000000000377 .LASF28
     /tmp/ccG1i9NV.s:1446   .debug_str:0000000000000446 .LASF29
     /tmp/ccG1i9NV.s:1390   .debug_str:00000000000002a4 .LASF30
     /tmp/ccG1i9NV.s:1378   .debug_str:0000000000000199 .LASF31
     /tmp/ccG1i9NV.s:1384   .debug_str:00000000000001b8 .LASF32
     /tmp/ccG1i9NV.s:1362   .debug_str:000000000000011f .LASF33
     /tmp/ccG1i9NV.s:1332   .debug_str:0000000000000035 .LASF34
     /tmp/ccG1i9NV.s:1438   .debug_str:0000000000000407 .LASF46
     /tmp/ccG1i9NV.s:1420   .debug_str:0000000000000380 .LASF40
     /tmp/ccG1i9NV.s:1370   .debug_str:0000000000000155 .LASF42
     /tmp/ccG1i9NV.s:1394   .debug_str:00000000000002c4 .LASF35
     /tmp/ccG1i9NV.s:1398   .debug_str:00000000000002e2 .LASF37
     /tmp/ccG1i9NV.s:1396   .debug_str:00000000000002d3 .LASF36
     /tmp/ccG1i9NV.s:1424   .debug_str:0000000000000399 .LASF38
     /tmp/ccG1i9NV.s:1444   .debug_str:000000000000043c .LASF39
     /tmp/ccG1i9NV.s:1416   .debug_str:0000000000000367 .LASF41
     /tmp/ccG1i9NV.s:1392   .debug_str:00000000000002a9 .LASF43
     /tmp/ccG1i9NV.s:1450   .debug_str:0000000000000455 .LASF44
     /tmp/ccG1i9NV.s:1382   .debug_str:00000000000001ae .LASF45
     /tmp/ccG1i9NV.s:1458   .debug_str:0000000000000495 .LASF47
     /tmp/ccG1i9NV.s:1448   .debug_str:0000000000000450 .LASF48
     /tmp/ccG1i9NV.s:1406   .debug_str:000000000000032a .LASF49
     /tmp/ccG1i9NV.s:1400   .debug_str:0000000000000300 .LASF50
     /tmp/ccG1i9NV.s:1442   .debug_str:0000000000000424 .LASF52
     /tmp/ccG1i9NV.s:1340   .debug_str:000000000000005f .LASF69
     /tmp/ccG1i9NV.s:1350   .debug_str:00000000000000a2 .LASF54
     /tmp/ccG1i9NV.s:1338   .debug_str:000000000000004b .LASF55
     /tmp/ccG1i9NV.s:1348   .debug_str:000000000000008e .LASF56
     /tmp/ccG1i9NV.s:66     .text:0000000000000058 .LFB3
     /tmp/ccG1i9NV.s:116    .text:00000000000000ac .LFE3
     /tmp/ccG1i9NV.s:1336   .debug_str:0000000000000046 .LASF57
     /tmp/ccG1i9NV.s:1300   .debug_loc:0000000000000000 .LLST0
     /tmp/ccG1i9NV.s:10     .text:0000000000000000 .LFB2
     /tmp/ccG1i9NV.s:60     .text:0000000000000058 .LFE2
     /tmp/ccG1i9NV.s:1434   .debug_str:00000000000003f2 .LASF70
     /tmp/ccG1i9NV.s:81     .text:0000000000000070 .LVL1
     /tmp/ccG1i9NV.s:93     .text:0000000000000088 .LVL2
     /tmp/ccG1i9NV.s:109    .text:00000000000000a0 .LVL3
     /tmp/ccG1i9NV.s:142    .debug_info:0000000000000000 .Ldebug_info0

NO UNDEFINED SYMBOLS
