GAS LISTING /tmp/cctrpdhK.s 			page 1


   1              		.file	"Scheduler.cpp"
   2              		.option pic
   3              		.option norelax
   4              		.text
   5              	.Ltext0:
   6              		.align	2
   7              		.globl	_ZN9Scheduler3putEP3PCB
   9              	_ZN9Scheduler3putEP3PCB:
  10              	.LFB8:
  11              		.file 1 "src/Scheduler.cpp"
   1:src/Scheduler.cpp **** #include "../h/Scheduler.h"
   2:src/Scheduler.cpp **** 
   3:src/Scheduler.cpp **** PCB* Scheduler::idleProcess = nullptr; // TODO: napraviti idleProcess koji uposleno ceka da se pokr
   4:src/Scheduler.cpp **** PCB* Scheduler::head = nullptr;
   5:src/Scheduler.cpp **** PCB* Scheduler::tail = nullptr;
   6:src/Scheduler.cpp **** 
   7:src/Scheduler.cpp **** void Scheduler::put(PCB *process) {
  12              		.loc 1 7 35
  13              		.cfi_startproc
  14              	.LVL0:
  15 0000 130101FF 		addi	sp,sp,-16
  16              		.cfi_def_cfa_offset 16
  17 0004 23348100 		sd	s0,8(sp)
  18              		.cfi_offset 8, -8
  19 0008 13040101 		addi	s0,sp,16
  20              		.cfi_def_cfa 8, 0
   8:src/Scheduler.cpp ****     if(!process) return;
  21              		.loc 1 8 5
  22 000c 63060502 		beqz	a0,.L1
   9:src/Scheduler.cpp ****     process->nextInList = nullptr;
  23              		.loc 1 9 5
  24              		.loc 1 9 25 is_stmt 0
  25 0010 23300500 		sd	zero,0(a0)
  10:src/Scheduler.cpp ****     if(tail == nullptr) { // ako ne postoji kraj liste nece postojati ni pocetak
  26              		.loc 1 10 5 is_stmt 1
  27              		.loc 1 10 13 is_stmt 0
  28 0014 97070000 		ld	a5,.LANCHOR0
  28      83B70700 
  29              		.loc 1 10 5
  30 001c 63840702 		beqz	a5,.L5
  11:src/Scheduler.cpp ****         head = tail = process;
  12:src/Scheduler.cpp ****     }
  13:src/Scheduler.cpp ****     else {
  14:src/Scheduler.cpp ****         tail->nextInList = process;
  31              		.loc 1 14 9 is_stmt 1
  32              		.loc 1 14 26 is_stmt 0
  33 0020 23B0A700 		sd	a0,0(a5)
  15:src/Scheduler.cpp ****         tail = tail->nextInList;
  34              		.loc 1 15 9 is_stmt 1
  35              		.loc 1 15 22 is_stmt 0
  36 0024 97070000 		lla	a5,.LANCHOR0
  36      93870700 
  37 002c 03B70700 		ld	a4,0(a5)
  38 0030 03370700 		ld	a4,0(a4)
  39              		.loc 1 15 14
  40 0034 23B0E700 		sd	a4,0(a5)
  41              	.L1:
GAS LISTING /tmp/cctrpdhK.s 			page 2


  16:src/Scheduler.cpp ****     }
  17:src/Scheduler.cpp **** }
  42              		.loc 1 17 1
  43 0038 03348100 		ld	s0,8(sp)
  44              		.cfi_remember_state
  45              		.cfi_restore 8
  46              		.cfi_def_cfa 2, 16
  47 003c 13010101 		addi	sp,sp,16
  48              		.cfi_def_cfa_offset 0
  49 0040 67800000 		jr	ra
  50              	.L5:
  51              		.cfi_restore_state
  11:src/Scheduler.cpp ****     }
  52              		.loc 1 11 9 is_stmt 1
  11:src/Scheduler.cpp ****     }
  53              		.loc 1 11 21 is_stmt 0
  54 0044 97070000 		lla	a5,.LANCHOR0
  54      93870700 
  55 004c 23B0A700 		sd	a0,0(a5)
  11:src/Scheduler.cpp ****     }
  56              		.loc 1 11 14
  57 0050 23B4A700 		sd	a0,8(a5)
  58 0054 6FF05FFE 		j	.L1
  59              		.cfi_endproc
  60              	.LFE8:
  62              		.align	2
  63              		.globl	_ZN9Scheduler3getEv
  65              	_ZN9Scheduler3getEv:
  66              	.LFB9:
  18:src/Scheduler.cpp **** 
  19:src/Scheduler.cpp **** PCB *Scheduler::get() {
  67              		.loc 1 19 23 is_stmt 1
  68              		.cfi_startproc
  69 0058 130101FF 		addi	sp,sp,-16
  70              		.cfi_def_cfa_offset 16
  71 005c 23348100 		sd	s0,8(sp)
  72              		.cfi_offset 8, -8
  73 0060 13040101 		addi	s0,sp,16
  74              		.cfi_def_cfa 8, 0
  20:src/Scheduler.cpp ****     if(head == nullptr) {
  75              		.loc 1 20 5
  76              		.loc 1 20 13 is_stmt 0
  77 0064 17050000 		ld	a0,.LANCHOR0+8
  77      03350500 
  78              		.loc 1 20 5
  79 006c 63040502 		beqz	a0,.L10
  21:src/Scheduler.cpp ****         return idleProcess;
  22:src/Scheduler.cpp ****     }
  23:src/Scheduler.cpp ****     PCB* curr = head;
  80              		.loc 1 23 5 is_stmt 1
  81              	.LVL1:
  24:src/Scheduler.cpp ****     head = head->nextInList;
  82              		.loc 1 24 5
  83              		.loc 1 24 18 is_stmt 0
  84 0070 03370500 		ld	a4,0(a0)
  85              		.loc 1 24 10
  86 0074 97070000 		lla	a5,.LANCHOR0
GAS LISTING /tmp/cctrpdhK.s 			page 3


  86      93870700 
  87 007c 23B4E700 		sd	a4,8(a5)
  25:src/Scheduler.cpp ****     if(tail == curr) {
  88              		.loc 1 25 5 is_stmt 1
  89              		.loc 1 25 13 is_stmt 0
  90 0080 83B70700 		ld	a5,0(a5)
  91              		.loc 1 25 5
  92 0084 630EF500 		beq	a0,a5,.L11
  93              	.LVL2:
  94              	.L6:
  26:src/Scheduler.cpp ****         tail = head;
  27:src/Scheduler.cpp ****     }
  28:src/Scheduler.cpp ****     return curr;
  29:src/Scheduler.cpp **** }
  95              		.loc 1 29 1
  96 0088 03348100 		ld	s0,8(sp)
  97              		.cfi_remember_state
  98              		.cfi_restore 8
  99              		.cfi_def_cfa 2, 16
 100 008c 13010101 		addi	sp,sp,16
 101              		.cfi_def_cfa_offset 0
 102 0090 67800000 		jr	ra
 103              	.L10:
 104              		.cfi_restore_state
  21:src/Scheduler.cpp ****     }
 105              		.loc 1 21 9 is_stmt 1
  21:src/Scheduler.cpp ****     }
 106              		.loc 1 21 16 is_stmt 0
 107 0094 17050000 		ld	a0,.LANCHOR0+16
 107      03350500 
 108 009c 6FF0DFFE 		j	.L6
 109              	.LVL3:
 110              	.L11:
  26:src/Scheduler.cpp ****         tail = head;
 111              		.loc 1 26 9 is_stmt 1
  26:src/Scheduler.cpp ****         tail = head;
 112              		.loc 1 26 14 is_stmt 0
 113 00a0 97070000 		sd	a4,.LANCHOR0,a5
 113      23B0E700 
 114 00a8 6FF01FFE 		j	.L6
 115              		.cfi_endproc
 116              	.LFE9:
 118              		.globl	_ZN9Scheduler4tailE
 119              		.globl	_ZN9Scheduler4headE
 120              		.globl	_ZN9Scheduler11idleProcessE
 121              		.bss
 122              		.align	3
 123              		.set	.LANCHOR0,. + 0
 126              	_ZN9Scheduler4tailE:
 127 0000 00000000 		.zero	8
 127      00000000 
 130              	_ZN9Scheduler4headE:
 131 0008 00000000 		.zero	8
 131      00000000 
 134              	_ZN9Scheduler11idleProcessE:
 135 0010 00000000 		.zero	8
 135      00000000 
GAS LISTING /tmp/cctrpdhK.s 			page 4


 136              		.text
 137              	.Letext0:
 138              		.file 2 "src/../h/hw.h"
 139              		.file 3 "src/../h/PCB.h"
 140              		.file 4 "src/../h/Scheduler.h"
GAS LISTING /tmp/cctrpdhK.s 			page 5

