GAS LISTING /tmp/cc1l7xfE.s 			page 1


   1              		.file	"Scheduler.cpp"
   2              		.option pic
   3              		.option norelax
   4              		.text
   5              	.Ltext0:
   6              		.align	2
   7              		.globl	_ZN9Scheduler3putEP3PCB
   9              	_ZN9Scheduler3putEP3PCB:
  10              	.LFB10:
  11              		.file 1 "src/Scheduler.cpp"
   1:src/Scheduler.cpp **** #include "../h/Scheduler.h"
   2:src/Scheduler.cpp **** 
   3:src/Scheduler.cpp **** PCB* Scheduler::idleProcess = nullptr;
   4:src/Scheduler.cpp **** PCB* Scheduler::head = nullptr;
   5:src/Scheduler.cpp **** PCB* Scheduler::tail = nullptr;
   6:src/Scheduler.cpp **** 
   7:src/Scheduler.cpp **** void Scheduler::put(PCB *process) {
  12              		.loc 1 7 35
  13              		.cfi_startproc
  14              	.LVL0:
  15 0000 130101FF 		addi	sp,sp,-16
  16              		.cfi_def_cfa_offset 16
  17 0004 23348100 		sd	s0,8(sp)
  18              		.cfi_offset 8, -8
  19 0008 13040101 		addi	s0,sp,16
  20              		.cfi_def_cfa 8, 0
   8:src/Scheduler.cpp ****     if(!process) return;
  21              		.loc 1 8 5
  22 000c 63060502 		beqz	a0,.L1
   9:src/Scheduler.cpp ****     process->nextInList = nullptr;
  23              		.loc 1 9 5
  24              		.loc 1 9 25 is_stmt 0
  25 0010 23300500 		sd	zero,0(a0)
  10:src/Scheduler.cpp ****     if(tail == nullptr) { // ako ne postoji kraj liste nece postojati ni pocetak
  26              		.loc 1 10 5 is_stmt 1
  27              		.loc 1 10 13 is_stmt 0
  28 0014 97070000 		ld	a5,.LANCHOR0
  28      83B70700 
  29              		.loc 1 10 5
  30 001c 63840702 		beqz	a5,.L5
  11:src/Scheduler.cpp ****         head = tail = process;
  12:src/Scheduler.cpp ****     }
  13:src/Scheduler.cpp ****     else {
  14:src/Scheduler.cpp ****         tail->nextInList = process;
  31              		.loc 1 14 9 is_stmt 1
  32              		.loc 1 14 26 is_stmt 0
  33 0020 23B0A700 		sd	a0,0(a5)
  15:src/Scheduler.cpp ****         tail = tail->nextInList;
  34              		.loc 1 15 9 is_stmt 1
  35              		.loc 1 15 22 is_stmt 0
  36 0024 97070000 		lla	a5,.LANCHOR0
  36      93870700 
  37 002c 03B70700 		ld	a4,0(a5)
  38 0030 03370700 		ld	a4,0(a4)
  39              		.loc 1 15 14
  40 0034 23B0E700 		sd	a4,0(a5)
  41              	.L1:
GAS LISTING /tmp/cc1l7xfE.s 			page 2


  16:src/Scheduler.cpp ****     }
  17:src/Scheduler.cpp **** }
  42              		.loc 1 17 1
  43 0038 03348100 		ld	s0,8(sp)
  44              		.cfi_remember_state
  45              		.cfi_restore 8
  46              		.cfi_def_cfa 2, 16
  47 003c 13010101 		addi	sp,sp,16
  48              		.cfi_def_cfa_offset 0
  49 0040 67800000 		jr	ra
  50              	.L5:
  51              		.cfi_restore_state
  11:src/Scheduler.cpp ****     }
  52              		.loc 1 11 9 is_stmt 1
  11:src/Scheduler.cpp ****     }
  53              		.loc 1 11 21 is_stmt 0
  54 0044 97070000 		lla	a5,.LANCHOR0
  54      93870700 
  55 004c 23B0A700 		sd	a0,0(a5)
  11:src/Scheduler.cpp ****     }
  56              		.loc 1 11 14
  57 0050 23B4A700 		sd	a0,8(a5)
  58 0054 6FF05FFE 		j	.L1
  59              		.cfi_endproc
  60              	.LFE10:
  62              		.align	2
  63              		.globl	_ZN9Scheduler3getEv
  65              	_ZN9Scheduler3getEv:
  66              	.LFB11:
  18:src/Scheduler.cpp **** 
  19:src/Scheduler.cpp **** PCB *Scheduler::get() {
  67              		.loc 1 19 23 is_stmt 1
  68              		.cfi_startproc
  69 0058 130101FF 		addi	sp,sp,-16
  70              		.cfi_def_cfa_offset 16
  71 005c 23348100 		sd	s0,8(sp)
  72              		.cfi_offset 8, -8
  73 0060 13040101 		addi	s0,sp,16
  74              		.cfi_def_cfa 8, 0
  20:src/Scheduler.cpp ****     if(head == nullptr) {
  75              		.loc 1 20 5
  76              		.loc 1 20 13 is_stmt 0
  77 0064 17050000 		ld	a0,.LANCHOR0+8
  77      03350500 
  78              		.loc 1 20 5
  79 006c 63040502 		beqz	a0,.L10
  21:src/Scheduler.cpp ****         return idleProcess;
  22:src/Scheduler.cpp ****     }
  23:src/Scheduler.cpp ****     PCB* curr = head;
  80              		.loc 1 23 5 is_stmt 1
  81              	.LVL1:
  24:src/Scheduler.cpp ****     head = head->nextInList;
  82              		.loc 1 24 5
  83              		.loc 1 24 18 is_stmt 0
  84 0070 03370500 		ld	a4,0(a0)
  85              		.loc 1 24 10
  86 0074 97070000 		lla	a5,.LANCHOR0
GAS LISTING /tmp/cc1l7xfE.s 			page 3


  86      93870700 
  87 007c 23B4E700 		sd	a4,8(a5)
  25:src/Scheduler.cpp ****     if(tail == curr) {
  88              		.loc 1 25 5 is_stmt 1
  89              		.loc 1 25 13 is_stmt 0
  90 0080 83B70700 		ld	a5,0(a5)
  91              		.loc 1 25 5
  92 0084 630EF500 		beq	a0,a5,.L11
  93              	.LVL2:
  94              	.L6:
  26:src/Scheduler.cpp ****         tail = head;
  27:src/Scheduler.cpp ****     }
  28:src/Scheduler.cpp ****     return curr;
  29:src/Scheduler.cpp **** }
  95              		.loc 1 29 1
  96 0088 03348100 		ld	s0,8(sp)
  97              		.cfi_remember_state
  98              		.cfi_restore 8
  99              		.cfi_def_cfa 2, 16
 100 008c 13010101 		addi	sp,sp,16
 101              		.cfi_def_cfa_offset 0
 102 0090 67800000 		jr	ra
 103              	.L10:
 104              		.cfi_restore_state
  21:src/Scheduler.cpp ****     }
 105              		.loc 1 21 9 is_stmt 1
  21:src/Scheduler.cpp ****     }
 106              		.loc 1 21 16 is_stmt 0
 107 0094 17050000 		ld	a0,.LANCHOR0+16
 107      03350500 
 108 009c 6FF0DFFE 		j	.L6
 109              	.LVL3:
 110              	.L11:
  26:src/Scheduler.cpp ****         tail = head;
 111              		.loc 1 26 9 is_stmt 1
  26:src/Scheduler.cpp ****         tail = head;
 112              		.loc 1 26 14 is_stmt 0
 113 00a0 97070000 		sd	a4,.LANCHOR0,a5
 113      23B0E700 
 114 00a8 6FF01FFE 		j	.L6
 115              		.cfi_endproc
 116              	.LFE11:
 118              		.align	2
 119              		.globl	_ZN9Scheduler10putInFrontEP3PCB
 121              	_ZN9Scheduler10putInFrontEP3PCB:
 122              	.LFB12:
  30:src/Scheduler.cpp **** 
  31:src/Scheduler.cpp **** void Scheduler::putInFront(PCB *process) {
 123              		.loc 1 31 42 is_stmt 1
 124              		.cfi_startproc
 125              	.LVL4:
 126 00ac 130101FF 		addi	sp,sp,-16
 127              		.cfi_def_cfa_offset 16
 128 00b0 23348100 		sd	s0,8(sp)
 129              		.cfi_offset 8, -8
 130 00b4 13040101 		addi	s0,sp,16
 131              		.cfi_def_cfa 8, 0
GAS LISTING /tmp/cc1l7xfE.s 			page 4


  32:src/Scheduler.cpp ****     if(!process) return;
 132              		.loc 1 32 5
 133 00b8 630E0500 		beqz	a0,.L12
  33:src/Scheduler.cpp ****     process->nextInList = head;
 134              		.loc 1 33 5
 135              		.loc 1 33 25 is_stmt 0
 136 00bc 97070000 		ld	a5,.LANCHOR0+8
 136      83B70700 
 137 00c4 2330F500 		sd	a5,0(a0)
  34:src/Scheduler.cpp ****     if(!head) {
 138              		.loc 1 34 5 is_stmt 1
 139 00c8 638C0700 		beqz	a5,.L16
  35:src/Scheduler.cpp ****         head = tail = process;
  36:src/Scheduler.cpp ****     }
  37:src/Scheduler.cpp ****     else {
  38:src/Scheduler.cpp ****         head = process;
 140              		.loc 1 38 9
 141              		.loc 1 38 14 is_stmt 0
 142 00cc 97070000 		sd	a0,.LANCHOR0+8,a5
 142      23B0A700 
 143              	.L12:
  39:src/Scheduler.cpp ****     }
  40:src/Scheduler.cpp **** }
 144              		.loc 1 40 1
 145 00d4 03348100 		ld	s0,8(sp)
 146              		.cfi_remember_state
 147              		.cfi_restore 8
 148              		.cfi_def_cfa 2, 16
 149 00d8 13010101 		addi	sp,sp,16
 150              		.cfi_def_cfa_offset 0
 151 00dc 67800000 		jr	ra
 152              	.L16:
 153              		.cfi_restore_state
  35:src/Scheduler.cpp ****         head = tail = process;
 154              		.loc 1 35 9 is_stmt 1
  35:src/Scheduler.cpp ****         head = tail = process;
 155              		.loc 1 35 21 is_stmt 0
 156 00e0 97070000 		lla	a5,.LANCHOR0
 156      93870700 
 157 00e8 23B0A700 		sd	a0,0(a5)
  35:src/Scheduler.cpp ****         head = tail = process;
 158              		.loc 1 35 14
 159 00ec 23B4A700 		sd	a0,8(a5)
 160 00f0 6FF05FFE 		j	.L12
 161              		.cfi_endproc
 162              	.LFE12:
 164              		.globl	_ZN9Scheduler4tailE
 165              		.globl	_ZN9Scheduler4headE
 166              		.globl	_ZN9Scheduler11idleProcessE
 167              		.bss
 168              		.align	3
 169              		.set	.LANCHOR0,. + 0
 172              	_ZN9Scheduler4tailE:
 173 0000 00000000 		.zero	8
 173      00000000 
 176              	_ZN9Scheduler4headE:
 177 0008 00000000 		.zero	8
GAS LISTING /tmp/cc1l7xfE.s 			page 5


 177      00000000 
 180              	_ZN9Scheduler11idleProcessE:
 181 0010 00000000 		.zero	8
 181      00000000 
 182              		.text
 183              	.Letext0:
 184              		.file 2 "src/../h/hw.h"
 185              		.file 3 "src/../h/slab.h"
 186              		.file 4 "src/../h/PCB.h"
 187              		.file 5 "src/../h/Scheduler.h"
GAS LISTING /tmp/cc1l7xfE.s 			page 6


DEFINED SYMBOLS
                            *ABS*:0000000000000000 Scheduler.cpp
     /tmp/cc1l7xfE.s:9      .text:0000000000000000 _ZN9Scheduler3putEP3PCB
     /tmp/cc1l7xfE.s:13     .text:0000000000000000 .L0 
     /tmp/cc1l7xfE.s:15     .text:0000000000000000 .L0 
     /tmp/cc1l7xfE.s:16     .text:0000000000000004 .L0 
     /tmp/cc1l7xfE.s:18     .text:0000000000000008 .L0 
     /tmp/cc1l7xfE.s:20     .text:000000000000000c .L0 
     /tmp/cc1l7xfE.s:22     .text:000000000000000c .L0 
     /tmp/cc1l7xfE.s:24     .text:0000000000000010 .L0 
     /tmp/cc1l7xfE.s:25     .text:0000000000000010 .L0 
     /tmp/cc1l7xfE.s:27     .text:0000000000000014 .L0 
     /tmp/cc1l7xfE.s:28     .text:0000000000000014 .L0 
     /tmp/cc1l7xfE.s:30     .text:000000000000001c .L0 
     /tmp/cc1l7xfE.s:32     .text:0000000000000020 .L0 
     /tmp/cc1l7xfE.s:33     .text:0000000000000020 .L0 
     /tmp/cc1l7xfE.s:35     .text:0000000000000024 .L0 
     /tmp/cc1l7xfE.s:36     .text:0000000000000024 .L0 
     /tmp/cc1l7xfE.s:40     .text:0000000000000034 .L0 
     /tmp/cc1l7xfE.s:43     .text:0000000000000038 .L0 
     /tmp/cc1l7xfE.s:44     .text:000000000000003c .L0 
     /tmp/cc1l7xfE.s:45     .text:000000000000003c .L0 
     /tmp/cc1l7xfE.s:46     .text:000000000000003c .L0 
     /tmp/cc1l7xfE.s:48     .text:0000000000000040 .L0 
     /tmp/cc1l7xfE.s:51     .text:0000000000000044 .L0 
     /tmp/cc1l7xfE.s:53     .text:0000000000000044 .L0 
     /tmp/cc1l7xfE.s:54     .text:0000000000000044 .L0 
     /tmp/cc1l7xfE.s:57     .text:0000000000000050 .L0 
     /tmp/cc1l7xfE.s:59     .text:0000000000000058 .L0 
     /tmp/cc1l7xfE.s:65     .text:0000000000000058 _ZN9Scheduler3getEv
     /tmp/cc1l7xfE.s:68     .text:0000000000000058 .L0 
     /tmp/cc1l7xfE.s:69     .text:0000000000000058 .L0 
     /tmp/cc1l7xfE.s:70     .text:000000000000005c .L0 
     /tmp/cc1l7xfE.s:72     .text:0000000000000060 .L0 
     /tmp/cc1l7xfE.s:74     .text:0000000000000064 .L0 
     /tmp/cc1l7xfE.s:76     .text:0000000000000064 .L0 
     /tmp/cc1l7xfE.s:77     .text:0000000000000064 .L0 
     /tmp/cc1l7xfE.s:79     .text:000000000000006c .L0 
     /tmp/cc1l7xfE.s:82     .text:0000000000000070 .L0 
     /tmp/cc1l7xfE.s:83     .text:0000000000000070 .L0 
     /tmp/cc1l7xfE.s:84     .text:0000000000000070 .L0 
     /tmp/cc1l7xfE.s:86     .text:0000000000000074 .L0 
     /tmp/cc1l7xfE.s:89     .text:0000000000000080 .L0 
     /tmp/cc1l7xfE.s:90     .text:0000000000000080 .L0 
     /tmp/cc1l7xfE.s:92     .text:0000000000000084 .L0 
     /tmp/cc1l7xfE.s:96     .text:0000000000000088 .L0 
     /tmp/cc1l7xfE.s:97     .text:000000000000008c .L0 
     /tmp/cc1l7xfE.s:98     .text:000000000000008c .L0 
     /tmp/cc1l7xfE.s:99     .text:000000000000008c .L0 
     /tmp/cc1l7xfE.s:101    .text:0000000000000090 .L0 
     /tmp/cc1l7xfE.s:104    .text:0000000000000094 .L0 
     /tmp/cc1l7xfE.s:106    .text:0000000000000094 .L0 
     /tmp/cc1l7xfE.s:107    .text:0000000000000094 .L0 
     /tmp/cc1l7xfE.s:112    .text:00000000000000a0 .L0 
     /tmp/cc1l7xfE.s:113    .text:00000000000000a0 .L0 
     /tmp/cc1l7xfE.s:115    .text:00000000000000ac .L0 
     /tmp/cc1l7xfE.s:121    .text:00000000000000ac _ZN9Scheduler10putInFrontEP3PCB
GAS LISTING /tmp/cc1l7xfE.s 			page 7


     /tmp/cc1l7xfE.s:124    .text:00000000000000ac .L0 
     /tmp/cc1l7xfE.s:126    .text:00000000000000ac .L0 
     /tmp/cc1l7xfE.s:127    .text:00000000000000b0 .L0 
     /tmp/cc1l7xfE.s:129    .text:00000000000000b4 .L0 
     /tmp/cc1l7xfE.s:131    .text:00000000000000b8 .L0 
     /tmp/cc1l7xfE.s:133    .text:00000000000000b8 .L0 
     /tmp/cc1l7xfE.s:135    .text:00000000000000bc .L0 
     /tmp/cc1l7xfE.s:136    .text:00000000000000bc .L0 
     /tmp/cc1l7xfE.s:139    .text:00000000000000c8 .L0 
     /tmp/cc1l7xfE.s:141    .text:00000000000000cc .L0 
     /tmp/cc1l7xfE.s:142    .text:00000000000000cc .L0 
     /tmp/cc1l7xfE.s:145    .text:00000000000000d4 .L0 
     /tmp/cc1l7xfE.s:146    .text:00000000000000d8 .L0 
     /tmp/cc1l7xfE.s:147    .text:00000000000000d8 .L0 
     /tmp/cc1l7xfE.s:148    .text:00000000000000d8 .L0 
     /tmp/cc1l7xfE.s:150    .text:00000000000000dc .L0 
     /tmp/cc1l7xfE.s:153    .text:00000000000000e0 .L0 
     /tmp/cc1l7xfE.s:155    .text:00000000000000e0 .L0 
     /tmp/cc1l7xfE.s:156    .text:00000000000000e0 .L0 
     /tmp/cc1l7xfE.s:159    .text:00000000000000ec .L0 
     /tmp/cc1l7xfE.s:161    .text:00000000000000f4 .L0 
     /tmp/cc1l7xfE.s:172    .bss:0000000000000000 _ZN9Scheduler4tailE
     /tmp/cc1l7xfE.s:176    .bss:0000000000000008 _ZN9Scheduler4headE
     /tmp/cc1l7xfE.s:180    .bss:0000000000000010 _ZN9Scheduler11idleProcessE
     /tmp/cc1l7xfE.s:169    .bss:0000000000000000 .LANCHOR0
     /tmp/cc1l7xfE.s:188    .text:00000000000000f4 .L0 
     /tmp/cc1l7xfE.s:28     .text:0000000000000014 .L0 
     /tmp/cc1l7xfE.s:36     .text:0000000000000024 .L0 
     /tmp/cc1l7xfE.s:54     .text:0000000000000044 .L0 
     /tmp/cc1l7xfE.s:77     .text:0000000000000064 .L0 
     /tmp/cc1l7xfE.s:86     .text:0000000000000074 .L0 
     /tmp/cc1l7xfE.s:107    .text:0000000000000094 .L0 
     /tmp/cc1l7xfE.s:113    .text:00000000000000a0 .L0 
     /tmp/cc1l7xfE.s:136    .text:00000000000000bc .L0 
     /tmp/cc1l7xfE.s:142    .text:00000000000000cc .L0 
     /tmp/cc1l7xfE.s:156    .text:00000000000000e0 .L0 
     /tmp/cc1l7xfE.s:41     .text:0000000000000038 .L1
     /tmp/cc1l7xfE.s:50     .text:0000000000000044 .L5
     /tmp/cc1l7xfE.s:103    .text:0000000000000094 .L10
     /tmp/cc1l7xfE.s:110    .text:00000000000000a0 .L11
     /tmp/cc1l7xfE.s:94     .text:0000000000000088 .L6
     /tmp/cc1l7xfE.s:143    .text:00000000000000d4 .L12
     /tmp/cc1l7xfE.s:152    .text:00000000000000e0 .L16
     /tmp/cc1l7xfE.s:940    .debug_abbrev:0000000000000000 .Ldebug_abbrev0
     /tmp/cc1l7xfE.s:1685   .debug_str:000000000000016c .LASF98
     /tmp/cc1l7xfE.s:1835   .debug_str:00000000000006de .LASF99
     /tmp/cc1l7xfE.s:1649   .debug_str:0000000000000045 .LASF100
     /tmp/cc1l7xfE.s:5      .text:0000000000000000 .Ltext0
     /tmp/cc1l7xfE.s:183    .text:00000000000000f4 .Letext0
     /tmp/cc1l7xfE.s:1639   .debug_line:0000000000000000 .Ldebug_line0
     /tmp/cc1l7xfE.s:1753   .debug_str:0000000000000479 .LASF0
     /tmp/cc1l7xfE.s:1767   .debug_str:00000000000004d0 .LASF1
     /tmp/cc1l7xfE.s:1733   .debug_str:00000000000003c8 .LASF2
     /tmp/cc1l7xfE.s:1717   .debug_str:000000000000034a .LASF4
     /tmp/cc1l7xfE.s:1799   .debug_str:00000000000005bf .LASF3
     /tmp/cc1l7xfE.s:1657   .debug_str:00000000000000a7 .LASF5
     /tmp/cc1l7xfE.s:1683   .debug_str:0000000000000165 .LASF6
GAS LISTING /tmp/cc1l7xfE.s 			page 8


     /tmp/cc1l7xfE.s:1769   .debug_str:00000000000004e3 .LASF7
     /tmp/cc1l7xfE.s:1751   .debug_str:0000000000000466 .LASF8
     /tmp/cc1l7xfE.s:1827   .debug_str:000000000000069c .LASF9
     /tmp/cc1l7xfE.s:1705   .debug_str:00000000000002df .LASF10
     /tmp/cc1l7xfE.s:1781   .debug_str:0000000000000533 .LASF11
     /tmp/cc1l7xfE.s:1819   .debug_str:000000000000065e .LASF12
     /tmp/cc1l7xfE.s:1659   .debug_str:00000000000000ae .LASF13
     /tmp/cc1l7xfE.s:1643   .debug_str:0000000000000008 .LASF14
     /tmp/cc1l7xfE.s:1665   .debug_str:00000000000000d8 .LASF15
     /tmp/cc1l7xfE.s:1795   .debug_str:000000000000058e .LASF16
     /tmp/cc1l7xfE.s:1675   .debug_str:0000000000000126 .LASF17
     /tmp/cc1l7xfE.s:1833   .debug_str:00000000000006d1 .LASF18
     /tmp/cc1l7xfE.s:1831   .debug_str:00000000000006c4 .LASF101
     /tmp/cc1l7xfE.s:1771   .debug_str:00000000000004f6 .LASF19
     /tmp/cc1l7xfE.s:1773   .debug_str:0000000000000501 .LASF21
     /tmp/cc1l7xfE.s:1789   .debug_str:000000000000056b .LASF20
     /tmp/cc1l7xfE.s:1691   .debug_str:0000000000000264 .LASF22
     /tmp/cc1l7xfE.s:1837   .debug_str:00000000000006f0 .LASF23
     /tmp/cc1l7xfE.s:1707   .debug_str:00000000000002ed .LASF24
     /tmp/cc1l7xfE.s:1731   .debug_str:00000000000003b8 .LASF27
     /tmp/cc1l7xfE.s:1797   .debug_str:00000000000005a4 .LASF29
     /tmp/cc1l7xfE.s:1809   .debug_str:0000000000000611 .LASF25
     /tmp/cc1l7xfE.s:1689   .debug_str:000000000000024a .LASF26
     /tmp/cc1l7xfE.s:1849   .debug_str:0000000000000758 .LASF28
     /tmp/cc1l7xfE.s:1653   .debug_str:000000000000007d .LASF30
     /tmp/cc1l7xfE.s:1647   .debug_str:000000000000003a .LASF31
     /tmp/cc1l7xfE.s:1785   .debug_str:0000000000000547 .LASF32
     /tmp/cc1l7xfE.s:1787   .debug_str:000000000000055d .LASF33
     /tmp/cc1l7xfE.s:1701   .debug_str:00000000000002b0 .LASF34
     /tmp/cc1l7xfE.s:1825   .debug_str:000000000000068f .LASF35
     /tmp/cc1l7xfE.s:1723   .debug_str:0000000000000366 .LASF36
     /tmp/cc1l7xfE.s:1735   .debug_str:00000000000003d6 .LASF37
     /tmp/cc1l7xfE.s:1729   .debug_str:00000000000003a1 .LASF38
     /tmp/cc1l7xfE.s:1671   .debug_str:000000000000010c .LASF39
     /tmp/cc1l7xfE.s:1843   .debug_str:0000000000000719 .LASF40
     /tmp/cc1l7xfE.s:1779   .debug_str:0000000000000527 .LASF102
     /tmp/cc1l7xfE.s:1711   .debug_str:0000000000000312 .LASF41
     /tmp/cc1l7xfE.s:1645   .debug_str:0000000000000018 .LASF42
     /tmp/cc1l7xfE.s:1737   .debug_str:00000000000003e2 .LASF47
     /tmp/cc1l7xfE.s:1755   .debug_str:0000000000000486 .LASF49
     /tmp/cc1l7xfE.s:1693   .debug_str:0000000000000283 .LASF51
     /tmp/cc1l7xfE.s:1793   .debug_str:0000000000000589 .LASF43
     /tmp/cc1l7xfE.s:1747   .debug_str:000000000000044a .LASF44
     /tmp/cc1l7xfE.s:1839   .debug_str:0000000000000700 .LASF45
     /tmp/cc1l7xfE.s:1719   .debug_str:0000000000000351 .LASF46
     /tmp/cc1l7xfE.s:1805   .debug_str:00000000000005f4 .LASF53
     /tmp/cc1l7xfE.s:1807   .debug_str:0000000000000604 .LASF59
     /tmp/cc1l7xfE.s:1663   .debug_str:00000000000000cd .LASF92
     /tmp/cc1l7xfE.s:1703   .debug_str:00000000000002c9 .LASF103
     /tmp/cc1l7xfE.s:1817   .debug_str:0000000000000651 .LASF48
     /tmp/cc1l7xfE.s:1829   .debug_str:00000000000006ac .LASF50
     /tmp/cc1l7xfE.s:1763   .debug_str:00000000000004b3 .LASF52
     /tmp/cc1l7xfE.s:1651   .debug_str:000000000000006a .LASF88
     /tmp/cc1l7xfE.s:1679   .debug_str:0000000000000141 .LASF54
     /tmp/cc1l7xfE.s:1823   .debug_str:0000000000000676 .LASF56
     /tmp/cc1l7xfE.s:1813   .debug_str:000000000000063b .LASF55
     /tmp/cc1l7xfE.s:1681   .debug_str:000000000000014e .LASF57
GAS LISTING /tmp/cc1l7xfE.s 			page 9


     /tmp/cc1l7xfE.s:1815   .debug_str:0000000000000646 .LASF58
     /tmp/cc1l7xfE.s:1741   .debug_str:00000000000003f2 .LASF60
     /tmp/cc1l7xfE.s:1845   .debug_str:0000000000000739 .LASF61
     /tmp/cc1l7xfE.s:1757   .debug_str:0000000000000496 .LASF62
     /tmp/cc1l7xfE.s:1821   .debug_str:000000000000066d .LASF63
     /tmp/cc1l7xfE.s:1667   .debug_str:00000000000000e4 .LASF64
     /tmp/cc1l7xfE.s:1775   .debug_str:0000000000000518 .LASF65
     /tmp/cc1l7xfE.s:1721   .debug_str:000000000000035d .LASF66
     /tmp/cc1l7xfE.s:1641   .debug_str:0000000000000000 .LASF67
     /tmp/cc1l7xfE.s:1673   .debug_str:000000000000011b .LASF68
     /tmp/cc1l7xfE.s:1761   .debug_str:00000000000004a6 .LASF69
     /tmp/cc1l7xfE.s:1687   .debug_str:000000000000023c .LASF70
     /tmp/cc1l7xfE.s:1759   .debug_str:000000000000049c .LASF71
     /tmp/cc1l7xfE.s:1801   .debug_str:00000000000005d1 .LASF83
     /tmp/cc1l7xfE.s:1709   .debug_str:0000000000000309 .LASF77
     /tmp/cc1l7xfE.s:1713   .debug_str:0000000000000323 .LASF79
     /tmp/cc1l7xfE.s:1655   .debug_str:0000000000000098 .LASF72
     /tmp/cc1l7xfE.s:1669   .debug_str:00000000000000ee .LASF73
     /tmp/cc1l7xfE.s:1661   .debug_str:00000000000000be .LASF74
     /tmp/cc1l7xfE.s:1725   .debug_str:000000000000037e .LASF75
     /tmp/cc1l7xfE.s:1739   .debug_str:00000000000003e8 .LASF76
     /tmp/cc1l7xfE.s:1749   .debug_str:0000000000000456 .LASF78
     /tmp/cc1l7xfE.s:1745   .debug_str:000000000000042f .LASF80
     /tmp/cc1l7xfE.s:1697   .debug_str:00000000000002a3 .LASF81
     /tmp/cc1l7xfE.s:1777   .debug_str:000000000000051d .LASF82
     /tmp/cc1l7xfE.s:1677   .debug_str:000000000000013c .LASF84
     /tmp/cc1l7xfE.s:1727   .debug_str:000000000000039c .LASF85
     /tmp/cc1l7xfE.s:1803   .debug_str:00000000000005e2 .LASF86
     /tmp/cc1l7xfE.s:1841   .debug_str:000000000000070d .LASF87
     /tmp/cc1l7xfE.s:1695   .debug_str:000000000000028b .LASF89
     /tmp/cc1l7xfE.s:1791   .debug_str:000000000000057e .LASF90
     /tmp/cc1l7xfE.s:1743   .debug_str:000000000000040f .LASF91
     /tmp/cc1l7xfE.s:1715   .debug_str:0000000000000336 .LASF104
     /tmp/cc1l7xfE.s:1811   .debug_str:000000000000061f .LASF93
     /tmp/cc1l7xfE.s:1765   .debug_str:00000000000004bc .LASF94
     /tmp/cc1l7xfE.s:1847   .debug_str:0000000000000744 .LASF95
     /tmp/cc1l7xfE.s:122    .text:00000000000000ac .LFB12
     /tmp/cc1l7xfE.s:162    .text:00000000000000f4 .LFE12
     /tmp/cc1l7xfE.s:1699   .debug_str:00000000000002a8 .LASF97
     /tmp/cc1l7xfE.s:66     .text:0000000000000058 .LFB11
     /tmp/cc1l7xfE.s:116    .text:00000000000000ac .LFE11
     /tmp/cc1l7xfE.s:1783   .debug_str:0000000000000542 .LASF96
     /tmp/cc1l7xfE.s:1615   .debug_loc:0000000000000000 .LLST0
     /tmp/cc1l7xfE.s:10     .text:0000000000000000 .LFB10
     /tmp/cc1l7xfE.s:60     .text:0000000000000058 .LFE10
     /tmp/cc1l7xfE.s:81     .text:0000000000000070 .LVL1
     /tmp/cc1l7xfE.s:93     .text:0000000000000088 .LVL2
     /tmp/cc1l7xfE.s:109    .text:00000000000000a0 .LVL3
     /tmp/cc1l7xfE.s:189    .debug_info:0000000000000000 .Ldebug_info0

NO UNDEFINED SYMBOLS
