GAS LISTING /tmp/cctrpdhK.s 			page 1


   1              		.file	"Scheduler.cpp"
   2              		.option pic
   3              		.option norelax
   4              		.text
   5              	.Ltext0:
   6              		.align	2
   7              		.globl	_ZN9Scheduler3putEP3PCB
   9              	_ZN9Scheduler3putEP3PCB:
  10              	.LFB8:
  11              		.file 1 "src/Scheduler.cpp"
   1:src/Scheduler.cpp **** #include "../h/Scheduler.h"
   2:src/Scheduler.cpp **** 
   3:src/Scheduler.cpp **** PCB* Scheduler::idleProcess = nullptr; // TODO: napraviti idleProcess koji uposleno ceka da se pokr
   4:src/Scheduler.cpp **** PCB* Scheduler::head = nullptr;
   5:src/Scheduler.cpp **** PCB* Scheduler::tail = nullptr;
   6:src/Scheduler.cpp **** 
   7:src/Scheduler.cpp **** void Scheduler::put(PCB *process) {
  12              		.loc 1 7 35
  13              		.cfi_startproc
  14              	.LVL0:
  15 0000 130101FF 		addi	sp,sp,-16
  16              		.cfi_def_cfa_offset 16
  17 0004 23348100 		sd	s0,8(sp)
  18              		.cfi_offset 8, -8
  19 0008 13040101 		addi	s0,sp,16
  20              		.cfi_def_cfa 8, 0
   8:src/Scheduler.cpp ****     if(!process) return;
  21              		.loc 1 8 5
  22 000c 63060502 		beqz	a0,.L1
   9:src/Scheduler.cpp ****     process->nextInList = nullptr;
  23              		.loc 1 9 5
  24              		.loc 1 9 25 is_stmt 0
  25 0010 23300500 		sd	zero,0(a0)
  10:src/Scheduler.cpp ****     if(tail == nullptr) { // ako ne postoji kraj liste nece postojati ni pocetak
  26              		.loc 1 10 5 is_stmt 1
  27              		.loc 1 10 13 is_stmt 0
  28 0014 97070000 		ld	a5,.LANCHOR0
  28      83B70700 
  29              		.loc 1 10 5
  30 001c 63840702 		beqz	a5,.L5
  11:src/Scheduler.cpp ****         head = tail = process;
  12:src/Scheduler.cpp ****     }
  13:src/Scheduler.cpp ****     else {
  14:src/Scheduler.cpp ****         tail->nextInList = process;
  31              		.loc 1 14 9 is_stmt 1
  32              		.loc 1 14 26 is_stmt 0
  33 0020 23B0A700 		sd	a0,0(a5)
  15:src/Scheduler.cpp ****         tail = tail->nextInList;
  34              		.loc 1 15 9 is_stmt 1
  35              		.loc 1 15 22 is_stmt 0
  36 0024 97070000 		lla	a5,.LANCHOR0
  36      93870700 
  37 002c 03B70700 		ld	a4,0(a5)
  38 0030 03370700 		ld	a4,0(a4)
  39              		.loc 1 15 14
  40 0034 23B0E700 		sd	a4,0(a5)
  41              	.L1:
GAS LISTING /tmp/cctrpdhK.s 			page 2


  16:src/Scheduler.cpp ****     }
  17:src/Scheduler.cpp **** }
  42              		.loc 1 17 1
  43 0038 03348100 		ld	s0,8(sp)
  44              		.cfi_remember_state
  45              		.cfi_restore 8
  46              		.cfi_def_cfa 2, 16
  47 003c 13010101 		addi	sp,sp,16
  48              		.cfi_def_cfa_offset 0
  49 0040 67800000 		jr	ra
  50              	.L5:
  51              		.cfi_restore_state
  11:src/Scheduler.cpp ****     }
  52              		.loc 1 11 9 is_stmt 1
  11:src/Scheduler.cpp ****     }
  53              		.loc 1 11 21 is_stmt 0
  54 0044 97070000 		lla	a5,.LANCHOR0
  54      93870700 
  55 004c 23B0A700 		sd	a0,0(a5)
  11:src/Scheduler.cpp ****     }
  56              		.loc 1 11 14
  57 0050 23B4A700 		sd	a0,8(a5)
  58 0054 6FF05FFE 		j	.L1
  59              		.cfi_endproc
  60              	.LFE8:
  62              		.align	2
  63              		.globl	_ZN9Scheduler3getEv
  65              	_ZN9Scheduler3getEv:
  66              	.LFB9:
  18:src/Scheduler.cpp **** 
  19:src/Scheduler.cpp **** PCB *Scheduler::get() {
  67              		.loc 1 19 23 is_stmt 1
  68              		.cfi_startproc
  69 0058 130101FF 		addi	sp,sp,-16
  70              		.cfi_def_cfa_offset 16
  71 005c 23348100 		sd	s0,8(sp)
  72              		.cfi_offset 8, -8
  73 0060 13040101 		addi	s0,sp,16
  74              		.cfi_def_cfa 8, 0
  20:src/Scheduler.cpp ****     if(head == nullptr) {
  75              		.loc 1 20 5
  76              		.loc 1 20 13 is_stmt 0
  77 0064 17050000 		ld	a0,.LANCHOR0+8
  77      03350500 
  78              		.loc 1 20 5
  79 006c 63040502 		beqz	a0,.L10
  21:src/Scheduler.cpp ****         return idleProcess;
  22:src/Scheduler.cpp ****     }
  23:src/Scheduler.cpp ****     PCB* curr = head;
  80              		.loc 1 23 5 is_stmt 1
  81              	.LVL1:
  24:src/Scheduler.cpp ****     head = head->nextInList;
  82              		.loc 1 24 5
  83              		.loc 1 24 18 is_stmt 0
  84 0070 03370500 		ld	a4,0(a0)
  85              		.loc 1 24 10
  86 0074 97070000 		lla	a5,.LANCHOR0
GAS LISTING /tmp/cctrpdhK.s 			page 3


  86      93870700 
  87 007c 23B4E700 		sd	a4,8(a5)
  25:src/Scheduler.cpp ****     if(tail == curr) {
  88              		.loc 1 25 5 is_stmt 1
  89              		.loc 1 25 13 is_stmt 0
  90 0080 83B70700 		ld	a5,0(a5)
  91              		.loc 1 25 5
  92 0084 630EF500 		beq	a0,a5,.L11
  93              	.LVL2:
  94              	.L6:
  26:src/Scheduler.cpp ****         tail = head;
  27:src/Scheduler.cpp ****     }
  28:src/Scheduler.cpp ****     return curr;
  29:src/Scheduler.cpp **** }
  95              		.loc 1 29 1
  96 0088 03348100 		ld	s0,8(sp)
  97              		.cfi_remember_state
  98              		.cfi_restore 8
  99              		.cfi_def_cfa 2, 16
 100 008c 13010101 		addi	sp,sp,16
 101              		.cfi_def_cfa_offset 0
 102 0090 67800000 		jr	ra
 103              	.L10:
 104              		.cfi_restore_state
  21:src/Scheduler.cpp ****     }
 105              		.loc 1 21 9 is_stmt 1
  21:src/Scheduler.cpp ****     }
 106              		.loc 1 21 16 is_stmt 0
 107 0094 17050000 		ld	a0,.LANCHOR0+16
 107      03350500 
 108 009c 6FF0DFFE 		j	.L6
 109              	.LVL3:
 110              	.L11:
  26:src/Scheduler.cpp ****         tail = head;
 111              		.loc 1 26 9 is_stmt 1
  26:src/Scheduler.cpp ****         tail = head;
 112              		.loc 1 26 14 is_stmt 0
 113 00a0 97070000 		sd	a4,.LANCHOR0,a5
 113      23B0E700 
 114 00a8 6FF01FFE 		j	.L6
 115              		.cfi_endproc
 116              	.LFE9:
 118              		.globl	_ZN9Scheduler4tailE
 119              		.globl	_ZN9Scheduler4headE
 120              		.globl	_ZN9Scheduler11idleProcessE
 121              		.bss
 122              		.align	3
 123              		.set	.LANCHOR0,. + 0
 126              	_ZN9Scheduler4tailE:
 127 0000 00000000 		.zero	8
 127      00000000 
 130              	_ZN9Scheduler4headE:
 131 0008 00000000 		.zero	8
 131      00000000 
 134              	_ZN9Scheduler11idleProcessE:
 135 0010 00000000 		.zero	8
 135      00000000 
GAS LISTING /tmp/cctrpdhK.s 			page 4


 136              		.text
 137              	.Letext0:
 138              		.file 2 "src/../h/hw.h"
 139              		.file 3 "src/../h/PCB.h"
 140              		.file 4 "src/../h/Scheduler.h"
GAS LISTING /tmp/cctrpdhK.s 			page 5


DEFINED SYMBOLS
                            *ABS*:0000000000000000 Scheduler.cpp
     /tmp/cctrpdhK.s:9      .text:0000000000000000 _ZN9Scheduler3putEP3PCB
     /tmp/cctrpdhK.s:13     .text:0000000000000000 .L0 
     /tmp/cctrpdhK.s:15     .text:0000000000000000 .L0 
     /tmp/cctrpdhK.s:16     .text:0000000000000004 .L0 
     /tmp/cctrpdhK.s:18     .text:0000000000000008 .L0 
     /tmp/cctrpdhK.s:20     .text:000000000000000c .L0 
     /tmp/cctrpdhK.s:22     .text:000000000000000c .L0 
     /tmp/cctrpdhK.s:24     .text:0000000000000010 .L0 
     /tmp/cctrpdhK.s:25     .text:0000000000000010 .L0 
     /tmp/cctrpdhK.s:27     .text:0000000000000014 .L0 
     /tmp/cctrpdhK.s:28     .text:0000000000000014 .L0 
     /tmp/cctrpdhK.s:30     .text:000000000000001c .L0 
     /tmp/cctrpdhK.s:32     .text:0000000000000020 .L0 
     /tmp/cctrpdhK.s:33     .text:0000000000000020 .L0 
     /tmp/cctrpdhK.s:35     .text:0000000000000024 .L0 
     /tmp/cctrpdhK.s:36     .text:0000000000000024 .L0 
     /tmp/cctrpdhK.s:40     .text:0000000000000034 .L0 
     /tmp/cctrpdhK.s:43     .text:0000000000000038 .L0 
     /tmp/cctrpdhK.s:44     .text:000000000000003c .L0 
     /tmp/cctrpdhK.s:45     .text:000000000000003c .L0 
     /tmp/cctrpdhK.s:46     .text:000000000000003c .L0 
     /tmp/cctrpdhK.s:48     .text:0000000000000040 .L0 
     /tmp/cctrpdhK.s:51     .text:0000000000000044 .L0 
     /tmp/cctrpdhK.s:53     .text:0000000000000044 .L0 
     /tmp/cctrpdhK.s:54     .text:0000000000000044 .L0 
     /tmp/cctrpdhK.s:57     .text:0000000000000050 .L0 
     /tmp/cctrpdhK.s:59     .text:0000000000000058 .L0 
     /tmp/cctrpdhK.s:65     .text:0000000000000058 _ZN9Scheduler3getEv
     /tmp/cctrpdhK.s:68     .text:0000000000000058 .L0 
     /tmp/cctrpdhK.s:69     .text:0000000000000058 .L0 
     /tmp/cctrpdhK.s:70     .text:000000000000005c .L0 
     /tmp/cctrpdhK.s:72     .text:0000000000000060 .L0 
     /tmp/cctrpdhK.s:74     .text:0000000000000064 .L0 
     /tmp/cctrpdhK.s:76     .text:0000000000000064 .L0 
     /tmp/cctrpdhK.s:77     .text:0000000000000064 .L0 
     /tmp/cctrpdhK.s:79     .text:000000000000006c .L0 
     /tmp/cctrpdhK.s:82     .text:0000000000000070 .L0 
     /tmp/cctrpdhK.s:83     .text:0000000000000070 .L0 
     /tmp/cctrpdhK.s:84     .text:0000000000000070 .L0 
     /tmp/cctrpdhK.s:86     .text:0000000000000074 .L0 
     /tmp/cctrpdhK.s:89     .text:0000000000000080 .L0 
     /tmp/cctrpdhK.s:90     .text:0000000000000080 .L0 
     /tmp/cctrpdhK.s:92     .text:0000000000000084 .L0 
     /tmp/cctrpdhK.s:96     .text:0000000000000088 .L0 
     /tmp/cctrpdhK.s:97     .text:000000000000008c .L0 
     /tmp/cctrpdhK.s:98     .text:000000000000008c .L0 
     /tmp/cctrpdhK.s:99     .text:000000000000008c .L0 
     /tmp/cctrpdhK.s:101    .text:0000000000000090 .L0 
     /tmp/cctrpdhK.s:104    .text:0000000000000094 .L0 
     /tmp/cctrpdhK.s:106    .text:0000000000000094 .L0 
     /tmp/cctrpdhK.s:107    .text:0000000000000094 .L0 
     /tmp/cctrpdhK.s:112    .text:00000000000000a0 .L0 
     /tmp/cctrpdhK.s:113    .text:00000000000000a0 .L0 
     /tmp/cctrpdhK.s:115    .text:00000000000000ac .L0 
     /tmp/cctrpdhK.s:126    .bss:0000000000000000 _ZN9Scheduler4tailE
GAS LISTING /tmp/cctrpdhK.s 			page 6


     /tmp/cctrpdhK.s:130    .bss:0000000000000008 _ZN9Scheduler4headE
     /tmp/cctrpdhK.s:134    .bss:0000000000000010 _ZN9Scheduler11idleProcessE
     /tmp/cctrpdhK.s:123    .bss:0000000000000000 .LANCHOR0
     /tmp/cctrpdhK.s:141    .text:00000000000000ac .L0 
     /tmp/cctrpdhK.s:28     .text:0000000000000014 .L0 
     /tmp/cctrpdhK.s:36     .text:0000000000000024 .L0 
     /tmp/cctrpdhK.s:54     .text:0000000000000044 .L0 
     /tmp/cctrpdhK.s:77     .text:0000000000000064 .L0 
     /tmp/cctrpdhK.s:86     .text:0000000000000074 .L0 
     /tmp/cctrpdhK.s:107    .text:0000000000000094 .L0 
     /tmp/cctrpdhK.s:113    .text:00000000000000a0 .L0 
     /tmp/cctrpdhK.s:41     .text:0000000000000038 .L1
     /tmp/cctrpdhK.s:50     .text:0000000000000044 .L5
     /tmp/cctrpdhK.s:103    .text:0000000000000094 .L10
     /tmp/cctrpdhK.s:110    .text:00000000000000a0 .L11
     /tmp/cctrpdhK.s:94     .text:0000000000000088 .L6
     /tmp/cctrpdhK.s:753    .debug_abbrev:0000000000000000 .Ldebug_abbrev0
     /tmp/cctrpdhK.s:1564   .debug_str:000000000000044c .LASF75
     /tmp/cctrpdhK.s:1574   .debug_str:0000000000000548 .LASF76
     /tmp/cctrpdhK.s:1580   .debug_str:0000000000000577 .LASF77
     /tmp/cctrpdhK.s:5      .text:0000000000000000 .Ltext0
     /tmp/cctrpdhK.s:137    .text:00000000000000ac .Letext0
     /tmp/cctrpdhK.s:1420   .debug_line:0000000000000000 .Ldebug_line0
     /tmp/cctrpdhK.s:1508   .debug_str:00000000000002a5 .LASF0
     /tmp/cctrpdhK.s:1520   .debug_str:00000000000002ec .LASF1
     /tmp/cctrpdhK.s:1494   .debug_str:000000000000023d .LASF2
     /tmp/cctrpdhK.s:1480   .debug_str:00000000000001d6 .LASF4
     /tmp/cctrpdhK.s:1550   .debug_str:00000000000003d0 .LASF3
     /tmp/cctrpdhK.s:1434   .debug_str:0000000000000060 .LASF5
     /tmp/cctrpdhK.s:1522   .debug_str:00000000000002ff .LASF6
     /tmp/cctrpdhK.s:1506   .debug_str:0000000000000292 .LASF7
     /tmp/cctrpdhK.s:1570   .debug_str:0000000000000528 .LASF8
     /tmp/cctrpdhK.s:1472   .debug_str:0000000000000185 .LASF9
     /tmp/cctrpdhK.s:1534   .debug_str:000000000000034f .LASF10
     /tmp/cctrpdhK.s:1566   .debug_str:0000000000000510 .LASF11
     /tmp/cctrpdhK.s:1436   .debug_str:0000000000000067 .LASF12
     /tmp/cctrpdhK.s:1424   .debug_str:0000000000000008 .LASF13
     /tmp/cctrpdhK.s:1442   .debug_str:0000000000000091 .LASF14
     /tmp/cctrpdhK.s:1546   .debug_str:000000000000039f .LASF15
     /tmp/cctrpdhK.s:1452   .debug_str:00000000000000df .LASF16
     /tmp/cctrpdhK.s:1524   .debug_str:0000000000000312 .LASF17
     /tmp/cctrpdhK.s:1526   .debug_str:000000000000031d .LASF19
     /tmp/cctrpdhK.s:1542   .debug_str:0000000000000387 .LASF18
     /tmp/cctrpdhK.s:1462   .debug_str:0000000000000138 .LASF20
     /tmp/cctrpdhK.s:1576   .debug_str:000000000000055a .LASF21
     /tmp/cctrpdhK.s:1474   .debug_str:0000000000000193 .LASF22
     /tmp/cctrpdhK.s:1492   .debug_str:000000000000022d .LASF25
     /tmp/cctrpdhK.s:1548   .debug_str:00000000000003b5 .LASF27
     /tmp/cctrpdhK.s:1560   .debug_str:0000000000000422 .LASF23
     /tmp/cctrpdhK.s:1460   .debug_str:000000000000011e .LASF24
     /tmp/cctrpdhK.s:1590   .debug_str:00000000000005e0 .LASF26
     /tmp/cctrpdhK.s:1430   .debug_str:0000000000000036 .LASF28
     /tmp/cctrpdhK.s:1426   .debug_str:0000000000000018 .LASF29
     /tmp/cctrpdhK.s:1538   .debug_str:0000000000000363 .LASF30
     /tmp/cctrpdhK.s:1540   .debug_str:0000000000000379 .LASF31
     /tmp/cctrpdhK.s:1470   .debug_str:000000000000016c .LASF32
     /tmp/cctrpdhK.s:1448   .debug_str:00000000000000c5 .LASF33
GAS LISTING /tmp/cctrpdhK.s 			page 7


     /tmp/cctrpdhK.s:1584   .debug_str:00000000000005a1 .LASF34
     /tmp/cctrpdhK.s:1532   .debug_str:0000000000000343 .LASF78
     /tmp/cctrpdhK.s:1496   .debug_str:000000000000024b .LASF79
     /tmp/cctrpdhK.s:1572   .debug_str:0000000000000538 .LASF80
     /tmp/cctrpdhK.s:1464   .debug_str:0000000000000157 .LASF66
     /tmp/cctrpdhK.s:1544   .debug_str:000000000000039a .LASF35
     /tmp/cctrpdhK.s:1502   .debug_str:0000000000000276 .LASF36
     /tmp/cctrpdhK.s:1578   .debug_str:000000000000056a .LASF37
     /tmp/cctrpdhK.s:1482   .debug_str:00000000000001dd .LASF38
     /tmp/cctrpdhK.s:1556   .debug_str:0000000000000405 .LASF39
     /tmp/cctrpdhK.s:1558   .debug_str:0000000000000415 .LASF81
     /tmp/cctrpdhK.s:1440   .debug_str:0000000000000086 .LASF70
     /tmp/cctrpdhK.s:1456   .debug_str:00000000000000fa .LASF82
     /tmp/cctrpdhK.s:1428   .debug_str:0000000000000023 .LASF68
     /tmp/cctrpdhK.s:1586   .debug_str:00000000000005c1 .LASF40
     /tmp/cctrpdhK.s:1512   .debug_str:00000000000002bb .LASF41
     /tmp/cctrpdhK.s:1568   .debug_str:000000000000051f .LASF42
     /tmp/cctrpdhK.s:1444   .debug_str:000000000000009d .LASF43
     /tmp/cctrpdhK.s:1528   .debug_str:0000000000000334 .LASF44
     /tmp/cctrpdhK.s:1484   .debug_str:00000000000001e9 .LASF45
     /tmp/cctrpdhK.s:1422   .debug_str:0000000000000000 .LASF46
     /tmp/cctrpdhK.s:1450   .debug_str:00000000000000d4 .LASF47
     /tmp/cctrpdhK.s:1516   .debug_str:00000000000002cb .LASF48
     /tmp/cctrpdhK.s:1458   .debug_str:0000000000000110 .LASF49
     /tmp/cctrpdhK.s:1514   .debug_str:00000000000002c1 .LASF50
     /tmp/cctrpdhK.s:1552   .debug_str:00000000000003e2 .LASF62
     /tmp/cctrpdhK.s:1510   .debug_str:00000000000002b2 .LASF56
     /tmp/cctrpdhK.s:1476   .debug_str:00000000000001af .LASF58
     /tmp/cctrpdhK.s:1432   .debug_str:0000000000000051 .LASF51
     /tmp/cctrpdhK.s:1446   .debug_str:00000000000000a7 .LASF53
     /tmp/cctrpdhK.s:1438   .debug_str:0000000000000077 .LASF52
     /tmp/cctrpdhK.s:1488   .debug_str:000000000000020a .LASF54
     /tmp/cctrpdhK.s:1498   .debug_str:0000000000000251 .LASF55
     /tmp/cctrpdhK.s:1504   .debug_str:0000000000000282 .LASF57
     /tmp/cctrpdhK.s:1500   .debug_str:000000000000025b .LASF59
     /tmp/cctrpdhK.s:1466   .debug_str:000000000000015f .LASF60
     /tmp/cctrpdhK.s:1530   .debug_str:0000000000000339 .LASF61
     /tmp/cctrpdhK.s:1454   .debug_str:00000000000000f5 .LASF63
     /tmp/cctrpdhK.s:1490   .debug_str:0000000000000228 .LASF64
     /tmp/cctrpdhK.s:1554   .debug_str:00000000000003f3 .LASF65
     /tmp/cctrpdhK.s:1582   .debug_str:0000000000000595 .LASF67
     /tmp/cctrpdhK.s:1486   .debug_str:00000000000001f2 .LASF69
     /tmp/cctrpdhK.s:1478   .debug_str:00000000000001c2 .LASF83
     /tmp/cctrpdhK.s:1562   .debug_str:0000000000000430 .LASF71
     /tmp/cctrpdhK.s:1518   .debug_str:00000000000002d8 .LASF72
     /tmp/cctrpdhK.s:1588   .debug_str:00000000000005cc .LASF73
     /tmp/cctrpdhK.s:66     .text:0000000000000058 .LFB9
     /tmp/cctrpdhK.s:116    .text:00000000000000ac .LFE9
     /tmp/cctrpdhK.s:1536   .debug_str:000000000000035e .LASF74
     /tmp/cctrpdhK.s:1396   .debug_loc:0000000000000000 .LLST0
     /tmp/cctrpdhK.s:10     .text:0000000000000000 .LFB8
     /tmp/cctrpdhK.s:60     .text:0000000000000058 .LFE8
     /tmp/cctrpdhK.s:1468   .debug_str:0000000000000164 .LASF84
     /tmp/cctrpdhK.s:81     .text:0000000000000070 .LVL1
     /tmp/cctrpdhK.s:93     .text:0000000000000088 .LVL2
     /tmp/cctrpdhK.s:109    .text:00000000000000a0 .LVL3
     /tmp/cctrpdhK.s:142    .debug_info:0000000000000000 .Ldebug_info0
GAS LISTING /tmp/cctrpdhK.s 			page 8



NO UNDEFINED SYMBOLS
