GAS LISTING /tmp/ccud4a2C.s 			page 1


   1              		.file	"SlabAllocator.cpp"
   2              		.option pic
   3              		.option norelax
   4              		.text
   5              	.Ltext0:
   6              		.align	2
   7              		.globl	_ZN13SlabAllocator13initAllocatorEPvi
   9              	_ZN13SlabAllocator13initAllocatorEPvi:
  10              	.LFB11:
  11              		.file 1 "src/SlabAllocator.cpp"
   1:src/SlabAllocator.cpp **** #include "../h/SlabAllocator.h"
   2:src/SlabAllocator.cpp **** #include "../h/BuddyAllocator.h"
   3:src/SlabAllocator.cpp **** 
   4:src/SlabAllocator.cpp **** void SlabAllocator::initAllocator(void *space, int blockNum) {
  12              		.loc 1 4 62
  13              		.cfi_startproc
  14              	.LVL0:
  15 0000 130101FF 		addi	sp,sp,-16
  16              		.cfi_def_cfa_offset 16
  17 0004 23341100 		sd	ra,8(sp)
  18 0008 23308100 		sd	s0,0(sp)
  19              		.cfi_offset 1, -8
  20              		.cfi_offset 8, -16
  21 000c 13040101 		addi	s0,sp,16
  22              		.cfi_def_cfa 8, 0
   5:src/SlabAllocator.cpp ****     BuddyAllocator::initBuddy();
  23              		.loc 1 5 5
  24              		.loc 1 5 30 is_stmt 0
  25 0010 97000000 		call	_ZN14BuddyAllocator9initBuddyEv@plt
  25      E7800000 
  26              	.LVL1:
   6:src/SlabAllocator.cpp **** }
  27              		.loc 1 6 1
  28 0018 83308100 		ld	ra,8(sp)
  29              		.cfi_restore 1
  30 001c 03340100 		ld	s0,0(sp)
  31              		.cfi_restore 8
  32              		.cfi_def_cfa 2, 16
  33 0020 13010101 		addi	sp,sp,16
  34              		.cfi_def_cfa_offset 0
  35 0024 67800000 		jr	ra
  36              		.cfi_endproc
  37              	.LFE11:
  39              		.align	2
  40              		.globl	_ZN13SlabAllocator11createCacheEPKcmPFvPvES4_
  42              	_ZN13SlabAllocator11createCacheEPKcmPFvPvES4_:
  43              	.LFB12:
   7:src/SlabAllocator.cpp **** 
   8:src/SlabAllocator.cpp **** Cache* SlabAllocator::createCache(const char *name, size_t size, void (*ctor)(void *), void (*dtor)
  44              		.loc 1 8 110 is_stmt 1
  45              		.cfi_startproc
  46              	.LVL2:
  47 0028 130101FC 		addi	sp,sp,-64
  48              		.cfi_def_cfa_offset 64
  49 002c 233C1102 		sd	ra,56(sp)
  50 0030 23388102 		sd	s0,48(sp)
  51 0034 23349102 		sd	s1,40(sp)
GAS LISTING /tmp/ccud4a2C.s 			page 2


  52 0038 23302103 		sd	s2,32(sp)
  53 003c 233C3101 		sd	s3,24(sp)
  54 0040 23384101 		sd	s4,16(sp)
  55 0044 23345101 		sd	s5,8(sp)
  56              		.cfi_offset 1, -8
  57              		.cfi_offset 8, -16
  58              		.cfi_offset 9, -24
  59              		.cfi_offset 18, -32
  60              		.cfi_offset 19, -40
  61              		.cfi_offset 20, -48
  62              		.cfi_offset 21, -56
  63 0048 13040104 		addi	s0,sp,64
  64              		.cfi_def_cfa 8, 0
  65 004c 13090500 		mv	s2,a0
  66 0050 93890500 		mv	s3,a1
  67 0054 130A0600 		mv	s4,a2
  68 0058 938A0600 		mv	s5,a3
   9:src/SlabAllocator.cpp ****     Cache* cache = (Cache*)BuddyAllocator::buddyAlloc(1);
  69              		.loc 1 9 5
  70              		.loc 1 9 54 is_stmt 0
  71 005c 13051000 		li	a0,1
  72              	.LVL3:
  73 0060 97000000 		call	_ZN14BuddyAllocator10buddyAllocEm@plt
  73      E7800000 
  74              	.LVL4:
  75 0068 93040500 		mv	s1,a0
  76              	.LVL5:
  10:src/SlabAllocator.cpp ****     cache->initCache(name, size, ctor, dtor);
  77              		.loc 1 10 5 is_stmt 1
  78              		.loc 1 10 21 is_stmt 0
  79 006c 13870A00 		mv	a4,s5
  80 0070 93060A00 		mv	a3,s4
  81 0074 13860900 		mv	a2,s3
  82 0078 93050900 		mv	a1,s2
  83 007c 97000000 		call	_ZN5Cache9initCacheEPKcmPFvPvES4_@plt
  83      E7800000 
  84              	.LVL6:
  11:src/SlabAllocator.cpp **** 
  12:src/SlabAllocator.cpp ****     return cache;
  85              		.loc 1 12 5 is_stmt 1
  13:src/SlabAllocator.cpp **** }
  86              		.loc 1 13 1 is_stmt 0
  87 0084 13850400 		mv	a0,s1
  88 0088 83308103 		ld	ra,56(sp)
  89              		.cfi_restore 1
  90 008c 03340103 		ld	s0,48(sp)
  91              		.cfi_restore 8
  92              		.cfi_def_cfa 2, 64
  93 0090 83348102 		ld	s1,40(sp)
  94              		.cfi_restore 9
  95              	.LVL7:
  96 0094 03390102 		ld	s2,32(sp)
  97              		.cfi_restore 18
  98              	.LVL8:
  99 0098 83398101 		ld	s3,24(sp)
 100              		.cfi_restore 19
 101              	.LVL9:
GAS LISTING /tmp/ccud4a2C.s 			page 3


 102 009c 033A0101 		ld	s4,16(sp)
 103              		.cfi_restore 20
 104              	.LVL10:
 105 00a0 833A8100 		ld	s5,8(sp)
 106              		.cfi_restore 21
 107              	.LVL11:
 108 00a4 13010104 		addi	sp,sp,64
 109              		.cfi_def_cfa_offset 0
 110 00a8 67800000 		jr	ra
 111              		.cfi_endproc
 112              	.LFE12:
 114              		.align	2
 115              		.globl	_ZN13SlabAllocator9allocSlotEP5Cache
 117              	_ZN13SlabAllocator9allocSlotEP5Cache:
 118              	.LFB13:
  14:src/SlabAllocator.cpp **** 
  15:src/SlabAllocator.cpp **** void *SlabAllocator::allocSlot(Cache *cache) {
 119              		.loc 1 15 46 is_stmt 1
 120              		.cfi_startproc
 121              	.LVL12:
 122 00ac 130101FF 		addi	sp,sp,-16
 123              		.cfi_def_cfa_offset 16
 124 00b0 23341100 		sd	ra,8(sp)
 125 00b4 23308100 		sd	s0,0(sp)
 126              		.cfi_offset 1, -8
 127              		.cfi_offset 8, -16
 128 00b8 13040101 		addi	s0,sp,16
 129              		.cfi_def_cfa 8, 0
  16:src/SlabAllocator.cpp ****     return (void*)((char*)cache->allocateSlot() + sizeof(Cache::Slot)); // za pocetnu adresu objekt
 130              		.loc 1 16 5
 131              		.loc 1 16 46 is_stmt 0
 132 00bc 97000000 		call	_ZN5Cache12allocateSlotEv@plt
 132      E7800000 
 133              	.LVL13:
  17:src/SlabAllocator.cpp **** }
 134              		.loc 1 17 1
 135 00c4 13058501 		addi	a0,a0,24
 136 00c8 83308100 		ld	ra,8(sp)
 137              		.cfi_restore 1
 138 00cc 03340100 		ld	s0,0(sp)
 139              		.cfi_restore 8
 140              		.cfi_def_cfa 2, 16
 141 00d0 13010101 		addi	sp,sp,16
 142              		.cfi_def_cfa_offset 0
 143 00d4 67800000 		jr	ra
 144              		.cfi_endproc
 145              	.LFE13:
 147              		.align	2
 148              		.globl	_ZN13SlabAllocator8freeSlotEP5CachePv
 150              	_ZN13SlabAllocator8freeSlotEP5CachePv:
 151              	.LFB14:
  18:src/SlabAllocator.cpp **** 
  19:src/SlabAllocator.cpp **** void SlabAllocator::freeSlot(Cache *cache, void *obj) {
 152              		.loc 1 19 55 is_stmt 1
 153              		.cfi_startproc
 154              	.LVL14:
 155 00d8 130101FF 		addi	sp,sp,-16
GAS LISTING /tmp/ccud4a2C.s 			page 4


 156              		.cfi_def_cfa_offset 16
 157 00dc 23341100 		sd	ra,8(sp)
 158 00e0 23308100 		sd	s0,0(sp)
 159              		.cfi_offset 1, -8
 160              		.cfi_offset 8, -16
 161 00e4 13040101 		addi	s0,sp,16
 162              		.cfi_def_cfa 8, 0
  20:src/SlabAllocator.cpp ****     cache->freeSlot((Cache::Slot*)((char*)obj - sizeof(Cache::Slot))); // za pocetnu adresu slota
 163              		.loc 1 20 5
 164              		.loc 1 20 20 is_stmt 0
 165 00e8 938585FE 		addi	a1,a1,-24
 166              	.LVL15:
 167 00ec 97000000 		call	_ZN5Cache8freeSlotEPNS_4SlotE@plt
 167      E7800000 
 168              	.LVL16:
  21:src/SlabAllocator.cpp **** }
 169              		.loc 1 21 1
 170 00f4 83308100 		ld	ra,8(sp)
 171              		.cfi_restore 1
 172 00f8 03340100 		ld	s0,0(sp)
 173              		.cfi_restore 8
 174              		.cfi_def_cfa 2, 16
 175 00fc 13010101 		addi	sp,sp,16
 176              		.cfi_def_cfa_offset 0
 177 0100 67800000 		jr	ra
 178              		.cfi_endproc
 179              	.LFE14:
 181              		.align	2
 182              		.globl	_ZN13SlabAllocator17printErrorMessageEP5Cache
 184              	_ZN13SlabAllocator17printErrorMessageEP5Cache:
 185              	.LFB15:
  22:src/SlabAllocator.cpp **** 
  23:src/SlabAllocator.cpp **** int SlabAllocator::printErrorMessage(Cache *cache) {
 186              		.loc 1 23 52 is_stmt 1
 187              		.cfi_startproc
 188              	.LVL17:
 189 0104 130101FF 		addi	sp,sp,-16
 190              		.cfi_def_cfa_offset 16
 191 0108 23341100 		sd	ra,8(sp)
 192 010c 23308100 		sd	s0,0(sp)
 193              		.cfi_offset 1, -8
 194              		.cfi_offset 8, -16
 195 0110 13040101 		addi	s0,sp,16
 196              		.cfi_def_cfa 8, 0
  24:src/SlabAllocator.cpp ****     return cache->printErrorMessage();
 197              		.loc 1 24 5
 198              		.loc 1 24 36 is_stmt 0
 199 0114 97000000 		call	_ZN5Cache17printErrorMessageEv@plt
 199      E7800000 
 200              	.LVL18:
  25:src/SlabAllocator.cpp **** }
 201              		.loc 1 25 1
 202 011c 83308100 		ld	ra,8(sp)
 203              		.cfi_restore 1
 204 0120 03340100 		ld	s0,0(sp)
 205              		.cfi_restore 8
 206              		.cfi_def_cfa 2, 16
GAS LISTING /tmp/ccud4a2C.s 			page 5


 207 0124 13010101 		addi	sp,sp,16
 208              		.cfi_def_cfa_offset 0
 209 0128 67800000 		jr	ra
 210              		.cfi_endproc
 211              	.LFE15:
 213              		.align	2
 214              		.globl	_ZN13SlabAllocator14printCacheInfoEP5Cache
 216              	_ZN13SlabAllocator14printCacheInfoEP5Cache:
 217              	.LFB16:
  26:src/SlabAllocator.cpp **** 
  27:src/SlabAllocator.cpp **** void SlabAllocator::printCacheInfo(Cache *cache) {
 218              		.loc 1 27 50 is_stmt 1
 219              		.cfi_startproc
 220              	.LVL19:
 221 012c 130101FF 		addi	sp,sp,-16
 222              		.cfi_def_cfa_offset 16
 223 0130 23341100 		sd	ra,8(sp)
 224 0134 23308100 		sd	s0,0(sp)
 225              		.cfi_offset 1, -8
 226              		.cfi_offset 8, -16
 227 0138 13040101 		addi	s0,sp,16
 228              		.cfi_def_cfa 8, 0
  28:src/SlabAllocator.cpp ****     cache->printCacheInfo();
 229              		.loc 1 28 5
 230              		.loc 1 28 26 is_stmt 0
 231 013c 97000000 		call	_ZN5Cache14printCacheInfoEv@plt
 231      E7800000 
 232              	.LVL20:
  29:src/SlabAllocator.cpp **** }
 233              		.loc 1 29 1
 234 0144 83308100 		ld	ra,8(sp)
 235              		.cfi_restore 1
 236 0148 03340100 		ld	s0,0(sp)
 237              		.cfi_restore 8
 238              		.cfi_def_cfa 2, 16
 239 014c 13010101 		addi	sp,sp,16
 240              		.cfi_def_cfa_offset 0
 241 0150 67800000 		jr	ra
 242              		.cfi_endproc
 243              	.LFE16:
 245              		.align	2
 246              		.globl	_ZN13SlabAllocator16deallocFreeSlabsEP5Cache
 248              	_ZN13SlabAllocator16deallocFreeSlabsEP5Cache:
 249              	.LFB17:
  30:src/SlabAllocator.cpp **** 
  31:src/SlabAllocator.cpp **** int SlabAllocator::deallocFreeSlabs(Cache *cache) {
 250              		.loc 1 31 51 is_stmt 1
 251              		.cfi_startproc
 252              	.LVL21:
 253 0154 130101FF 		addi	sp,sp,-16
 254              		.cfi_def_cfa_offset 16
 255 0158 23341100 		sd	ra,8(sp)
 256 015c 23308100 		sd	s0,0(sp)
 257              		.cfi_offset 1, -8
 258              		.cfi_offset 8, -16
 259 0160 13040101 		addi	s0,sp,16
 260              		.cfi_def_cfa 8, 0
GAS LISTING /tmp/ccud4a2C.s 			page 6


  32:src/SlabAllocator.cpp ****     return cache->deallocFreeSlabs();
 261              		.loc 1 32 5
 262              		.loc 1 32 35 is_stmt 0
 263 0164 97000000 		call	_ZN5Cache16deallocFreeSlabsEv@plt
 263      E7800000 
 264              	.LVL22:
  33:src/SlabAllocator.cpp **** }
 265              		.loc 1 33 1
 266 016c 83308100 		ld	ra,8(sp)
 267              		.cfi_restore 1
 268 0170 03340100 		ld	s0,0(sp)
 269              		.cfi_restore 8
 270              		.cfi_def_cfa 2, 16
 271 0174 13010101 		addi	sp,sp,16
 272              		.cfi_def_cfa_offset 0
 273 0178 67800000 		jr	ra
 274              		.cfi_endproc
 275              	.LFE17:
 277              		.align	2
 278              		.globl	_ZN13SlabAllocator12deallocCacheEP5Cache
 280              	_ZN13SlabAllocator12deallocCacheEP5Cache:
 281              	.LFB18:
  34:src/SlabAllocator.cpp **** 
  35:src/SlabAllocator.cpp **** void SlabAllocator::deallocCache(Cache *cache) {
 282              		.loc 1 35 48 is_stmt 1
 283              		.cfi_startproc
 284              	.LVL23:
 285 017c 130101FF 		addi	sp,sp,-16
 286              		.cfi_def_cfa_offset 16
 287 0180 23341100 		sd	ra,8(sp)
 288 0184 23308100 		sd	s0,0(sp)
 289              		.cfi_offset 1, -8
 290              		.cfi_offset 8, -16
 291 0188 13040101 		addi	s0,sp,16
 292              		.cfi_def_cfa 8, 0
  36:src/SlabAllocator.cpp ****     cache->deallocCache();
 293              		.loc 1 36 5
 294              		.loc 1 36 24 is_stmt 0
 295 018c 97000000 		call	_ZN5Cache12deallocCacheEv@plt
 295      E7800000 
 296              	.LVL24:
  37:src/SlabAllocator.cpp **** }
 297              		.loc 1 37 1
 298 0194 83308100 		ld	ra,8(sp)
 299              		.cfi_restore 1
 300 0198 03340100 		ld	s0,0(sp)
 301              		.cfi_restore 8
 302              		.cfi_def_cfa 2, 16
 303 019c 13010101 		addi	sp,sp,16
 304              		.cfi_def_cfa_offset 0
 305 01a0 67800000 		jr	ra
 306              		.cfi_endproc
 307              	.LFE18:
 309              	.Letext0:
 310              		.file 2 "src/../h/hw.h"
 311              		.file 3 "src/../h/Cache.h"
 312              		.file 4 "src/../h/SlabAllocator.h"
GAS LISTING /tmp/ccud4a2C.s 			page 7


 313              		.file 5 "src/../h/BuddyAllocator.h"
GAS LISTING /tmp/ccud4a2C.s 			page 8


DEFINED SYMBOLS
                            *ABS*:0000000000000000 SlabAllocator.cpp
     /tmp/ccud4a2C.s:9      .text:0000000000000000 _ZN13SlabAllocator13initAllocatorEPvi
     /tmp/ccud4a2C.s:13     .text:0000000000000000 .L0 
     /tmp/ccud4a2C.s:15     .text:0000000000000000 .L0 
     /tmp/ccud4a2C.s:16     .text:0000000000000004 .L0 
     /tmp/ccud4a2C.s:19     .text:000000000000000c .L0 
     /tmp/ccud4a2C.s:20     .text:000000000000000c .L0 
     /tmp/ccud4a2C.s:22     .text:0000000000000010 .L0 
     /tmp/ccud4a2C.s:24     .text:0000000000000010 .L0 
     /tmp/ccud4a2C.s:25     .text:0000000000000010 .L0 
     /tmp/ccud4a2C.s:28     .text:0000000000000018 .L0 
     /tmp/ccud4a2C.s:29     .text:000000000000001c .L0 
     /tmp/ccud4a2C.s:31     .text:0000000000000020 .L0 
     /tmp/ccud4a2C.s:32     .text:0000000000000020 .L0 
     /tmp/ccud4a2C.s:34     .text:0000000000000024 .L0 
     /tmp/ccud4a2C.s:36     .text:0000000000000028 .L0 
     /tmp/ccud4a2C.s:42     .text:0000000000000028 _ZN13SlabAllocator11createCacheEPKcmPFvPvES4_
     /tmp/ccud4a2C.s:45     .text:0000000000000028 .L0 
     /tmp/ccud4a2C.s:47     .text:0000000000000028 .L0 
     /tmp/ccud4a2C.s:48     .text:000000000000002c .L0 
     /tmp/ccud4a2C.s:56     .text:0000000000000048 .L0 
     /tmp/ccud4a2C.s:57     .text:0000000000000048 .L0 
     /tmp/ccud4a2C.s:58     .text:0000000000000048 .L0 
     /tmp/ccud4a2C.s:59     .text:0000000000000048 .L0 
     /tmp/ccud4a2C.s:60     .text:0000000000000048 .L0 
     /tmp/ccud4a2C.s:61     .text:0000000000000048 .L0 
     /tmp/ccud4a2C.s:62     .text:0000000000000048 .L0 
     /tmp/ccud4a2C.s:64     .text:000000000000004c .L0 
     /tmp/ccud4a2C.s:70     .text:000000000000005c .L0 
     /tmp/ccud4a2C.s:71     .text:000000000000005c .L0 
     /tmp/ccud4a2C.s:78     .text:000000000000006c .L0 
     /tmp/ccud4a2C.s:79     .text:000000000000006c .L0 
     /tmp/ccud4a2C.s:86     .text:0000000000000084 .L0 
     /tmp/ccud4a2C.s:87     .text:0000000000000084 .L0 
     /tmp/ccud4a2C.s:89     .text:000000000000008c .L0 
     /tmp/ccud4a2C.s:91     .text:0000000000000090 .L0 
     /tmp/ccud4a2C.s:92     .text:0000000000000090 .L0 
     /tmp/ccud4a2C.s:94     .text:0000000000000094 .L0 
     /tmp/ccud4a2C.s:97     .text:0000000000000098 .L0 
     /tmp/ccud4a2C.s:100    .text:000000000000009c .L0 
     /tmp/ccud4a2C.s:103    .text:00000000000000a0 .L0 
     /tmp/ccud4a2C.s:106    .text:00000000000000a4 .L0 
     /tmp/ccud4a2C.s:109    .text:00000000000000a8 .L0 
     /tmp/ccud4a2C.s:111    .text:00000000000000ac .L0 
     /tmp/ccud4a2C.s:117    .text:00000000000000ac _ZN13SlabAllocator9allocSlotEP5Cache
     /tmp/ccud4a2C.s:120    .text:00000000000000ac .L0 
     /tmp/ccud4a2C.s:122    .text:00000000000000ac .L0 
     /tmp/ccud4a2C.s:123    .text:00000000000000b0 .L0 
     /tmp/ccud4a2C.s:126    .text:00000000000000b8 .L0 
     /tmp/ccud4a2C.s:127    .text:00000000000000b8 .L0 
     /tmp/ccud4a2C.s:129    .text:00000000000000bc .L0 
     /tmp/ccud4a2C.s:131    .text:00000000000000bc .L0 
     /tmp/ccud4a2C.s:132    .text:00000000000000bc .L0 
     /tmp/ccud4a2C.s:135    .text:00000000000000c4 .L0 
     /tmp/ccud4a2C.s:137    .text:00000000000000cc .L0 
     /tmp/ccud4a2C.s:139    .text:00000000000000d0 .L0 
GAS LISTING /tmp/ccud4a2C.s 			page 9


     /tmp/ccud4a2C.s:140    .text:00000000000000d0 .L0 
     /tmp/ccud4a2C.s:142    .text:00000000000000d4 .L0 
     /tmp/ccud4a2C.s:144    .text:00000000000000d8 .L0 
     /tmp/ccud4a2C.s:150    .text:00000000000000d8 _ZN13SlabAllocator8freeSlotEP5CachePv
     /tmp/ccud4a2C.s:153    .text:00000000000000d8 .L0 
     /tmp/ccud4a2C.s:155    .text:00000000000000d8 .L0 
     /tmp/ccud4a2C.s:156    .text:00000000000000dc .L0 
     /tmp/ccud4a2C.s:159    .text:00000000000000e4 .L0 
     /tmp/ccud4a2C.s:160    .text:00000000000000e4 .L0 
     /tmp/ccud4a2C.s:162    .text:00000000000000e8 .L0 
     /tmp/ccud4a2C.s:164    .text:00000000000000e8 .L0 
     /tmp/ccud4a2C.s:165    .text:00000000000000e8 .L0 
     /tmp/ccud4a2C.s:170    .text:00000000000000f4 .L0 
     /tmp/ccud4a2C.s:171    .text:00000000000000f8 .L0 
     /tmp/ccud4a2C.s:173    .text:00000000000000fc .L0 
     /tmp/ccud4a2C.s:174    .text:00000000000000fc .L0 
     /tmp/ccud4a2C.s:176    .text:0000000000000100 .L0 
     /tmp/ccud4a2C.s:178    .text:0000000000000104 .L0 
     /tmp/ccud4a2C.s:184    .text:0000000000000104 _ZN13SlabAllocator17printErrorMessageEP5Cache
     /tmp/ccud4a2C.s:187    .text:0000000000000104 .L0 
     /tmp/ccud4a2C.s:189    .text:0000000000000104 .L0 
     /tmp/ccud4a2C.s:190    .text:0000000000000108 .L0 
     /tmp/ccud4a2C.s:193    .text:0000000000000110 .L0 
     /tmp/ccud4a2C.s:194    .text:0000000000000110 .L0 
     /tmp/ccud4a2C.s:196    .text:0000000000000114 .L0 
     /tmp/ccud4a2C.s:198    .text:0000000000000114 .L0 
     /tmp/ccud4a2C.s:199    .text:0000000000000114 .L0 
     /tmp/ccud4a2C.s:202    .text:000000000000011c .L0 
     /tmp/ccud4a2C.s:203    .text:0000000000000120 .L0 
     /tmp/ccud4a2C.s:205    .text:0000000000000124 .L0 
     /tmp/ccud4a2C.s:206    .text:0000000000000124 .L0 
     /tmp/ccud4a2C.s:208    .text:0000000000000128 .L0 
     /tmp/ccud4a2C.s:210    .text:000000000000012c .L0 
     /tmp/ccud4a2C.s:216    .text:000000000000012c _ZN13SlabAllocator14printCacheInfoEP5Cache
     /tmp/ccud4a2C.s:219    .text:000000000000012c .L0 
     /tmp/ccud4a2C.s:221    .text:000000000000012c .L0 
     /tmp/ccud4a2C.s:222    .text:0000000000000130 .L0 
     /tmp/ccud4a2C.s:225    .text:0000000000000138 .L0 
     /tmp/ccud4a2C.s:226    .text:0000000000000138 .L0 
     /tmp/ccud4a2C.s:228    .text:000000000000013c .L0 
     /tmp/ccud4a2C.s:230    .text:000000000000013c .L0 
     /tmp/ccud4a2C.s:231    .text:000000000000013c .L0 
     /tmp/ccud4a2C.s:234    .text:0000000000000144 .L0 
     /tmp/ccud4a2C.s:235    .text:0000000000000148 .L0 
     /tmp/ccud4a2C.s:237    .text:000000000000014c .L0 
     /tmp/ccud4a2C.s:238    .text:000000000000014c .L0 
     /tmp/ccud4a2C.s:240    .text:0000000000000150 .L0 
     /tmp/ccud4a2C.s:242    .text:0000000000000154 .L0 
     /tmp/ccud4a2C.s:248    .text:0000000000000154 _ZN13SlabAllocator16deallocFreeSlabsEP5Cache
     /tmp/ccud4a2C.s:251    .text:0000000000000154 .L0 
     /tmp/ccud4a2C.s:253    .text:0000000000000154 .L0 
     /tmp/ccud4a2C.s:254    .text:0000000000000158 .L0 
     /tmp/ccud4a2C.s:257    .text:0000000000000160 .L0 
     /tmp/ccud4a2C.s:258    .text:0000000000000160 .L0 
     /tmp/ccud4a2C.s:260    .text:0000000000000164 .L0 
     /tmp/ccud4a2C.s:262    .text:0000000000000164 .L0 
     /tmp/ccud4a2C.s:263    .text:0000000000000164 .L0 
GAS LISTING /tmp/ccud4a2C.s 			page 10


     /tmp/ccud4a2C.s:266    .text:000000000000016c .L0 
     /tmp/ccud4a2C.s:267    .text:0000000000000170 .L0 
     /tmp/ccud4a2C.s:269    .text:0000000000000174 .L0 
     /tmp/ccud4a2C.s:270    .text:0000000000000174 .L0 
     /tmp/ccud4a2C.s:272    .text:0000000000000178 .L0 
     /tmp/ccud4a2C.s:274    .text:000000000000017c .L0 
     /tmp/ccud4a2C.s:280    .text:000000000000017c _ZN13SlabAllocator12deallocCacheEP5Cache
     /tmp/ccud4a2C.s:283    .text:000000000000017c .L0 
     /tmp/ccud4a2C.s:285    .text:000000000000017c .L0 
     /tmp/ccud4a2C.s:286    .text:0000000000000180 .L0 
     /tmp/ccud4a2C.s:289    .text:0000000000000188 .L0 
     /tmp/ccud4a2C.s:290    .text:0000000000000188 .L0 
     /tmp/ccud4a2C.s:292    .text:000000000000018c .L0 
     /tmp/ccud4a2C.s:294    .text:000000000000018c .L0 
     /tmp/ccud4a2C.s:295    .text:000000000000018c .L0 
     /tmp/ccud4a2C.s:298    .text:0000000000000194 .L0 
     /tmp/ccud4a2C.s:299    .text:0000000000000198 .L0 
     /tmp/ccud4a2C.s:301    .text:000000000000019c .L0 
     /tmp/ccud4a2C.s:302    .text:000000000000019c .L0 
     /tmp/ccud4a2C.s:304    .text:00000000000001a0 .L0 
     /tmp/ccud4a2C.s:306    .text:00000000000001a4 .L0 
     /tmp/ccud4a2C.s:314    .text:00000000000001a4 .L0 
     /tmp/ccud4a2C.s:1645   .debug_abbrev:0000000000000000 .Ldebug_abbrev0
     /tmp/ccud4a2C.s:3045   .debug_str:000000000000085d .LASF133
     /tmp/ccud4a2C.s:2863   .debug_str:00000000000001d9 .LASF134
     /tmp/ccud4a2C.s:2833   .debug_str:00000000000000cb .LASF135
     /tmp/ccud4a2C.s:5      .text:0000000000000000 .Ltext0
     /tmp/ccud4a2C.s:309    .text:00000000000001a4 .Letext0
     /tmp/ccud4a2C.s:2813   .debug_line:0000000000000000 .Ldebug_line0
     /tmp/ccud4a2C.s:2961   .debug_str:0000000000000559 .LASF0
     /tmp/ccud4a2C.s:2975   .debug_str:00000000000005b7 .LASF1
     /tmp/ccud4a2C.s:2943   .debug_str:0000000000000489 .LASF2
     /tmp/ccud4a2C.s:2919   .debug_str:00000000000003cd .LASF4
     /tmp/ccud4a2C.s:3021   .debug_str:0000000000000798 .LASF3
     /tmp/ccud4a2C.s:2847   .debug_str:0000000000000162 .LASF5
     /tmp/ccud4a2C.s:2977   .debug_str:00000000000005ca .LASF6
     /tmp/ccud4a2C.s:2959   .debug_str:0000000000000546 .LASF7
     /tmp/ccud4a2C.s:3063   .debug_str:0000000000000998 .LASF8
     /tmp/ccud4a2C.s:2905   .debug_str:0000000000000345 .LASF9
     /tmp/ccud4a2C.s:2991   .debug_str:0000000000000665 .LASF10
     /tmp/ccud4a2C.s:3049   .debug_str:0000000000000929 .LASF11
     /tmp/ccud4a2C.s:2851   .debug_str:0000000000000174 .LASF12
     /tmp/ccud4a2C.s:2823   .debug_str:000000000000004f .LASF13
     /tmp/ccud4a2C.s:2945   .debug_str:0000000000000497 .LASF14
     /tmp/ccud4a2C.s:3013   .debug_str:000000000000072c .LASF15
     /tmp/ccud4a2C.s:2875   .debug_str:000000000000025f .LASF16
     /tmp/ccud4a2C.s:2921   .debug_str:00000000000003d4 .LASF77
     /tmp/ccud4a2C.s:2843   .debug_str:0000000000000134 .LASF136
     /tmp/ccud4a2C.s:2867   .debug_str:0000000000000214 .LASF17
     /tmp/ccud4a2C.s:3083   .debug_str:0000000000000a62 .LASF18
     /tmp/ccud4a2C.s:2941   .debug_str:000000000000047f .LASF137
     /tmp/ccud4a2C.s:3009   .debug_str:0000000000000720 .LASF19
     /tmp/ccud4a2C.s:3003   .debug_str:00000000000006f7 .LASF20
     /tmp/ccud4a2C.s:2965   .debug_str:000000000000056c .LASF21
     /tmp/ccud4a2C.s:3047   .debug_str:0000000000000921 .LASF22
     /tmp/ccud4a2C.s:3029   .debug_str:00000000000007dd .LASF26
     /tmp/ccud4a2C.s:2911   .debug_str:0000000000000388 .LASF23
GAS LISTING /tmp/ccud4a2C.s 			page 11


     /tmp/ccud4a2C.s:3091   .debug_str:0000000000000a92 .LASF24
     /tmp/ccud4a2C.s:3071   .debug_str:0000000000000a04 .LASF25
     /tmp/ccud4a2C.s:3087   .debug_str:0000000000000a7d .LASF27
     /tmp/ccud4a2C.s:3051   .debug_str:0000000000000938 .LASF28
     /tmp/ccud4a2C.s:2841   .debug_str:000000000000012e .LASF29
     /tmp/ccud4a2C.s:2903   .debug_str:0000000000000339 .LASF30
     /tmp/ccud4a2C.s:2993   .debug_str:0000000000000674 .LASF55
     /tmp/ccud4a2C.s:3067   .debug_str:00000000000009cc .LASF57
     /tmp/ccud4a2C.s:3093   .debug_str:0000000000000a97 .LASF31
     /tmp/ccud4a2C.s:2871   .debug_str:000000000000022a .LASF34
     /tmp/ccud4a2C.s:2855   .debug_str:0000000000000191 .LASF36
     /tmp/ccud4a2C.s:3055   .debug_str:0000000000000952 .LASF32
     /tmp/ccud4a2C.s:3005   .debug_str:00000000000006ff .LASF33
     /tmp/ccud4a2C.s:2929   .debug_str:0000000000000419 .LASF35
     /tmp/ccud4a2C.s:2995   .debug_str:0000000000000680 .LASF37
     /tmp/ccud4a2C.s:2935   .debug_str:000000000000043b .LASF38
     /tmp/ccud4a2C.s:2997   .debug_str:00000000000006a3 .LASF39
     /tmp/ccud4a2C.s:2931   .debug_str:0000000000000425 .LASF40
     /tmp/ccud4a2C.s:2925   .debug_str:0000000000000400 .LASF41
     /tmp/ccud4a2C.s:2981   .debug_str:00000000000005e9 .LASF42
     /tmp/ccud4a2C.s:2829   .debug_str:000000000000009a .LASF43
     /tmp/ccud4a2C.s:2879   .debug_str:000000000000027f .LASF44
     /tmp/ccud4a2C.s:2859   .debug_str:00000000000001c3 .LASF45
     /tmp/ccud4a2C.s:2849   .debug_str:0000000000000169 .LASF46
     /tmp/ccud4a2C.s:2913   .debug_str:0000000000000392 .LASF47
     /tmp/ccud4a2C.s:2999   .debug_str:00000000000006c9 .LASF48
     /tmp/ccud4a2C.s:2989   .debug_str:0000000000000640 .LASF49
     /tmp/ccud4a2C.s:2979   .debug_str:00000000000005dd .LASF50
     /tmp/ccud4a2C.s:2973   .debug_str:000000000000059e .LASF51
     /tmp/ccud4a2C.s:2857   .debug_str:00000000000001b5 .LASF52
     /tmp/ccud4a2C.s:2927   .debug_str:000000000000040b .LASF53
     /tmp/ccud4a2C.s:3025   .debug_str:00000000000007cc .LASF54
     /tmp/ccud4a2C.s:3019   .debug_str:0000000000000786 .LASF61
     /tmp/ccud4a2C.s:2891   .debug_str:00000000000002ca .LASF63
     /tmp/ccud4a2C.s:3033   .debug_str:0000000000000810 .LASF56
     /tmp/ccud4a2C.s:3061   .debug_str:000000000000097c .LASF58
     /tmp/ccud4a2C.s:2877   .debug_str:0000000000000275 .LASF59
     /tmp/ccud4a2C.s:3073   .debug_str:0000000000000a0f .LASF60
     /tmp/ccud4a2C.s:3077   .debug_str:0000000000000a3d .LASF62
     /tmp/ccud4a2C.s:3069   .debug_str:00000000000009ea .LASF64
     /tmp/ccud4a2C.s:2817   .debug_str:000000000000000a .LASF65
     /tmp/ccud4a2C.s:3097   .debug_str:0000000000000aba .LASF66
     /tmp/ccud4a2C.s:2967   .debug_str:0000000000000571 .LASF67
     /tmp/ccud4a2C.s:2953   .debug_str:00000000000004de .LASF68
     /tmp/ccud4a2C.s:2897   .debug_str:0000000000000305 .LASF69
     /tmp/ccud4a2C.s:2819   .debug_str:0000000000000013 .LASF70
     /tmp/ccud4a2C.s:2949   .debug_str:00000000000004a9 .LASF71
     /tmp/ccud4a2C.s:2899   .debug_str:0000000000000312 .LASF72
     /tmp/ccud4a2C.s:2853   .debug_str:0000000000000184 .LASF73
     /tmp/ccud4a2C.s:3001   .debug_str:00000000000006dd .LASF74
     /tmp/ccud4a2C.s:2893   .debug_str:00000000000002e9 .LASF75
     /tmp/ccud4a2C.s:2837   .debug_str:00000000000000fa .LASF76
     /tmp/ccud4a2C.s:3035   .debug_str:000000000000081f .LASF78
     /tmp/ccud4a2C.s:3085   .debug_str:0000000000000a70 .LASF79
     /tmp/ccud4a2C.s:2895   .debug_str:00000000000002ee .LASF80
     /tmp/ccud4a2C.s:2963   .debug_str:0000000000000566 .LASF98
     /tmp/ccud4a2C.s:2869   .debug_str:000000000000021c .LASF81
GAS LISTING /tmp/ccud4a2C.s 			page 12


     /tmp/ccud4a2C.s:2923   .debug_str:00000000000003da .LASF82
     /tmp/ccud4a2C.s:3075   .debug_str:0000000000000a31 .LASF83
     /tmp/ccud4a2C.s:2825   .debug_str:000000000000005f .LASF84
     /tmp/ccud4a2C.s:2983   .debug_str:00000000000005f6 .LASF85
     /tmp/ccud4a2C.s:2951   .debug_str:00000000000004b5 .LASF86
     /tmp/ccud4a2C.s:2939   .debug_str:0000000000000475 .LASF87
     /tmp/ccud4a2C.s:2865   .debug_str:00000000000001ef .LASF88
     /tmp/ccud4a2C.s:2915   .debug_str:000000000000039d .LASF89
     /tmp/ccud4a2C.s:3031   .debug_str:00000000000007e2 .LASF90
     /tmp/ccud4a2C.s:2937   .debug_str:000000000000044a .LASF91
     /tmp/ccud4a2C.s:2955   .debug_str:00000000000004fc .LASF92
     /tmp/ccud4a2C.s:2885   .debug_str:00000000000002b2 .LASF93
     /tmp/ccud4a2C.s:3095   .debug_str:0000000000000aa0 .LASF94
     /tmp/ccud4a2C.s:2969   .debug_str:0000000000000582 .LASF95
     /tmp/ccud4a2C.s:3079   .debug_str:0000000000000a4a .LASF96
     /tmp/ccud4a2C.s:2845   .debug_str:000000000000013e .LASF97
     /tmp/ccud4a2C.s:2901   .debug_str:0000000000000334 .LASF99
     /tmp/ccud4a2C.s:2933   .debug_str:000000000000042f .LASF100
     /tmp/ccud4a2C.s:2957   .debug_str:0000000000000516 .LASF101
     /tmp/ccud4a2C.s:3027   .debug_str:00000000000007d4 .LASF102
     /tmp/ccud4a2C.s:2839   .debug_str:00000000000000ff .LASF103
     /tmp/ccud4a2C.s:2861   .debug_str:00000000000001cf .LASF104
     /tmp/ccud4a2C.s:2917   .debug_str:00000000000003c3 .LASF105
     /tmp/ccud4a2C.s:2827   .debug_str:000000000000008d .LASF106
     /tmp/ccud4a2C.s:3007   .debug_str:0000000000000708 .LASF107
     /tmp/ccud4a2C.s:3011   .debug_str:0000000000000726 .LASF108
     /tmp/ccud4a2C.s:2835   .debug_str:00000000000000f0 .LASF109
     /tmp/ccud4a2C.s:2971   .debug_str:0000000000000591 .LASF110
     /tmp/ccud4a2C.s:3065   .debug_str:00000000000009a8 .LASF111
     /tmp/ccud4a2C.s:3081   .debug_str:0000000000000a55 .LASF112
     /tmp/ccud4a2C.s:3015   .debug_str:0000000000000742 .LASF113
     /tmp/ccud4a2C.s:2985   .debug_str:0000000000000623 .LASF114
     /tmp/ccud4a2C.s:2909   .debug_str:000000000000035e .LASF115
     /tmp/ccud4a2C.s:2987   .debug_str:0000000000000634 .LASF116
     /tmp/ccud4a2C.s:2873   .debug_str:000000000000023c .LASF117
     /tmp/ccud4a2C.s:3089   .debug_str:0000000000000a82 .LASF118
     /tmp/ccud4a2C.s:2831   .debug_str:00000000000000a3 .LASF119
     /tmp/ccud4a2C.s:3053   .debug_str:0000000000000947 .LASF138
     /tmp/ccud4a2C.s:2883   .debug_str:0000000000000290 .LASF139
     /tmp/ccud4a2C.s:2907   .debug_str:0000000000000353 .LASF120
     /tmp/ccud4a2C.s:2821   .debug_str:000000000000002d .LASF121
     /tmp/ccud4a2C.s:3039   .debug_str:0000000000000833 .LASF122
     /tmp/ccud4a2C.s:3023   .debug_str:00000000000007aa .LASF123
     /tmp/ccud4a2C.s:2815   .debug_str:0000000000000000 .LASF140
     /tmp/ccud4a2C.s:3017   .debug_str:0000000000000766 .LASF141
     /tmp/ccud4a2C.s:3043   .debug_str:0000000000000842 .LASF124
     /tmp/ccud4a2C.s:3059   .debug_str:0000000000000961 .LASF125
     /tmp/ccud4a2C.s:281    .text:000000000000017c .LFB18
     /tmp/ccud4a2C.s:307    .text:00000000000001a4 .LFE18
     /tmp/ccud4a2C.s:3037   .debug_str:000000000000082d .LASF126
     /tmp/ccud4a2C.s:2585   .debug_loc:0000000000000000 .LLST13
     /tmp/ccud4a2C.s:296    .text:0000000000000194 .LVL24
     /tmp/ccud4a2C.s:249    .text:0000000000000154 .LFB17
     /tmp/ccud4a2C.s:275    .text:000000000000017c .LFE17
     /tmp/ccud4a2C.s:2599   .debug_loc:0000000000000039 .LLST12
     /tmp/ccud4a2C.s:264    .text:000000000000016c .LVL22
     /tmp/ccud4a2C.s:217    .text:000000000000012c .LFB16
GAS LISTING /tmp/ccud4a2C.s 			page 13


     /tmp/ccud4a2C.s:243    .text:0000000000000154 .LFE16
     /tmp/ccud4a2C.s:2613   .debug_loc:0000000000000072 .LLST11
     /tmp/ccud4a2C.s:232    .text:0000000000000144 .LVL20
     /tmp/ccud4a2C.s:185    .text:0000000000000104 .LFB15
     /tmp/ccud4a2C.s:211    .text:000000000000012c .LFE15
     /tmp/ccud4a2C.s:2627   .debug_loc:00000000000000ab .LLST10
     /tmp/ccud4a2C.s:200    .text:000000000000011c .LVL18
     /tmp/ccud4a2C.s:151    .text:00000000000000d8 .LFB14
     /tmp/ccud4a2C.s:179    .text:0000000000000104 .LFE14
     /tmp/ccud4a2C.s:2641   .debug_loc:00000000000000e4 .LLST8
     /tmp/ccud4a2C.s:2655   .debug_loc:000000000000011d .LLST9
     /tmp/ccud4a2C.s:168    .text:00000000000000f4 .LVL16
     /tmp/ccud4a2C.s:118    .text:00000000000000ac .LFB13
     /tmp/ccud4a2C.s:145    .text:00000000000000d8 .LFE13
     /tmp/ccud4a2C.s:2675   .debug_loc:000000000000016b .LLST7
     /tmp/ccud4a2C.s:133    .text:00000000000000c4 .LVL13
     /tmp/ccud4a2C.s:43     .text:0000000000000028 .LFB12
     /tmp/ccud4a2C.s:112    .text:00000000000000ac .LFE12
     /tmp/ccud4a2C.s:3057   .debug_str:000000000000095c .LASF127
     /tmp/ccud4a2C.s:2689   .debug_loc:00000000000001a4 .LLST2
     /tmp/ccud4a2C.s:2887   .debug_str:00000000000002bc .LASF128
     /tmp/ccud4a2C.s:2707   .debug_loc:00000000000001f0 .LLST3
     /tmp/ccud4a2C.s:3041   .debug_str:000000000000083d .LASF129
     /tmp/ccud4a2C.s:2725   .debug_loc:000000000000023c .LLST4
     /tmp/ccud4a2C.s:2881   .debug_str:000000000000028b .LASF130
     /tmp/ccud4a2C.s:2743   .debug_loc:0000000000000288 .LLST5
     /tmp/ccud4a2C.s:2761   .debug_loc:00000000000002d4 .LLST6
     /tmp/ccud4a2C.s:74     .text:0000000000000068 .LVL4
     /tmp/ccud4a2C.s:84     .text:0000000000000084 .LVL6
     /tmp/ccud4a2C.s:10     .text:0000000000000000 .LFB11
     /tmp/ccud4a2C.s:37     .text:0000000000000028 .LFE11
     /tmp/ccud4a2C.s:2947   .debug_str:00000000000004a3 .LASF131
     /tmp/ccud4a2C.s:2772   .debug_loc:000000000000030a .LLST0
     /tmp/ccud4a2C.s:2889   .debug_str:00000000000002c1 .LASF132
     /tmp/ccud4a2C.s:2786   .debug_loc:0000000000000343 .LLST1
     /tmp/ccud4a2C.s:26     .text:0000000000000018 .LVL1
     /tmp/ccud4a2C.s:284    .text:000000000000017c .LVL23
     /tmp/ccud4a2C.s:252    .text:0000000000000154 .LVL21
     /tmp/ccud4a2C.s:220    .text:000000000000012c .LVL19
     /tmp/ccud4a2C.s:188    .text:0000000000000104 .LVL17
     /tmp/ccud4a2C.s:154    .text:00000000000000d8 .LVL14
     /tmp/ccud4a2C.s:166    .text:00000000000000ec .LVL15
     /tmp/ccud4a2C.s:121    .text:00000000000000ac .LVL12
     /tmp/ccud4a2C.s:46     .text:0000000000000028 .LVL2
     /tmp/ccud4a2C.s:72     .text:0000000000000060 .LVL3
     /tmp/ccud4a2C.s:98     .text:0000000000000098 .LVL8
     /tmp/ccud4a2C.s:101    .text:000000000000009c .LVL9
     /tmp/ccud4a2C.s:104    .text:00000000000000a0 .LVL10
     /tmp/ccud4a2C.s:107    .text:00000000000000a4 .LVL11
     /tmp/ccud4a2C.s:76     .text:000000000000006c .LVL5
     /tmp/ccud4a2C.s:95     .text:0000000000000094 .LVL7
     /tmp/ccud4a2C.s:14     .text:0000000000000000 .LVL0
     /tmp/ccud4a2C.s:315    .debug_info:0000000000000000 .Ldebug_info0

UNDEFINED SYMBOLS
_ZN14BuddyAllocator9initBuddyEv
_ZN14BuddyAllocator10buddyAllocEm
GAS LISTING /tmp/ccud4a2C.s 			page 14


_ZN5Cache9initCacheEPKcmPFvPvES4_
_ZN5Cache12allocateSlotEv
_ZN5Cache8freeSlotEPNS_4SlotE
_ZN5Cache17printErrorMessageEv
_ZN5Cache14printCacheInfoEv
_ZN5Cache16deallocFreeSlabsEv
_ZN5Cache12deallocCacheEv
