GAS LISTING /tmp/ccknOYF8.s 			page 1


   1              		.file	"slab.cpp"
   2              		.option pic
   3              		.option norelax
   4              		.text
   5              	.Ltext0:
   6              		.align	2
   7              		.globl	_Z9kmem_initPvi
   9              	_Z9kmem_initPvi:
  10              	.LFB3:
  11              		.file 1 "src/slab.cpp"
   1:src/slab.cpp  **** #include "../h/slab.h"
   2:src/slab.cpp  **** #include "../h/SlabAllocator.h"
   3:src/slab.cpp  **** 
   4:src/slab.cpp  **** struct kmem_cache_s {
   5:src/slab.cpp  **** };
   6:src/slab.cpp  **** 
   7:src/slab.cpp  **** void kmem_init(void *space, int block_num) {
  12              		.loc 1 7 44
  13              		.cfi_startproc
  14              	.LVL0:
  15 0000 130101FF 		addi	sp,sp,-16
  16              		.cfi_def_cfa_offset 16
  17 0004 23341100 		sd	ra,8(sp)
  18 0008 23308100 		sd	s0,0(sp)
  19              		.cfi_offset 1, -8
  20              		.cfi_offset 8, -16
  21 000c 13040101 		addi	s0,sp,16
  22              		.cfi_def_cfa 8, 0
   8:src/slab.cpp  ****     SlabAllocator::initAllocator(space, block_num);
  23              		.loc 1 8 5
  24              		.loc 1 8 33 is_stmt 0
  25 0010 97000000 		call	_ZN13SlabAllocator13initAllocatorEPvi@plt
  25      E7800000 
  26              	.LVL1:
   9:src/slab.cpp  **** }
  27              		.loc 1 9 1
  28 0018 83308100 		ld	ra,8(sp)
  29              		.cfi_restore 1
  30 001c 03340100 		ld	s0,0(sp)
  31              		.cfi_restore 8
  32              		.cfi_def_cfa 2, 16
  33 0020 13010101 		addi	sp,sp,16
  34              		.cfi_def_cfa_offset 0
  35 0024 67800000 		jr	ra
  36              		.cfi_endproc
  37              	.LFE3:
  39              		.align	2
  40              		.globl	_Z17kmem_cache_createPKcmPFvPvES3_
  42              	_Z17kmem_cache_createPKcmPFvPvES3_:
  43              	.LFB4:
  10:src/slab.cpp  **** 
  11:src/slab.cpp  **** kmem_cache_t *kmem_cache_create(const char *name, size_t size, void (*ctor)(void *), void (*dtor)(v
  44              		.loc 1 11 108 is_stmt 1
  45              		.cfi_startproc
  46              	.LVL2:
  47 0028 130101FF 		addi	sp,sp,-16
  48              		.cfi_def_cfa_offset 16
GAS LISTING /tmp/ccknOYF8.s 			page 2


  49 002c 23341100 		sd	ra,8(sp)
  50 0030 23308100 		sd	s0,0(sp)
  51              		.cfi_offset 1, -8
  52              		.cfi_offset 8, -16
  53 0034 13040101 		addi	s0,sp,16
  54              		.cfi_def_cfa 8, 0
  12:src/slab.cpp  ****     return (kmem_cache_t *)SlabAllocator::createCache(name, size, ctor, dtor);
  55              		.loc 1 12 5
  56              		.loc 1 12 54 is_stmt 0
  57 0038 97000000 		call	_ZN13SlabAllocator11createCacheEPKcmPFvPvES4_@plt
  57      E7800000 
  58              	.LVL3:
  13:src/slab.cpp  **** }
  59              		.loc 1 13 1
  60 0040 83308100 		ld	ra,8(sp)
  61              		.cfi_restore 1
  62 0044 03340100 		ld	s0,0(sp)
  63              		.cfi_restore 8
  64              		.cfi_def_cfa 2, 16
  65 0048 13010101 		addi	sp,sp,16
  66              		.cfi_def_cfa_offset 0
  67 004c 67800000 		jr	ra
  68              		.cfi_endproc
  69              	.LFE4:
  71              		.align	2
  72              		.globl	_Z17kmem_cache_shrinkP12kmem_cache_s
  74              	_Z17kmem_cache_shrinkP12kmem_cache_s:
  75              	.LFB5:
  14:src/slab.cpp  **** 
  15:src/slab.cpp  **** int kmem_cache_shrink(kmem_cache_t *cachep) {
  76              		.loc 1 15 45 is_stmt 1
  77              		.cfi_startproc
  78              	.LVL4:
  79 0050 130101FF 		addi	sp,sp,-16
  80              		.cfi_def_cfa_offset 16
  81 0054 23341100 		sd	ra,8(sp)
  82 0058 23308100 		sd	s0,0(sp)
  83              		.cfi_offset 1, -8
  84              		.cfi_offset 8, -16
  85 005c 13040101 		addi	s0,sp,16
  86              		.cfi_def_cfa 8, 0
  16:src/slab.cpp  ****     return SlabAllocator::deallocFreeSlabs((Cache*)cachep);
  87              		.loc 1 16 5
  88              		.loc 1 16 43 is_stmt 0
  89 0060 97000000 		call	_ZN13SlabAllocator16deallocFreeSlabsEP5Cache@plt
  89      E7800000 
  90              	.LVL5:
  17:src/slab.cpp  **** }
  91              		.loc 1 17 1
  92 0068 83308100 		ld	ra,8(sp)
  93              		.cfi_restore 1
  94 006c 03340100 		ld	s0,0(sp)
  95              		.cfi_restore 8
  96              		.cfi_def_cfa 2, 16
  97 0070 13010101 		addi	sp,sp,16
  98              		.cfi_def_cfa_offset 0
  99 0074 67800000 		jr	ra
GAS LISTING /tmp/ccknOYF8.s 			page 3


 100              		.cfi_endproc
 101              	.LFE5:
 103              		.align	2
 104              		.globl	_Z16kmem_cache_allocP12kmem_cache_s
 106              	_Z16kmem_cache_allocP12kmem_cache_s:
 107              	.LFB6:
  18:src/slab.cpp  **** void *kmem_cache_alloc(kmem_cache_t *cachep) {
 108              		.loc 1 18 46 is_stmt 1
 109              		.cfi_startproc
 110              	.LVL6:
 111 0078 130101FF 		addi	sp,sp,-16
 112              		.cfi_def_cfa_offset 16
 113 007c 23341100 		sd	ra,8(sp)
 114 0080 23308100 		sd	s0,0(sp)
 115              		.cfi_offset 1, -8
 116              		.cfi_offset 8, -16
 117 0084 13040101 		addi	s0,sp,16
 118              		.cfi_def_cfa 8, 0
  19:src/slab.cpp  ****     return SlabAllocator::allocSlot((Cache*)cachep);
 119              		.loc 1 19 5
 120              		.loc 1 19 36 is_stmt 0
 121 0088 97000000 		call	_ZN13SlabAllocator9allocSlotEP5Cache@plt
 121      E7800000 
 122              	.LVL7:
  20:src/slab.cpp  **** }
 123              		.loc 1 20 1
 124 0090 83308100 		ld	ra,8(sp)
 125              		.cfi_restore 1
 126 0094 03340100 		ld	s0,0(sp)
 127              		.cfi_restore 8
 128              		.cfi_def_cfa 2, 16
 129 0098 13010101 		addi	sp,sp,16
 130              		.cfi_def_cfa_offset 0
 131 009c 67800000 		jr	ra
 132              		.cfi_endproc
 133              	.LFE6:
 135              		.align	2
 136              		.globl	_Z15kmem_cache_freeP12kmem_cache_sPv
 138              	_Z15kmem_cache_freeP12kmem_cache_sPv:
 139              	.LFB7:
  21:src/slab.cpp  **** void kmem_cache_free(kmem_cache_t *cachep, void *objp) {
 140              		.loc 1 21 56 is_stmt 1
 141              		.cfi_startproc
 142              	.LVL8:
 143 00a0 130101FF 		addi	sp,sp,-16
 144              		.cfi_def_cfa_offset 16
 145 00a4 23341100 		sd	ra,8(sp)
 146 00a8 23308100 		sd	s0,0(sp)
 147              		.cfi_offset 1, -8
 148              		.cfi_offset 8, -16
 149 00ac 13040101 		addi	s0,sp,16
 150              		.cfi_def_cfa 8, 0
  22:src/slab.cpp  ****     SlabAllocator::freeSlot((Cache*)cachep, objp);
 151              		.loc 1 22 5
 152              		.loc 1 22 28 is_stmt 0
 153 00b0 97000000 		call	_ZN13SlabAllocator8freeSlotEP5CachePv@plt
 153      E7800000 
GAS LISTING /tmp/ccknOYF8.s 			page 4


 154              	.LVL9:
  23:src/slab.cpp  **** }
 155              		.loc 1 23 1
 156 00b8 83308100 		ld	ra,8(sp)
 157              		.cfi_restore 1
 158 00bc 03340100 		ld	s0,0(sp)
 159              		.cfi_restore 8
 160              		.cfi_def_cfa 2, 16
 161 00c0 13010101 		addi	sp,sp,16
 162              		.cfi_def_cfa_offset 0
 163 00c4 67800000 		jr	ra
 164              		.cfi_endproc
 165              	.LFE7:
 167              		.align	2
 168              		.globl	_Z7kmallocm
 170              	_Z7kmallocm:
 171              	.LFB8:
  24:src/slab.cpp  **** 
  25:src/slab.cpp  **** void *kmalloc(size_t size) {
 172              		.loc 1 25 28 is_stmt 1
 173              		.cfi_startproc
 174              	.LVL10:
 175 00c8 130101FF 		addi	sp,sp,-16
 176              		.cfi_def_cfa_offset 16
 177 00cc 23341100 		sd	ra,8(sp)
 178 00d0 23308100 		sd	s0,0(sp)
 179              		.cfi_offset 1, -8
 180              		.cfi_offset 8, -16
 181 00d4 13040101 		addi	s0,sp,16
 182              		.cfi_def_cfa 8, 0
  26:src/slab.cpp  ****     return SlabAllocator::allocBuff(size);
 183              		.loc 1 26 5
 184              		.loc 1 26 36 is_stmt 0
 185 00d8 97000000 		call	_ZN13SlabAllocator9allocBuffEm@plt
 185      E7800000 
 186              	.LVL11:
  27:src/slab.cpp  **** }
 187              		.loc 1 27 1
 188 00e0 83308100 		ld	ra,8(sp)
 189              		.cfi_restore 1
 190 00e4 03340100 		ld	s0,0(sp)
 191              		.cfi_restore 8
 192              		.cfi_def_cfa 2, 16
 193 00e8 13010101 		addi	sp,sp,16
 194              		.cfi_def_cfa_offset 0
 195 00ec 67800000 		jr	ra
 196              		.cfi_endproc
 197              	.LFE8:
 199              		.align	2
 200              		.globl	_Z5kfreePKv
 202              	_Z5kfreePKv:
 203              	.LFB9:
  28:src/slab.cpp  **** 
  29:src/slab.cpp  **** void kfree(const void *objp) {
 204              		.loc 1 29 30 is_stmt 1
 205              		.cfi_startproc
 206              	.LVL12:
GAS LISTING /tmp/ccknOYF8.s 			page 5


 207 00f0 130101FF 		addi	sp,sp,-16
 208              		.cfi_def_cfa_offset 16
 209 00f4 23341100 		sd	ra,8(sp)
 210 00f8 23308100 		sd	s0,0(sp)
 211              		.cfi_offset 1, -8
 212              		.cfi_offset 8, -16
 213 00fc 13040101 		addi	s0,sp,16
 214              		.cfi_def_cfa 8, 0
  30:src/slab.cpp  ****     SlabAllocator::freeBuff(objp);
 215              		.loc 1 30 5
 216              		.loc 1 30 28 is_stmt 0
 217 0100 97000000 		call	_ZN13SlabAllocator8freeBuffEPKv@plt
 217      E7800000 
 218              	.LVL13:
  31:src/slab.cpp  **** }
 219              		.loc 1 31 1
 220 0108 83308100 		ld	ra,8(sp)
 221              		.cfi_restore 1
 222 010c 03340100 		ld	s0,0(sp)
 223              		.cfi_restore 8
 224              		.cfi_def_cfa 2, 16
 225 0110 13010101 		addi	sp,sp,16
 226              		.cfi_def_cfa_offset 0
 227 0114 67800000 		jr	ra
 228              		.cfi_endproc
 229              	.LFE9:
 231              		.align	2
 232              		.globl	_Z18kmem_cache_destroyP12kmem_cache_s
 234              	_Z18kmem_cache_destroyP12kmem_cache_s:
 235              	.LFB10:
  32:src/slab.cpp  **** 
  33:src/slab.cpp  **** void kmem_cache_destroy(kmem_cache_t *cachep) {
 236              		.loc 1 33 47 is_stmt 1
 237              		.cfi_startproc
 238              	.LVL14:
 239 0118 130101FF 		addi	sp,sp,-16
 240              		.cfi_def_cfa_offset 16
 241 011c 23341100 		sd	ra,8(sp)
 242 0120 23308100 		sd	s0,0(sp)
 243              		.cfi_offset 1, -8
 244              		.cfi_offset 8, -16
 245 0124 13040101 		addi	s0,sp,16
 246              		.cfi_def_cfa 8, 0
  34:src/slab.cpp  ****     SlabAllocator::deallocCache((Cache*)cachep);
 247              		.loc 1 34 5
 248              		.loc 1 34 32 is_stmt 0
 249 0128 97000000 		call	_ZN13SlabAllocator12deallocCacheEP5Cache@plt
 249      E7800000 
 250              	.LVL15:
  35:src/slab.cpp  **** }
 251              		.loc 1 35 1
 252 0130 83308100 		ld	ra,8(sp)
 253              		.cfi_restore 1
 254 0134 03340100 		ld	s0,0(sp)
 255              		.cfi_restore 8
 256              		.cfi_def_cfa 2, 16
 257 0138 13010101 		addi	sp,sp,16
GAS LISTING /tmp/ccknOYF8.s 			page 6


 258              		.cfi_def_cfa_offset 0
 259 013c 67800000 		jr	ra
 260              		.cfi_endproc
 261              	.LFE10:
 263              		.align	2
 264              		.globl	_Z15kmem_cache_infoP12kmem_cache_s
 266              	_Z15kmem_cache_infoP12kmem_cache_s:
 267              	.LFB11:
  36:src/slab.cpp  **** void kmem_cache_info(kmem_cache_t *cachep) {
 268              		.loc 1 36 44 is_stmt 1
 269              		.cfi_startproc
 270              	.LVL16:
 271 0140 130101FF 		addi	sp,sp,-16
 272              		.cfi_def_cfa_offset 16
 273 0144 23341100 		sd	ra,8(sp)
 274 0148 23308100 		sd	s0,0(sp)
 275              		.cfi_offset 1, -8
 276              		.cfi_offset 8, -16
 277 014c 13040101 		addi	s0,sp,16
 278              		.cfi_def_cfa 8, 0
  37:src/slab.cpp  ****     SlabAllocator::printCacheInfo((Cache*)cachep);
 279              		.loc 1 37 5
 280              		.loc 1 37 34 is_stmt 0
 281 0150 97000000 		call	_ZN13SlabAllocator14printCacheInfoEP5Cache@plt
 281      E7800000 
 282              	.LVL17:
  38:src/slab.cpp  **** }
 283              		.loc 1 38 1
 284 0158 83308100 		ld	ra,8(sp)
 285              		.cfi_restore 1
 286 015c 03340100 		ld	s0,0(sp)
 287              		.cfi_restore 8
 288              		.cfi_def_cfa 2, 16
 289 0160 13010101 		addi	sp,sp,16
 290              		.cfi_def_cfa_offset 0
 291 0164 67800000 		jr	ra
 292              		.cfi_endproc
 293              	.LFE11:
 295              		.align	2
 296              		.globl	_Z16kmem_cache_errorP12kmem_cache_s
 298              	_Z16kmem_cache_errorP12kmem_cache_s:
 299              	.LFB12:
  39:src/slab.cpp  **** int kmem_cache_error(kmem_cache_t *cachep) {
 300              		.loc 1 39 44 is_stmt 1
 301              		.cfi_startproc
 302              	.LVL18:
 303 0168 130101FF 		addi	sp,sp,-16
 304              		.cfi_def_cfa_offset 16
 305 016c 23341100 		sd	ra,8(sp)
 306 0170 23308100 		sd	s0,0(sp)
 307              		.cfi_offset 1, -8
 308              		.cfi_offset 8, -16
 309 0174 13040101 		addi	s0,sp,16
 310              		.cfi_def_cfa 8, 0
  40:src/slab.cpp  ****     return SlabAllocator::printErrorMessage((Cache*)cachep);
 311              		.loc 1 40 5
 312              		.loc 1 40 44 is_stmt 0
GAS LISTING /tmp/ccknOYF8.s 			page 7


 313 0178 97000000 		call	_ZN13SlabAllocator17printErrorMessageEP5Cache@plt
 313      E7800000 
 314              	.LVL19:
  41:src/slab.cpp  **** }...
 315              		.loc 1 41 1
 316 0180 83308100 		ld	ra,8(sp)
 317              		.cfi_restore 1
 318 0184 03340100 		ld	s0,0(sp)
 319              		.cfi_restore 8
 320              		.cfi_def_cfa 2, 16
 321 0188 13010101 		addi	sp,sp,16
 322              		.cfi_def_cfa_offset 0
 323 018c 67800000 		jr	ra
 324              		.cfi_endproc
 325              	.LFE12:
 327              	.Letext0:
 328              		.file 2 "src/../h/hw.h"
 329              		.file 3 "src/../h/slab.h"
 330              		.file 4 "src/../h/Cache.h"
 331              		.file 5 "src/../h/SlabAllocator.h"
GAS LISTING /tmp/ccknOYF8.s 			page 8


DEFINED SYMBOLS
                            *ABS*:0000000000000000 slab.cpp
     /tmp/ccknOYF8.s:9      .text:0000000000000000 _Z9kmem_initPvi
     /tmp/ccknOYF8.s:13     .text:0000000000000000 .L0 
     /tmp/ccknOYF8.s:15     .text:0000000000000000 .L0 
     /tmp/ccknOYF8.s:16     .text:0000000000000004 .L0 
     /tmp/ccknOYF8.s:19     .text:000000000000000c .L0 
     /tmp/ccknOYF8.s:20     .text:000000000000000c .L0 
     /tmp/ccknOYF8.s:22     .text:0000000000000010 .L0 
     /tmp/ccknOYF8.s:24     .text:0000000000000010 .L0 
     /tmp/ccknOYF8.s:25     .text:0000000000000010 .L0 
     /tmp/ccknOYF8.s:28     .text:0000000000000018 .L0 
     /tmp/ccknOYF8.s:29     .text:000000000000001c .L0 
     /tmp/ccknOYF8.s:31     .text:0000000000000020 .L0 
     /tmp/ccknOYF8.s:32     .text:0000000000000020 .L0 
     /tmp/ccknOYF8.s:34     .text:0000000000000024 .L0 
     /tmp/ccknOYF8.s:36     .text:0000000000000028 .L0 
     /tmp/ccknOYF8.s:42     .text:0000000000000028 _Z17kmem_cache_createPKcmPFvPvES3_
     /tmp/ccknOYF8.s:45     .text:0000000000000028 .L0 
     /tmp/ccknOYF8.s:47     .text:0000000000000028 .L0 
     /tmp/ccknOYF8.s:48     .text:000000000000002c .L0 
     /tmp/ccknOYF8.s:51     .text:0000000000000034 .L0 
     /tmp/ccknOYF8.s:52     .text:0000000000000034 .L0 
     /tmp/ccknOYF8.s:54     .text:0000000000000038 .L0 
     /tmp/ccknOYF8.s:56     .text:0000000000000038 .L0 
     /tmp/ccknOYF8.s:57     .text:0000000000000038 .L0 
     /tmp/ccknOYF8.s:60     .text:0000000000000040 .L0 
     /tmp/ccknOYF8.s:61     .text:0000000000000044 .L0 
     /tmp/ccknOYF8.s:63     .text:0000000000000048 .L0 
     /tmp/ccknOYF8.s:64     .text:0000000000000048 .L0 
     /tmp/ccknOYF8.s:66     .text:000000000000004c .L0 
     /tmp/ccknOYF8.s:68     .text:0000000000000050 .L0 
     /tmp/ccknOYF8.s:74     .text:0000000000000050 _Z17kmem_cache_shrinkP12kmem_cache_s
     /tmp/ccknOYF8.s:77     .text:0000000000000050 .L0 
     /tmp/ccknOYF8.s:79     .text:0000000000000050 .L0 
     /tmp/ccknOYF8.s:80     .text:0000000000000054 .L0 
     /tmp/ccknOYF8.s:83     .text:000000000000005c .L0 
     /tmp/ccknOYF8.s:84     .text:000000000000005c .L0 
     /tmp/ccknOYF8.s:86     .text:0000000000000060 .L0 
     /tmp/ccknOYF8.s:88     .text:0000000000000060 .L0 
     /tmp/ccknOYF8.s:89     .text:0000000000000060 .L0 
     /tmp/ccknOYF8.s:92     .text:0000000000000068 .L0 
     /tmp/ccknOYF8.s:93     .text:000000000000006c .L0 
     /tmp/ccknOYF8.s:95     .text:0000000000000070 .L0 
     /tmp/ccknOYF8.s:96     .text:0000000000000070 .L0 
     /tmp/ccknOYF8.s:98     .text:0000000000000074 .L0 
     /tmp/ccknOYF8.s:100    .text:0000000000000078 .L0 
     /tmp/ccknOYF8.s:106    .text:0000000000000078 _Z16kmem_cache_allocP12kmem_cache_s
     /tmp/ccknOYF8.s:109    .text:0000000000000078 .L0 
     /tmp/ccknOYF8.s:111    .text:0000000000000078 .L0 
     /tmp/ccknOYF8.s:112    .text:000000000000007c .L0 
     /tmp/ccknOYF8.s:115    .text:0000000000000084 .L0 
     /tmp/ccknOYF8.s:116    .text:0000000000000084 .L0 
     /tmp/ccknOYF8.s:118    .text:0000000000000088 .L0 
     /tmp/ccknOYF8.s:120    .text:0000000000000088 .L0 
     /tmp/ccknOYF8.s:121    .text:0000000000000088 .L0 
     /tmp/ccknOYF8.s:124    .text:0000000000000090 .L0 
GAS LISTING /tmp/ccknOYF8.s 			page 9


     /tmp/ccknOYF8.s:125    .text:0000000000000094 .L0 
     /tmp/ccknOYF8.s:127    .text:0000000000000098 .L0 
     /tmp/ccknOYF8.s:128    .text:0000000000000098 .L0 
     /tmp/ccknOYF8.s:130    .text:000000000000009c .L0 
     /tmp/ccknOYF8.s:132    .text:00000000000000a0 .L0 
     /tmp/ccknOYF8.s:138    .text:00000000000000a0 _Z15kmem_cache_freeP12kmem_cache_sPv
     /tmp/ccknOYF8.s:141    .text:00000000000000a0 .L0 
     /tmp/ccknOYF8.s:143    .text:00000000000000a0 .L0 
     /tmp/ccknOYF8.s:144    .text:00000000000000a4 .L0 
     /tmp/ccknOYF8.s:147    .text:00000000000000ac .L0 
     /tmp/ccknOYF8.s:148    .text:00000000000000ac .L0 
     /tmp/ccknOYF8.s:150    .text:00000000000000b0 .L0 
     /tmp/ccknOYF8.s:152    .text:00000000000000b0 .L0 
     /tmp/ccknOYF8.s:153    .text:00000000000000b0 .L0 
     /tmp/ccknOYF8.s:156    .text:00000000000000b8 .L0 
     /tmp/ccknOYF8.s:157    .text:00000000000000bc .L0 
     /tmp/ccknOYF8.s:159    .text:00000000000000c0 .L0 
     /tmp/ccknOYF8.s:160    .text:00000000000000c0 .L0 
     /tmp/ccknOYF8.s:162    .text:00000000000000c4 .L0 
     /tmp/ccknOYF8.s:164    .text:00000000000000c8 .L0 
     /tmp/ccknOYF8.s:170    .text:00000000000000c8 _Z7kmallocm
     /tmp/ccknOYF8.s:173    .text:00000000000000c8 .L0 
     /tmp/ccknOYF8.s:175    .text:00000000000000c8 .L0 
     /tmp/ccknOYF8.s:176    .text:00000000000000cc .L0 
     /tmp/ccknOYF8.s:179    .text:00000000000000d4 .L0 
     /tmp/ccknOYF8.s:180    .text:00000000000000d4 .L0 
     /tmp/ccknOYF8.s:182    .text:00000000000000d8 .L0 
     /tmp/ccknOYF8.s:184    .text:00000000000000d8 .L0 
     /tmp/ccknOYF8.s:185    .text:00000000000000d8 .L0 
     /tmp/ccknOYF8.s:188    .text:00000000000000e0 .L0 
     /tmp/ccknOYF8.s:189    .text:00000000000000e4 .L0 
     /tmp/ccknOYF8.s:191    .text:00000000000000e8 .L0 
     /tmp/ccknOYF8.s:192    .text:00000000000000e8 .L0 
     /tmp/ccknOYF8.s:194    .text:00000000000000ec .L0 
     /tmp/ccknOYF8.s:196    .text:00000000000000f0 .L0 
     /tmp/ccknOYF8.s:202    .text:00000000000000f0 _Z5kfreePKv
     /tmp/ccknOYF8.s:205    .text:00000000000000f0 .L0 
     /tmp/ccknOYF8.s:207    .text:00000000000000f0 .L0 
     /tmp/ccknOYF8.s:208    .text:00000000000000f4 .L0 
     /tmp/ccknOYF8.s:211    .text:00000000000000fc .L0 
     /tmp/ccknOYF8.s:212    .text:00000000000000fc .L0 
     /tmp/ccknOYF8.s:214    .text:0000000000000100 .L0 
     /tmp/ccknOYF8.s:216    .text:0000000000000100 .L0 
     /tmp/ccknOYF8.s:217    .text:0000000000000100 .L0 
     /tmp/ccknOYF8.s:220    .text:0000000000000108 .L0 
     /tmp/ccknOYF8.s:221    .text:000000000000010c .L0 
     /tmp/ccknOYF8.s:223    .text:0000000000000110 .L0 
     /tmp/ccknOYF8.s:224    .text:0000000000000110 .L0 
     /tmp/ccknOYF8.s:226    .text:0000000000000114 .L0 
     /tmp/ccknOYF8.s:228    .text:0000000000000118 .L0 
     /tmp/ccknOYF8.s:234    .text:0000000000000118 _Z18kmem_cache_destroyP12kmem_cache_s
     /tmp/ccknOYF8.s:237    .text:0000000000000118 .L0 
     /tmp/ccknOYF8.s:239    .text:0000000000000118 .L0 
     /tmp/ccknOYF8.s:240    .text:000000000000011c .L0 
     /tmp/ccknOYF8.s:243    .text:0000000000000124 .L0 
     /tmp/ccknOYF8.s:244    .text:0000000000000124 .L0 
     /tmp/ccknOYF8.s:246    .text:0000000000000128 .L0 
GAS LISTING /tmp/ccknOYF8.s 			page 10


     /tmp/ccknOYF8.s:248    .text:0000000000000128 .L0 
     /tmp/ccknOYF8.s:249    .text:0000000000000128 .L0 
     /tmp/ccknOYF8.s:252    .text:0000000000000130 .L0 
     /tmp/ccknOYF8.s:253    .text:0000000000000134 .L0 
     /tmp/ccknOYF8.s:255    .text:0000000000000138 .L0 
     /tmp/ccknOYF8.s:256    .text:0000000000000138 .L0 
     /tmp/ccknOYF8.s:258    .text:000000000000013c .L0 
     /tmp/ccknOYF8.s:260    .text:0000000000000140 .L0 
     /tmp/ccknOYF8.s:266    .text:0000000000000140 _Z15kmem_cache_infoP12kmem_cache_s
     /tmp/ccknOYF8.s:269    .text:0000000000000140 .L0 
     /tmp/ccknOYF8.s:271    .text:0000000000000140 .L0 
     /tmp/ccknOYF8.s:272    .text:0000000000000144 .L0 
     /tmp/ccknOYF8.s:275    .text:000000000000014c .L0 
     /tmp/ccknOYF8.s:276    .text:000000000000014c .L0 
     /tmp/ccknOYF8.s:278    .text:0000000000000150 .L0 
     /tmp/ccknOYF8.s:280    .text:0000000000000150 .L0 
     /tmp/ccknOYF8.s:281    .text:0000000000000150 .L0 
     /tmp/ccknOYF8.s:284    .text:0000000000000158 .L0 
     /tmp/ccknOYF8.s:285    .text:000000000000015c .L0 
     /tmp/ccknOYF8.s:287    .text:0000000000000160 .L0 
     /tmp/ccknOYF8.s:288    .text:0000000000000160 .L0 
     /tmp/ccknOYF8.s:290    .text:0000000000000164 .L0 
     /tmp/ccknOYF8.s:292    .text:0000000000000168 .L0 
     /tmp/ccknOYF8.s:298    .text:0000000000000168 _Z16kmem_cache_errorP12kmem_cache_s
     /tmp/ccknOYF8.s:301    .text:0000000000000168 .L0 
     /tmp/ccknOYF8.s:303    .text:0000000000000168 .L0 
     /tmp/ccknOYF8.s:304    .text:000000000000016c .L0 
     /tmp/ccknOYF8.s:307    .text:0000000000000174 .L0 
     /tmp/ccknOYF8.s:308    .text:0000000000000174 .L0 
     /tmp/ccknOYF8.s:310    .text:0000000000000178 .L0 
     /tmp/ccknOYF8.s:312    .text:0000000000000178 .L0 
     /tmp/ccknOYF8.s:313    .text:0000000000000178 .L0 
     /tmp/ccknOYF8.s:316    .text:0000000000000180 .L0 
     /tmp/ccknOYF8.s:317    .text:0000000000000184 .L0 
     /tmp/ccknOYF8.s:319    .text:0000000000000188 .L0 
     /tmp/ccknOYF8.s:320    .text:0000000000000188 .L0 
     /tmp/ccknOYF8.s:322    .text:000000000000018c .L0 
     /tmp/ccknOYF8.s:324    .text:0000000000000190 .L0 
     /tmp/ccknOYF8.s:332    .text:0000000000000190 .L0 
     /tmp/ccknOYF8.s:1604   .debug_abbrev:0000000000000000 .Ldebug_abbrev0
     /tmp/ccknOYF8.s:2850   .debug_str:000000000000087a .LASF140
     /tmp/ccknOYF8.s:2846   .debug_str:0000000000000868 .LASF141
     /tmp/ccknOYF8.s:2620   .debug_str:0000000000000091 .LASF142
     /tmp/ccknOYF8.s:5      .text:0000000000000000 .Ltext0
     /tmp/ccknOYF8.s:327    .text:0000000000000190 .Letext0
     /tmp/ccknOYF8.s:2604   .debug_line:0000000000000000 .Ldebug_line0
     /tmp/ccknOYF8.s:2768   .debug_str:00000000000005af .LASF0
     /tmp/ccknOYF8.s:2780   .debug_str:0000000000000622 .LASF1
     /tmp/ccknOYF8.s:2750   .debug_str:00000000000004d2 .LASF2
     /tmp/ccknOYF8.s:2718   .debug_str:00000000000003c8 .LASF4
     /tmp/ccknOYF8.s:2830   .debug_str:00000000000007f5 .LASF3
     /tmp/ccknOYF8.s:2628   .debug_str:00000000000000cb .LASF5
     /tmp/ccknOYF8.s:2782   .debug_str:0000000000000635 .LASF6
     /tmp/ccknOYF8.s:2766   .debug_str:000000000000059c .LASF7
     /tmp/ccknOYF8.s:2868   .debug_str:00000000000009b3 .LASF8
     /tmp/ccknOYF8.s:2706   .debug_str:0000000000000365 .LASF9
     /tmp/ccknOYF8.s:2800   .debug_str:0000000000000700 .LASF10
GAS LISTING /tmp/ccknOYF8.s 			page 11


     /tmp/ccknOYF8.s:2854   .debug_str:0000000000000946 .LASF11
     /tmp/ccknOYF8.s:2634   .debug_str:00000000000000e4 .LASF12
     /tmp/ccknOYF8.s:2612   .debug_str:0000000000000045 .LASF13
     /tmp/ccknOYF8.s:2648   .debug_str:0000000000000175 .LASF14
     /tmp/ccknOYF8.s:2824   .debug_str:00000000000007c2 .LASF15
     /tmp/ccknOYF8.s:2666   .debug_str:000000000000020f .LASF16
     /tmp/ccknOYF8.s:2872   .debug_str:00000000000009d0 .LASF17
     /tmp/ccknOYF8.s:2870   .debug_str:00000000000009c3 .LASF143
     /tmp/ccknOYF8.s:2720   .debug_str:00000000000003cf .LASF89
     /tmp/ccknOYF8.s:2626   .debug_str:00000000000000c1 .LASF144
     /tmp/ccknOYF8.s:2818   .debug_str:00000000000007a8 .LASF18
     /tmp/ccknOYF8.s:2662   .debug_str:00000000000001e7 .LASF19
     /tmp/ccknOYF8.s:2748   .debug_str:00000000000004c8 .LASF145
     /tmp/ccknOYF8.s:2820   .debug_str:00000000000007b0 .LASF20
     /tmp/ccknOYF8.s:2812   .debug_str:0000000000000792 .LASF21
     /tmp/ccknOYF8.s:2772   .debug_str:00000000000005c2 .LASF22
     /tmp/ccknOYF8.s:2852   .debug_str:000000000000093e .LASF23
     /tmp/ccknOYF8.s:2834   .debug_str:000000000000080f .LASF27
     /tmp/ccknOYF8.s:2710   .debug_str:0000000000000396 .LASF24
     /tmp/ccknOYF8.s:2896   .debug_str:0000000000000ac5 .LASF25
     /tmp/ccknOYF8.s:2878   .debug_str:0000000000000a15 .LASF26
     /tmp/ccknOYF8.s:2894   .debug_str:0000000000000ac0 .LASF28
     /tmp/ccknOYF8.s:2858   .debug_str:0000000000000970 .LASF29
     /tmp/ccknOYF8.s:2624   .debug_str:00000000000000bb .LASF30
     /tmp/ccknOYF8.s:2704   .debug_str:0000000000000359 .LASF31
     /tmp/ccknOYF8.s:2802   .debug_str:000000000000070f .LASF59
     /tmp/ccknOYF8.s:2874   .debug_str:00000000000009dd .LASF61
     /tmp/ccknOYF8.s:2898   .debug_str:0000000000000aca .LASF32
     /tmp/ccknOYF8.s:2658   .debug_str:00000000000001ce .LASF35
     /tmp/ccknOYF8.s:2638   .debug_str:0000000000000101 .LASF37
     /tmp/ccknOYF8.s:2860   .debug_str:000000000000097f .LASF33
     /tmp/ccknOYF8.s:2814   .debug_str:000000000000079a .LASF34
     /tmp/ccknOYF8.s:2728   .debug_str:0000000000000414 .LASF36
     /tmp/ccknOYF8.s:2804   .debug_str:000000000000071b .LASF38
     /tmp/ccknOYF8.s:2736   .debug_str:0000000000000445 .LASF39
     /tmp/ccknOYF8.s:2806   .debug_str:000000000000073e .LASF40
     /tmp/ccknOYF8.s:2730   .debug_str:0000000000000420 .LASF41
     /tmp/ccknOYF8.s:2724   .debug_str:00000000000003fb .LASF42
     /tmp/ccknOYF8.s:2788   .debug_str:0000000000000673 .LASF43
     /tmp/ccknOYF8.s:2616   .debug_str:0000000000000083 .LASF44
     /tmp/ccknOYF8.s:2656   .debug_str:00000000000001c5 .LASF45
     /tmp/ccknOYF8.s:2672   .debug_str:000000000000023b .LASF46
     /tmp/ccknOYF8.s:2646   .debug_str:0000000000000169 .LASF47
     /tmp/ccknOYF8.s:2632   .debug_str:00000000000000d9 .LASF48
     /tmp/ccknOYF8.s:2712   .debug_str:00000000000003a0 .LASF49
     /tmp/ccknOYF8.s:2808   .debug_str:0000000000000764 .LASF50
     /tmp/ccknOYF8.s:2798   .debug_str:00000000000006db .LASF51
     /tmp/ccknOYF8.s:2786   .debug_str:0000000000000667 .LASF52
     /tmp/ccknOYF8.s:2664   .debug_str:00000000000001f5 .LASF53
     /tmp/ccknOYF8.s:2644   .debug_str:000000000000015b .LASF54
     /tmp/ccknOYF8.s:2726   .debug_str:0000000000000406 .LASF55
     /tmp/ccknOYF8.s:2832   .debug_str:0000000000000807 .LASF56
     /tmp/ccknOYF8.s:2678   .debug_str:000000000000025d .LASF57
     /tmp/ccknOYF8.s:2670   .debug_str:000000000000022f .LASF58
     /tmp/ccknOYF8.s:2884   .debug_str:0000000000000a70 .LASF96
     /tmp/ccknOYF8.s:2606   .debug_str:0000000000000000 .LASF146
     /tmp/ccknOYF8.s:2828   .debug_str:00000000000007e3 .LASF65
GAS LISTING /tmp/ccknOYF8.s 			page 12


     /tmp/ccknOYF8.s:2688   .debug_str:00000000000002af .LASF67
     /tmp/ccknOYF8.s:2838   .debug_str:0000000000000835 .LASF60
     /tmp/ccknOYF8.s:2866   .debug_str:0000000000000997 .LASF62
     /tmp/ccknOYF8.s:2668   .debug_str:0000000000000225 .LASF63
     /tmp/ccknOYF8.s:2882   .debug_str:0000000000000a4e .LASF64
     /tmp/ccknOYF8.s:2886   .debug_str:0000000000000a7c .LASF66
     /tmp/ccknOYF8.s:2876   .debug_str:00000000000009fb .LASF68
     /tmp/ccknOYF8.s:2700   .debug_str:000000000000032d .LASF69
     /tmp/ccknOYF8.s:2902   .debug_str:0000000000000aed .LASF70
     /tmp/ccknOYF8.s:2774   .debug_str:00000000000005c7 .LASF71
     /tmp/ccknOYF8.s:2762   .debug_str:0000000000000564 .LASF72
     /tmp/ccknOYF8.s:2694   .debug_str:00000000000002f4 .LASF73
     /tmp/ccknOYF8.s:2608   .debug_str:0000000000000019 .LASF74
     /tmp/ccknOYF8.s:2758   .debug_str:000000000000052f .LASF75
     /tmp/ccknOYF8.s:2696   .debug_str:0000000000000301 .LASF76
     /tmp/ccknOYF8.s:2636   .debug_str:00000000000000f4 .LASF77
     /tmp/ccknOYF8.s:2810   .debug_str:0000000000000778 .LASF78
     /tmp/ccknOYF8.s:2690   .debug_str:00000000000002ce .LASF79
     /tmp/ccknOYF8.s:2742   .debug_str:0000000000000489 .LASF80
     /tmp/ccknOYF8.s:2734   .debug_str:000000000000043a .LASF81
     /tmp/ccknOYF8.s:2836   .debug_str:0000000000000814 .LASF82
     /tmp/ccknOYF8.s:2826   .debug_str:00000000000007d8 .LASF83
     /tmp/ccknOYF8.s:2794   .debug_str:00000000000006b3 .LASF84
     /tmp/ccknOYF8.s:2630   .debug_str:00000000000000d2 .LASF85
     /tmp/ccknOYF8.s:2746   .debug_str:00000000000004b1 .LASF86
     /tmp/ccknOYF8.s:2844   .debug_str:000000000000085a .LASF147
     /tmp/ccknOYF8.s:2856   .debug_str:0000000000000955 .LASF148
     /tmp/ccknOYF8.s:2618   .debug_str:000000000000008c .LASF87
     /tmp/ccknOYF8.s:2622   .debug_str:00000000000000b6 .LASF88
     /tmp/ccknOYF8.s:2840   .debug_str:0000000000000844 .LASF90
     /tmp/ccknOYF8.s:2890   .debug_str:0000000000000aae .LASF91
     /tmp/ccknOYF8.s:2692   .debug_str:00000000000002dd .LASF92
     /tmp/ccknOYF8.s:2770   .debug_str:00000000000005bc .LASF93
     /tmp/ccknOYF8.s:2652   .debug_str:00000000000001a6 .LASF94
     /tmp/ccknOYF8.s:2722   .debug_str:00000000000003d5 .LASF95
     /tmp/ccknOYF8.s:2614   .debug_str:0000000000000055 .LASF97
     /tmp/ccknOYF8.s:2790   .debug_str:0000000000000680 .LASF98
     /tmp/ccknOYF8.s:2760   .debug_str:000000000000053b .LASF99
     /tmp/ccknOYF8.s:2740   .debug_str:000000000000047f .LASF100
     /tmp/ccknOYF8.s:2650   .debug_str:0000000000000181 .LASF101
     /tmp/ccknOYF8.s:2778   .debug_str:00000000000005fc .LASF102
     /tmp/ccknOYF8.s:2880   .debug_str:0000000000000a20 .LASF103
     /tmp/ccknOYF8.s:2738   .debug_str:0000000000000454 .LASF104
     /tmp/ccknOYF8.s:2698   .debug_str:0000000000000323 .LASF105
     /tmp/ccknOYF8.s:2784   .debug_str:0000000000000648 .LASF106
     /tmp/ccknOYF8.s:2862   .debug_str:0000000000000989 .LASF107
     /tmp/ccknOYF8.s:2684   .debug_str:000000000000027d .LASF108
     /tmp/ccknOYF8.s:2764   .debug_str:0000000000000582 .LASF109
     /tmp/ccknOYF8.s:2680   .debug_str:0000000000000269 .LASF110
     /tmp/ccknOYF8.s:2900   .debug_str:0000000000000ad3 .LASF111
     /tmp/ccknOYF8.s:2674   .debug_str:0000000000000247 .LASF120
     /tmp/ccknOYF8.s:2752   .debug_str:00000000000004e0 .LASF122
     /tmp/ccknOYF8.s:299    .text:0000000000000168 .LFB12
     /tmp/ccknOYF8.s:325    .text:0000000000000190 .LFE12
     /tmp/ccknOYF8.s:2660   .debug_str:00000000000001e0 .LASF114
     /tmp/ccknOYF8.s:2381   .debug_loc:0000000000000000 .LLST14
     /tmp/ccknOYF8.s:314    .text:0000000000000180 .LVL19
GAS LISTING /tmp/ccknOYF8.s 			page 13


     /tmp/ccknOYF8.s:2796   .debug_str:00000000000006cb .LASF112
     /tmp/ccknOYF8.s:2702   .debug_str:0000000000000336 .LASF113
     /tmp/ccknOYF8.s:267    .text:0000000000000140 .LFB11
     /tmp/ccknOYF8.s:293    .text:0000000000000168 .LFE11
     /tmp/ccknOYF8.s:2395   .debug_loc:0000000000000039 .LLST13
     /tmp/ccknOYF8.s:282    .text:0000000000000158 .LVL17
     /tmp/ccknOYF8.s:2714   .debug_str:00000000000003ab .LASF115
     /tmp/ccknOYF8.s:2642   .debug_str:0000000000000135 .LASF116
     /tmp/ccknOYF8.s:235    .text:0000000000000118 .LFB10
     /tmp/ccknOYF8.s:261    .text:0000000000000140 .LFE10
     /tmp/ccknOYF8.s:2409   .debug_loc:0000000000000072 .LLST12
     /tmp/ccknOYF8.s:250    .text:0000000000000130 .LVL15
     /tmp/ccknOYF8.s:2792   .debug_str:00000000000006ad .LASF117
     /tmp/ccknOYF8.s:2744   .debug_str:00000000000004a5 .LASF118
     /tmp/ccknOYF8.s:203    .text:00000000000000f0 .LFB9
     /tmp/ccknOYF8.s:229    .text:0000000000000118 .LFE9
     /tmp/ccknOYF8.s:2892   .debug_str:0000000000000abb .LASF119
     /tmp/ccknOYF8.s:2423   .debug_loc:00000000000000ab .LLST11
     /tmp/ccknOYF8.s:218    .text:0000000000000108 .LVL13
     /tmp/ccknOYF8.s:2842   .debug_str:0000000000000852 .LASF121
     /tmp/ccknOYF8.s:2822   .debug_str:00000000000007b6 .LASF123
     /tmp/ccknOYF8.s:171    .text:00000000000000c8 .LFB8
     /tmp/ccknOYF8.s:197    .text:00000000000000f0 .LFE8
     /tmp/ccknOYF8.s:2816   .debug_str:00000000000007a3 .LASF124
     /tmp/ccknOYF8.s:2437   .debug_loc:00000000000000e4 .LLST10
     /tmp/ccknOYF8.s:186    .text:00000000000000e0 .LVL11
     /tmp/ccknOYF8.s:2732   .debug_str:000000000000042a .LASF125
     /tmp/ccknOYF8.s:2754   .debug_str:0000000000000504 .LASF126
     /tmp/ccknOYF8.s:139    .text:00000000000000a0 .LFB7
     /tmp/ccknOYF8.s:165    .text:00000000000000c8 .LFE7
     /tmp/ccknOYF8.s:2451   .debug_loc:000000000000011d .LLST8
     /tmp/ccknOYF8.s:2465   .debug_loc:0000000000000156 .LLST9
     /tmp/ccknOYF8.s:154    .text:00000000000000b8 .LVL9
     /tmp/ccknOYF8.s:2654   .debug_str:00000000000001b4 .LASF127
     /tmp/ccknOYF8.s:2776   .debug_str:00000000000005d8 .LASF128
     /tmp/ccknOYF8.s:107    .text:0000000000000078 .LFB6
     /tmp/ccknOYF8.s:133    .text:00000000000000a0 .LFE6
     /tmp/ccknOYF8.s:2479   .debug_loc:000000000000018f .LLST7
     /tmp/ccknOYF8.s:122    .text:0000000000000090 .LVL7
     /tmp/ccknOYF8.s:2610   .debug_str:0000000000000033 .LASF129
     /tmp/ccknOYF8.s:2888   .debug_str:0000000000000a89 .LASF130
     /tmp/ccknOYF8.s:75     .text:0000000000000050 .LFB5
     /tmp/ccknOYF8.s:101    .text:0000000000000078 .LFE5
     /tmp/ccknOYF8.s:2493   .debug_loc:00000000000001c8 .LLST6
     /tmp/ccknOYF8.s:90     .text:0000000000000068 .LVL5
     /tmp/ccknOYF8.s:2686   .debug_str:000000000000029d .LASF131
     /tmp/ccknOYF8.s:2708   .debug_str:0000000000000373 .LASF132
     /tmp/ccknOYF8.s:43     .text:0000000000000028 .LFB4
     /tmp/ccknOYF8.s:69     .text:0000000000000050 .LFE4
     /tmp/ccknOYF8.s:2864   .debug_str:0000000000000992 .LASF133
     /tmp/ccknOYF8.s:2507   .debug_loc:0000000000000201 .LLST2
     /tmp/ccknOYF8.s:2521   .debug_loc:000000000000023a .LLST3
     /tmp/ccknOYF8.s:2848   .debug_str:0000000000000875 .LASF134
     /tmp/ccknOYF8.s:2535   .debug_loc:0000000000000273 .LLST4
     /tmp/ccknOYF8.s:2676   .debug_str:0000000000000258 .LASF135
     /tmp/ccknOYF8.s:2549   .debug_loc:00000000000002ac .LLST5
     /tmp/ccknOYF8.s:58     .text:0000000000000040 .LVL3
GAS LISTING /tmp/ccknOYF8.s 			page 14


     /tmp/ccknOYF8.s:2682   .debug_str:0000000000000273 .LASF136
     /tmp/ccknOYF8.s:2640   .debug_str:0000000000000125 .LASF137
     /tmp/ccknOYF8.s:10     .text:0000000000000000 .LFB3
     /tmp/ccknOYF8.s:37     .text:0000000000000028 .LFE3
     /tmp/ccknOYF8.s:2756   .debug_str:0000000000000529 .LASF138
     /tmp/ccknOYF8.s:2563   .debug_loc:00000000000002e5 .LLST0
     /tmp/ccknOYF8.s:2716   .debug_str:00000000000003be .LASF139
     /tmp/ccknOYF8.s:2577   .debug_loc:000000000000031e .LLST1
     /tmp/ccknOYF8.s:26     .text:0000000000000018 .LVL1
     /tmp/ccknOYF8.s:302    .text:0000000000000168 .LVL18
     /tmp/ccknOYF8.s:270    .text:0000000000000140 .LVL16
     /tmp/ccknOYF8.s:238    .text:0000000000000118 .LVL14
     /tmp/ccknOYF8.s:206    .text:00000000000000f0 .LVL12
     /tmp/ccknOYF8.s:174    .text:00000000000000c8 .LVL10
     /tmp/ccknOYF8.s:142    .text:00000000000000a0 .LVL8
     /tmp/ccknOYF8.s:110    .text:0000000000000078 .LVL6
     /tmp/ccknOYF8.s:78     .text:0000000000000050 .LVL4
     /tmp/ccknOYF8.s:46     .text:0000000000000028 .LVL2
     /tmp/ccknOYF8.s:14     .text:0000000000000000 .LVL0
     /tmp/ccknOYF8.s:333    .debug_info:0000000000000000 .Ldebug_info0

UNDEFINED SYMBOLS
_ZN13SlabAllocator13initAllocatorEPvi
_ZN13SlabAllocator11createCacheEPKcmPFvPvES4_
_ZN13SlabAllocator16deallocFreeSlabsEP5Cache
_ZN13SlabAllocator9allocSlotEP5Cache
_ZN13SlabAllocator8freeSlotEP5CachePv
_ZN13SlabAllocator9allocBuffEm
_ZN13SlabAllocator8freeBuffEPKv
_ZN13SlabAllocator12deallocCacheEP5Cache
_ZN13SlabAllocator14printCacheInfoEP5Cache
_ZN13SlabAllocator17printErrorMessageEP5Cache
