GAS LISTING /tmp/cc3BgDqW.s 			page 1


   1              		.file	"slab.cpp"
   2              		.option pic
   3              		.option norelax
   4              		.text
   5              	.Ltext0:
   6              		.align	2
   7              		.globl	_Z9kmem_initPvi
   9              	_Z9kmem_initPvi:
  10              	.LFB3:
  11              		.file 1 "src/slab.cpp"
   1:src/slab.cpp  **** #include "../h/slab.h"
   2:src/slab.cpp  **** #include "../h/SlabAllocator.h"
   3:src/slab.cpp  **** 
   4:src/slab.cpp  **** struct kmem_cache_s {
   5:src/slab.cpp  **** };
   6:src/slab.cpp  **** 
   7:src/slab.cpp  **** void kmem_init(void *space, int block_num) {
  12              		.loc 1 7 44
  13              		.cfi_startproc
  14              	.LVL0:
  15 0000 130101FF 		addi	sp,sp,-16
  16              		.cfi_def_cfa_offset 16
  17 0004 23341100 		sd	ra,8(sp)
  18 0008 23308100 		sd	s0,0(sp)
  19              		.cfi_offset 1, -8
  20              		.cfi_offset 8, -16
  21 000c 13040101 		addi	s0,sp,16
  22              		.cfi_def_cfa 8, 0
   8:src/slab.cpp  ****     SlabAllocator::initAllocator(space, block_num);
  23              		.loc 1 8 5
  24              		.loc 1 8 33 is_stmt 0
  25 0010 97000000 		call	_ZN13SlabAllocator13initAllocatorEPvi@plt
  25      E7800000 
  26              	.LVL1:
   9:src/slab.cpp  **** }
  27              		.loc 1 9 1
  28 0018 83308100 		ld	ra,8(sp)
  29              		.cfi_restore 1
  30 001c 03340100 		ld	s0,0(sp)
  31              		.cfi_restore 8
  32              		.cfi_def_cfa 2, 16
  33 0020 13010101 		addi	sp,sp,16
  34              		.cfi_def_cfa_offset 0
  35 0024 67800000 		jr	ra
  36              		.cfi_endproc
  37              	.LFE3:
  39              		.align	2
  40              		.globl	_Z17kmem_cache_createPKcmPFvPvES3_
  42              	_Z17kmem_cache_createPKcmPFvPvES3_:
  43              	.LFB4:
  10:src/slab.cpp  **** 
  11:src/slab.cpp  **** kmem_cache_t *kmem_cache_create(const char *name, size_t size, void (*ctor)(void *), void (*dtor)(v
  44              		.loc 1 11 108 is_stmt 1
  45              		.cfi_startproc
  46              	.LVL2:
  47 0028 130101FF 		addi	sp,sp,-16
  48              		.cfi_def_cfa_offset 16
GAS LISTING /tmp/cc3BgDqW.s 			page 2


  49 002c 23341100 		sd	ra,8(sp)
  50 0030 23308100 		sd	s0,0(sp)
  51              		.cfi_offset 1, -8
  52              		.cfi_offset 8, -16
  53 0034 13040101 		addi	s0,sp,16
  54              		.cfi_def_cfa 8, 0
  12:src/slab.cpp  ****     return (kmem_cache_t *)SlabAllocator::createCache(name, size, ctor, dtor);
  55              		.loc 1 12 5
  56              		.loc 1 12 54 is_stmt 0
  57 0038 97000000 		call	_ZN13SlabAllocator11createCacheEPKcmPFvPvES4_@plt
  57      E7800000 
  58              	.LVL3:
  13:src/slab.cpp  **** }
  59              		.loc 1 13 1
  60 0040 83308100 		ld	ra,8(sp)
  61              		.cfi_restore 1
  62 0044 03340100 		ld	s0,0(sp)
  63              		.cfi_restore 8
  64              		.cfi_def_cfa 2, 16
  65 0048 13010101 		addi	sp,sp,16
  66              		.cfi_def_cfa_offset 0
  67 004c 67800000 		jr	ra
  68              		.cfi_endproc
  69              	.LFE4:
  71              		.align	2
  72              		.globl	_Z17kmem_cache_shrinkP12kmem_cache_s
  74              	_Z17kmem_cache_shrinkP12kmem_cache_s:
  75              	.LFB5:
  14:src/slab.cpp  **** 
  15:src/slab.cpp  **** int kmem_cache_shrink(kmem_cache_t *cachep) {
  76              		.loc 1 15 45 is_stmt 1
  77              		.cfi_startproc
  78              	.LVL4:
  79 0050 130101FF 		addi	sp,sp,-16
  80              		.cfi_def_cfa_offset 16
  81 0054 23341100 		sd	ra,8(sp)
  82 0058 23308100 		sd	s0,0(sp)
  83              		.cfi_offset 1, -8
  84              		.cfi_offset 8, -16
  85 005c 13040101 		addi	s0,sp,16
  86              		.cfi_def_cfa 8, 0
  16:src/slab.cpp  ****     return SlabAllocator::deallocFreeSlabs((Cache*)cachep);
  87              		.loc 1 16 5
  88              		.loc 1 16 43 is_stmt 0
  89 0060 97000000 		call	_ZN13SlabAllocator16deallocFreeSlabsEP5Cache@plt
  89      E7800000 
  90              	.LVL5:
  17:src/slab.cpp  **** }
  91              		.loc 1 17 1
  92 0068 83308100 		ld	ra,8(sp)
  93              		.cfi_restore 1
  94 006c 03340100 		ld	s0,0(sp)
  95              		.cfi_restore 8
  96              		.cfi_def_cfa 2, 16
  97 0070 13010101 		addi	sp,sp,16
  98              		.cfi_def_cfa_offset 0
  99 0074 67800000 		jr	ra
GAS LISTING /tmp/cc3BgDqW.s 			page 3


 100              		.cfi_endproc
 101              	.LFE5:
 103              		.align	2
 104              		.globl	_Z16kmem_cache_allocP12kmem_cache_s
 106              	_Z16kmem_cache_allocP12kmem_cache_s:
 107              	.LFB6:
  18:src/slab.cpp  **** void *kmem_cache_alloc(kmem_cache_t *cachep) {
 108              		.loc 1 18 46 is_stmt 1
 109              		.cfi_startproc
 110              	.LVL6:
 111 0078 130101FF 		addi	sp,sp,-16
 112              		.cfi_def_cfa_offset 16
 113 007c 23341100 		sd	ra,8(sp)
 114 0080 23308100 		sd	s0,0(sp)
 115              		.cfi_offset 1, -8
 116              		.cfi_offset 8, -16
 117 0084 13040101 		addi	s0,sp,16
 118              		.cfi_def_cfa 8, 0
  19:src/slab.cpp  ****     return SlabAllocator::allocSlot((Cache*)cachep);
 119              		.loc 1 19 5
 120              		.loc 1 19 36 is_stmt 0
 121 0088 97000000 		call	_ZN13SlabAllocator9allocSlotEP5Cache@plt
 121      E7800000 
 122              	.LVL7:
  20:src/slab.cpp  **** }
 123              		.loc 1 20 1
 124 0090 83308100 		ld	ra,8(sp)
 125              		.cfi_restore 1
 126 0094 03340100 		ld	s0,0(sp)
 127              		.cfi_restore 8
 128              		.cfi_def_cfa 2, 16
 129 0098 13010101 		addi	sp,sp,16
 130              		.cfi_def_cfa_offset 0
 131 009c 67800000 		jr	ra
 132              		.cfi_endproc
 133              	.LFE6:
 135              		.align	2
 136              		.globl	_Z15kmem_cache_freeP12kmem_cache_sPv
 138              	_Z15kmem_cache_freeP12kmem_cache_sPv:
 139              	.LFB7:
  21:src/slab.cpp  **** void kmem_cache_free(kmem_cache_t *cachep, void *objp) {
 140              		.loc 1 21 56 is_stmt 1
 141              		.cfi_startproc
 142              	.LVL8:
 143 00a0 130101FF 		addi	sp,sp,-16
 144              		.cfi_def_cfa_offset 16
 145 00a4 23341100 		sd	ra,8(sp)
 146 00a8 23308100 		sd	s0,0(sp)
 147              		.cfi_offset 1, -8
 148              		.cfi_offset 8, -16
 149 00ac 13040101 		addi	s0,sp,16
 150              		.cfi_def_cfa 8, 0
  22:src/slab.cpp  ****     SlabAllocator::freeSlot((Cache*)cachep, objp);
 151              		.loc 1 22 5
 152              		.loc 1 22 28 is_stmt 0
 153 00b0 97000000 		call	_ZN13SlabAllocator8freeSlotEP5CachePv@plt
 153      E7800000 
GAS LISTING /tmp/cc3BgDqW.s 			page 4


 154              	.LVL9:
  23:src/slab.cpp  **** }
 155              		.loc 1 23 1
 156 00b8 83308100 		ld	ra,8(sp)
 157              		.cfi_restore 1
 158 00bc 03340100 		ld	s0,0(sp)
 159              		.cfi_restore 8
 160              		.cfi_def_cfa 2, 16
 161 00c0 13010101 		addi	sp,sp,16
 162              		.cfi_def_cfa_offset 0
 163 00c4 67800000 		jr	ra
 164              		.cfi_endproc
 165              	.LFE7:
 167              		.align	2
 168              		.globl	_Z18kmem_cache_destroyP12kmem_cache_s
 170              	_Z18kmem_cache_destroyP12kmem_cache_s:
 171              	.LFB8:
  24:src/slab.cpp  **** 
  25:src/slab.cpp  **** void *kmalloc(size_t size); // Alloacate one small memory buffer
  26:src/slab.cpp  **** void kfree(const void *objp); // Deallocate one small memory buffer
  27:src/slab.cpp  **** void kmem_cache_destroy(kmem_cache_t *cachep) {
 172              		.loc 1 27 47 is_stmt 1
 173              		.cfi_startproc
 174              	.LVL10:
 175 00c8 130101FF 		addi	sp,sp,-16
 176              		.cfi_def_cfa_offset 16
 177 00cc 23341100 		sd	ra,8(sp)
 178 00d0 23308100 		sd	s0,0(sp)
 179              		.cfi_offset 1, -8
 180              		.cfi_offset 8, -16
 181 00d4 13040101 		addi	s0,sp,16
 182              		.cfi_def_cfa 8, 0
  28:src/slab.cpp  ****     SlabAllocator::deallocCache((Cache*)cachep);
 183              		.loc 1 28 5
 184              		.loc 1 28 32 is_stmt 0
 185 00d8 97000000 		call	_ZN13SlabAllocator12deallocCacheEP5Cache@plt
 185      E7800000 
 186              	.LVL11:
  29:src/slab.cpp  **** }
 187              		.loc 1 29 1
 188 00e0 83308100 		ld	ra,8(sp)
 189              		.cfi_restore 1
 190 00e4 03340100 		ld	s0,0(sp)
 191              		.cfi_restore 8
 192              		.cfi_def_cfa 2, 16
 193 00e8 13010101 		addi	sp,sp,16
 194              		.cfi_def_cfa_offset 0
 195 00ec 67800000 		jr	ra
 196              		.cfi_endproc
 197              	.LFE8:
 199              		.align	2
 200              		.globl	_Z15kmem_cache_infoP12kmem_cache_s
 202              	_Z15kmem_cache_infoP12kmem_cache_s:
 203              	.LFB9:
  30:src/slab.cpp  **** void kmem_cache_info(kmem_cache_t *cachep) {
 204              		.loc 1 30 44 is_stmt 1
 205              		.cfi_startproc
GAS LISTING /tmp/cc3BgDqW.s 			page 5


 206              	.LVL12:
 207 00f0 130101FF 		addi	sp,sp,-16
 208              		.cfi_def_cfa_offset 16
 209 00f4 23341100 		sd	ra,8(sp)
 210 00f8 23308100 		sd	s0,0(sp)
 211              		.cfi_offset 1, -8
 212              		.cfi_offset 8, -16
 213 00fc 13040101 		addi	s0,sp,16
 214              		.cfi_def_cfa 8, 0
  31:src/slab.cpp  ****     SlabAllocator::printCacheInfo((Cache*)cachep);
 215              		.loc 1 31 5
 216              		.loc 1 31 34 is_stmt 0
 217 0100 97000000 		call	_ZN13SlabAllocator14printCacheInfoEP5Cache@plt
 217      E7800000 
 218              	.LVL13:
  32:src/slab.cpp  **** }
 219              		.loc 1 32 1
 220 0108 83308100 		ld	ra,8(sp)
 221              		.cfi_restore 1
 222 010c 03340100 		ld	s0,0(sp)
 223              		.cfi_restore 8
 224              		.cfi_def_cfa 2, 16
 225 0110 13010101 		addi	sp,sp,16
 226              		.cfi_def_cfa_offset 0
 227 0114 67800000 		jr	ra
 228              		.cfi_endproc
 229              	.LFE9:
 231              		.align	2
 232              		.globl	_Z16kmem_cache_errorP12kmem_cache_s
 234              	_Z16kmem_cache_errorP12kmem_cache_s:
 235              	.LFB10:
  33:src/slab.cpp  **** int kmem_cache_error(kmem_cache_t *cachep) {
 236              		.loc 1 33 44 is_stmt 1
 237              		.cfi_startproc
 238              	.LVL14:
 239 0118 130101FF 		addi	sp,sp,-16
 240              		.cfi_def_cfa_offset 16
 241 011c 23341100 		sd	ra,8(sp)
 242 0120 23308100 		sd	s0,0(sp)
 243              		.cfi_offset 1, -8
 244              		.cfi_offset 8, -16
 245 0124 13040101 		addi	s0,sp,16
 246              		.cfi_def_cfa 8, 0
  34:src/slab.cpp  ****     return SlabAllocator::printErrorMessage((Cache*)cachep);
 247              		.loc 1 34 5
 248              		.loc 1 34 44 is_stmt 0
 249 0128 97000000 		call	_ZN13SlabAllocator17printErrorMessageEP5Cache@plt
 249      E7800000 
 250              	.LVL15:
  35:src/slab.cpp  **** }...
 251              		.loc 1 35 1
 252 0130 83308100 		ld	ra,8(sp)
 253              		.cfi_restore 1
 254 0134 03340100 		ld	s0,0(sp)
 255              		.cfi_restore 8
 256              		.cfi_def_cfa 2, 16
 257 0138 13010101 		addi	sp,sp,16
GAS LISTING /tmp/cc3BgDqW.s 			page 6


 258              		.cfi_def_cfa_offset 0
 259 013c 67800000 		jr	ra
 260              		.cfi_endproc
 261              	.LFE10:
 263              	.Letext0:
 264              		.file 2 "src/../h/hw.h"
 265              		.file 3 "src/../h/slab.h"
 266              		.file 4 "src/../h/Cache.h"
 267              		.file 5 "src/../h/SlabAllocator.h"
GAS LISTING /tmp/cc3BgDqW.s 			page 7

