GAS LISTING /tmp/ccoXvE2P.s 			page 1


   1              		.file	"SlabAllocator.cpp"
   2              		.option pic
   3              		.option norelax
   4              		.text
   5              	.Ltext0:
   6              		.align	2
   7              		.globl	_ZN13SlabAllocator13initAllocatorEPvi
   9              	_ZN13SlabAllocator13initAllocatorEPvi:
  10              	.LFB11:
  11              		.file 1 "src/SlabAllocator.cpp"
   1:src/SlabAllocator.cpp **** #include "../h/SlabAllocator.h"
   2:src/SlabAllocator.cpp **** #include "../h/BuddyAllocator.h"
   3:src/SlabAllocator.cpp **** 
   4:src/SlabAllocator.cpp **** void SlabAllocator::initAllocator(void *space, int blockNum) {
  12              		.loc 1 4 62
  13              		.cfi_startproc
  14              	.LVL0:
  15 0000 130101FF 		addi	sp,sp,-16
  16              		.cfi_def_cfa_offset 16
  17 0004 23341100 		sd	ra,8(sp)
  18 0008 23308100 		sd	s0,0(sp)
  19              		.cfi_offset 1, -8
  20              		.cfi_offset 8, -16
  21 000c 13040101 		addi	s0,sp,16
  22              		.cfi_def_cfa 8, 0
   5:src/SlabAllocator.cpp ****     BuddyAllocator::initBuddy();
  23              		.loc 1 5 5
  24              		.loc 1 5 30 is_stmt 0
  25 0010 97000000 		call	_ZN14BuddyAllocator9initBuddyEv@plt
  25      E7800000 
  26              	.LVL1:
   6:src/SlabAllocator.cpp **** }
  27              		.loc 1 6 1
  28 0018 83308100 		ld	ra,8(sp)
  29              		.cfi_restore 1
  30 001c 03340100 		ld	s0,0(sp)
  31              		.cfi_restore 8
  32              		.cfi_def_cfa 2, 16
  33 0020 13010101 		addi	sp,sp,16
  34              		.cfi_def_cfa_offset 0
  35 0024 67800000 		jr	ra
  36              		.cfi_endproc
  37              	.LFE11:
  39              		.align	2
  40              		.globl	_ZN13SlabAllocator11createCacheEPKcmPFvPvES4_
  42              	_ZN13SlabAllocator11createCacheEPKcmPFvPvES4_:
  43              	.LFB12:
   7:src/SlabAllocator.cpp **** 
   8:src/SlabAllocator.cpp **** Cache* SlabAllocator::createCache(const char *name, size_t size, void (*ctor)(void *), void (*dtor)
  44              		.loc 1 8 110 is_stmt 1
  45              		.cfi_startproc
  46              	.LVL2:
  47 0028 130101FC 		addi	sp,sp,-64
  48              		.cfi_def_cfa_offset 64
  49 002c 233C1102 		sd	ra,56(sp)
  50 0030 23388102 		sd	s0,48(sp)
  51 0034 23349102 		sd	s1,40(sp)
GAS LISTING /tmp/ccoXvE2P.s 			page 2


  52 0038 23302103 		sd	s2,32(sp)
  53 003c 233C3101 		sd	s3,24(sp)
  54 0040 23384101 		sd	s4,16(sp)
  55 0044 23345101 		sd	s5,8(sp)
  56              		.cfi_offset 1, -8
  57              		.cfi_offset 8, -16
  58              		.cfi_offset 9, -24
  59              		.cfi_offset 18, -32
  60              		.cfi_offset 19, -40
  61              		.cfi_offset 20, -48
  62              		.cfi_offset 21, -56
  63 0048 13040104 		addi	s0,sp,64
  64              		.cfi_def_cfa 8, 0
  65 004c 13090500 		mv	s2,a0
  66 0050 93890500 		mv	s3,a1
  67 0054 130A0600 		mv	s4,a2
  68 0058 938A0600 		mv	s5,a3
   9:src/SlabAllocator.cpp ****     Cache* cache = Cache::createCache();
  69              		.loc 1 9 5
  70              		.loc 1 9 38 is_stmt 0
  71 005c 97000000 		call	_ZN5Cache11createCacheEv@plt
  71      E7800000 
  72              	.LVL3:
  73 0064 93040500 		mv	s1,a0
  74              	.LVL4:
  10:src/SlabAllocator.cpp ****     cache->initCache(name, size, ctor, dtor);
  75              		.loc 1 10 5 is_stmt 1
  76              		.loc 1 10 21 is_stmt 0
  77 0068 13870A00 		mv	a4,s5
  78 006c 93060A00 		mv	a3,s4
  79 0070 13860900 		mv	a2,s3
  80 0074 93050900 		mv	a1,s2
  81 0078 97000000 		call	_ZN5Cache9initCacheEPKcmPFvPvES4_@plt
  81      E7800000 
  82              	.LVL5:
  11:src/SlabAllocator.cpp ****     return cache;
  83              		.loc 1 11 5 is_stmt 1
  12:src/SlabAllocator.cpp **** }
  84              		.loc 1 12 1 is_stmt 0
  85 0080 13850400 		mv	a0,s1
  86 0084 83308103 		ld	ra,56(sp)
  87              		.cfi_restore 1
  88 0088 03340103 		ld	s0,48(sp)
  89              		.cfi_restore 8
  90              		.cfi_def_cfa 2, 64
  91 008c 83348102 		ld	s1,40(sp)
  92              		.cfi_restore 9
  93              	.LVL6:
  94 0090 03390102 		ld	s2,32(sp)
  95              		.cfi_restore 18
  96              	.LVL7:
  97 0094 83398101 		ld	s3,24(sp)
  98              		.cfi_restore 19
  99              	.LVL8:
 100 0098 033A0101 		ld	s4,16(sp)
 101              		.cfi_restore 20
 102              	.LVL9:
GAS LISTING /tmp/ccoXvE2P.s 			page 3


 103 009c 833A8100 		ld	s5,8(sp)
 104              		.cfi_restore 21
 105              	.LVL10:
 106 00a0 13010104 		addi	sp,sp,64
 107              		.cfi_def_cfa_offset 0
 108 00a4 67800000 		jr	ra
 109              		.cfi_endproc
 110              	.LFE12:
 112              		.align	2
 113              		.globl	_ZN13SlabAllocator9allocSlotEP5Cache
 115              	_ZN13SlabAllocator9allocSlotEP5Cache:
 116              	.LFB13:
  13:src/SlabAllocator.cpp **** 
  14:src/SlabAllocator.cpp **** void *SlabAllocator::allocSlot(Cache *cache) {
 117              		.loc 1 14 46 is_stmt 1
 118              		.cfi_startproc
 119              	.LVL11:
 120 00a8 130101FF 		addi	sp,sp,-16
 121              		.cfi_def_cfa_offset 16
 122 00ac 23341100 		sd	ra,8(sp)
 123 00b0 23308100 		sd	s0,0(sp)
 124              		.cfi_offset 1, -8
 125              		.cfi_offset 8, -16
 126 00b4 13040101 		addi	s0,sp,16
 127              		.cfi_def_cfa 8, 0
  15:src/SlabAllocator.cpp ****     return (void*)((char*)cache->allocateSlot() + sizeof(Cache::Slot)); // za pocetnu adresu objekt
 128              		.loc 1 15 5
 129              		.loc 1 15 46 is_stmt 0
 130 00b8 97000000 		call	_ZN5Cache12allocateSlotEv@plt
 130      E7800000 
 131              	.LVL12:
  16:src/SlabAllocator.cpp **** }
 132              		.loc 1 16 1
 133 00c0 13058501 		addi	a0,a0,24
 134 00c4 83308100 		ld	ra,8(sp)
 135              		.cfi_restore 1
 136 00c8 03340100 		ld	s0,0(sp)
 137              		.cfi_restore 8
 138              		.cfi_def_cfa 2, 16
 139 00cc 13010101 		addi	sp,sp,16
 140              		.cfi_def_cfa_offset 0
 141 00d0 67800000 		jr	ra
 142              		.cfi_endproc
 143              	.LFE13:
 145              		.align	2
 146              		.globl	_ZN13SlabAllocator8freeSlotEP5CachePv
 148              	_ZN13SlabAllocator8freeSlotEP5CachePv:
 149              	.LFB14:
  17:src/SlabAllocator.cpp **** 
  18:src/SlabAllocator.cpp **** void SlabAllocator::freeSlot(Cache *cache, void *obj) {
 150              		.loc 1 18 55 is_stmt 1
 151              		.cfi_startproc
 152              	.LVL13:
 153 00d4 130101FF 		addi	sp,sp,-16
 154              		.cfi_def_cfa_offset 16
 155 00d8 23341100 		sd	ra,8(sp)
 156 00dc 23308100 		sd	s0,0(sp)
GAS LISTING /tmp/ccoXvE2P.s 			page 4


 157              		.cfi_offset 1, -8
 158              		.cfi_offset 8, -16
 159 00e0 13040101 		addi	s0,sp,16
 160              		.cfi_def_cfa 8, 0
  19:src/SlabAllocator.cpp ****     cache->freeSlot((Cache::Slot*)((char*)obj - sizeof(Cache::Slot))); // za pocetnu adresu slota
 161              		.loc 1 19 5
 162              		.loc 1 19 20 is_stmt 0
 163 00e4 938585FE 		addi	a1,a1,-24
 164              	.LVL14:
 165 00e8 97000000 		call	_ZN5Cache8freeSlotEPNS_4SlotE@plt
 165      E7800000 
 166              	.LVL15:
  20:src/SlabAllocator.cpp **** }
 167              		.loc 1 20 1
 168 00f0 83308100 		ld	ra,8(sp)
 169              		.cfi_restore 1
 170 00f4 03340100 		ld	s0,0(sp)
 171              		.cfi_restore 8
 172              		.cfi_def_cfa 2, 16
 173 00f8 13010101 		addi	sp,sp,16
 174              		.cfi_def_cfa_offset 0
 175 00fc 67800000 		jr	ra
 176              		.cfi_endproc
 177              	.LFE14:
 179              		.align	2
 180              		.globl	_ZN13SlabAllocator17printErrorMessageEP5Cache
 182              	_ZN13SlabAllocator17printErrorMessageEP5Cache:
 183              	.LFB15:
  21:src/SlabAllocator.cpp **** 
  22:src/SlabAllocator.cpp **** int SlabAllocator::printErrorMessage(Cache *cache) {
 184              		.loc 1 22 52 is_stmt 1
 185              		.cfi_startproc
 186              	.LVL16:
 187 0100 130101FF 		addi	sp,sp,-16
 188              		.cfi_def_cfa_offset 16
 189 0104 23341100 		sd	ra,8(sp)
 190 0108 23308100 		sd	s0,0(sp)
 191              		.cfi_offset 1, -8
 192              		.cfi_offset 8, -16
 193 010c 13040101 		addi	s0,sp,16
 194              		.cfi_def_cfa 8, 0
  23:src/SlabAllocator.cpp ****     return cache->printErrorMessage();
 195              		.loc 1 23 5
 196              		.loc 1 23 36 is_stmt 0
 197 0110 97000000 		call	_ZN5Cache17printErrorMessageEv@plt
 197      E7800000 
 198              	.LVL17:
  24:src/SlabAllocator.cpp **** }
 199              		.loc 1 24 1
 200 0118 83308100 		ld	ra,8(sp)
 201              		.cfi_restore 1
 202 011c 03340100 		ld	s0,0(sp)
 203              		.cfi_restore 8
 204              		.cfi_def_cfa 2, 16
 205 0120 13010101 		addi	sp,sp,16
 206              		.cfi_def_cfa_offset 0
 207 0124 67800000 		jr	ra
GAS LISTING /tmp/ccoXvE2P.s 			page 5


 208              		.cfi_endproc
 209              	.LFE15:
 211              		.align	2
 212              		.globl	_ZN13SlabAllocator14printCacheInfoEP5Cache
 214              	_ZN13SlabAllocator14printCacheInfoEP5Cache:
 215              	.LFB16:
  25:src/SlabAllocator.cpp **** 
  26:src/SlabAllocator.cpp **** void SlabAllocator::printCacheInfo(Cache *cache) {
 216              		.loc 1 26 50 is_stmt 1
 217              		.cfi_startproc
 218              	.LVL18:
 219 0128 130101FF 		addi	sp,sp,-16
 220              		.cfi_def_cfa_offset 16
 221 012c 23341100 		sd	ra,8(sp)
 222 0130 23308100 		sd	s0,0(sp)
 223              		.cfi_offset 1, -8
 224              		.cfi_offset 8, -16
 225 0134 13040101 		addi	s0,sp,16
 226              		.cfi_def_cfa 8, 0
  27:src/SlabAllocator.cpp ****     cache->printCacheInfo();
 227              		.loc 1 27 5
 228              		.loc 1 27 26 is_stmt 0
 229 0138 97000000 		call	_ZN5Cache14printCacheInfoEv@plt
 229      E7800000 
 230              	.LVL19:
  28:src/SlabAllocator.cpp **** }
 231              		.loc 1 28 1
 232 0140 83308100 		ld	ra,8(sp)
 233              		.cfi_restore 1
 234 0144 03340100 		ld	s0,0(sp)
 235              		.cfi_restore 8
 236              		.cfi_def_cfa 2, 16
 237 0148 13010101 		addi	sp,sp,16
 238              		.cfi_def_cfa_offset 0
 239 014c 67800000 		jr	ra
 240              		.cfi_endproc
 241              	.LFE16:
 243              		.align	2
 244              		.globl	_ZN13SlabAllocator16deallocFreeSlabsEP5Cache
 246              	_ZN13SlabAllocator16deallocFreeSlabsEP5Cache:
 247              	.LFB17:
  29:src/SlabAllocator.cpp **** 
  30:src/SlabAllocator.cpp **** int SlabAllocator::deallocFreeSlabs(Cache *cache) {
 248              		.loc 1 30 51 is_stmt 1
 249              		.cfi_startproc
 250              	.LVL20:
 251 0150 130101FF 		addi	sp,sp,-16
 252              		.cfi_def_cfa_offset 16
 253 0154 23341100 		sd	ra,8(sp)
 254 0158 23308100 		sd	s0,0(sp)
 255              		.cfi_offset 1, -8
 256              		.cfi_offset 8, -16
 257 015c 13040101 		addi	s0,sp,16
 258              		.cfi_def_cfa 8, 0
  31:src/SlabAllocator.cpp ****     return cache->deallocFreeSlabs();
 259              		.loc 1 31 5
 260              		.loc 1 31 35 is_stmt 0
GAS LISTING /tmp/ccoXvE2P.s 			page 6


 261 0160 97000000 		call	_ZN5Cache16deallocFreeSlabsEv@plt
 261      E7800000 
 262              	.LVL21:
  32:src/SlabAllocator.cpp **** }
 263              		.loc 1 32 1
 264 0168 83308100 		ld	ra,8(sp)
 265              		.cfi_restore 1
 266 016c 03340100 		ld	s0,0(sp)
 267              		.cfi_restore 8
 268              		.cfi_def_cfa 2, 16
 269 0170 13010101 		addi	sp,sp,16
 270              		.cfi_def_cfa_offset 0
 271 0174 67800000 		jr	ra
 272              		.cfi_endproc
 273              	.LFE17:
 275              		.align	2
 276              		.globl	_ZN13SlabAllocator12deallocCacheEP5Cache
 278              	_ZN13SlabAllocator12deallocCacheEP5Cache:
 279              	.LFB18:
  33:src/SlabAllocator.cpp **** 
  34:src/SlabAllocator.cpp **** void SlabAllocator::deallocCache(Cache *cache) {
 280              		.loc 1 34 48 is_stmt 1
 281              		.cfi_startproc
 282              	.LVL22:
 283 0178 130101FF 		addi	sp,sp,-16
 284              		.cfi_def_cfa_offset 16
 285 017c 23341100 		sd	ra,8(sp)
 286 0180 23308100 		sd	s0,0(sp)
 287              		.cfi_offset 1, -8
 288              		.cfi_offset 8, -16
 289 0184 13040101 		addi	s0,sp,16
 290              		.cfi_def_cfa 8, 0
  35:src/SlabAllocator.cpp ****     cache->deallocCache();
 291              		.loc 1 35 5
 292              		.loc 1 35 24 is_stmt 0
 293 0188 97000000 		call	_ZN5Cache12deallocCacheEv@plt
 293      E7800000 
 294              	.LVL23:
  36:src/SlabAllocator.cpp **** }
 295              		.loc 1 36 1
 296 0190 83308100 		ld	ra,8(sp)
 297              		.cfi_restore 1
 298 0194 03340100 		ld	s0,0(sp)
 299              		.cfi_restore 8
 300              		.cfi_def_cfa 2, 16
 301 0198 13010101 		addi	sp,sp,16
 302              		.cfi_def_cfa_offset 0
 303 019c 67800000 		jr	ra
 304              		.cfi_endproc
 305              	.LFE18:
 307              		.align	2
 308              		.globl	_ZN13SlabAllocator9allocBuffEm
 310              	_ZN13SlabAllocator9allocBuffEm:
 311              	.LFB19:
  37:src/SlabAllocator.cpp **** 
  38:src/SlabAllocator.cpp **** void *SlabAllocator::allocBuff(size_t size) {
 312              		.loc 1 38 45 is_stmt 1
GAS LISTING /tmp/ccoXvE2P.s 			page 7


 313              		.cfi_startproc
 314              	.LVL24:
 315 01a0 130101FF 		addi	sp,sp,-16
 316              		.cfi_def_cfa_offset 16
 317 01a4 23341100 		sd	ra,8(sp)
 318 01a8 23308100 		sd	s0,0(sp)
 319              		.cfi_offset 1, -8
 320              		.cfi_offset 8, -16
 321 01ac 13040101 		addi	s0,sp,16
 322              		.cfi_def_cfa 8, 0
  39:src/SlabAllocator.cpp ****     return (void*)((char*)Cache::allocateBuffer(size) + sizeof(Cache::Slot)); // za pocetnu adresu 
 323              		.loc 1 39 5
 324              		.loc 1 39 48 is_stmt 0
 325 01b0 97000000 		call	_ZN5Cache14allocateBufferEm@plt
 325      E7800000 
 326              	.LVL25:
  40:src/SlabAllocator.cpp **** }
 327              		.loc 1 40 1
 328 01b8 13058501 		addi	a0,a0,24
 329 01bc 83308100 		ld	ra,8(sp)
 330              		.cfi_restore 1
 331 01c0 03340100 		ld	s0,0(sp)
 332              		.cfi_restore 8
 333              		.cfi_def_cfa 2, 16
 334 01c4 13010101 		addi	sp,sp,16
 335              		.cfi_def_cfa_offset 0
 336 01c8 67800000 		jr	ra
 337              		.cfi_endproc
 338              	.LFE19:
 340              		.align	2
 341              		.globl	_ZN13SlabAllocator8freeBuffEPKv
 343              	_ZN13SlabAllocator8freeBuffEPKv:
 344              	.LFB20:
  41:src/SlabAllocator.cpp **** 
  42:src/SlabAllocator.cpp **** void SlabAllocator::freeBuff(const void *buff) {
 345              		.loc 1 42 48 is_stmt 1
 346              		.cfi_startproc
 347              	.LVL26:
 348 01cc 130101FF 		addi	sp,sp,-16
 349              		.cfi_def_cfa_offset 16
 350 01d0 23341100 		sd	ra,8(sp)
 351 01d4 23308100 		sd	s0,0(sp)
 352              		.cfi_offset 1, -8
 353              		.cfi_offset 8, -16
 354 01d8 13040101 		addi	s0,sp,16
 355              		.cfi_def_cfa 8, 0
  43:src/SlabAllocator.cpp ****     Cache::freeBuffer((Cache::Slot*)((char*)buff - sizeof(Cache::Slot))); // za pocetnu adresu slot
 356              		.loc 1 43 5
 357              		.loc 1 43 22 is_stmt 0
 358 01dc 130585FE 		addi	a0,a0,-24
 359              	.LVL27:
 360 01e0 97000000 		call	_ZN5Cache10freeBufferEPNS_4SlotE@plt
 360      E7800000 
 361              	.LVL28:
  44:src/SlabAllocator.cpp **** }
 362              		.loc 1 44 1
 363 01e8 83308100 		ld	ra,8(sp)
GAS LISTING /tmp/ccoXvE2P.s 			page 8


 364              		.cfi_restore 1
 365 01ec 03340100 		ld	s0,0(sp)
 366              		.cfi_restore 8
 367              		.cfi_def_cfa 2, 16
 368 01f0 13010101 		addi	sp,sp,16
 369              		.cfi_def_cfa_offset 0
 370 01f4 67800000 		jr	ra
 371              		.cfi_endproc
 372              	.LFE20:
 374              	.Letext0:
 375              		.file 2 "src/../h/hw.h"
 376              		.file 3 "src/../h/Cache.h"
 377              		.file 4 "src/../h/SlabAllocator.h"
 378              		.file 5 "src/../h/BuddyAllocator.h"
GAS LISTING /tmp/ccoXvE2P.s 			page 9


DEFINED SYMBOLS
                            *ABS*:0000000000000000 SlabAllocator.cpp
     /tmp/ccoXvE2P.s:9      .text:0000000000000000 _ZN13SlabAllocator13initAllocatorEPvi
     /tmp/ccoXvE2P.s:13     .text:0000000000000000 .L0 
     /tmp/ccoXvE2P.s:15     .text:0000000000000000 .L0 
     /tmp/ccoXvE2P.s:16     .text:0000000000000004 .L0 
     /tmp/ccoXvE2P.s:19     .text:000000000000000c .L0 
     /tmp/ccoXvE2P.s:20     .text:000000000000000c .L0 
     /tmp/ccoXvE2P.s:22     .text:0000000000000010 .L0 
     /tmp/ccoXvE2P.s:24     .text:0000000000000010 .L0 
     /tmp/ccoXvE2P.s:25     .text:0000000000000010 .L0 
     /tmp/ccoXvE2P.s:28     .text:0000000000000018 .L0 
     /tmp/ccoXvE2P.s:29     .text:000000000000001c .L0 
     /tmp/ccoXvE2P.s:31     .text:0000000000000020 .L0 
     /tmp/ccoXvE2P.s:32     .text:0000000000000020 .L0 
     /tmp/ccoXvE2P.s:34     .text:0000000000000024 .L0 
     /tmp/ccoXvE2P.s:36     .text:0000000000000028 .L0 
     /tmp/ccoXvE2P.s:42     .text:0000000000000028 _ZN13SlabAllocator11createCacheEPKcmPFvPvES4_
     /tmp/ccoXvE2P.s:45     .text:0000000000000028 .L0 
     /tmp/ccoXvE2P.s:47     .text:0000000000000028 .L0 
     /tmp/ccoXvE2P.s:48     .text:000000000000002c .L0 
     /tmp/ccoXvE2P.s:56     .text:0000000000000048 .L0 
     /tmp/ccoXvE2P.s:57     .text:0000000000000048 .L0 
     /tmp/ccoXvE2P.s:58     .text:0000000000000048 .L0 
     /tmp/ccoXvE2P.s:59     .text:0000000000000048 .L0 
     /tmp/ccoXvE2P.s:60     .text:0000000000000048 .L0 
     /tmp/ccoXvE2P.s:61     .text:0000000000000048 .L0 
     /tmp/ccoXvE2P.s:62     .text:0000000000000048 .L0 
     /tmp/ccoXvE2P.s:64     .text:000000000000004c .L0 
     /tmp/ccoXvE2P.s:70     .text:000000000000005c .L0 
     /tmp/ccoXvE2P.s:71     .text:000000000000005c .L0 
     /tmp/ccoXvE2P.s:76     .text:0000000000000068 .L0 
     /tmp/ccoXvE2P.s:77     .text:0000000000000068 .L0 
     /tmp/ccoXvE2P.s:84     .text:0000000000000080 .L0 
     /tmp/ccoXvE2P.s:85     .text:0000000000000080 .L0 
     /tmp/ccoXvE2P.s:87     .text:0000000000000088 .L0 
     /tmp/ccoXvE2P.s:89     .text:000000000000008c .L0 
     /tmp/ccoXvE2P.s:90     .text:000000000000008c .L0 
     /tmp/ccoXvE2P.s:92     .text:0000000000000090 .L0 
     /tmp/ccoXvE2P.s:95     .text:0000000000000094 .L0 
     /tmp/ccoXvE2P.s:98     .text:0000000000000098 .L0 
     /tmp/ccoXvE2P.s:101    .text:000000000000009c .L0 
     /tmp/ccoXvE2P.s:104    .text:00000000000000a0 .L0 
     /tmp/ccoXvE2P.s:107    .text:00000000000000a4 .L0 
     /tmp/ccoXvE2P.s:109    .text:00000000000000a8 .L0 
     /tmp/ccoXvE2P.s:115    .text:00000000000000a8 _ZN13SlabAllocator9allocSlotEP5Cache
     /tmp/ccoXvE2P.s:118    .text:00000000000000a8 .L0 
     /tmp/ccoXvE2P.s:120    .text:00000000000000a8 .L0 
     /tmp/ccoXvE2P.s:121    .text:00000000000000ac .L0 
     /tmp/ccoXvE2P.s:124    .text:00000000000000b4 .L0 
     /tmp/ccoXvE2P.s:125    .text:00000000000000b4 .L0 
     /tmp/ccoXvE2P.s:127    .text:00000000000000b8 .L0 
     /tmp/ccoXvE2P.s:129    .text:00000000000000b8 .L0 
     /tmp/ccoXvE2P.s:130    .text:00000000000000b8 .L0 
     /tmp/ccoXvE2P.s:133    .text:00000000000000c0 .L0 
     /tmp/ccoXvE2P.s:135    .text:00000000000000c8 .L0 
     /tmp/ccoXvE2P.s:137    .text:00000000000000cc .L0 
GAS LISTING /tmp/ccoXvE2P.s 			page 10


     /tmp/ccoXvE2P.s:138    .text:00000000000000cc .L0 
     /tmp/ccoXvE2P.s:140    .text:00000000000000d0 .L0 
     /tmp/ccoXvE2P.s:142    .text:00000000000000d4 .L0 
     /tmp/ccoXvE2P.s:148    .text:00000000000000d4 _ZN13SlabAllocator8freeSlotEP5CachePv
     /tmp/ccoXvE2P.s:151    .text:00000000000000d4 .L0 
     /tmp/ccoXvE2P.s:153    .text:00000000000000d4 .L0 
     /tmp/ccoXvE2P.s:154    .text:00000000000000d8 .L0 
     /tmp/ccoXvE2P.s:157    .text:00000000000000e0 .L0 
     /tmp/ccoXvE2P.s:158    .text:00000000000000e0 .L0 
     /tmp/ccoXvE2P.s:160    .text:00000000000000e4 .L0 
     /tmp/ccoXvE2P.s:162    .text:00000000000000e4 .L0 
     /tmp/ccoXvE2P.s:163    .text:00000000000000e4 .L0 
     /tmp/ccoXvE2P.s:168    .text:00000000000000f0 .L0 
     /tmp/ccoXvE2P.s:169    .text:00000000000000f4 .L0 
     /tmp/ccoXvE2P.s:171    .text:00000000000000f8 .L0 
     /tmp/ccoXvE2P.s:172    .text:00000000000000f8 .L0 
     /tmp/ccoXvE2P.s:174    .text:00000000000000fc .L0 
     /tmp/ccoXvE2P.s:176    .text:0000000000000100 .L0 
     /tmp/ccoXvE2P.s:182    .text:0000000000000100 _ZN13SlabAllocator17printErrorMessageEP5Cache
     /tmp/ccoXvE2P.s:185    .text:0000000000000100 .L0 
     /tmp/ccoXvE2P.s:187    .text:0000000000000100 .L0 
     /tmp/ccoXvE2P.s:188    .text:0000000000000104 .L0 
     /tmp/ccoXvE2P.s:191    .text:000000000000010c .L0 
     /tmp/ccoXvE2P.s:192    .text:000000000000010c .L0 
     /tmp/ccoXvE2P.s:194    .text:0000000000000110 .L0 
     /tmp/ccoXvE2P.s:196    .text:0000000000000110 .L0 
     /tmp/ccoXvE2P.s:197    .text:0000000000000110 .L0 
     /tmp/ccoXvE2P.s:200    .text:0000000000000118 .L0 
     /tmp/ccoXvE2P.s:201    .text:000000000000011c .L0 
     /tmp/ccoXvE2P.s:203    .text:0000000000000120 .L0 
     /tmp/ccoXvE2P.s:204    .text:0000000000000120 .L0 
     /tmp/ccoXvE2P.s:206    .text:0000000000000124 .L0 
     /tmp/ccoXvE2P.s:208    .text:0000000000000128 .L0 
     /tmp/ccoXvE2P.s:214    .text:0000000000000128 _ZN13SlabAllocator14printCacheInfoEP5Cache
     /tmp/ccoXvE2P.s:217    .text:0000000000000128 .L0 
     /tmp/ccoXvE2P.s:219    .text:0000000000000128 .L0 
     /tmp/ccoXvE2P.s:220    .text:000000000000012c .L0 
     /tmp/ccoXvE2P.s:223    .text:0000000000000134 .L0 
     /tmp/ccoXvE2P.s:224    .text:0000000000000134 .L0 
     /tmp/ccoXvE2P.s:226    .text:0000000000000138 .L0 
     /tmp/ccoXvE2P.s:228    .text:0000000000000138 .L0 
     /tmp/ccoXvE2P.s:229    .text:0000000000000138 .L0 
     /tmp/ccoXvE2P.s:232    .text:0000000000000140 .L0 
     /tmp/ccoXvE2P.s:233    .text:0000000000000144 .L0 
     /tmp/ccoXvE2P.s:235    .text:0000000000000148 .L0 
     /tmp/ccoXvE2P.s:236    .text:0000000000000148 .L0 
     /tmp/ccoXvE2P.s:238    .text:000000000000014c .L0 
     /tmp/ccoXvE2P.s:240    .text:0000000000000150 .L0 
     /tmp/ccoXvE2P.s:246    .text:0000000000000150 _ZN13SlabAllocator16deallocFreeSlabsEP5Cache
     /tmp/ccoXvE2P.s:249    .text:0000000000000150 .L0 
     /tmp/ccoXvE2P.s:251    .text:0000000000000150 .L0 
     /tmp/ccoXvE2P.s:252    .text:0000000000000154 .L0 
     /tmp/ccoXvE2P.s:255    .text:000000000000015c .L0 
     /tmp/ccoXvE2P.s:256    .text:000000000000015c .L0 
     /tmp/ccoXvE2P.s:258    .text:0000000000000160 .L0 
     /tmp/ccoXvE2P.s:260    .text:0000000000000160 .L0 
     /tmp/ccoXvE2P.s:261    .text:0000000000000160 .L0 
GAS LISTING /tmp/ccoXvE2P.s 			page 11


     /tmp/ccoXvE2P.s:264    .text:0000000000000168 .L0 
     /tmp/ccoXvE2P.s:265    .text:000000000000016c .L0 
     /tmp/ccoXvE2P.s:267    .text:0000000000000170 .L0 
     /tmp/ccoXvE2P.s:268    .text:0000000000000170 .L0 
     /tmp/ccoXvE2P.s:270    .text:0000000000000174 .L0 
     /tmp/ccoXvE2P.s:272    .text:0000000000000178 .L0 
     /tmp/ccoXvE2P.s:278    .text:0000000000000178 _ZN13SlabAllocator12deallocCacheEP5Cache
     /tmp/ccoXvE2P.s:281    .text:0000000000000178 .L0 
     /tmp/ccoXvE2P.s:283    .text:0000000000000178 .L0 
     /tmp/ccoXvE2P.s:284    .text:000000000000017c .L0 
     /tmp/ccoXvE2P.s:287    .text:0000000000000184 .L0 
     /tmp/ccoXvE2P.s:288    .text:0000000000000184 .L0 
     /tmp/ccoXvE2P.s:290    .text:0000000000000188 .L0 
     /tmp/ccoXvE2P.s:292    .text:0000000000000188 .L0 
     /tmp/ccoXvE2P.s:293    .text:0000000000000188 .L0 
     /tmp/ccoXvE2P.s:296    .text:0000000000000190 .L0 
     /tmp/ccoXvE2P.s:297    .text:0000000000000194 .L0 
     /tmp/ccoXvE2P.s:299    .text:0000000000000198 .L0 
     /tmp/ccoXvE2P.s:300    .text:0000000000000198 .L0 
     /tmp/ccoXvE2P.s:302    .text:000000000000019c .L0 
     /tmp/ccoXvE2P.s:304    .text:00000000000001a0 .L0 
     /tmp/ccoXvE2P.s:310    .text:00000000000001a0 _ZN13SlabAllocator9allocBuffEm
     /tmp/ccoXvE2P.s:313    .text:00000000000001a0 .L0 
     /tmp/ccoXvE2P.s:315    .text:00000000000001a0 .L0 
     /tmp/ccoXvE2P.s:316    .text:00000000000001a4 .L0 
     /tmp/ccoXvE2P.s:319    .text:00000000000001ac .L0 
     /tmp/ccoXvE2P.s:320    .text:00000000000001ac .L0 
     /tmp/ccoXvE2P.s:322    .text:00000000000001b0 .L0 
     /tmp/ccoXvE2P.s:324    .text:00000000000001b0 .L0 
     /tmp/ccoXvE2P.s:325    .text:00000000000001b0 .L0 
     /tmp/ccoXvE2P.s:328    .text:00000000000001b8 .L0 
     /tmp/ccoXvE2P.s:330    .text:00000000000001c0 .L0 
     /tmp/ccoXvE2P.s:332    .text:00000000000001c4 .L0 
     /tmp/ccoXvE2P.s:333    .text:00000000000001c4 .L0 
     /tmp/ccoXvE2P.s:335    .text:00000000000001c8 .L0 
     /tmp/ccoXvE2P.s:337    .text:00000000000001cc .L0 
     /tmp/ccoXvE2P.s:343    .text:00000000000001cc _ZN13SlabAllocator8freeBuffEPKv
     /tmp/ccoXvE2P.s:346    .text:00000000000001cc .L0 
     /tmp/ccoXvE2P.s:348    .text:00000000000001cc .L0 
     /tmp/ccoXvE2P.s:349    .text:00000000000001d0 .L0 
     /tmp/ccoXvE2P.s:352    .text:00000000000001d8 .L0 
     /tmp/ccoXvE2P.s:353    .text:00000000000001d8 .L0 
     /tmp/ccoXvE2P.s:355    .text:00000000000001dc .L0 
     /tmp/ccoXvE2P.s:357    .text:00000000000001dc .L0 
     /tmp/ccoXvE2P.s:358    .text:00000000000001dc .L0 
     /tmp/ccoXvE2P.s:363    .text:00000000000001e8 .L0 
     /tmp/ccoXvE2P.s:364    .text:00000000000001ec .L0 
     /tmp/ccoXvE2P.s:366    .text:00000000000001f0 .L0 
     /tmp/ccoXvE2P.s:367    .text:00000000000001f0 .L0 
     /tmp/ccoXvE2P.s:369    .text:00000000000001f4 .L0 
     /tmp/ccoXvE2P.s:371    .text:00000000000001f8 .L0 
     /tmp/ccoXvE2P.s:379    .text:00000000000001f8 .L0 
     /tmp/ccoXvE2P.s:1889   .debug_abbrev:0000000000000000 .Ldebug_abbrev0
     /tmp/ccoXvE2P.s:3129   .debug_str:00000000000002ab .LASF156
     /tmp/ccoXvE2P.s:3107   .debug_str:00000000000001ee .LASF157
     /tmp/ccoXvE2P.s:3077   .debug_str:00000000000000e0 .LASF158
     /tmp/ccoXvE2P.s:5      .text:0000000000000000 .Ltext0
GAS LISTING /tmp/ccoXvE2P.s 			page 12


     /tmp/ccoXvE2P.s:374    .text:00000000000001f8 .Letext0
     /tmp/ccoXvE2P.s:3055   .debug_line:0000000000000000 .Ldebug_line0
     /tmp/ccoXvE2P.s:3229   .debug_str:00000000000006d1 .LASF0
     /tmp/ccoXvE2P.s:3241   .debug_str:000000000000072d .LASF1
     /tmp/ccoXvE2P.s:3209   .debug_str:00000000000005f5 .LASF2
     /tmp/ccoXvE2P.s:3177   .debug_str:00000000000004f5 .LASF4
     /tmp/ccoXvE2P.s:3297   .debug_str:000000000000097b .LASF3
     /tmp/ccoXvE2P.s:3091   .debug_str:0000000000000177 .LASF5
     /tmp/ccoXvE2P.s:3243   .debug_str:0000000000000740 .LASF6
     /tmp/ccoXvE2P.s:3227   .debug_str:00000000000006be .LASF7
     /tmp/ccoXvE2P.s:3343   .debug_str:0000000000000ae3 .LASF8
     /tmp/ccoXvE2P.s:3163   .debug_str:0000000000000484 .LASF9
     /tmp/ccoXvE2P.s:3261   .debug_str:0000000000000812 .LASF10
     /tmp/ccoXvE2P.s:3325   .debug_str:0000000000000a5f .LASF11
     /tmp/ccoXvE2P.s:3095   .debug_str:0000000000000189 .LASF12
     /tmp/ccoXvE2P.s:3065   .debug_str:000000000000005f .LASF13
     /tmp/ccoXvE2P.s:3211   .debug_str:0000000000000603 .LASF14
     /tmp/ccoXvE2P.s:3285   .debug_str:00000000000008e1 .LASF15
     /tmp/ccoXvE2P.s:3123   .debug_str:000000000000027f .LASF16
     /tmp/ccoXvE2P.s:3179   .debug_str:00000000000004fc .LASF88
     /tmp/ccoXvE2P.s:3087   .debug_str:0000000000000149 .LASF159
     /tmp/ccoXvE2P.s:3279   .debug_str:00000000000008cd .LASF17
     /tmp/ccoXvE2P.s:3119   .debug_str:0000000000000257 .LASF18
     /tmp/ccoXvE2P.s:3207   .debug_str:00000000000005eb .LASF160
     /tmp/ccoXvE2P.s:3281   .debug_str:00000000000008d5 .LASF19
     /tmp/ccoXvE2P.s:3273   .debug_str:00000000000008a4 .LASF20
     /tmp/ccoXvE2P.s:3233   .debug_str:00000000000006e4 .LASF21
     /tmp/ccoXvE2P.s:3323   .debug_str:0000000000000a57 .LASF22
     /tmp/ccoXvE2P.s:3305   .debug_str:00000000000009c0 .LASF26
     /tmp/ccoXvE2P.s:3169   .debug_str:00000000000004c7 .LASF23
     /tmp/ccoXvE2P.s:3371   .debug_str:0000000000000bf1 .LASF24
     /tmp/ccoXvE2P.s:3353   .debug_str:0000000000000b56 .LASF25
     /tmp/ccoXvE2P.s:3369   .debug_str:0000000000000bec .LASF27
     /tmp/ccoXvE2P.s:3329   .debug_str:0000000000000a89 .LASF28
     /tmp/ccoXvE2P.s:3085   .debug_str:0000000000000143 .LASF29
     /tmp/ccoXvE2P.s:3161   .debug_str:0000000000000478 .LASF30
     /tmp/ccoXvE2P.s:3263   .debug_str:0000000000000821 .LASF58
     /tmp/ccoXvE2P.s:3349   .debug_str:0000000000000b1e .LASF60
     /tmp/ccoXvE2P.s:3373   .debug_str:0000000000000bf6 .LASF31
     /tmp/ccoXvE2P.s:3117   .debug_str:0000000000000245 .LASF34
     /tmp/ccoXvE2P.s:3099   .debug_str:00000000000001a6 .LASF36
     /tmp/ccoXvE2P.s:3333   .debug_str:0000000000000aa3 .LASF32
     /tmp/ccoXvE2P.s:3275   .debug_str:00000000000008ac .LASF33
     /tmp/ccoXvE2P.s:3187   .debug_str:0000000000000541 .LASF35
     /tmp/ccoXvE2P.s:3265   .debug_str:000000000000082d .LASF37
     /tmp/ccoXvE2P.s:3195   .debug_str:000000000000056e .LASF38
     /tmp/ccoXvE2P.s:3267   .debug_str:0000000000000850 .LASF39
     /tmp/ccoXvE2P.s:3189   .debug_str:000000000000054d .LASF40
     /tmp/ccoXvE2P.s:3183   .debug_str:0000000000000528 .LASF41
     /tmp/ccoXvE2P.s:3249   .debug_str:000000000000077e .LASF42
     /tmp/ccoXvE2P.s:3071   .debug_str:00000000000000aa .LASF43
     /tmp/ccoXvE2P.s:3115   .debug_str:000000000000023c .LASF44
     /tmp/ccoXvE2P.s:3217   .debug_str:0000000000000621 .LASF45
     /tmp/ccoXvE2P.s:3103   .debug_str:00000000000001d8 .LASF46
     /tmp/ccoXvE2P.s:3093   .debug_str:000000000000017e .LASF47
     /tmp/ccoXvE2P.s:3171   .debug_str:00000000000004d1 .LASF48
     /tmp/ccoXvE2P.s:3269   .debug_str:0000000000000876 .LASF49
GAS LISTING /tmp/ccoXvE2P.s 			page 13


     /tmp/ccoXvE2P.s:3259   .debug_str:00000000000007ed .LASF50
     /tmp/ccoXvE2P.s:3247   .debug_str:0000000000000772 .LASF51
     /tmp/ccoXvE2P.s:3121   .debug_str:0000000000000265 .LASF52
     /tmp/ccoXvE2P.s:3101   .debug_str:00000000000001ca .LASF53
     /tmp/ccoXvE2P.s:3185   .debug_str:0000000000000533 .LASF54
     /tmp/ccoXvE2P.s:3301   .debug_str:00000000000009af .LASF55
     /tmp/ccoXvE2P.s:3135   .debug_str:00000000000003a2 .LASF56
     /tmp/ccoXvE2P.s:3127   .debug_str:000000000000029f .LASF57
     /tmp/ccoXvE2P.s:3359   .debug_str:0000000000000bb1 .LASF95
     /tmp/ccoXvE2P.s:3059   .debug_str:000000000000000a .LASF144
     /tmp/ccoXvE2P.s:3295   .debug_str:0000000000000969 .LASF64
     /tmp/ccoXvE2P.s:3145   .debug_str:00000000000003ec .LASF66
     /tmp/ccoXvE2P.s:3309   .debug_str:00000000000009e6 .LASF59
     /tmp/ccoXvE2P.s:3321   .debug_str:0000000000000a3b .LASF61
     /tmp/ccoXvE2P.s:3125   .debug_str:0000000000000295 .LASF62
     /tmp/ccoXvE2P.s:3357   .debug_str:0000000000000b8f .LASF63
     /tmp/ccoXvE2P.s:3361   .debug_str:0000000000000bbd .LASF65
     /tmp/ccoXvE2P.s:3351   .debug_str:0000000000000b3c .LASF67
     /tmp/ccoXvE2P.s:3157   .debug_str:000000000000046a .LASF68
     /tmp/ccoXvE2P.s:3377   .debug_str:0000000000000c19 .LASF69
     /tmp/ccoXvE2P.s:3235   .debug_str:00000000000006e9 .LASF70
     /tmp/ccoXvE2P.s:3221   .debug_str:0000000000000656 .LASF71
     /tmp/ccoXvE2P.s:3151   .debug_str:0000000000000431 .LASF72
     /tmp/ccoXvE2P.s:3061   .debug_str:0000000000000023 .LASF73
     /tmp/ccoXvE2P.s:3215   .debug_str:0000000000000615 .LASF74
     /tmp/ccoXvE2P.s:3153   .debug_str:000000000000043e .LASF75
     /tmp/ccoXvE2P.s:3097   .debug_str:0000000000000199 .LASF76
     /tmp/ccoXvE2P.s:3271   .debug_str:000000000000088a .LASF77
     /tmp/ccoXvE2P.s:3147   .debug_str:000000000000040b .LASF78
     /tmp/ccoXvE2P.s:3203   .debug_str:00000000000005b8 .LASF79
     /tmp/ccoXvE2P.s:3193   .debug_str:0000000000000563 .LASF80
     /tmp/ccoXvE2P.s:3307   .debug_str:00000000000009c5 .LASF81
     /tmp/ccoXvE2P.s:3293   .debug_str:000000000000095e .LASF82
     /tmp/ccoXvE2P.s:3255   .debug_str:00000000000007c9 .LASF83
     /tmp/ccoXvE2P.s:3345   .debug_str:0000000000000af3 .LASF84
     /tmp/ccoXvE2P.s:3205   .debug_str:00000000000005d4 .LASF85
     /tmp/ccoXvE2P.s:3313   .debug_str:0000000000000a03 .LASF135
     /tmp/ccoXvE2P.s:3327   .debug_str:0000000000000a6e .LASF137
     /tmp/ccoXvE2P.s:3075   .debug_str:00000000000000db .LASF86
     /tmp/ccoXvE2P.s:3081   .debug_str:000000000000010f .LASF87
     /tmp/ccoXvE2P.s:3311   .debug_str:00000000000009f5 .LASF89
     /tmp/ccoXvE2P.s:3341   .debug_str:0000000000000ad6 .LASF90
     /tmp/ccoXvE2P.s:3149   .debug_str:000000000000041a .LASF91
     /tmp/ccoXvE2P.s:3231   .debug_str:00000000000006de .LASF92
     /tmp/ccoXvE2P.s:3113   .debug_str:000000000000022e .LASF93
     /tmp/ccoXvE2P.s:3181   .debug_str:0000000000000502 .LASF94
     /tmp/ccoXvE2P.s:3067   .debug_str:000000000000006f .LASF96
     /tmp/ccoXvE2P.s:3251   .debug_str:000000000000078b .LASF97
     /tmp/ccoXvE2P.s:3219   .debug_str:000000000000062d .LASF98
     /tmp/ccoXvE2P.s:3201   .debug_str:00000000000005ae .LASF99
     /tmp/ccoXvE2P.s:3109   .debug_str:0000000000000204 .LASF100
     /tmp/ccoXvE2P.s:3239   .debug_str:0000000000000707 .LASF101
     /tmp/ccoXvE2P.s:3355   .debug_str:0000000000000b61 .LASF102
     /tmp/ccoXvE2P.s:3197   .debug_str:000000000000057d .LASF103
     /tmp/ccoXvE2P.s:3155   .debug_str:0000000000000460 .LASF104
     /tmp/ccoXvE2P.s:3245   .debug_str:0000000000000753 .LASF105
     /tmp/ccoXvE2P.s:3335   .debug_str:0000000000000aad .LASF106
GAS LISTING /tmp/ccoXvE2P.s 			page 14


     /tmp/ccoXvE2P.s:3139   .debug_str:00000000000003be .LASF107
     /tmp/ccoXvE2P.s:3223   .debug_str:0000000000000674 .LASF108
     /tmp/ccoXvE2P.s:3367   .debug_str:0000000000000be2 .LASF109
     /tmp/ccoXvE2P.s:3375   .debug_str:0000000000000bff .LASF110
     /tmp/ccoXvE2P.s:3173   .debug_str:00000000000004dc .LASF111
     /tmp/ccoXvE2P.s:3363   .debug_str:0000000000000bca .LASF112
     /tmp/ccoXvE2P.s:3089   .debug_str:0000000000000153 .LASF113
     /tmp/ccoXvE2P.s:3159   .debug_str:0000000000000473 .LASF114
     /tmp/ccoXvE2P.s:3191   .debug_str:0000000000000557 .LASF115
     /tmp/ccoXvE2P.s:3225   .debug_str:000000000000068e .LASF116
     /tmp/ccoXvE2P.s:3303   .debug_str:00000000000009b7 .LASF117
     /tmp/ccoXvE2P.s:3083   .debug_str:0000000000000114 .LASF118
     /tmp/ccoXvE2P.s:3105   .debug_str:00000000000001e4 .LASF119
     /tmp/ccoXvE2P.s:3175   .debug_str:00000000000004eb .LASF120
     /tmp/ccoXvE2P.s:3069   .debug_str:000000000000009d .LASF121
     /tmp/ccoXvE2P.s:3277   .debug_str:00000000000008b5 .LASF122
     /tmp/ccoXvE2P.s:3283   .debug_str:00000000000008db .LASF123
     /tmp/ccoXvE2P.s:3079   .debug_str:0000000000000105 .LASF124
     /tmp/ccoXvE2P.s:3237   .debug_str:00000000000006fa .LASF125
     /tmp/ccoXvE2P.s:3347   .debug_str:0000000000000afa .LASF126
     /tmp/ccoXvE2P.s:3365   .debug_str:0000000000000bd5 .LASF127
     /tmp/ccoXvE2P.s:3287   .debug_str:00000000000008f7 .LASF128
     /tmp/ccoXvE2P.s:3253   .debug_str:00000000000007b8 .LASF129
     /tmp/ccoXvE2P.s:3167   .debug_str:000000000000049d .LASF130
     /tmp/ccoXvE2P.s:3257   .debug_str:00000000000007e1 .LASF131
     /tmp/ccoXvE2P.s:3289   .debug_str:000000000000091b .LASF132
     /tmp/ccoXvE2P.s:3137   .debug_str:00000000000003ae .LASF133
     /tmp/ccoXvE2P.s:3073   .debug_str:00000000000000b3 .LASF134
     /tmp/ccoXvE2P.s:3331   .debug_str:0000000000000a98 .LASF136
     /tmp/ccoXvE2P.s:3133   .debug_str:0000000000000380 .LASF138
     /tmp/ccoXvE2P.s:3165   .debug_str:0000000000000492 .LASF139
     /tmp/ccoXvE2P.s:3063   .debug_str:000000000000003d .LASF140
     /tmp/ccoXvE2P.s:3315   .debug_str:0000000000000a11 .LASF141
     /tmp/ccoXvE2P.s:3299   .debug_str:000000000000098d .LASF142
     /tmp/ccoXvE2P.s:3057   .debug_str:0000000000000000 .LASF143
     /tmp/ccoXvE2P.s:3291   .debug_str:000000000000093e .LASF145
     /tmp/ccoXvE2P.s:3319   .debug_str:0000000000000a20 .LASF146
     /tmp/ccoXvE2P.s:3339   .debug_str:0000000000000abb .LASF147
     /tmp/ccoXvE2P.s:344    .text:00000000000001cc .LFB20
     /tmp/ccoXvE2P.s:372    .text:00000000000001f8 .LFE20
     /tmp/ccoXvE2P.s:3111   .debug_str:0000000000000229 .LASF148
     /tmp/ccoXvE2P.s:2793   .debug_loc:0000000000000000 .LLST15
     /tmp/ccoXvE2P.s:361    .text:00000000000001e8 .LVL28
     /tmp/ccoXvE2P.s:311    .text:00000000000001a0 .LFB19
     /tmp/ccoXvE2P.s:338    .text:00000000000001cc .LFE19
     /tmp/ccoXvE2P.s:3141   .debug_str:00000000000003de .LASF149
     /tmp/ccoXvE2P.s:2813   .debug_loc:000000000000004e .LLST14
     /tmp/ccoXvE2P.s:326    .text:00000000000001b8 .LVL25
     /tmp/ccoXvE2P.s:279    .text:0000000000000178 .LFB18
     /tmp/ccoXvE2P.s:305    .text:00000000000001a0 .LFE18
     /tmp/ccoXvE2P.s:3199   .debug_str:00000000000005a8 .LASF150
     /tmp/ccoXvE2P.s:2827   .debug_loc:0000000000000087 .LLST13
     /tmp/ccoXvE2P.s:294    .text:0000000000000190 .LVL23
     /tmp/ccoXvE2P.s:247    .text:0000000000000150 .LFB17
     /tmp/ccoXvE2P.s:273    .text:0000000000000178 .LFE17
     /tmp/ccoXvE2P.s:2841   .debug_loc:00000000000000c0 .LLST12
     /tmp/ccoXvE2P.s:262    .text:0000000000000168 .LVL21
GAS LISTING /tmp/ccoXvE2P.s 			page 15


     /tmp/ccoXvE2P.s:215    .text:0000000000000128 .LFB16
     /tmp/ccoXvE2P.s:241    .text:0000000000000150 .LFE16
     /tmp/ccoXvE2P.s:2855   .debug_loc:00000000000000f9 .LLST11
     /tmp/ccoXvE2P.s:230    .text:0000000000000140 .LVL19
     /tmp/ccoXvE2P.s:183    .text:0000000000000100 .LFB15
     /tmp/ccoXvE2P.s:209    .text:0000000000000128 .LFE15
     /tmp/ccoXvE2P.s:2869   .debug_loc:0000000000000132 .LLST10
     /tmp/ccoXvE2P.s:198    .text:0000000000000118 .LVL17
     /tmp/ccoXvE2P.s:149    .text:00000000000000d4 .LFB14
     /tmp/ccoXvE2P.s:177    .text:0000000000000100 .LFE14
     /tmp/ccoXvE2P.s:2883   .debug_loc:000000000000016b .LLST8
     /tmp/ccoXvE2P.s:2897   .debug_loc:00000000000001a4 .LLST9
     /tmp/ccoXvE2P.s:166    .text:00000000000000f0 .LVL15
     /tmp/ccoXvE2P.s:116    .text:00000000000000a8 .LFB13
     /tmp/ccoXvE2P.s:143    .text:00000000000000d4 .LFE13
     /tmp/ccoXvE2P.s:2917   .debug_loc:00000000000001f2 .LLST7
     /tmp/ccoXvE2P.s:131    .text:00000000000000c0 .LVL12
     /tmp/ccoXvE2P.s:43     .text:0000000000000028 .LFB12
     /tmp/ccoXvE2P.s:110    .text:00000000000000a8 .LFE12
     /tmp/ccoXvE2P.s:3337   .debug_str:0000000000000ab6 .LASF151
     /tmp/ccoXvE2P.s:2931   .debug_loc:000000000000022b .LLST2
     /tmp/ccoXvE2P.s:2949   .debug_loc:0000000000000277 .LLST3
     /tmp/ccoXvE2P.s:3317   .debug_str:0000000000000a1b .LASF152
     /tmp/ccoXvE2P.s:2967   .debug_loc:00000000000002c3 .LLST4
     /tmp/ccoXvE2P.s:3131   .debug_str:000000000000037b .LASF153
     /tmp/ccoXvE2P.s:2985   .debug_loc:000000000000030f .LLST5
     /tmp/ccoXvE2P.s:3003   .debug_loc:000000000000035b .LLST6
     /tmp/ccoXvE2P.s:72     .text:0000000000000064 .LVL3
     /tmp/ccoXvE2P.s:82     .text:0000000000000080 .LVL5
     /tmp/ccoXvE2P.s:10     .text:0000000000000000 .LFB11
     /tmp/ccoXvE2P.s:37     .text:0000000000000028 .LFE11
     /tmp/ccoXvE2P.s:3213   .debug_str:000000000000060f .LASF154
     /tmp/ccoXvE2P.s:3014   .debug_loc:0000000000000391 .LLST0
     /tmp/ccoXvE2P.s:3143   .debug_str:00000000000003e3 .LASF155
     /tmp/ccoXvE2P.s:3028   .debug_loc:00000000000003ca .LLST1
     /tmp/ccoXvE2P.s:26     .text:0000000000000018 .LVL1
     /tmp/ccoXvE2P.s:347    .text:00000000000001cc .LVL26
     /tmp/ccoXvE2P.s:359    .text:00000000000001e0 .LVL27
     /tmp/ccoXvE2P.s:314    .text:00000000000001a0 .LVL24
     /tmp/ccoXvE2P.s:282    .text:0000000000000178 .LVL22
     /tmp/ccoXvE2P.s:250    .text:0000000000000150 .LVL20
     /tmp/ccoXvE2P.s:218    .text:0000000000000128 .LVL18
     /tmp/ccoXvE2P.s:186    .text:0000000000000100 .LVL16
     /tmp/ccoXvE2P.s:152    .text:00000000000000d4 .LVL13
     /tmp/ccoXvE2P.s:164    .text:00000000000000e8 .LVL14
     /tmp/ccoXvE2P.s:119    .text:00000000000000a8 .LVL11
     /tmp/ccoXvE2P.s:46     .text:0000000000000028 .LVL2
     /tmp/ccoXvE2P.s:96     .text:0000000000000094 .LVL7
     /tmp/ccoXvE2P.s:99     .text:0000000000000098 .LVL8
     /tmp/ccoXvE2P.s:102    .text:000000000000009c .LVL9
     /tmp/ccoXvE2P.s:105    .text:00000000000000a0 .LVL10
     /tmp/ccoXvE2P.s:74     .text:0000000000000068 .LVL4
     /tmp/ccoXvE2P.s:93     .text:0000000000000090 .LVL6
     /tmp/ccoXvE2P.s:14     .text:0000000000000000 .LVL0
     /tmp/ccoXvE2P.s:380    .debug_info:0000000000000000 .Ldebug_info0

UNDEFINED SYMBOLS
GAS LISTING /tmp/ccoXvE2P.s 			page 16


_ZN14BuddyAllocator9initBuddyEv
_ZN5Cache11createCacheEv
_ZN5Cache9initCacheEPKcmPFvPvES4_
_ZN5Cache12allocateSlotEv
_ZN5Cache8freeSlotEPNS_4SlotE
_ZN5Cache17printErrorMessageEv
_ZN5Cache14printCacheInfoEv
_ZN5Cache16deallocFreeSlabsEv
_ZN5Cache12deallocCacheEv
_ZN5Cache14allocateBufferEm
_ZN5Cache10freeBufferEPNS_4SlotE
