GAS LISTING /tmp/ccud4a2C.s 			page 1


   1              		.file	"SlabAllocator.cpp"
   2              		.option pic
   3              		.option norelax
   4              		.text
   5              	.Ltext0:
   6              		.align	2
   7              		.globl	_ZN13SlabAllocator13initAllocatorEPvi
   9              	_ZN13SlabAllocator13initAllocatorEPvi:
  10              	.LFB11:
  11              		.file 1 "src/SlabAllocator.cpp"
   1:src/SlabAllocator.cpp **** #include "../h/SlabAllocator.h"
   2:src/SlabAllocator.cpp **** #include "../h/BuddyAllocator.h"
   3:src/SlabAllocator.cpp **** 
   4:src/SlabAllocator.cpp **** void SlabAllocator::initAllocator(void *space, int blockNum) {
  12              		.loc 1 4 62
  13              		.cfi_startproc
  14              	.LVL0:
  15 0000 130101FF 		addi	sp,sp,-16
  16              		.cfi_def_cfa_offset 16
  17 0004 23341100 		sd	ra,8(sp)
  18 0008 23308100 		sd	s0,0(sp)
  19              		.cfi_offset 1, -8
  20              		.cfi_offset 8, -16
  21 000c 13040101 		addi	s0,sp,16
  22              		.cfi_def_cfa 8, 0
   5:src/SlabAllocator.cpp ****     BuddyAllocator::initBuddy();
  23              		.loc 1 5 5
  24              		.loc 1 5 30 is_stmt 0
  25 0010 97000000 		call	_ZN14BuddyAllocator9initBuddyEv@plt
  25      E7800000 
  26              	.LVL1:
   6:src/SlabAllocator.cpp **** }
  27              		.loc 1 6 1
  28 0018 83308100 		ld	ra,8(sp)
  29              		.cfi_restore 1
  30 001c 03340100 		ld	s0,0(sp)
  31              		.cfi_restore 8
  32              		.cfi_def_cfa 2, 16
  33 0020 13010101 		addi	sp,sp,16
  34              		.cfi_def_cfa_offset 0
  35 0024 67800000 		jr	ra
  36              		.cfi_endproc
  37              	.LFE11:
  39              		.align	2
  40              		.globl	_ZN13SlabAllocator11createCacheEPKcmPFvPvES4_
  42              	_ZN13SlabAllocator11createCacheEPKcmPFvPvES4_:
  43              	.LFB12:
   7:src/SlabAllocator.cpp **** 
   8:src/SlabAllocator.cpp **** Cache* SlabAllocator::createCache(const char *name, size_t size, void (*ctor)(void *), void (*dtor)
  44              		.loc 1 8 110 is_stmt 1
  45              		.cfi_startproc
  46              	.LVL2:
  47 0028 130101FC 		addi	sp,sp,-64
  48              		.cfi_def_cfa_offset 64
  49 002c 233C1102 		sd	ra,56(sp)
  50 0030 23388102 		sd	s0,48(sp)
  51 0034 23349102 		sd	s1,40(sp)
GAS LISTING /tmp/ccud4a2C.s 			page 2


  52 0038 23302103 		sd	s2,32(sp)
  53 003c 233C3101 		sd	s3,24(sp)
  54 0040 23384101 		sd	s4,16(sp)
  55 0044 23345101 		sd	s5,8(sp)
  56              		.cfi_offset 1, -8
  57              		.cfi_offset 8, -16
  58              		.cfi_offset 9, -24
  59              		.cfi_offset 18, -32
  60              		.cfi_offset 19, -40
  61              		.cfi_offset 20, -48
  62              		.cfi_offset 21, -56
  63 0048 13040104 		addi	s0,sp,64
  64              		.cfi_def_cfa 8, 0
  65 004c 13090500 		mv	s2,a0
  66 0050 93890500 		mv	s3,a1
  67 0054 130A0600 		mv	s4,a2
  68 0058 938A0600 		mv	s5,a3
   9:src/SlabAllocator.cpp ****     Cache* cache = (Cache*)BuddyAllocator::buddyAlloc(1);
  69              		.loc 1 9 5
  70              		.loc 1 9 54 is_stmt 0
  71 005c 13051000 		li	a0,1
  72              	.LVL3:
  73 0060 97000000 		call	_ZN14BuddyAllocator10buddyAllocEm@plt
  73      E7800000 
  74              	.LVL4:
  75 0068 93040500 		mv	s1,a0
  76              	.LVL5:
  10:src/SlabAllocator.cpp ****     cache->initCache(name, size, ctor, dtor);
  77              		.loc 1 10 5 is_stmt 1
  78              		.loc 1 10 21 is_stmt 0
  79 006c 13870A00 		mv	a4,s5
  80 0070 93060A00 		mv	a3,s4
  81 0074 13860900 		mv	a2,s3
  82 0078 93050900 		mv	a1,s2
  83 007c 97000000 		call	_ZN5Cache9initCacheEPKcmPFvPvES4_@plt
  83      E7800000 
  84              	.LVL6:
  11:src/SlabAllocator.cpp **** 
  12:src/SlabAllocator.cpp ****     return cache;
  85              		.loc 1 12 5 is_stmt 1
  13:src/SlabAllocator.cpp **** }
  86              		.loc 1 13 1 is_stmt 0
  87 0084 13850400 		mv	a0,s1
  88 0088 83308103 		ld	ra,56(sp)
  89              		.cfi_restore 1
  90 008c 03340103 		ld	s0,48(sp)
  91              		.cfi_restore 8
  92              		.cfi_def_cfa 2, 64
  93 0090 83348102 		ld	s1,40(sp)
  94              		.cfi_restore 9
  95              	.LVL7:
  96 0094 03390102 		ld	s2,32(sp)
  97              		.cfi_restore 18
  98              	.LVL8:
  99 0098 83398101 		ld	s3,24(sp)
 100              		.cfi_restore 19
 101              	.LVL9:
GAS LISTING /tmp/ccud4a2C.s 			page 3


 102 009c 033A0101 		ld	s4,16(sp)
 103              		.cfi_restore 20
 104              	.LVL10:
 105 00a0 833A8100 		ld	s5,8(sp)
 106              		.cfi_restore 21
 107              	.LVL11:
 108 00a4 13010104 		addi	sp,sp,64
 109              		.cfi_def_cfa_offset 0
 110 00a8 67800000 		jr	ra
 111              		.cfi_endproc
 112              	.LFE12:
 114              		.align	2
 115              		.globl	_ZN13SlabAllocator9allocSlotEP5Cache
 117              	_ZN13SlabAllocator9allocSlotEP5Cache:
 118              	.LFB13:
  14:src/SlabAllocator.cpp **** 
  15:src/SlabAllocator.cpp **** void *SlabAllocator::allocSlot(Cache *cache) {
 119              		.loc 1 15 46 is_stmt 1
 120              		.cfi_startproc
 121              	.LVL12:
 122 00ac 130101FF 		addi	sp,sp,-16
 123              		.cfi_def_cfa_offset 16
 124 00b0 23341100 		sd	ra,8(sp)
 125 00b4 23308100 		sd	s0,0(sp)
 126              		.cfi_offset 1, -8
 127              		.cfi_offset 8, -16
 128 00b8 13040101 		addi	s0,sp,16
 129              		.cfi_def_cfa 8, 0
  16:src/SlabAllocator.cpp ****     return (void*)((char*)cache->allocateSlot() + sizeof(Cache::Slot)); // za pocetnu adresu objekt
 130              		.loc 1 16 5
 131              		.loc 1 16 46 is_stmt 0
 132 00bc 97000000 		call	_ZN5Cache12allocateSlotEv@plt
 132      E7800000 
 133              	.LVL13:
  17:src/SlabAllocator.cpp **** }
 134              		.loc 1 17 1
 135 00c4 13058501 		addi	a0,a0,24
 136 00c8 83308100 		ld	ra,8(sp)
 137              		.cfi_restore 1
 138 00cc 03340100 		ld	s0,0(sp)
 139              		.cfi_restore 8
 140              		.cfi_def_cfa 2, 16
 141 00d0 13010101 		addi	sp,sp,16
 142              		.cfi_def_cfa_offset 0
 143 00d4 67800000 		jr	ra
 144              		.cfi_endproc
 145              	.LFE13:
 147              		.align	2
 148              		.globl	_ZN13SlabAllocator8freeSlotEP5CachePv
 150              	_ZN13SlabAllocator8freeSlotEP5CachePv:
 151              	.LFB14:
  18:src/SlabAllocator.cpp **** 
  19:src/SlabAllocator.cpp **** void SlabAllocator::freeSlot(Cache *cache, void *obj) {
 152              		.loc 1 19 55 is_stmt 1
 153              		.cfi_startproc
 154              	.LVL14:
 155 00d8 130101FF 		addi	sp,sp,-16
GAS LISTING /tmp/ccud4a2C.s 			page 4


 156              		.cfi_def_cfa_offset 16
 157 00dc 23341100 		sd	ra,8(sp)
 158 00e0 23308100 		sd	s0,0(sp)
 159              		.cfi_offset 1, -8
 160              		.cfi_offset 8, -16
 161 00e4 13040101 		addi	s0,sp,16
 162              		.cfi_def_cfa 8, 0
  20:src/SlabAllocator.cpp ****     cache->freeSlot((Cache::Slot*)((char*)obj - sizeof(Cache::Slot))); // za pocetnu adresu slota
 163              		.loc 1 20 5
 164              		.loc 1 20 20 is_stmt 0
 165 00e8 938585FE 		addi	a1,a1,-24
 166              	.LVL15:
 167 00ec 97000000 		call	_ZN5Cache8freeSlotEPNS_4SlotE@plt
 167      E7800000 
 168              	.LVL16:
  21:src/SlabAllocator.cpp **** }
 169              		.loc 1 21 1
 170 00f4 83308100 		ld	ra,8(sp)
 171              		.cfi_restore 1
 172 00f8 03340100 		ld	s0,0(sp)
 173              		.cfi_restore 8
 174              		.cfi_def_cfa 2, 16
 175 00fc 13010101 		addi	sp,sp,16
 176              		.cfi_def_cfa_offset 0
 177 0100 67800000 		jr	ra
 178              		.cfi_endproc
 179              	.LFE14:
 181              		.align	2
 182              		.globl	_ZN13SlabAllocator17printErrorMessageEP5Cache
 184              	_ZN13SlabAllocator17printErrorMessageEP5Cache:
 185              	.LFB15:
  22:src/SlabAllocator.cpp **** 
  23:src/SlabAllocator.cpp **** int SlabAllocator::printErrorMessage(Cache *cache) {
 186              		.loc 1 23 52 is_stmt 1
 187              		.cfi_startproc
 188              	.LVL17:
 189 0104 130101FF 		addi	sp,sp,-16
 190              		.cfi_def_cfa_offset 16
 191 0108 23341100 		sd	ra,8(sp)
 192 010c 23308100 		sd	s0,0(sp)
 193              		.cfi_offset 1, -8
 194              		.cfi_offset 8, -16
 195 0110 13040101 		addi	s0,sp,16
 196              		.cfi_def_cfa 8, 0
  24:src/SlabAllocator.cpp ****     return cache->printErrorMessage();
 197              		.loc 1 24 5
 198              		.loc 1 24 36 is_stmt 0
 199 0114 97000000 		call	_ZN5Cache17printErrorMessageEv@plt
 199      E7800000 
 200              	.LVL18:
  25:src/SlabAllocator.cpp **** }
 201              		.loc 1 25 1
 202 011c 83308100 		ld	ra,8(sp)
 203              		.cfi_restore 1
 204 0120 03340100 		ld	s0,0(sp)
 205              		.cfi_restore 8
 206              		.cfi_def_cfa 2, 16
GAS LISTING /tmp/ccud4a2C.s 			page 5


 207 0124 13010101 		addi	sp,sp,16
 208              		.cfi_def_cfa_offset 0
 209 0128 67800000 		jr	ra
 210              		.cfi_endproc
 211              	.LFE15:
 213              		.align	2
 214              		.globl	_ZN13SlabAllocator14printCacheInfoEP5Cache
 216              	_ZN13SlabAllocator14printCacheInfoEP5Cache:
 217              	.LFB16:
  26:src/SlabAllocator.cpp **** 
  27:src/SlabAllocator.cpp **** void SlabAllocator::printCacheInfo(Cache *cache) {
 218              		.loc 1 27 50 is_stmt 1
 219              		.cfi_startproc
 220              	.LVL19:
 221 012c 130101FF 		addi	sp,sp,-16
 222              		.cfi_def_cfa_offset 16
 223 0130 23341100 		sd	ra,8(sp)
 224 0134 23308100 		sd	s0,0(sp)
 225              		.cfi_offset 1, -8
 226              		.cfi_offset 8, -16
 227 0138 13040101 		addi	s0,sp,16
 228              		.cfi_def_cfa 8, 0
  28:src/SlabAllocator.cpp ****     cache->printCacheInfo();
 229              		.loc 1 28 5
 230              		.loc 1 28 26 is_stmt 0
 231 013c 97000000 		call	_ZN5Cache14printCacheInfoEv@plt
 231      E7800000 
 232              	.LVL20:
  29:src/SlabAllocator.cpp **** }
 233              		.loc 1 29 1
 234 0144 83308100 		ld	ra,8(sp)
 235              		.cfi_restore 1
 236 0148 03340100 		ld	s0,0(sp)
 237              		.cfi_restore 8
 238              		.cfi_def_cfa 2, 16
 239 014c 13010101 		addi	sp,sp,16
 240              		.cfi_def_cfa_offset 0
 241 0150 67800000 		jr	ra
 242              		.cfi_endproc
 243              	.LFE16:
 245              		.align	2
 246              		.globl	_ZN13SlabAllocator16deallocFreeSlabsEP5Cache
 248              	_ZN13SlabAllocator16deallocFreeSlabsEP5Cache:
 249              	.LFB17:
  30:src/SlabAllocator.cpp **** 
  31:src/SlabAllocator.cpp **** int SlabAllocator::deallocFreeSlabs(Cache *cache) {
 250              		.loc 1 31 51 is_stmt 1
 251              		.cfi_startproc
 252              	.LVL21:
 253 0154 130101FF 		addi	sp,sp,-16
 254              		.cfi_def_cfa_offset 16
 255 0158 23341100 		sd	ra,8(sp)
 256 015c 23308100 		sd	s0,0(sp)
 257              		.cfi_offset 1, -8
 258              		.cfi_offset 8, -16
 259 0160 13040101 		addi	s0,sp,16
 260              		.cfi_def_cfa 8, 0
GAS LISTING /tmp/ccud4a2C.s 			page 6


  32:src/SlabAllocator.cpp ****     return cache->deallocFreeSlabs();
 261              		.loc 1 32 5
 262              		.loc 1 32 35 is_stmt 0
 263 0164 97000000 		call	_ZN5Cache16deallocFreeSlabsEv@plt
 263      E7800000 
 264              	.LVL22:
  33:src/SlabAllocator.cpp **** }
 265              		.loc 1 33 1
 266 016c 83308100 		ld	ra,8(sp)
 267              		.cfi_restore 1
 268 0170 03340100 		ld	s0,0(sp)
 269              		.cfi_restore 8
 270              		.cfi_def_cfa 2, 16
 271 0174 13010101 		addi	sp,sp,16
 272              		.cfi_def_cfa_offset 0
 273 0178 67800000 		jr	ra
 274              		.cfi_endproc
 275              	.LFE17:
 277              		.align	2
 278              		.globl	_ZN13SlabAllocator12deallocCacheEP5Cache
 280              	_ZN13SlabAllocator12deallocCacheEP5Cache:
 281              	.LFB18:
  34:src/SlabAllocator.cpp **** 
  35:src/SlabAllocator.cpp **** void SlabAllocator::deallocCache(Cache *cache) {
 282              		.loc 1 35 48 is_stmt 1
 283              		.cfi_startproc
 284              	.LVL23:
 285 017c 130101FF 		addi	sp,sp,-16
 286              		.cfi_def_cfa_offset 16
 287 0180 23341100 		sd	ra,8(sp)
 288 0184 23308100 		sd	s0,0(sp)
 289              		.cfi_offset 1, -8
 290              		.cfi_offset 8, -16
 291 0188 13040101 		addi	s0,sp,16
 292              		.cfi_def_cfa 8, 0
  36:src/SlabAllocator.cpp ****     cache->deallocCache();
 293              		.loc 1 36 5
 294              		.loc 1 36 24 is_stmt 0
 295 018c 97000000 		call	_ZN5Cache12deallocCacheEv@plt
 295      E7800000 
 296              	.LVL24:
  37:src/SlabAllocator.cpp **** }
 297              		.loc 1 37 1
 298 0194 83308100 		ld	ra,8(sp)
 299              		.cfi_restore 1
 300 0198 03340100 		ld	s0,0(sp)
 301              		.cfi_restore 8
 302              		.cfi_def_cfa 2, 16
 303 019c 13010101 		addi	sp,sp,16
 304              		.cfi_def_cfa_offset 0
 305 01a0 67800000 		jr	ra
 306              		.cfi_endproc
 307              	.LFE18:
 309              	.Letext0:
 310              		.file 2 "src/../h/hw.h"
 311              		.file 3 "src/../h/Cache.h"
 312              		.file 4 "src/../h/SlabAllocator.h"
GAS LISTING /tmp/ccud4a2C.s 			page 7


 313              		.file 5 "src/../h/BuddyAllocator.h"
GAS LISTING /tmp/ccud4a2C.s 			page 8

