GAS LISTING /tmp/ccG3pj0J.s 			page 1


   1              		.file	"SleepingProcesses.cpp"
   2              		.option pic
   3              		.option norelax
   4              		.text
   5              	.Ltext0:
   6              		.align	2
   7              		.globl	_ZN17SleepingProcesses10putToSleepEP3PCB
   9              	_ZN17SleepingProcesses10putToSleepEP3PCB:
  10              	.LFB8:
  11              		.file 1 "src/SleepingProcesses.cpp"
   1:src/SleepingProcesses.cpp **** #include "../h/SleepingProcesses.h"
   2:src/SleepingProcesses.cpp **** #include "../h/Scheduler.h"
   3:src/SleepingProcesses.cpp **** 
   4:src/SleepingProcesses.cpp **** PCB* SleepingProcesses::head = nullptr;
   5:src/SleepingProcesses.cpp **** 
   6:src/SleepingProcesses.cpp **** void SleepingProcesses::putToSleep(PCB *process) {
  12              		.loc 1 6 50
  13              		.cfi_startproc
  14              	.LVL0:
  15 0000 130101FF 		addi	sp,sp,-16
  16              		.cfi_def_cfa_offset 16
  17 0004 23348100 		sd	s0,8(sp)
  18              		.cfi_offset 8, -8
  19 0008 13040101 		addi	s0,sp,16
  20              		.cfi_def_cfa 8, 0
   7:src/SleepingProcesses.cpp ****     PCB* curr = head, *prev = nullptr;
  21              		.loc 1 7 5
  22              		.loc 1 7 10 is_stmt 0
  23 000c 97070000 		ld	a5,.LANCHOR0
  23      83B70700 
  24              	.LVL1:
   8:src/SleepingProcesses.cpp ****     size_t time = process->getTimeSleeping();
  25              		.loc 1 8 5 is_stmt 1
  26              	.LBB45:
  27              	.LBB46:
  28              		.file 2 "src/../h/PCB.h"
   1:src/../h/PCB.h **** #ifndef PCB_H
   2:src/../h/PCB.h **** #define PCB_H
   3:src/../h/PCB.h **** 
   4:src/../h/PCB.h **** #include "hw.h"
   5:src/../h/PCB.h **** 
   6:src/../h/PCB.h **** extern "C" void interruptHandler();
   7:src/../h/PCB.h **** 
   8:src/../h/PCB.h **** class PCB {
   9:src/../h/PCB.h **** friend class Scheduler;
  10:src/../h/PCB.h **** friend void interruptHandler();
  11:src/../h/PCB.h **** friend class Kernel;
  12:src/../h/PCB.h **** public:
  13:src/../h/PCB.h ****     // vraca true ako se proces zavrsio, false ako nije
  14:src/../h/PCB.h ****     bool isFinished() const {
  15:src/../h/PCB.h ****         return finished;
  16:src/../h/PCB.h ****     }
  17:src/../h/PCB.h ****     // vraca true ako je semafor obrisan pre nego sto je proces odblokiran
  18:src/../h/PCB.h ****     bool isSemaphoreDeleted() const {
  19:src/../h/PCB.h ****         return semDeleted;
  20:src/../h/PCB.h ****     }
  21:src/../h/PCB.h **** 
GAS LISTING /tmp/ccG3pj0J.s 			page 2


  22:src/../h/PCB.h ****     size_t getTimeSleeping() const {
  23:src/../h/PCB.h ****         return timeSleeping;
  29              		.loc 2 23 9
  30              		.loc 2 23 16 is_stmt 0
  31 0014 83350503 		ld	a1,48(a0)
  32              	.LVL2:
  33              	.LBE46:
  34              	.LBE45:
  35              		.loc 1 8 43
  36 0018 13870500 		mv	a4,a1
   7:src/SleepingProcesses.cpp ****     size_t time = process->getTimeSleeping();
  37              		.loc 1 7 24
  38 001c 13060000 		li	a2,0
  39              	.LVL3:
  40              	.L3:
   9:src/SleepingProcesses.cpp ****     while(curr && curr->getTimeSleeping() < time) { // ako su iste vrednosti oba ce biti izvadjena
  41              		.loc 1 9 5 is_stmt 1
  42              		.loc 1 9 16
  43 0020 638E0700 		beqz	a5,.L2
  44              	.LVL4:
  45              	.LBB47:
  46              	.LBB48:
  47              		.loc 2 23 9
  48              		.loc 2 23 16 is_stmt 0
  49 0024 83B60703 		ld	a3,48(a5)
  50              	.LVL5:
  51              	.LBE48:
  52              	.LBE47:
  53              		.loc 1 9 16
  54 0028 63FAE600 		bleu	a4,a3,.L2
  10:src/SleepingProcesses.cpp ****         prev = curr;
  55              		.loc 1 10 9 is_stmt 1
  56              	.LVL6:
  11:src/SleepingProcesses.cpp ****         time -= curr->getTimeSleeping();
  57              		.loc 1 11 9
  58              		.loc 2 23 9
  59              		.loc 1 11 14 is_stmt 0
  60 002c 3307D740 		sub	a4,a4,a3
  61              	.LVL7:
  12:src/SleepingProcesses.cpp ****         curr = curr->getNextInList();
  62              		.loc 1 12 9 is_stmt 1
  63              	.LBB49:
  64              	.LBB50:
  24:src/../h/PCB.h ****     }
  25:src/../h/PCB.h **** 
  26:src/../h/PCB.h ****     void setTimeSleeping(size_t newTime) {
  27:src/../h/PCB.h ****         timeSleeping = newTime;
  28:src/../h/PCB.h ****     }
  29:src/../h/PCB.h **** 
  30:src/../h/PCB.h ****     PCB* getNextInList() const {
  31:src/../h/PCB.h ****         return nextInList;
  65              		.loc 2 31 9
  66              	.LBE50:
  67              	.LBE49:
  10:src/SleepingProcesses.cpp ****         time -= curr->getTimeSleeping();
  68              		.loc 1 10 14 is_stmt 0
  69 0030 13860700 		mv	a2,a5
GAS LISTING /tmp/ccG3pj0J.s 			page 3


  70              		.loc 1 12 35
  71 0034 83B70700 		ld	a5,0(a5)
  72              	.LVL8:
   9:src/SleepingProcesses.cpp ****         prev = curr;
  73              		.loc 1 9 5
  74 0038 6FF09FFE 		j	.L3
  75              	.L2:
  13:src/SleepingProcesses.cpp ****     }
  14:src/SleepingProcesses.cpp **** 
  15:src/SleepingProcesses.cpp ****     process->setBlocked(true); // postavljamo proces u blocked stanje
  76              		.loc 1 15 5 is_stmt 1 discriminator 4
  77              	.LVL9:
  78              	.LBB51:
  79              	.LBB52:
  32:src/../h/PCB.h ****     }
  33:src/../h/PCB.h **** 
  34:src/../h/PCB.h ****     void setNextInList(PCB* next) {
  35:src/../h/PCB.h ****         nextInList = next;
  36:src/../h/PCB.h ****     }
  37:src/../h/PCB.h **** 
  38:src/../h/PCB.h ****     void setBlocked(bool newState) {
  39:src/../h/PCB.h ****         blocked = newState;
  80              		.loc 2 39 9 discriminator 4
  81              		.loc 2 39 17 is_stmt 0 discriminator 4
  82 003c 93061000 		li	a3,1
  83 0040 A304D502 		sb	a3,41(a0)
  84              	.LVL10:
  85              	.LBE52:
  86              	.LBE51:
  16:src/SleepingProcesses.cpp ****     if(!prev) {
  87              		.loc 1 16 5 is_stmt 1 discriminator 4
  88 0044 63060602 		beqz	a2,.L7
  17:src/SleepingProcesses.cpp ****         head = process;
  18:src/SleepingProcesses.cpp ****         process->setNextInList(curr);
  19:src/SleepingProcesses.cpp ****         if(curr) {
  20:src/SleepingProcesses.cpp ****             curr->setTimeSleeping(curr->getTimeSleeping() - process->getTimeSleeping());
  21:src/SleepingProcesses.cpp ****         }
  22:src/SleepingProcesses.cpp ****     }
  23:src/SleepingProcesses.cpp ****     else {
  24:src/SleepingProcesses.cpp ****         prev->setNextInList(process);
  89              		.loc 1 24 9
  90              	.LVL11:
  91              	.LBB53:
  92              	.LBB54:
  35:src/../h/PCB.h ****     }
  93              		.loc 2 35 9
  35:src/../h/PCB.h ****     }
  94              		.loc 2 35 20 is_stmt 0
  95 0048 2330A600 		sd	a0,0(a2)
  96              	.LVL12:
  97              	.LBE54:
  98              	.LBE53:
  25:src/SleepingProcesses.cpp ****         // vrednost ce biti relativna u odnosu na prosli clan pa cemo moci da izbacimo samo prvih k
  26:src/SleepingProcesses.cpp ****         process->setTimeSleeping(time); // razlika izmedju tekuceg i proslog
  99              		.loc 1 26 9 is_stmt 1
 100              	.LBB55:
 101              	.LBB56:
GAS LISTING /tmp/ccG3pj0J.s 			page 4


  27:src/../h/PCB.h ****     }
 102              		.loc 2 27 9
  27:src/../h/PCB.h ****     }
 103              		.loc 2 27 22 is_stmt 0
 104 004c 2338E502 		sd	a4,48(a0)
 105              	.LVL13:
 106              	.LBE56:
 107              	.LBE55:
  27:src/SleepingProcesses.cpp ****         process->setNextInList(curr);
 108              		.loc 1 27 9 is_stmt 1
 109              	.LBB57:
 110              	.LBB58:
  35:src/../h/PCB.h ****     }
 111              		.loc 2 35 9
  35:src/../h/PCB.h ****     }
 112              		.loc 2 35 20 is_stmt 0
 113 0050 2330F500 		sd	a5,0(a0)
 114              	.LVL14:
 115              	.LBE58:
 116              	.LBE57:
  28:src/SleepingProcesses.cpp ****         if(curr) {
 117              		.loc 1 28 9 is_stmt 1
 118 0054 63880700 		beqz	a5,.L1
  29:src/SleepingProcesses.cpp ****             curr->setTimeSleeping(curr->getTimeSleeping() - process->getTimeSleeping());
 119              		.loc 1 29 13
 120              	.LVL15:
 121              	.LBB59:
 122              	.LBB60:
  23:src/../h/PCB.h ****     }
 123              		.loc 2 23 9
  23:src/../h/PCB.h ****     }
 124              		.loc 2 23 16 is_stmt 0
 125 0058 83B60703 		ld	a3,48(a5)
 126              	.LVL16:
 127              	.LBE60:
 128              	.LBE59:
  23:src/../h/PCB.h ****     }
 129              		.loc 2 23 9 is_stmt 1
 130              		.loc 1 29 34 is_stmt 0
 131 005c 3387E640 		sub	a4,a3,a4
 132              	.LVL17:
 133              	.LBB61:
 134              	.LBB62:
  27:src/../h/PCB.h ****     }
 135              		.loc 2 27 9 is_stmt 1
  27:src/../h/PCB.h ****     }
 136              		.loc 2 27 22 is_stmt 0
 137 0060 23B8E702 		sd	a4,48(a5)
 138              	.LVL18:
 139              	.L1:
 140              	.LBE62:
 141              	.LBE61:
  30:src/SleepingProcesses.cpp ****         }
  31:src/SleepingProcesses.cpp ****     }
  32:src/SleepingProcesses.cpp **** }
 142              		.loc 1 32 1
 143 0064 03348100 		ld	s0,8(sp)
GAS LISTING /tmp/ccG3pj0J.s 			page 5


 144              		.cfi_remember_state
 145              		.cfi_restore 8
 146              		.cfi_def_cfa 2, 16
 147 0068 13010101 		addi	sp,sp,16
 148              		.cfi_def_cfa_offset 0
 149 006c 67800000 		jr	ra
 150              	.LVL19:
 151              	.L7:
 152              		.cfi_restore_state
  17:src/SleepingProcesses.cpp ****         process->setNextInList(curr);
 153              		.loc 1 17 9 is_stmt 1
  17:src/SleepingProcesses.cpp ****         process->setNextInList(curr);
 154              		.loc 1 17 14 is_stmt 0
 155 0070 17070000 		sd	a0,.LANCHOR0,a4
 155      2330A700 
 156              	.LVL20:
  18:src/SleepingProcesses.cpp ****         if(curr) {
 157              		.loc 1 18 9 is_stmt 1
 158              	.LBB63:
 159              	.LBB64:
  35:src/../h/PCB.h ****     }
 160              		.loc 2 35 9
  35:src/../h/PCB.h ****     }
 161              		.loc 2 35 20 is_stmt 0
 162 0078 2330F500 		sd	a5,0(a0)
 163              	.LVL21:
 164              	.LBE64:
 165              	.LBE63:
  19:src/SleepingProcesses.cpp ****             curr->setTimeSleeping(curr->getTimeSleeping() - process->getTimeSleeping());
 166              		.loc 1 19 9 is_stmt 1
 167 007c E38407FE 		beqz	a5,.L1
  20:src/SleepingProcesses.cpp ****         }
 168              		.loc 1 20 13
 169              	.LVL22:
 170              	.LBB65:
 171              	.LBB66:
  23:src/../h/PCB.h ****     }
 172              		.loc 2 23 9
  23:src/../h/PCB.h ****     }
 173              		.loc 2 23 16 is_stmt 0
 174 0080 03B70703 		ld	a4,48(a5)
 175              	.LVL23:
 176              	.LBE66:
 177              	.LBE65:
  23:src/../h/PCB.h ****     }
 178              		.loc 2 23 9 is_stmt 1
  20:src/SleepingProcesses.cpp ****         }
 179              		.loc 1 20 34 is_stmt 0
 180 0084 B305B740 		sub	a1,a4,a1
 181              	.LVL24:
 182              	.LBB67:
 183              	.LBB68:
  27:src/../h/PCB.h ****     }
 184              		.loc 2 27 9 is_stmt 1
  27:src/../h/PCB.h ****     }
 185              		.loc 2 27 22 is_stmt 0
 186 0088 23B8B702 		sd	a1,48(a5)
GAS LISTING /tmp/ccG3pj0J.s 			page 6


  28:src/../h/PCB.h **** 
 187              		.loc 2 28 5
 188 008c 6FF09FFD 		j	.L1
 189              	.LBE68:
 190              	.LBE67:
 191              		.cfi_endproc
 192              	.LFE8:
 194              		.align	2
 195              		.globl	_ZN17SleepingProcesses6wakeUpEv
 197              	_ZN17SleepingProcesses6wakeUpEv:
 198              	.LFB9:
  33:src/SleepingProcesses.cpp **** 
  34:src/SleepingProcesses.cpp **** void SleepingProcesses::wakeUp() {
 199              		.loc 1 34 34 is_stmt 1
 200              		.cfi_startproc
  35:src/SleepingProcesses.cpp ****     if(!head) return;
 201              		.loc 1 35 5
 202              		.loc 1 35 8 is_stmt 0
 203 0090 17050000 		ld	a0,.LANCHOR0
 203      03350500 
 204              		.loc 1 35 5
 205 0098 63000508 		beqz	a0,.L13
  36:src/SleepingProcesses.cpp **** 
  37:src/SleepingProcesses.cpp ****     head->setTimeSleeping(head->getTimeSleeping()-1); // smanjuje periodu cekanja
 206              		.loc 1 37 5 is_stmt 1
 207              	.LVL25:
 208              	.LBB69:
 209              	.LBB70:
  23:src/../h/PCB.h ****     }
 210              		.loc 2 23 9
  23:src/../h/PCB.h ****     }
 211              		.loc 2 23 16 is_stmt 0
 212 009c 83370503 		ld	a5,48(a0)
 213              	.LVL26:
 214              	.LBE70:
 215              	.LBE69:
 216              		.loc 1 37 26
 217 00a0 9387F7FF 		addi	a5,a5,-1
 218              	.LVL27:
 219              	.LBB71:
 220              	.LBB72:
  27:src/../h/PCB.h ****     }
 221              		.loc 2 27 9 is_stmt 1
  27:src/../h/PCB.h ****     }
 222              		.loc 2 27 22 is_stmt 0
 223 00a4 2338F502 		sd	a5,48(a0)
 224              	.LVL28:
 225              	.LBE72:
 226              	.LBE71:
  38:src/SleepingProcesses.cpp ****     PCB* curr = head;
 227              		.loc 1 38 5 is_stmt 1
  39:src/SleepingProcesses.cpp ****     while(curr && curr->getTimeSleeping() == 0) {
 228              		.loc 1 39 5
 229              		.loc 1 39 16
 230 00a8 63020506 		beqz	a0,.L16
 231              	.LVL29:
 232              	.LBB73:
GAS LISTING /tmp/ccG3pj0J.s 			page 7


 233              	.LBB74:
  23:src/../h/PCB.h ****     }
 234              		.loc 2 23 9
  23:src/../h/PCB.h ****     }
 235              		.loc 2 23 16 is_stmt 0
 236 00ac 83370503 		ld	a5,48(a0)
 237              	.LVL30:
 238              	.LBE74:
 239              	.LBE73:
 240              		.loc 1 39 16
 241 00b0 639E0704 		bnez	a5,.L16
  34:src/SleepingProcesses.cpp ****     if(!head) return;
 242              		.loc 1 34 34
 243 00b4 130101FE 		addi	sp,sp,-32
 244              		.cfi_def_cfa_offset 32
 245 00b8 233C1100 		sd	ra,24(sp)
 246 00bc 23388100 		sd	s0,16(sp)
 247 00c0 23349100 		sd	s1,8(sp)
 248              		.cfi_offset 1, -8
 249              		.cfi_offset 8, -16
 250              		.cfi_offset 9, -24
 251 00c4 13040102 		addi	s0,sp,32
 252              		.cfi_def_cfa 8, 0
 253 00c8 6F00C000 		j	.L17
 254              	.LVL31:
 255              	.L20:
 256              	.LBB76:
 257              	.LBB75:
  23:src/../h/PCB.h ****     }
 258              		.loc 2 23 9 is_stmt 1
  23:src/../h/PCB.h ****     }
 259              		.loc 2 23 16 is_stmt 0
 260 00cc 83B70403 		ld	a5,48(s1)
 261              	.LVL32:
 262              	.LBE75:
 263              	.LBE76:
 264              		.loc 1 39 16
 265 00d0 63900702 		bnez	a5,.L10
 266              	.LVL33:
 267              	.L17:
 268              	.LBB77:
  40:src/SleepingProcesses.cpp ****         PCB* process = curr;
 269              		.loc 1 40 9 is_stmt 1
  41:src/SleepingProcesses.cpp ****         curr = curr->getNextInList();
 270              		.loc 1 41 9
 271              	.LBB78:
 272              	.LBB79:
  31:src/../h/PCB.h ****     }
 273              		.loc 2 31 9
  31:src/../h/PCB.h ****     }
 274              		.loc 2 31 16 is_stmt 0
 275 00d4 83340500 		ld	s1,0(a0)
 276              	.LVL34:
 277              	.LBE79:
 278              	.LBE78:
  42:src/SleepingProcesses.cpp ****         process->setNextInList(nullptr);
 279              		.loc 1 42 9 is_stmt 1
GAS LISTING /tmp/ccG3pj0J.s 			page 8


 280              	.LBB80:
 281              	.LBB81:
  35:src/../h/PCB.h ****     }
 282              		.loc 2 35 9
  35:src/../h/PCB.h ****     }
 283              		.loc 2 35 20 is_stmt 0
 284 00d8 23300500 		sd	zero,0(a0)
 285              	.LVL35:
 286              	.LBE81:
 287              	.LBE80:
  43:src/SleepingProcesses.cpp ****         process->setBlocked(false);
 288              		.loc 1 43 9 is_stmt 1
 289              	.LBB82:
 290              	.LBB83:
 291              		.loc 2 39 9
 292              		.loc 2 39 17 is_stmt 0
 293 00dc A3040502 		sb	zero,41(a0)
 294              	.LVL36:
 295              	.LBE83:
 296              	.LBE82:
  44:src/SleepingProcesses.cpp **** 
  45:src/SleepingProcesses.cpp ****         Scheduler::put(process);
 297              		.loc 1 45 9 is_stmt 1
 298              		.loc 1 45 23 is_stmt 0
 299 00e0 97000000 		call	_ZN9Scheduler3putEP3PCB@plt
 299      E7800000 
 300              	.LVL37:
  41:src/SleepingProcesses.cpp ****         process->setNextInList(nullptr);
 301              		.loc 1 41 35
 302 00e8 13850400 		mv	a0,s1
 303              	.LBE77:
  39:src/SleepingProcesses.cpp ****         PCB* process = curr;
 304              		.loc 1 39 5 is_stmt 1
  39:src/SleepingProcesses.cpp ****         PCB* process = curr;
 305              		.loc 1 39 16
 306 00ec E39004FE 		bnez	s1,.L20
 307              	.L10:
  46:src/SleepingProcesses.cpp ****     }
  47:src/SleepingProcesses.cpp **** 
  48:src/SleepingProcesses.cpp ****     head = curr;
 308              		.loc 1 48 5 discriminator 4
 309              		.loc 1 48 10 is_stmt 0 discriminator 4
 310 00f0 97070000 		sd	a0,.LANCHOR0,a5
 310      23B0A700 
  49:src/SleepingProcesses.cpp **** }
 311              		.loc 1 49 1 discriminator 4
 312 00f8 83308101 		ld	ra,24(sp)
 313              		.cfi_restore 1
 314 00fc 03340101 		ld	s0,16(sp)
 315              		.cfi_restore 8
 316              		.cfi_def_cfa 2, 32
 317 0100 83348100 		ld	s1,8(sp)
 318              		.cfi_restore 9
 319              	.LVL38:
 320 0104 13010102 		addi	sp,sp,32
 321              		.cfi_def_cfa_offset 0
 322 0108 67800000 		jr	ra
GAS LISTING /tmp/ccG3pj0J.s 			page 9


 323              	.L16:
  48:src/SleepingProcesses.cpp **** }
 324              		.loc 1 48 5 is_stmt 1
  48:src/SleepingProcesses.cpp **** }
 325              		.loc 1 48 10 is_stmt 0
 326 010c 97070000 		sd	a0,.LANCHOR0,a5
 326      23B0A700 
 327 0114 67800000 		ret
 328              	.LVL39:
 329              	.L13:
 330 0118 67800000 		ret
 331              		.cfi_endproc
 332              	.LFE9:
 334              		.globl	_ZN17SleepingProcesses4headE
 335              		.bss
 336              		.align	3
 337              		.set	.LANCHOR0,. + 0
 340              	_ZN17SleepingProcesses4headE:
 341 0000 00000000 		.zero	8
 341      00000000 
 342              		.text
 343              	.Letext0:
 344              		.file 3 "src/../h/hw.h"
 345              		.file 4 "src/../h/SleepingProcesses.h"
 346              		.file 5 "src/../h/Scheduler.h"
GAS LISTING /tmp/ccG3pj0J.s 			page 10


DEFINED SYMBOLS
                            *ABS*:0000000000000000 SleepingProcesses.cpp
     /tmp/ccG3pj0J.s:9      .text:0000000000000000 _ZN17SleepingProcesses10putToSleepEP3PCB
     /tmp/ccG3pj0J.s:13     .text:0000000000000000 .L0 
     /tmp/ccG3pj0J.s:15     .text:0000000000000000 .L0 
     /tmp/ccG3pj0J.s:16     .text:0000000000000004 .L0 
     /tmp/ccG3pj0J.s:18     .text:0000000000000008 .L0 
     /tmp/ccG3pj0J.s:20     .text:000000000000000c .L0 
     /tmp/ccG3pj0J.s:22     .text:000000000000000c .L0 
     /tmp/ccG3pj0J.s:23     .text:000000000000000c .L0 
     /tmp/ccG3pj0J.s:29     .text:0000000000000014 .L0 
     /tmp/ccG3pj0J.s:30     .text:0000000000000014 .L0 
     /tmp/ccG3pj0J.s:31     .text:0000000000000014 .L0 
     /tmp/ccG3pj0J.s:36     .text:0000000000000018 .L0 
     /tmp/ccG3pj0J.s:38     .text:000000000000001c .L0 
     /tmp/ccG3pj0J.s:42     .text:0000000000000020 .L0 
     /tmp/ccG3pj0J.s:43     .text:0000000000000020 .L0 
     /tmp/ccG3pj0J.s:48     .text:0000000000000024 .L0 
     /tmp/ccG3pj0J.s:49     .text:0000000000000024 .L0 
     /tmp/ccG3pj0J.s:54     .text:0000000000000028 .L0 
     /tmp/ccG3pj0J.s:57     .text:000000000000002c .L0 
     /tmp/ccG3pj0J.s:58     .text:000000000000002c .L0 
     /tmp/ccG3pj0J.s:59     .text:000000000000002c .L0 
     /tmp/ccG3pj0J.s:60     .text:000000000000002c .L0 
     /tmp/ccG3pj0J.s:65     .text:0000000000000030 .L0 
     /tmp/ccG3pj0J.s:68     .text:0000000000000030 .L0 
     /tmp/ccG3pj0J.s:69     .text:0000000000000030 .L0 
     /tmp/ccG3pj0J.s:71     .text:0000000000000034 .L0 
     /tmp/ccG3pj0J.s:74     .text:0000000000000038 .L0 
     /tmp/ccG3pj0J.s:80     .text:000000000000003c .L0 
     /tmp/ccG3pj0J.s:81     .text:000000000000003c .L0 
     /tmp/ccG3pj0J.s:82     .text:000000000000003c .L0 
     /tmp/ccG3pj0J.s:88     .text:0000000000000044 .L0 
     /tmp/ccG3pj0J.s:93     .text:0000000000000048 .L0 
     /tmp/ccG3pj0J.s:94     .text:0000000000000048 .L0 
     /tmp/ccG3pj0J.s:95     .text:0000000000000048 .L0 
     /tmp/ccG3pj0J.s:102    .text:000000000000004c .L0 
     /tmp/ccG3pj0J.s:103    .text:000000000000004c .L0 
     /tmp/ccG3pj0J.s:104    .text:000000000000004c .L0 
     /tmp/ccG3pj0J.s:111    .text:0000000000000050 .L0 
     /tmp/ccG3pj0J.s:112    .text:0000000000000050 .L0 
     /tmp/ccG3pj0J.s:113    .text:0000000000000050 .L0 
     /tmp/ccG3pj0J.s:118    .text:0000000000000054 .L0 
     /tmp/ccG3pj0J.s:123    .text:0000000000000058 .L0 
     /tmp/ccG3pj0J.s:124    .text:0000000000000058 .L0 
     /tmp/ccG3pj0J.s:125    .text:0000000000000058 .L0 
     /tmp/ccG3pj0J.s:130    .text:000000000000005c .L0 
     /tmp/ccG3pj0J.s:131    .text:000000000000005c .L0 
     /tmp/ccG3pj0J.s:136    .text:0000000000000060 .L0 
     /tmp/ccG3pj0J.s:137    .text:0000000000000060 .L0 
     /tmp/ccG3pj0J.s:143    .text:0000000000000064 .L0 
     /tmp/ccG3pj0J.s:144    .text:0000000000000068 .L0 
     /tmp/ccG3pj0J.s:145    .text:0000000000000068 .L0 
     /tmp/ccG3pj0J.s:146    .text:0000000000000068 .L0 
     /tmp/ccG3pj0J.s:148    .text:000000000000006c .L0 
     /tmp/ccG3pj0J.s:152    .text:0000000000000070 .L0 
     /tmp/ccG3pj0J.s:154    .text:0000000000000070 .L0 
GAS LISTING /tmp/ccG3pj0J.s 			page 11


     /tmp/ccG3pj0J.s:155    .text:0000000000000070 .L0 
     /tmp/ccG3pj0J.s:160    .text:0000000000000078 .L0 
     /tmp/ccG3pj0J.s:161    .text:0000000000000078 .L0 
     /tmp/ccG3pj0J.s:162    .text:0000000000000078 .L0 
     /tmp/ccG3pj0J.s:167    .text:000000000000007c .L0 
     /tmp/ccG3pj0J.s:172    .text:0000000000000080 .L0 
     /tmp/ccG3pj0J.s:173    .text:0000000000000080 .L0 
     /tmp/ccG3pj0J.s:174    .text:0000000000000080 .L0 
     /tmp/ccG3pj0J.s:179    .text:0000000000000084 .L0 
     /tmp/ccG3pj0J.s:180    .text:0000000000000084 .L0 
     /tmp/ccG3pj0J.s:185    .text:0000000000000088 .L0 
     /tmp/ccG3pj0J.s:186    .text:0000000000000088 .L0 
     /tmp/ccG3pj0J.s:188    .text:000000000000008c .L0 
     /tmp/ccG3pj0J.s:191    .text:0000000000000090 .L0 
     /tmp/ccG3pj0J.s:197    .text:0000000000000090 _ZN17SleepingProcesses6wakeUpEv
     /tmp/ccG3pj0J.s:200    .text:0000000000000090 .L0 
     /tmp/ccG3pj0J.s:201    .text:0000000000000090 .L0 
     /tmp/ccG3pj0J.s:202    .text:0000000000000090 .L0 
     /tmp/ccG3pj0J.s:203    .text:0000000000000090 .L0 
     /tmp/ccG3pj0J.s:205    .text:0000000000000098 .L0 
     /tmp/ccG3pj0J.s:210    .text:000000000000009c .L0 
     /tmp/ccG3pj0J.s:211    .text:000000000000009c .L0 
     /tmp/ccG3pj0J.s:212    .text:000000000000009c .L0 
     /tmp/ccG3pj0J.s:217    .text:00000000000000a0 .L0 
     /tmp/ccG3pj0J.s:222    .text:00000000000000a4 .L0 
     /tmp/ccG3pj0J.s:223    .text:00000000000000a4 .L0 
     /tmp/ccG3pj0J.s:228    .text:00000000000000a8 .L0 
     /tmp/ccG3pj0J.s:229    .text:00000000000000a8 .L0 
     /tmp/ccG3pj0J.s:230    .text:00000000000000a8 .L0 
     /tmp/ccG3pj0J.s:235    .text:00000000000000ac .L0 
     /tmp/ccG3pj0J.s:236    .text:00000000000000ac .L0 
     /tmp/ccG3pj0J.s:241    .text:00000000000000b0 .L0 
     /tmp/ccG3pj0J.s:243    .text:00000000000000b4 .L0 
     /tmp/ccG3pj0J.s:244    .text:00000000000000b8 .L0 
     /tmp/ccG3pj0J.s:248    .text:00000000000000c4 .L0 
     /tmp/ccG3pj0J.s:249    .text:00000000000000c4 .L0 
     /tmp/ccG3pj0J.s:250    .text:00000000000000c4 .L0 
     /tmp/ccG3pj0J.s:252    .text:00000000000000c8 .L0 
     /tmp/ccG3pj0J.s:259    .text:00000000000000cc .L0 
     /tmp/ccG3pj0J.s:260    .text:00000000000000cc .L0 
     /tmp/ccG3pj0J.s:265    .text:00000000000000d0 .L0 
     /tmp/ccG3pj0J.s:270    .text:00000000000000d4 .L0 
     /tmp/ccG3pj0J.s:273    .text:00000000000000d4 .L0 
     /tmp/ccG3pj0J.s:274    .text:00000000000000d4 .L0 
     /tmp/ccG3pj0J.s:275    .text:00000000000000d4 .L0 
     /tmp/ccG3pj0J.s:282    .text:00000000000000d8 .L0 
     /tmp/ccG3pj0J.s:283    .text:00000000000000d8 .L0 
     /tmp/ccG3pj0J.s:284    .text:00000000000000d8 .L0 
     /tmp/ccG3pj0J.s:291    .text:00000000000000dc .L0 
     /tmp/ccG3pj0J.s:292    .text:00000000000000dc .L0 
     /tmp/ccG3pj0J.s:293    .text:00000000000000dc .L0 
     /tmp/ccG3pj0J.s:298    .text:00000000000000e0 .L0 
     /tmp/ccG3pj0J.s:299    .text:00000000000000e0 .L0 
     /tmp/ccG3pj0J.s:302    .text:00000000000000e8 .L0 
     /tmp/ccG3pj0J.s:305    .text:00000000000000ec .L0 
     /tmp/ccG3pj0J.s:306    .text:00000000000000ec .L0 
     /tmp/ccG3pj0J.s:309    .text:00000000000000f0 .L0 
GAS LISTING /tmp/ccG3pj0J.s 			page 12


     /tmp/ccG3pj0J.s:310    .text:00000000000000f0 .L0 
     /tmp/ccG3pj0J.s:312    .text:00000000000000f8 .L0 
     /tmp/ccG3pj0J.s:313    .text:00000000000000fc .L0 
     /tmp/ccG3pj0J.s:315    .text:0000000000000100 .L0 
     /tmp/ccG3pj0J.s:316    .text:0000000000000100 .L0 
     /tmp/ccG3pj0J.s:318    .text:0000000000000104 .L0 
     /tmp/ccG3pj0J.s:321    .text:0000000000000108 .L0 
     /tmp/ccG3pj0J.s:325    .text:000000000000010c .L0 
     /tmp/ccG3pj0J.s:326    .text:000000000000010c .L0 
     /tmp/ccG3pj0J.s:331    .text:000000000000011c .L0 
     /tmp/ccG3pj0J.s:340    .bss:0000000000000000 _ZN17SleepingProcesses4headE
     /tmp/ccG3pj0J.s:337    .bss:0000000000000000 .LANCHOR0
     /tmp/ccG3pj0J.s:347    .text:000000000000011c .L0 
     /tmp/ccG3pj0J.s:23     .text:000000000000000c .L0 
     /tmp/ccG3pj0J.s:155    .text:0000000000000070 .L0 
     /tmp/ccG3pj0J.s:203    .text:0000000000000090 .L0 
     /tmp/ccG3pj0J.s:310    .text:00000000000000f0 .L0 
     /tmp/ccG3pj0J.s:326    .text:000000000000010c .L0 
     /tmp/ccG3pj0J.s:75     .text:000000000000003c .L2
     /tmp/ccG3pj0J.s:40     .text:0000000000000020 .L3
     /tmp/ccG3pj0J.s:151    .text:0000000000000070 .L7
     /tmp/ccG3pj0J.s:139    .text:0000000000000064 .L1
     /tmp/ccG3pj0J.s:329    .text:0000000000000118 .L13
     /tmp/ccG3pj0J.s:323    .text:000000000000010c .L16
     /tmp/ccG3pj0J.s:267    .text:00000000000000d4 .L17
     /tmp/ccG3pj0J.s:307    .text:00000000000000f0 .L10
     /tmp/ccG3pj0J.s:255    .text:00000000000000cc .L20
     /tmp/ccG3pj0J.s:1336   .debug_abbrev:0000000000000000 .Ldebug_abbrev0
     /tmp/ccG3pj0J.s:2557   .debug_str:00000000000004eb .LASF88
     /tmp/ccG3pj0J.s:2451   .debug_str:0000000000000194 .LASF89
     /tmp/ccG3pj0J.s:2573   .debug_str:000000000000060f .LASF90
     /tmp/ccG3pj0J.s:5      .text:0000000000000000 .Ltext0
     /tmp/ccG3pj0J.s:343    .text:000000000000011c .Letext0
     /tmp/ccG3pj0J.s:2395   .debug_line:0000000000000000 .Ldebug_line0
     /tmp/ccG3pj0J.s:2501   .debug_str:000000000000035a .LASF0
     /tmp/ccG3pj0J.s:2511   .debug_str:000000000000038d .LASF1
     /tmp/ccG3pj0J.s:2483   .debug_str:00000000000002ac .LASF2
     /tmp/ccG3pj0J.s:2467   .debug_str:0000000000000225 .LASF4
     /tmp/ccG3pj0J.s:2543   .debug_str:0000000000000483 .LASF3
     /tmp/ccG3pj0J.s:2411   .debug_str:0000000000000065 .LASF5
     /tmp/ccG3pj0J.s:2513   .debug_str:00000000000003a0 .LASF6
     /tmp/ccG3pj0J.s:2499   .debug_str:0000000000000347 .LASF7
     /tmp/ccG3pj0J.s:2563   .debug_str:00000000000005c7 .LASF8
     /tmp/ccG3pj0J.s:2459   .debug_str:00000000000001d4 .LASF9
     /tmp/ccG3pj0J.s:2525   .debug_str:00000000000003f0 .LASF10
     /tmp/ccG3pj0J.s:2559   .debug_str:00000000000005af .LASF11
     /tmp/ccG3pj0J.s:2413   .debug_str:000000000000006c .LASF12
     /tmp/ccG3pj0J.s:2399   .debug_str:0000000000000008 .LASF13
     /tmp/ccG3pj0J.s:2419   .debug_str:0000000000000096 .LASF14
     /tmp/ccG3pj0J.s:2539   .debug_str:0000000000000452 .LASF15
     /tmp/ccG3pj0J.s:2433   .debug_str:00000000000000f0 .LASF16
     /tmp/ccG3pj0J.s:2515   .debug_str:00000000000003b3 .LASF17
     /tmp/ccG3pj0J.s:2517   .debug_str:00000000000003be .LASF19
     /tmp/ccG3pj0J.s:2533   .debug_str:0000000000000428 .LASF18
     /tmp/ccG3pj0J.s:2445   .debug_str:0000000000000164 .LASF20
     /tmp/ccG3pj0J.s:2569   .debug_str:00000000000005f2 .LASF21
     /tmp/ccG3pj0J.s:2461   .debug_str:00000000000001e2 .LASF22
GAS LISTING /tmp/ccG3pj0J.s 			page 13


     /tmp/ccG3pj0J.s:2481   .debug_str:000000000000029c .LASF25
     /tmp/ccG3pj0J.s:2541   .debug_str:0000000000000468 .LASF27
     /tmp/ccG3pj0J.s:2555   .debug_str:00000000000004dd .LASF23
     /tmp/ccG3pj0J.s:2443   .debug_str:000000000000014a .LASF24
     /tmp/ccG3pj0J.s:2585   .debug_str:000000000000066e .LASF26
     /tmp/ccG3pj0J.s:2405   .debug_str:0000000000000036 .LASF28
     /tmp/ccG3pj0J.s:2401   .debug_str:0000000000000018 .LASF29
     /tmp/ccG3pj0J.s:2529   .debug_str:0000000000000404 .LASF30
     /tmp/ccG3pj0J.s:2531   .debug_str:000000000000041a .LASF31
     /tmp/ccG3pj0J.s:2457   .debug_str:00000000000001bb .LASF32
     /tmp/ccG3pj0J.s:2425   .debug_str:00000000000000ca .LASF33
     /tmp/ccG3pj0J.s:2579   .debug_str:000000000000063e .LASF34
     /tmp/ccG3pj0J.s:2523   .debug_str:00000000000003e4 .LASF91
     /tmp/ccG3pj0J.s:2487   .debug_str:00000000000002d7 .LASF68
     /tmp/ccG3pj0J.s:2565   .debug_str:00000000000005d7 .LASF70
     /tmp/ccG3pj0J.s:2447   .debug_str:0000000000000183 .LASF75
     /tmp/ccG3pj0J.s:2537   .debug_str:000000000000044d .LASF35
     /tmp/ccG3pj0J.s:2493   .debug_str:0000000000000302 .LASF36
     /tmp/ccG3pj0J.s:2571   .debug_str:0000000000000602 .LASF37
     /tmp/ccG3pj0J.s:2469   .debug_str:000000000000022c .LASF38
     /tmp/ccG3pj0J.s:2551   .debug_str:00000000000004c0 .LASF39
     /tmp/ccG3pj0J.s:2553   .debug_str:00000000000004d0 .LASF66
     /tmp/ccG3pj0J.s:2417   .debug_str:000000000000008b .LASF79
     /tmp/ccG3pj0J.s:2439   .debug_str:0000000000000126 .LASF92
     /tmp/ccG3pj0J.s:2403   .debug_str:0000000000000023 .LASF77
     /tmp/ccG3pj0J.s:2581   .debug_str:000000000000065e .LASF40
     /tmp/ccG3pj0J.s:2505   .debug_str:0000000000000370 .LASF41
     /tmp/ccG3pj0J.s:2561   .debug_str:00000000000005be .LASF42
     /tmp/ccG3pj0J.s:2421   .debug_str:00000000000000a2 .LASF43
     /tmp/ccG3pj0J.s:2519   .debug_str:00000000000003d5 .LASF44
     /tmp/ccG3pj0J.s:2471   .debug_str:0000000000000238 .LASF45
     /tmp/ccG3pj0J.s:2397   .debug_str:0000000000000000 .LASF46
     /tmp/ccG3pj0J.s:2431   .debug_str:00000000000000e5 .LASF47
     /tmp/ccG3pj0J.s:2509   .debug_str:0000000000000380 .LASF48
     /tmp/ccG3pj0J.s:2441   .debug_str:000000000000013c .LASF49
     /tmp/ccG3pj0J.s:2507   .debug_str:0000000000000376 .LASF50
     /tmp/ccG3pj0J.s:2545   .debug_str:0000000000000495 .LASF63
     /tmp/ccG3pj0J.s:2503   .debug_str:0000000000000367 .LASF56
     /tmp/ccG3pj0J.s:2463   .debug_str:00000000000001fe .LASF58
     /tmp/ccG3pj0J.s:2409   .debug_str:0000000000000056 .LASF51
     /tmp/ccG3pj0J.s:2423   .debug_str:00000000000000ac .LASF53
     /tmp/ccG3pj0J.s:2415   .debug_str:000000000000007c .LASF52
     /tmp/ccG3pj0J.s:2477   .debug_str:0000000000000279 .LASF54
     /tmp/ccG3pj0J.s:2489   .debug_str:00000000000002dd .LASF55
     /tmp/ccG3pj0J.s:2497   .debug_str:0000000000000337 .LASF57
     /tmp/ccG3pj0J.s:2491   .debug_str:00000000000002e7 .LASF59
     /tmp/ccG3pj0J.s:2453   .debug_str:00000000000001ae .LASF60
     /tmp/ccG3pj0J.s:2535   .debug_str:000000000000043b .LASF61
     /tmp/ccG3pj0J.s:2435   .debug_str:0000000000000106 .LASF62
     /tmp/ccG3pj0J.s:2437   .debug_str:0000000000000121 .LASF64
     /tmp/ccG3pj0J.s:2567   .debug_str:00000000000005e7 .LASF65
     /tmp/ccG3pj0J.s:2495   .debug_str:000000000000030e .LASF67
     /tmp/ccG3pj0J.s:2429   .debug_str:00000000000000de .LASF69
     /tmp/ccG3pj0J.s:2473   .debug_str:0000000000000241 .LASF71
     /tmp/ccG3pj0J.s:2521   .debug_str:00000000000003da .LASF72
     /tmp/ccG3pj0J.s:2479   .debug_str:0000000000000297 .LASF73
     /tmp/ccG3pj0J.s:2547   .debug_str:00000000000004a6 .LASF74
GAS LISTING /tmp/ccG3pj0J.s 			page 14


     /tmp/ccG3pj0J.s:2575   .debug_str:000000000000062d .LASF76
     /tmp/ccG3pj0J.s:2475   .debug_str:0000000000000261 .LASF78
     /tmp/ccG3pj0J.s:2465   .debug_str:0000000000000211 .LASF93
     /tmp/ccG3pj0J.s:2485   .debug_str:00000000000002ba .LASF94
     /tmp/ccG3pj0J.s:198    .text:0000000000000090 .LFB9
     /tmp/ccG3pj0J.s:332    .text:000000000000011c .LFE9
     /tmp/ccG3pj0J.s:2527   .debug_str:00000000000003ff .LASF80
     /tmp/ccG3pj0J.s:2106   .debug_loc:0000000000000000 .LLST19
     /tmp/ccG3pj0J.s:268    .text:00000000000000d4 .LBB77
     /tmp/ccG3pj0J.s:303    .text:00000000000000ec .LBE77
     /tmp/ccG3pj0J.s:2455   .debug_str:00000000000001b3 .LASF81
     /tmp/ccG3pj0J.s:2129   .debug_loc:000000000000006f .LLST24
     /tmp/ccG3pj0J.s:271    .text:00000000000000d4 .LBB78
     /tmp/ccG3pj0J.s:278    .text:00000000000000d8 .LBE78
     /tmp/ccG3pj0J.s:2136   .debug_loc:0000000000000092 .LLST25
     /tmp/ccG3pj0J.s:280    .text:00000000000000d8 .LBB80
     /tmp/ccG3pj0J.s:287    .text:00000000000000dc .LBE80
     /tmp/ccG3pj0J.s:2143   .debug_loc:00000000000000b5 .LLST26
     /tmp/ccG3pj0J.s:2151   .debug_loc:00000000000000d9 .LLST27
     /tmp/ccG3pj0J.s:289    .text:00000000000000dc .LBB82
     /tmp/ccG3pj0J.s:296    .text:00000000000000e0 .LBE82
     /tmp/ccG3pj0J.s:2158   .debug_loc:00000000000000fc .LLST28
     /tmp/ccG3pj0J.s:2166   .debug_loc:0000000000000120 .LLST29
     /tmp/ccG3pj0J.s:300    .text:00000000000000e8 .LVL37
     /tmp/ccG3pj0J.s:208    .text:000000000000009c .LBB69
     /tmp/ccG3pj0J.s:215    .text:00000000000000a0 .LBE69
     /tmp/ccG3pj0J.s:2173   .debug_loc:0000000000000143 .LLST20
     /tmp/ccG3pj0J.s:219    .text:00000000000000a4 .LBB71
     /tmp/ccG3pj0J.s:226    .text:00000000000000a8 .LBE71
     /tmp/ccG3pj0J.s:2180   .debug_loc:0000000000000166 .LLST21
     /tmp/ccG3pj0J.s:2187   .debug_loc:0000000000000189 .LLST22
     /tmp/ccG3pj0J.s:232    .text:00000000000000ac .LBB73
     /tmp/ccG3pj0J.s:2387   .debug_ranges:0000000000000000 .Ldebug_ranges0
     /tmp/ccG3pj0J.s:2194   .debug_loc:00000000000001ac .LLST23
     /tmp/ccG3pj0J.s:10     .text:0000000000000000 .LFB8
     /tmp/ccG3pj0J.s:192    .text:0000000000000090 .LFE8
     /tmp/ccG3pj0J.s:2205   .debug_loc:00000000000001e2 .LLST0
     /tmp/ccG3pj0J.s:2407   .debug_str:0000000000000051 .LASF82
     /tmp/ccG3pj0J.s:2221   .debug_loc:000000000000022c .LLST1
     /tmp/ccG3pj0J.s:2427   .debug_str:00000000000000d9 .LASF83
     /tmp/ccG3pj0J.s:2241   .debug_loc:0000000000000289 .LLST2
     /tmp/ccG3pj0J.s:26     .text:0000000000000014 .LBB45
     /tmp/ccG3pj0J.s:34     .text:0000000000000018 .LBE45
     /tmp/ccG3pj0J.s:2261   .debug_loc:00000000000002e6 .LLST3
     /tmp/ccG3pj0J.s:45     .text:0000000000000024 .LBB47
     /tmp/ccG3pj0J.s:52     .text:0000000000000028 .LBE47
     /tmp/ccG3pj0J.s:2268   .debug_loc:0000000000000309 .LLST4
     /tmp/ccG3pj0J.s:63     .text:0000000000000030 .LBB49
     /tmp/ccG3pj0J.s:67     .text:0000000000000030 .LBE49
     /tmp/ccG3pj0J.s:78     .text:000000000000003c .LBB51
     /tmp/ccG3pj0J.s:86     .text:0000000000000044 .LBE51
     /tmp/ccG3pj0J.s:2275   .debug_loc:000000000000032c .LLST5
     /tmp/ccG3pj0J.s:2283   .debug_loc:0000000000000350 .LLST6
     /tmp/ccG3pj0J.s:91     .text:0000000000000048 .LBB53
     /tmp/ccG3pj0J.s:98     .text:000000000000004c .LBE53
     /tmp/ccG3pj0J.s:2290   .debug_loc:0000000000000373 .LLST7
     /tmp/ccG3pj0J.s:2297   .debug_loc:0000000000000396 .LLST8
GAS LISTING /tmp/ccG3pj0J.s 			page 15


     /tmp/ccG3pj0J.s:100    .text:000000000000004c .LBB55
     /tmp/ccG3pj0J.s:107    .text:0000000000000050 .LBE55
     /tmp/ccG3pj0J.s:2304   .debug_loc:00000000000003b9 .LLST9
     /tmp/ccG3pj0J.s:2311   .debug_loc:00000000000003dc .LLST10
     /tmp/ccG3pj0J.s:109    .text:0000000000000050 .LBB57
     /tmp/ccG3pj0J.s:116    .text:0000000000000054 .LBE57
     /tmp/ccG3pj0J.s:2318   .debug_loc:00000000000003ff .LLST11
     /tmp/ccG3pj0J.s:2325   .debug_loc:0000000000000422 .LLST12
     /tmp/ccG3pj0J.s:121    .text:0000000000000058 .LBB59
     /tmp/ccG3pj0J.s:128    .text:000000000000005c .LBE59
     /tmp/ccG3pj0J.s:2332   .debug_loc:0000000000000445 .LLST13
     /tmp/ccG3pj0J.s:133    .text:0000000000000060 .LBB61
     /tmp/ccG3pj0J.s:141    .text:0000000000000064 .LBE61
     /tmp/ccG3pj0J.s:2339   .debug_loc:0000000000000468 .LLST14
     /tmp/ccG3pj0J.s:2346   .debug_loc:000000000000048b .LLST15
     /tmp/ccG3pj0J.s:158    .text:0000000000000078 .LBB63
     /tmp/ccG3pj0J.s:165    .text:000000000000007c .LBE63
     /tmp/ccG3pj0J.s:2353   .debug_loc:00000000000004ae .LLST16
     /tmp/ccG3pj0J.s:2360   .debug_loc:00000000000004d1 .LLST17
     /tmp/ccG3pj0J.s:170    .text:0000000000000080 .LBB65
     /tmp/ccG3pj0J.s:177    .text:0000000000000084 .LBE65
     /tmp/ccG3pj0J.s:2367   .debug_loc:00000000000004f4 .LLST18
     /tmp/ccG3pj0J.s:182    .text:0000000000000088 .LBB67
     /tmp/ccG3pj0J.s:190    .text:0000000000000090 .LBE67
     /tmp/ccG3pj0J.s:2577   .debug_str:0000000000000639 .LASF84
     /tmp/ccG3pj0J.s:2449   .debug_str:000000000000018b .LASF85
     /tmp/ccG3pj0J.s:2583   .debug_str:0000000000000669 .LASF86
     /tmp/ccG3pj0J.s:2549   .debug_str:00000000000004b8 .LASF87
     /tmp/ccG3pj0J.s:224    .text:00000000000000a8 .LVL28
     /tmp/ccG3pj0J.s:254    .text:00000000000000cc .LVL31
     /tmp/ccG3pj0J.s:266    .text:00000000000000d4 .LVL33
     /tmp/ccG3pj0J.s:276    .text:00000000000000d8 .LVL34
     /tmp/ccG3pj0J.s:319    .text:0000000000000104 .LVL38
     /tmp/ccG3pj0J.s:328    .text:0000000000000118 .LVL39
     /tmp/ccG3pj0J.s:285    .text:00000000000000dc .LVL35
     /tmp/ccG3pj0J.s:294    .text:00000000000000e0 .LVL36
     /tmp/ccG3pj0J.s:207    .text:000000000000009c .LVL25
     /tmp/ccG3pj0J.s:213    .text:00000000000000a0 .LVL26
     /tmp/ccG3pj0J.s:218    .text:00000000000000a4 .LVL27
     /tmp/ccG3pj0J.s:231    .text:00000000000000ac .LVL29
     /tmp/ccG3pj0J.s:237    .text:00000000000000b0 .LVL30
     /tmp/ccG3pj0J.s:261    .text:00000000000000d0 .LVL32
     /tmp/ccG3pj0J.s:24     .text:0000000000000014 .LVL1
     /tmp/ccG3pj0J.s:61     .text:0000000000000030 .LVL7
     /tmp/ccG3pj0J.s:72     .text:0000000000000038 .LVL8
     /tmp/ccG3pj0J.s:39     .text:0000000000000020 .LVL3
     /tmp/ccG3pj0J.s:56     .text:000000000000002c .LVL6
     /tmp/ccG3pj0J.s:32     .text:0000000000000018 .LVL2
     /tmp/ccG3pj0J.s:132    .text:0000000000000060 .LVL17
     /tmp/ccG3pj0J.s:138    .text:0000000000000064 .LVL18
     /tmp/ccG3pj0J.s:150    .text:0000000000000070 .LVL19
     /tmp/ccG3pj0J.s:156    .text:0000000000000078 .LVL20
     /tmp/ccG3pj0J.s:44     .text:0000000000000024 .LVL4
     /tmp/ccG3pj0J.s:50     .text:0000000000000028 .LVL5
     /tmp/ccG3pj0J.s:77     .text:000000000000003c .LVL9
     /tmp/ccG3pj0J.s:84     .text:0000000000000044 .LVL10
     /tmp/ccG3pj0J.s:90     .text:0000000000000048 .LVL11
GAS LISTING /tmp/ccG3pj0J.s 			page 16


     /tmp/ccG3pj0J.s:96     .text:000000000000004c .LVL12
     /tmp/ccG3pj0J.s:105    .text:0000000000000050 .LVL13
     /tmp/ccG3pj0J.s:114    .text:0000000000000054 .LVL14
     /tmp/ccG3pj0J.s:120    .text:0000000000000058 .LVL15
     /tmp/ccG3pj0J.s:126    .text:000000000000005c .LVL16
     /tmp/ccG3pj0J.s:163    .text:000000000000007c .LVL21
     /tmp/ccG3pj0J.s:169    .text:0000000000000080 .LVL22
     /tmp/ccG3pj0J.s:175    .text:0000000000000084 .LVL23
     /tmp/ccG3pj0J.s:348    .debug_info:0000000000000000 .Ldebug_info0
     /tmp/ccG3pj0J.s:239    .text:00000000000000b0 .LBE73
     /tmp/ccG3pj0J.s:256    .text:00000000000000cc .LBB76
     /tmp/ccG3pj0J.s:263    .text:00000000000000d0 .LBE76

UNDEFINED SYMBOLS
_ZN9Scheduler3putEP3PCB
