GAS LISTING /tmp/ccG3pj0J.s 			page 1


   1              		.file	"SleepingProcesses.cpp"
   2              		.option pic
   3              		.option norelax
   4              		.text
   5              	.Ltext0:
   6              		.align	2
   7              		.globl	_ZN17SleepingProcesses10putToSleepEP3PCB
   9              	_ZN17SleepingProcesses10putToSleepEP3PCB:
  10              	.LFB8:
  11              		.file 1 "src/SleepingProcesses.cpp"
   1:src/SleepingProcesses.cpp **** #include "../h/SleepingProcesses.h"
   2:src/SleepingProcesses.cpp **** #include "../h/Scheduler.h"
   3:src/SleepingProcesses.cpp **** 
   4:src/SleepingProcesses.cpp **** PCB* SleepingProcesses::head = nullptr;
   5:src/SleepingProcesses.cpp **** 
   6:src/SleepingProcesses.cpp **** void SleepingProcesses::putToSleep(PCB *process) {
  12              		.loc 1 6 50
  13              		.cfi_startproc
  14              	.LVL0:
  15 0000 130101FF 		addi	sp,sp,-16
  16              		.cfi_def_cfa_offset 16
  17 0004 23348100 		sd	s0,8(sp)
  18              		.cfi_offset 8, -8
  19 0008 13040101 		addi	s0,sp,16
  20              		.cfi_def_cfa 8, 0
   7:src/SleepingProcesses.cpp ****     PCB* curr = head, *prev = nullptr;
  21              		.loc 1 7 5
  22              		.loc 1 7 10 is_stmt 0
  23 000c 97070000 		ld	a5,.LANCHOR0
  23      83B70700 
  24              	.LVL1:
   8:src/SleepingProcesses.cpp ****     size_t time = process->getTimeSleeping();
  25              		.loc 1 8 5 is_stmt 1
  26              	.LBB45:
  27              	.LBB46:
  28              		.file 2 "src/../h/PCB.h"
   1:src/../h/PCB.h **** #ifndef PCB_H
   2:src/../h/PCB.h **** #define PCB_H
   3:src/../h/PCB.h **** 
   4:src/../h/PCB.h **** #include "hw.h"
   5:src/../h/PCB.h **** 
   6:src/../h/PCB.h **** extern "C" void interruptHandler();
   7:src/../h/PCB.h **** 
   8:src/../h/PCB.h **** class PCB {
   9:src/../h/PCB.h **** friend class Scheduler;
  10:src/../h/PCB.h **** friend void interruptHandler();
  11:src/../h/PCB.h **** friend class Kernel;
  12:src/../h/PCB.h **** public:
  13:src/../h/PCB.h ****     // vraca true ako se proces zavrsio, false ako nije
  14:src/../h/PCB.h ****     bool isFinished() const {
  15:src/../h/PCB.h ****         return finished;
  16:src/../h/PCB.h ****     }
  17:src/../h/PCB.h ****     // vraca true ako je semafor obrisan pre nego sto je proces odblokiran
  18:src/../h/PCB.h ****     bool isSemaphoreDeleted() const {
  19:src/../h/PCB.h ****         return semDeleted;
  20:src/../h/PCB.h ****     }
  21:src/../h/PCB.h **** 
GAS LISTING /tmp/ccG3pj0J.s 			page 2


  22:src/../h/PCB.h ****     size_t getTimeSleeping() const {
  23:src/../h/PCB.h ****         return timeSleeping;
  29              		.loc 2 23 9
  30              		.loc 2 23 16 is_stmt 0
  31 0014 83350503 		ld	a1,48(a0)
  32              	.LVL2:
  33              	.LBE46:
  34              	.LBE45:
  35              		.loc 1 8 43
  36 0018 13870500 		mv	a4,a1
   7:src/SleepingProcesses.cpp ****     size_t time = process->getTimeSleeping();
  37              		.loc 1 7 24
  38 001c 13060000 		li	a2,0
  39              	.LVL3:
  40              	.L3:
   9:src/SleepingProcesses.cpp ****     while(curr && curr->getTimeSleeping() < time) { // ako su iste vrednosti oba ce biti izvadjena
  41              		.loc 1 9 5 is_stmt 1
  42              		.loc 1 9 16
  43 0020 638E0700 		beqz	a5,.L2
  44              	.LVL4:
  45              	.LBB47:
  46              	.LBB48:
  47              		.loc 2 23 9
  48              		.loc 2 23 16 is_stmt 0
  49 0024 83B60703 		ld	a3,48(a5)
  50              	.LVL5:
  51              	.LBE48:
  52              	.LBE47:
  53              		.loc 1 9 16
  54 0028 63FAE600 		bleu	a4,a3,.L2
  10:src/SleepingProcesses.cpp ****         prev = curr;
  55              		.loc 1 10 9 is_stmt 1
  56              	.LVL6:
  11:src/SleepingProcesses.cpp ****         time -= curr->getTimeSleeping();
  57              		.loc 1 11 9
  58              		.loc 2 23 9
  59              		.loc 1 11 14 is_stmt 0
  60 002c 3307D740 		sub	a4,a4,a3
  61              	.LVL7:
  12:src/SleepingProcesses.cpp ****         curr = curr->getNextInList();
  62              		.loc 1 12 9 is_stmt 1
  63              	.LBB49:
  64              	.LBB50:
  24:src/../h/PCB.h ****     }
  25:src/../h/PCB.h **** 
  26:src/../h/PCB.h ****     void setTimeSleeping(size_t newTime) {
  27:src/../h/PCB.h ****         timeSleeping = newTime;
  28:src/../h/PCB.h ****     }
  29:src/../h/PCB.h **** 
  30:src/../h/PCB.h ****     PCB* getNextInList() const {
  31:src/../h/PCB.h ****         return nextInList;
  65              		.loc 2 31 9
  66              	.LBE50:
  67              	.LBE49:
  10:src/SleepingProcesses.cpp ****         time -= curr->getTimeSleeping();
  68              		.loc 1 10 14 is_stmt 0
  69 0030 13860700 		mv	a2,a5
GAS LISTING /tmp/ccG3pj0J.s 			page 3


  70              		.loc 1 12 35
  71 0034 83B70700 		ld	a5,0(a5)
  72              	.LVL8:
   9:src/SleepingProcesses.cpp ****         prev = curr;
  73              		.loc 1 9 5
  74 0038 6FF09FFE 		j	.L3
  75              	.L2:
  13:src/SleepingProcesses.cpp ****     }
  14:src/SleepingProcesses.cpp **** 
  15:src/SleepingProcesses.cpp ****     process->setBlocked(true); // postavljamo proces u blocked stanje
  76              		.loc 1 15 5 is_stmt 1 discriminator 4
  77              	.LVL9:
  78              	.LBB51:
  79              	.LBB52:
  32:src/../h/PCB.h ****     }
  33:src/../h/PCB.h **** 
  34:src/../h/PCB.h ****     void setNextInList(PCB* next) {
  35:src/../h/PCB.h ****         nextInList = next;
  36:src/../h/PCB.h ****     }
  37:src/../h/PCB.h **** 
  38:src/../h/PCB.h ****     void setBlocked(bool newState) {
  39:src/../h/PCB.h ****         blocked = newState;
  80              		.loc 2 39 9 discriminator 4
  81              		.loc 2 39 17 is_stmt 0 discriminator 4
  82 003c 93061000 		li	a3,1
  83 0040 A304D502 		sb	a3,41(a0)
  84              	.LVL10:
  85              	.LBE52:
  86              	.LBE51:
  16:src/SleepingProcesses.cpp ****     if(!prev) {
  87              		.loc 1 16 5 is_stmt 1 discriminator 4
  88 0044 63060602 		beqz	a2,.L7
  17:src/SleepingProcesses.cpp ****         head = process;
  18:src/SleepingProcesses.cpp ****         process->setNextInList(curr);
  19:src/SleepingProcesses.cpp ****         if(curr) {
  20:src/SleepingProcesses.cpp ****             curr->setTimeSleeping(curr->getTimeSleeping() - process->getTimeSleeping());
  21:src/SleepingProcesses.cpp ****         }
  22:src/SleepingProcesses.cpp ****     }
  23:src/SleepingProcesses.cpp ****     else {
  24:src/SleepingProcesses.cpp ****         prev->setNextInList(process);
  89              		.loc 1 24 9
  90              	.LVL11:
  91              	.LBB53:
  92              	.LBB54:
  35:src/../h/PCB.h ****     }
  93              		.loc 2 35 9
  35:src/../h/PCB.h ****     }
  94              		.loc 2 35 20 is_stmt 0
  95 0048 2330A600 		sd	a0,0(a2)
  96              	.LVL12:
  97              	.LBE54:
  98              	.LBE53:
  25:src/SleepingProcesses.cpp ****         // vrednost ce biti relativna u odnosu na prosli clan pa cemo moci da izbacimo samo prvih k
  26:src/SleepingProcesses.cpp ****         process->setTimeSleeping(time); // razlika izmedju tekuceg i proslog
  99              		.loc 1 26 9 is_stmt 1
 100              	.LBB55:
 101              	.LBB56:
GAS LISTING /tmp/ccG3pj0J.s 			page 4


  27:src/../h/PCB.h ****     }
 102              		.loc 2 27 9
  27:src/../h/PCB.h ****     }
 103              		.loc 2 27 22 is_stmt 0
 104 004c 2338E502 		sd	a4,48(a0)
 105              	.LVL13:
 106              	.LBE56:
 107              	.LBE55:
  27:src/SleepingProcesses.cpp ****         process->setNextInList(curr);
 108              		.loc 1 27 9 is_stmt 1
 109              	.LBB57:
 110              	.LBB58:
  35:src/../h/PCB.h ****     }
 111              		.loc 2 35 9
  35:src/../h/PCB.h ****     }
 112              		.loc 2 35 20 is_stmt 0
 113 0050 2330F500 		sd	a5,0(a0)
 114              	.LVL14:
 115              	.LBE58:
 116              	.LBE57:
  28:src/SleepingProcesses.cpp ****         if(curr) {
 117              		.loc 1 28 9 is_stmt 1
 118 0054 63880700 		beqz	a5,.L1
  29:src/SleepingProcesses.cpp ****             curr->setTimeSleeping(curr->getTimeSleeping() - process->getTimeSleeping());
 119              		.loc 1 29 13
 120              	.LVL15:
 121              	.LBB59:
 122              	.LBB60:
  23:src/../h/PCB.h ****     }
 123              		.loc 2 23 9
  23:src/../h/PCB.h ****     }
 124              		.loc 2 23 16 is_stmt 0
 125 0058 83B60703 		ld	a3,48(a5)
 126              	.LVL16:
 127              	.LBE60:
 128              	.LBE59:
  23:src/../h/PCB.h ****     }
 129              		.loc 2 23 9 is_stmt 1
 130              		.loc 1 29 34 is_stmt 0
 131 005c 3387E640 		sub	a4,a3,a4
 132              	.LVL17:
 133              	.LBB61:
 134              	.LBB62:
  27:src/../h/PCB.h ****     }
 135              		.loc 2 27 9 is_stmt 1
  27:src/../h/PCB.h ****     }
 136              		.loc 2 27 22 is_stmt 0
 137 0060 23B8E702 		sd	a4,48(a5)
 138              	.LVL18:
 139              	.L1:
 140              	.LBE62:
 141              	.LBE61:
  30:src/SleepingProcesses.cpp ****         }
  31:src/SleepingProcesses.cpp ****     }
  32:src/SleepingProcesses.cpp **** }
 142              		.loc 1 32 1
 143 0064 03348100 		ld	s0,8(sp)
GAS LISTING /tmp/ccG3pj0J.s 			page 5


 144              		.cfi_remember_state
 145              		.cfi_restore 8
 146              		.cfi_def_cfa 2, 16
 147 0068 13010101 		addi	sp,sp,16
 148              		.cfi_def_cfa_offset 0
 149 006c 67800000 		jr	ra
 150              	.LVL19:
 151              	.L7:
 152              		.cfi_restore_state
  17:src/SleepingProcesses.cpp ****         process->setNextInList(curr);
 153              		.loc 1 17 9 is_stmt 1
  17:src/SleepingProcesses.cpp ****         process->setNextInList(curr);
 154              		.loc 1 17 14 is_stmt 0
 155 0070 17070000 		sd	a0,.LANCHOR0,a4
 155      2330A700 
 156              	.LVL20:
  18:src/SleepingProcesses.cpp ****         if(curr) {
 157              		.loc 1 18 9 is_stmt 1
 158              	.LBB63:
 159              	.LBB64:
  35:src/../h/PCB.h ****     }
 160              		.loc 2 35 9
  35:src/../h/PCB.h ****     }
 161              		.loc 2 35 20 is_stmt 0
 162 0078 2330F500 		sd	a5,0(a0)
 163              	.LVL21:
 164              	.LBE64:
 165              	.LBE63:
  19:src/SleepingProcesses.cpp ****             curr->setTimeSleeping(curr->getTimeSleeping() - process->getTimeSleeping());
 166              		.loc 1 19 9 is_stmt 1
 167 007c E38407FE 		beqz	a5,.L1
  20:src/SleepingProcesses.cpp ****         }
 168              		.loc 1 20 13
 169              	.LVL22:
 170              	.LBB65:
 171              	.LBB66:
  23:src/../h/PCB.h ****     }
 172              		.loc 2 23 9
  23:src/../h/PCB.h ****     }
 173              		.loc 2 23 16 is_stmt 0
 174 0080 03B70703 		ld	a4,48(a5)
 175              	.LVL23:
 176              	.LBE66:
 177              	.LBE65:
  23:src/../h/PCB.h ****     }
 178              		.loc 2 23 9 is_stmt 1
  20:src/SleepingProcesses.cpp ****         }
 179              		.loc 1 20 34 is_stmt 0
 180 0084 B305B740 		sub	a1,a4,a1
 181              	.LVL24:
 182              	.LBB67:
 183              	.LBB68:
  27:src/../h/PCB.h ****     }
 184              		.loc 2 27 9 is_stmt 1
  27:src/../h/PCB.h ****     }
 185              		.loc 2 27 22 is_stmt 0
 186 0088 23B8B702 		sd	a1,48(a5)
GAS LISTING /tmp/ccG3pj0J.s 			page 6


  28:src/../h/PCB.h **** 
 187              		.loc 2 28 5
 188 008c 6FF09FFD 		j	.L1
 189              	.LBE68:
 190              	.LBE67:
 191              		.cfi_endproc
 192              	.LFE8:
 194              		.align	2
 195              		.globl	_ZN17SleepingProcesses6wakeUpEv
 197              	_ZN17SleepingProcesses6wakeUpEv:
 198              	.LFB9:
  33:src/SleepingProcesses.cpp **** 
  34:src/SleepingProcesses.cpp **** void SleepingProcesses::wakeUp() {
 199              		.loc 1 34 34 is_stmt 1
 200              		.cfi_startproc
  35:src/SleepingProcesses.cpp ****     if(!head) return;
 201              		.loc 1 35 5
 202              		.loc 1 35 8 is_stmt 0
 203 0090 17050000 		ld	a0,.LANCHOR0
 203      03350500 
 204              		.loc 1 35 5
 205 0098 63000508 		beqz	a0,.L13
  36:src/SleepingProcesses.cpp **** 
  37:src/SleepingProcesses.cpp ****     head->setTimeSleeping(head->getTimeSleeping()-1); // smanjuje periodu cekanja
 206              		.loc 1 37 5 is_stmt 1
 207              	.LVL25:
 208              	.LBB69:
 209              	.LBB70:
  23:src/../h/PCB.h ****     }
 210              		.loc 2 23 9
  23:src/../h/PCB.h ****     }
 211              		.loc 2 23 16 is_stmt 0
 212 009c 83370503 		ld	a5,48(a0)
 213              	.LVL26:
 214              	.LBE70:
 215              	.LBE69:
 216              		.loc 1 37 26
 217 00a0 9387F7FF 		addi	a5,a5,-1
 218              	.LVL27:
 219              	.LBB71:
 220              	.LBB72:
  27:src/../h/PCB.h ****     }
 221              		.loc 2 27 9 is_stmt 1
  27:src/../h/PCB.h ****     }
 222              		.loc 2 27 22 is_stmt 0
 223 00a4 2338F502 		sd	a5,48(a0)
 224              	.LVL28:
 225              	.LBE72:
 226              	.LBE71:
  38:src/SleepingProcesses.cpp ****     PCB* curr = head;
 227              		.loc 1 38 5 is_stmt 1
  39:src/SleepingProcesses.cpp ****     while(curr && curr->getTimeSleeping() == 0) {
 228              		.loc 1 39 5
 229              		.loc 1 39 16
 230 00a8 63020506 		beqz	a0,.L16
 231              	.LVL29:
 232              	.LBB73:
GAS LISTING /tmp/ccG3pj0J.s 			page 7


 233              	.LBB74:
  23:src/../h/PCB.h ****     }
 234              		.loc 2 23 9
  23:src/../h/PCB.h ****     }
 235              		.loc 2 23 16 is_stmt 0
 236 00ac 83370503 		ld	a5,48(a0)
 237              	.LVL30:
 238              	.LBE74:
 239              	.LBE73:
 240              		.loc 1 39 16
 241 00b0 639E0704 		bnez	a5,.L16
  34:src/SleepingProcesses.cpp ****     if(!head) return;
 242              		.loc 1 34 34
 243 00b4 130101FE 		addi	sp,sp,-32
 244              		.cfi_def_cfa_offset 32
 245 00b8 233C1100 		sd	ra,24(sp)
 246 00bc 23388100 		sd	s0,16(sp)
 247 00c0 23349100 		sd	s1,8(sp)
 248              		.cfi_offset 1, -8
 249              		.cfi_offset 8, -16
 250              		.cfi_offset 9, -24
 251 00c4 13040102 		addi	s0,sp,32
 252              		.cfi_def_cfa 8, 0
 253 00c8 6F00C000 		j	.L17
 254              	.LVL31:
 255              	.L20:
 256              	.LBB76:
 257              	.LBB75:
  23:src/../h/PCB.h ****     }
 258              		.loc 2 23 9 is_stmt 1
  23:src/../h/PCB.h ****     }
 259              		.loc 2 23 16 is_stmt 0
 260 00cc 83B70403 		ld	a5,48(s1)
 261              	.LVL32:
 262              	.LBE75:
 263              	.LBE76:
 264              		.loc 1 39 16
 265 00d0 63900702 		bnez	a5,.L10
 266              	.LVL33:
 267              	.L17:
 268              	.LBB77:
  40:src/SleepingProcesses.cpp ****         PCB* process = curr;
 269              		.loc 1 40 9 is_stmt 1
  41:src/SleepingProcesses.cpp ****         curr = curr->getNextInList();
 270              		.loc 1 41 9
 271              	.LBB78:
 272              	.LBB79:
  31:src/../h/PCB.h ****     }
 273              		.loc 2 31 9
  31:src/../h/PCB.h ****     }
 274              		.loc 2 31 16 is_stmt 0
 275 00d4 83340500 		ld	s1,0(a0)
 276              	.LVL34:
 277              	.LBE79:
 278              	.LBE78:
  42:src/SleepingProcesses.cpp ****         process->setNextInList(nullptr);
 279              		.loc 1 42 9 is_stmt 1
GAS LISTING /tmp/ccG3pj0J.s 			page 8


 280              	.LBB80:
 281              	.LBB81:
  35:src/../h/PCB.h ****     }
 282              		.loc 2 35 9
  35:src/../h/PCB.h ****     }
 283              		.loc 2 35 20 is_stmt 0
 284 00d8 23300500 		sd	zero,0(a0)
 285              	.LVL35:
 286              	.LBE81:
 287              	.LBE80:
  43:src/SleepingProcesses.cpp ****         process->setBlocked(false);
 288              		.loc 1 43 9 is_stmt 1
 289              	.LBB82:
 290              	.LBB83:
 291              		.loc 2 39 9
 292              		.loc 2 39 17 is_stmt 0
 293 00dc A3040502 		sb	zero,41(a0)
 294              	.LVL36:
 295              	.LBE83:
 296              	.LBE82:
  44:src/SleepingProcesses.cpp **** 
  45:src/SleepingProcesses.cpp ****         Scheduler::put(process);
 297              		.loc 1 45 9 is_stmt 1
 298              		.loc 1 45 23 is_stmt 0
 299 00e0 97000000 		call	_ZN9Scheduler3putEP3PCB@plt
 299      E7800000 
 300              	.LVL37:
  41:src/SleepingProcesses.cpp ****         process->setNextInList(nullptr);
 301              		.loc 1 41 35
 302 00e8 13850400 		mv	a0,s1
 303              	.LBE77:
  39:src/SleepingProcesses.cpp ****         PCB* process = curr;
 304              		.loc 1 39 5 is_stmt 1
  39:src/SleepingProcesses.cpp ****         PCB* process = curr;
 305              		.loc 1 39 16
 306 00ec E39004FE 		bnez	s1,.L20
 307              	.L10:
  46:src/SleepingProcesses.cpp ****     }
  47:src/SleepingProcesses.cpp **** 
  48:src/SleepingProcesses.cpp ****     head = curr;
 308              		.loc 1 48 5 discriminator 4
 309              		.loc 1 48 10 is_stmt 0 discriminator 4
 310 00f0 97070000 		sd	a0,.LANCHOR0,a5
 310      23B0A700 
  49:src/SleepingProcesses.cpp **** }
 311              		.loc 1 49 1 discriminator 4
 312 00f8 83308101 		ld	ra,24(sp)
 313              		.cfi_restore 1
 314 00fc 03340101 		ld	s0,16(sp)
 315              		.cfi_restore 8
 316              		.cfi_def_cfa 2, 32
 317 0100 83348100 		ld	s1,8(sp)
 318              		.cfi_restore 9
 319              	.LVL38:
 320 0104 13010102 		addi	sp,sp,32
 321              		.cfi_def_cfa_offset 0
 322 0108 67800000 		jr	ra
GAS LISTING /tmp/ccG3pj0J.s 			page 9


 323              	.L16:
  48:src/SleepingProcesses.cpp **** }
 324              		.loc 1 48 5 is_stmt 1
  48:src/SleepingProcesses.cpp **** }
 325              		.loc 1 48 10 is_stmt 0
 326 010c 97070000 		sd	a0,.LANCHOR0,a5
 326      23B0A700 
 327 0114 67800000 		ret
 328              	.LVL39:
 329              	.L13:
 330 0118 67800000 		ret
 331              		.cfi_endproc
 332              	.LFE9:
 334              		.globl	_ZN17SleepingProcesses4headE
 335              		.bss
 336              		.align	3
 337              		.set	.LANCHOR0,. + 0
 340              	_ZN17SleepingProcesses4headE:
 341 0000 00000000 		.zero	8
 341      00000000 
 342              		.text
 343              	.Letext0:
 344              		.file 3 "src/../h/hw.h"
 345              		.file 4 "src/../h/SleepingProcesses.h"
 346              		.file 5 "src/../h/Scheduler.h"
GAS LISTING /tmp/ccG3pj0J.s 			page 10

