GAS LISTING /tmp/cc9m8ABL.s 			page 1


   1              		.file	"SleepingProcesses.cpp"
   2              		.option pic
   3              		.option norelax
   4              		.text
   5              	.Ltext0:
   6              		.align	2
   7              		.globl	_ZN17SleepingProcesses10putToSleepEP3PCB
   9              	_ZN17SleepingProcesses10putToSleepEP3PCB:
  10              	.LFB9:
  11              		.file 1 "src/SleepingProcesses.cpp"
   1:src/SleepingProcesses.cpp **** #include "../h/SleepingProcesses.h"
   2:src/SleepingProcesses.cpp **** #include "../h/Scheduler.h"
   3:src/SleepingProcesses.cpp **** 
   4:src/SleepingProcesses.cpp **** PCB* SleepingProcesses::head = nullptr;
   5:src/SleepingProcesses.cpp **** 
   6:src/SleepingProcesses.cpp **** void SleepingProcesses::putToSleep(PCB *process) {
  12              		.loc 1 6 50
  13              		.cfi_startproc
  14              	.LVL0:
  15 0000 130101FF 		addi	sp,sp,-16
  16              		.cfi_def_cfa_offset 16
  17 0004 23348100 		sd	s0,8(sp)
  18              		.cfi_offset 8, -8
  19 0008 13040101 		addi	s0,sp,16
  20              		.cfi_def_cfa 8, 0
   7:src/SleepingProcesses.cpp ****     PCB* curr = head, *prev = nullptr;
  21              		.loc 1 7 5
  22              		.loc 1 7 10 is_stmt 0
  23 000c 97070000 		ld	a5,.LANCHOR0
  23      83B70700 
  24              	.LVL1:
   8:src/SleepingProcesses.cpp ****     size_t time = process->getTimeSleeping();
  25              		.loc 1 8 5 is_stmt 1
  26              	.LBB45:
  27              	.LBB46:
  28              		.file 2 "src/../h/PCB.h"
   1:src/../h/PCB.h **** #ifndef PCB_H
   2:src/../h/PCB.h **** #define PCB_H
   3:src/../h/PCB.h **** 
   4:src/../h/PCB.h **** #include "hw.h"
   5:src/../h/PCB.h **** 
   6:src/../h/PCB.h **** extern "C" void interruptHandler();
   7:src/../h/PCB.h **** 
   8:src/../h/PCB.h **** class PCB {
   9:src/../h/PCB.h **** friend class Scheduler;
  10:src/../h/PCB.h **** friend void interruptHandler();
  11:src/../h/PCB.h **** friend class Kernel;
  12:src/../h/PCB.h **** friend class SCB;
  13:src/../h/PCB.h **** public:
  14:src/../h/PCB.h ****     // vraca true ako se proces zavrsio, false ako nije
  15:src/../h/PCB.h ****     bool isFinished() const {
  16:src/../h/PCB.h ****         return finished;
  17:src/../h/PCB.h ****     }
  18:src/../h/PCB.h ****     // vraca true ako je semafor obrisan pre nego sto je proces odblokiran
  19:src/../h/PCB.h ****     bool isSemaphoreDeleted() const {
  20:src/../h/PCB.h ****         return semDeleted;
  21:src/../h/PCB.h ****     }
GAS LISTING /tmp/cc9m8ABL.s 			page 2


  22:src/../h/PCB.h **** 
  23:src/../h/PCB.h ****     size_t getTimeSleeping() const {
  24:src/../h/PCB.h ****         return timeSleeping;
  29              		.loc 2 24 9
  30              		.loc 2 24 16 is_stmt 0
  31 0014 83350503 		ld	a1,48(a0)
  32              	.LVL2:
  33              	.LBE46:
  34              	.LBE45:
  35              		.loc 1 8 43
  36 0018 13870500 		mv	a4,a1
   7:src/SleepingProcesses.cpp ****     size_t time = process->getTimeSleeping();
  37              		.loc 1 7 24
  38 001c 13060000 		li	a2,0
  39              	.LVL3:
  40              	.L3:
   9:src/SleepingProcesses.cpp ****     while(curr && curr->getTimeSleeping() < time) { // ako su iste vrednosti oba ce biti izvadjena
  41              		.loc 1 9 5 is_stmt 1
  42              		.loc 1 9 16
  43 0020 638E0700 		beqz	a5,.L2
  44              	.LVL4:
  45              	.LBB47:
  46              	.LBB48:
  47              		.loc 2 24 9
  48              		.loc 2 24 16 is_stmt 0
  49 0024 83B60703 		ld	a3,48(a5)
  50              	.LVL5:
  51              	.LBE48:
  52              	.LBE47:
  53              		.loc 1 9 16
  54 0028 63FAE600 		bleu	a4,a3,.L2
  10:src/SleepingProcesses.cpp ****         prev = curr;
  55              		.loc 1 10 9 is_stmt 1
  56              	.LVL6:
  11:src/SleepingProcesses.cpp ****         time -= curr->getTimeSleeping();
  57              		.loc 1 11 9
  58              		.loc 2 24 9
  59              		.loc 1 11 14 is_stmt 0
  60 002c 3307D740 		sub	a4,a4,a3
  61              	.LVL7:
  12:src/SleepingProcesses.cpp ****         curr = curr->getNextInList();
  62              		.loc 1 12 9 is_stmt 1
  63              	.LBB49:
  64              	.LBB50:
  25:src/../h/PCB.h ****     }
  26:src/../h/PCB.h **** 
  27:src/../h/PCB.h ****     void setTimeSleeping(size_t newTime) {
  28:src/../h/PCB.h ****         timeSleeping = newTime;
  29:src/../h/PCB.h ****     }
  30:src/../h/PCB.h **** 
  31:src/../h/PCB.h ****     PCB* getNextInList() const {
  32:src/../h/PCB.h ****         return nextInList;
  65              		.loc 2 32 9
  66              	.LBE50:
  67              	.LBE49:
  10:src/SleepingProcesses.cpp ****         time -= curr->getTimeSleeping();
  68              		.loc 1 10 14 is_stmt 0
GAS LISTING /tmp/cc9m8ABL.s 			page 3


  69 0030 13860700 		mv	a2,a5
  70              		.loc 1 12 35
  71 0034 83B70700 		ld	a5,0(a5)
  72              	.LVL8:
   9:src/SleepingProcesses.cpp ****         prev = curr;
  73              		.loc 1 9 5
  74 0038 6FF09FFE 		j	.L3
  75              	.L2:
  13:src/SleepingProcesses.cpp ****     }
  14:src/SleepingProcesses.cpp **** 
  15:src/SleepingProcesses.cpp ****     process->setBlocked(true); // postavljamo proces u blocked stanje
  76              		.loc 1 15 5 is_stmt 1 discriminator 4
  77              	.LVL9:
  78              	.LBB51:
  79              	.LBB52:
  33:src/../h/PCB.h ****     }
  34:src/../h/PCB.h **** 
  35:src/../h/PCB.h ****     void setNextInList(PCB* next) {
  36:src/../h/PCB.h ****         nextInList = next;
  37:src/../h/PCB.h ****     }
  38:src/../h/PCB.h **** 
  39:src/../h/PCB.h ****     void setBlocked(bool newState) {
  40:src/../h/PCB.h ****         blocked = newState;
  80              		.loc 2 40 9 discriminator 4
  81              		.loc 2 40 17 is_stmt 0 discriminator 4
  82 003c 93061000 		li	a3,1
  83 0040 A304D502 		sb	a3,41(a0)
  84              	.LVL10:
  85              	.LBE52:
  86              	.LBE51:
  16:src/SleepingProcesses.cpp ****     if(!prev) {
  87              		.loc 1 16 5 is_stmt 1 discriminator 4
  88 0044 63060602 		beqz	a2,.L7
  17:src/SleepingProcesses.cpp ****         head = process;
  18:src/SleepingProcesses.cpp ****         process->setNextInList(curr);
  19:src/SleepingProcesses.cpp ****         if(curr) {
  20:src/SleepingProcesses.cpp ****             curr->setTimeSleeping(curr->getTimeSleeping() - process->getTimeSleeping());
  21:src/SleepingProcesses.cpp ****         }
  22:src/SleepingProcesses.cpp ****     }
  23:src/SleepingProcesses.cpp ****     else {
  24:src/SleepingProcesses.cpp ****         prev->setNextInList(process);
  89              		.loc 1 24 9
  90              	.LVL11:
  91              	.LBB53:
  92              	.LBB54:
  36:src/../h/PCB.h ****     }
  93              		.loc 2 36 9
  36:src/../h/PCB.h ****     }
  94              		.loc 2 36 20 is_stmt 0
  95 0048 2330A600 		sd	a0,0(a2)
  96              	.LVL12:
  97              	.LBE54:
  98              	.LBE53:
  25:src/SleepingProcesses.cpp ****         // vrednost ce biti relativna u odnosu na prosli clan pa cemo moci da izbacimo samo prvih k
  26:src/SleepingProcesses.cpp ****         process->setTimeSleeping(time); // razlika izmedju tekuceg i proslog
  99              		.loc 1 26 9 is_stmt 1
 100              	.LBB55:
GAS LISTING /tmp/cc9m8ABL.s 			page 4


 101              	.LBB56:
  28:src/../h/PCB.h ****     }
 102              		.loc 2 28 9
  28:src/../h/PCB.h ****     }
 103              		.loc 2 28 22 is_stmt 0
 104 004c 2338E502 		sd	a4,48(a0)
 105              	.LVL13:
 106              	.LBE56:
 107              	.LBE55:
  27:src/SleepingProcesses.cpp ****         process->setNextInList(curr);
 108              		.loc 1 27 9 is_stmt 1
 109              	.LBB57:
 110              	.LBB58:
  36:src/../h/PCB.h ****     }
 111              		.loc 2 36 9
  36:src/../h/PCB.h ****     }
 112              		.loc 2 36 20 is_stmt 0
 113 0050 2330F500 		sd	a5,0(a0)
 114              	.LVL14:
 115              	.LBE58:
 116              	.LBE57:
  28:src/SleepingProcesses.cpp ****         if(curr) {
 117              		.loc 1 28 9 is_stmt 1
 118 0054 63880700 		beqz	a5,.L1
  29:src/SleepingProcesses.cpp ****             curr->setTimeSleeping(curr->getTimeSleeping() - process->getTimeSleeping());
 119              		.loc 1 29 13
 120              	.LVL15:
 121              	.LBB59:
 122              	.LBB60:
  24:src/../h/PCB.h ****     }
 123              		.loc 2 24 9
  24:src/../h/PCB.h ****     }
 124              		.loc 2 24 16 is_stmt 0
 125 0058 83B60703 		ld	a3,48(a5)
 126              	.LVL16:
 127              	.LBE60:
 128              	.LBE59:
  24:src/../h/PCB.h ****     }
 129              		.loc 2 24 9 is_stmt 1
 130              		.loc 1 29 34 is_stmt 0
 131 005c 3387E640 		sub	a4,a3,a4
 132              	.LVL17:
 133              	.LBB61:
 134              	.LBB62:
  28:src/../h/PCB.h ****     }
 135              		.loc 2 28 9 is_stmt 1
  28:src/../h/PCB.h ****     }
 136              		.loc 2 28 22 is_stmt 0
 137 0060 23B8E702 		sd	a4,48(a5)
 138              	.LVL18:
 139              	.L1:
 140              	.LBE62:
 141              	.LBE61:
  30:src/SleepingProcesses.cpp ****         }
  31:src/SleepingProcesses.cpp ****     }
  32:src/SleepingProcesses.cpp **** }
 142              		.loc 1 32 1
GAS LISTING /tmp/cc9m8ABL.s 			page 5


 143 0064 03348100 		ld	s0,8(sp)
 144              		.cfi_remember_state
 145              		.cfi_restore 8
 146              		.cfi_def_cfa 2, 16
 147 0068 13010101 		addi	sp,sp,16
 148              		.cfi_def_cfa_offset 0
 149 006c 67800000 		jr	ra
 150              	.LVL19:
 151              	.L7:
 152              		.cfi_restore_state
  17:src/SleepingProcesses.cpp ****         process->setNextInList(curr);
 153              		.loc 1 17 9 is_stmt 1
  17:src/SleepingProcesses.cpp ****         process->setNextInList(curr);
 154              		.loc 1 17 14 is_stmt 0
 155 0070 17070000 		sd	a0,.LANCHOR0,a4
 155      2330A700 
 156              	.LVL20:
  18:src/SleepingProcesses.cpp ****         if(curr) {
 157              		.loc 1 18 9 is_stmt 1
 158              	.LBB63:
 159              	.LBB64:
  36:src/../h/PCB.h ****     }
 160              		.loc 2 36 9
  36:src/../h/PCB.h ****     }
 161              		.loc 2 36 20 is_stmt 0
 162 0078 2330F500 		sd	a5,0(a0)
 163              	.LVL21:
 164              	.LBE64:
 165              	.LBE63:
  19:src/SleepingProcesses.cpp ****             curr->setTimeSleeping(curr->getTimeSleeping() - process->getTimeSleeping());
 166              		.loc 1 19 9 is_stmt 1
 167 007c E38407FE 		beqz	a5,.L1
  20:src/SleepingProcesses.cpp ****         }
 168              		.loc 1 20 13
 169              	.LVL22:
 170              	.LBB65:
 171              	.LBB66:
  24:src/../h/PCB.h ****     }
 172              		.loc 2 24 9
  24:src/../h/PCB.h ****     }
 173              		.loc 2 24 16 is_stmt 0
 174 0080 03B70703 		ld	a4,48(a5)
 175              	.LVL23:
 176              	.LBE66:
 177              	.LBE65:
  24:src/../h/PCB.h ****     }
 178              		.loc 2 24 9 is_stmt 1
  20:src/SleepingProcesses.cpp ****         }
 179              		.loc 1 20 34 is_stmt 0
 180 0084 B305B740 		sub	a1,a4,a1
 181              	.LVL24:
 182              	.LBB67:
 183              	.LBB68:
  28:src/../h/PCB.h ****     }
 184              		.loc 2 28 9 is_stmt 1
  28:src/../h/PCB.h ****     }
 185              		.loc 2 28 22 is_stmt 0
GAS LISTING /tmp/cc9m8ABL.s 			page 6


 186 0088 23B8B702 		sd	a1,48(a5)
  29:src/../h/PCB.h **** 
 187              		.loc 2 29 5
 188 008c 6FF09FFD 		j	.L1
 189              	.LBE68:
 190              	.LBE67:
 191              		.cfi_endproc
 192              	.LFE9:
 194              		.align	2
 195              		.globl	_ZN17SleepingProcesses6wakeUpEv
 197              	_ZN17SleepingProcesses6wakeUpEv:
 198              	.LFB10:
  33:src/SleepingProcesses.cpp **** 
  34:src/SleepingProcesses.cpp **** void SleepingProcesses::wakeUp() {
 199              		.loc 1 34 34 is_stmt 1
 200              		.cfi_startproc
  35:src/SleepingProcesses.cpp ****     if(!head) return;
 201              		.loc 1 35 5
 202              		.loc 1 35 8 is_stmt 0
 203 0090 17050000 		ld	a0,.LANCHOR0
 203      03350500 
 204              		.loc 1 35 5
 205 0098 63000508 		beqz	a0,.L13
  36:src/SleepingProcesses.cpp **** 
  37:src/SleepingProcesses.cpp ****     head->setTimeSleeping(head->getTimeSleeping()-1); // smanjuje periodu cekanja
 206              		.loc 1 37 5 is_stmt 1
 207              	.LVL25:
 208              	.LBB69:
 209              	.LBB70:
  24:src/../h/PCB.h ****     }
 210              		.loc 2 24 9
  24:src/../h/PCB.h ****     }
 211              		.loc 2 24 16 is_stmt 0
 212 009c 83370503 		ld	a5,48(a0)
 213              	.LVL26:
 214              	.LBE70:
 215              	.LBE69:
 216              		.loc 1 37 26
 217 00a0 9387F7FF 		addi	a5,a5,-1
 218              	.LVL27:
 219              	.LBB71:
 220              	.LBB72:
  28:src/../h/PCB.h ****     }
 221              		.loc 2 28 9 is_stmt 1
  28:src/../h/PCB.h ****     }
 222              		.loc 2 28 22 is_stmt 0
 223 00a4 2338F502 		sd	a5,48(a0)
 224              	.LVL28:
 225              	.LBE72:
 226              	.LBE71:
  38:src/SleepingProcesses.cpp ****     PCB* curr = head;
 227              		.loc 1 38 5 is_stmt 1
  39:src/SleepingProcesses.cpp ****     while(curr && curr->getTimeSleeping() == 0) {
 228              		.loc 1 39 5
 229              		.loc 1 39 16
 230 00a8 63020506 		beqz	a0,.L16
 231              	.LVL29:
GAS LISTING /tmp/cc9m8ABL.s 			page 7


 232              	.LBB73:
 233              	.LBB74:
  24:src/../h/PCB.h ****     }
 234              		.loc 2 24 9
  24:src/../h/PCB.h ****     }
 235              		.loc 2 24 16 is_stmt 0
 236 00ac 83370503 		ld	a5,48(a0)
 237              	.LVL30:
 238              	.LBE74:
 239              	.LBE73:
 240              		.loc 1 39 16
 241 00b0 639E0704 		bnez	a5,.L16
  34:src/SleepingProcesses.cpp ****     if(!head) return;
 242              		.loc 1 34 34
 243 00b4 130101FE 		addi	sp,sp,-32
 244              		.cfi_def_cfa_offset 32
 245 00b8 233C1100 		sd	ra,24(sp)
 246 00bc 23388100 		sd	s0,16(sp)
 247 00c0 23349100 		sd	s1,8(sp)
 248              		.cfi_offset 1, -8
 249              		.cfi_offset 8, -16
 250              		.cfi_offset 9, -24
 251 00c4 13040102 		addi	s0,sp,32
 252              		.cfi_def_cfa 8, 0
 253 00c8 6F00C000 		j	.L17
 254              	.LVL31:
 255              	.L20:
 256              	.LBB76:
 257              	.LBB75:
  24:src/../h/PCB.h ****     }
 258              		.loc 2 24 9 is_stmt 1
  24:src/../h/PCB.h ****     }
 259              		.loc 2 24 16 is_stmt 0
 260 00cc 83B70403 		ld	a5,48(s1)
 261              	.LVL32:
 262              	.LBE75:
 263              	.LBE76:
 264              		.loc 1 39 16
 265 00d0 63900702 		bnez	a5,.L10
 266              	.LVL33:
 267              	.L17:
 268              	.LBB77:
  40:src/SleepingProcesses.cpp ****         PCB* process = curr;
 269              		.loc 1 40 9 is_stmt 1
  41:src/SleepingProcesses.cpp ****         curr = curr->getNextInList();
 270              		.loc 1 41 9
 271              	.LBB78:
 272              	.LBB79:
  32:src/../h/PCB.h ****     }
 273              		.loc 2 32 9
  32:src/../h/PCB.h ****     }
 274              		.loc 2 32 16 is_stmt 0
 275 00d4 83340500 		ld	s1,0(a0)
 276              	.LVL34:
 277              	.LBE79:
 278              	.LBE78:
  42:src/SleepingProcesses.cpp ****         process->setNextInList(nullptr);
GAS LISTING /tmp/cc9m8ABL.s 			page 8


 279              		.loc 1 42 9 is_stmt 1
 280              	.LBB80:
 281              	.LBB81:
  36:src/../h/PCB.h ****     }
 282              		.loc 2 36 9
  36:src/../h/PCB.h ****     }
 283              		.loc 2 36 20 is_stmt 0
 284 00d8 23300500 		sd	zero,0(a0)
 285              	.LVL35:
 286              	.LBE81:
 287              	.LBE80:
  43:src/SleepingProcesses.cpp ****         process->setBlocked(false);
 288              		.loc 1 43 9 is_stmt 1
 289              	.LBB82:
 290              	.LBB83:
 291              		.loc 2 40 9
 292              		.loc 2 40 17 is_stmt 0
 293 00dc A3040502 		sb	zero,41(a0)
 294              	.LVL36:
 295              	.LBE83:
 296              	.LBE82:
  44:src/SleepingProcesses.cpp **** 
  45:src/SleepingProcesses.cpp ****         Scheduler::put(process);
 297              		.loc 1 45 9 is_stmt 1
 298              		.loc 1 45 23 is_stmt 0
 299 00e0 97000000 		call	_ZN9Scheduler3putEP3PCB@plt
 299      E7800000 
 300              	.LVL37:
  41:src/SleepingProcesses.cpp ****         process->setNextInList(nullptr);
 301              		.loc 1 41 35
 302 00e8 13850400 		mv	a0,s1
 303              	.LBE77:
  39:src/SleepingProcesses.cpp ****         PCB* process = curr;
 304              		.loc 1 39 5 is_stmt 1
  39:src/SleepingProcesses.cpp ****         PCB* process = curr;
 305              		.loc 1 39 16
 306 00ec E39004FE 		bnez	s1,.L20
 307              	.L10:
  46:src/SleepingProcesses.cpp ****     }
  47:src/SleepingProcesses.cpp **** 
  48:src/SleepingProcesses.cpp ****     head = curr;
 308              		.loc 1 48 5 discriminator 4
 309              		.loc 1 48 10 is_stmt 0 discriminator 4
 310 00f0 97070000 		sd	a0,.LANCHOR0,a5
 310      23B0A700 
  49:src/SleepingProcesses.cpp **** }
 311              		.loc 1 49 1 discriminator 4
 312 00f8 83308101 		ld	ra,24(sp)
 313              		.cfi_restore 1
 314 00fc 03340101 		ld	s0,16(sp)
 315              		.cfi_restore 8
 316              		.cfi_def_cfa 2, 32
 317 0100 83348100 		ld	s1,8(sp)
 318              		.cfi_restore 9
 319              	.LVL38:
 320 0104 13010102 		addi	sp,sp,32
 321              		.cfi_def_cfa_offset 0
GAS LISTING /tmp/cc9m8ABL.s 			page 9


 322 0108 67800000 		jr	ra
 323              	.L16:
  48:src/SleepingProcesses.cpp **** }
 324              		.loc 1 48 5 is_stmt 1
  48:src/SleepingProcesses.cpp **** }
 325              		.loc 1 48 10 is_stmt 0
 326 010c 97070000 		sd	a0,.LANCHOR0,a5
 326      23B0A700 
 327 0114 67800000 		ret
 328              	.LVL39:
 329              	.L13:
 330 0118 67800000 		ret
 331              		.cfi_endproc
 332              	.LFE10:
 334              		.globl	_ZN17SleepingProcesses4headE
 335              		.bss
 336              		.align	3
 337              		.set	.LANCHOR0,. + 0
 340              	_ZN17SleepingProcesses4headE:
 341 0000 00000000 		.zero	8
 341      00000000 
 342              		.text
 343              	.Letext0:
 344              		.file 3 "src/../h/hw.h"
 345              		.file 4 "src/../h/SleepingProcesses.h"
 346              		.file 5 "src/../h/Scheduler.h"
GAS LISTING /tmp/cc9m8ABL.s 			page 10


DEFINED SYMBOLS
                            *ABS*:0000000000000000 SleepingProcesses.cpp
     /tmp/cc9m8ABL.s:9      .text:0000000000000000 _ZN17SleepingProcesses10putToSleepEP3PCB
     /tmp/cc9m8ABL.s:13     .text:0000000000000000 .L0 
     /tmp/cc9m8ABL.s:15     .text:0000000000000000 .L0 
     /tmp/cc9m8ABL.s:16     .text:0000000000000004 .L0 
     /tmp/cc9m8ABL.s:18     .text:0000000000000008 .L0 
     /tmp/cc9m8ABL.s:20     .text:000000000000000c .L0 
     /tmp/cc9m8ABL.s:22     .text:000000000000000c .L0 
     /tmp/cc9m8ABL.s:23     .text:000000000000000c .L0 
     /tmp/cc9m8ABL.s:29     .text:0000000000000014 .L0 
     /tmp/cc9m8ABL.s:30     .text:0000000000000014 .L0 
     /tmp/cc9m8ABL.s:31     .text:0000000000000014 .L0 
     /tmp/cc9m8ABL.s:36     .text:0000000000000018 .L0 
     /tmp/cc9m8ABL.s:38     .text:000000000000001c .L0 
     /tmp/cc9m8ABL.s:42     .text:0000000000000020 .L0 
     /tmp/cc9m8ABL.s:43     .text:0000000000000020 .L0 
     /tmp/cc9m8ABL.s:48     .text:0000000000000024 .L0 
     /tmp/cc9m8ABL.s:49     .text:0000000000000024 .L0 
     /tmp/cc9m8ABL.s:54     .text:0000000000000028 .L0 
     /tmp/cc9m8ABL.s:57     .text:000000000000002c .L0 
     /tmp/cc9m8ABL.s:58     .text:000000000000002c .L0 
     /tmp/cc9m8ABL.s:59     .text:000000000000002c .L0 
     /tmp/cc9m8ABL.s:60     .text:000000000000002c .L0 
     /tmp/cc9m8ABL.s:65     .text:0000000000000030 .L0 
     /tmp/cc9m8ABL.s:68     .text:0000000000000030 .L0 
     /tmp/cc9m8ABL.s:69     .text:0000000000000030 .L0 
     /tmp/cc9m8ABL.s:71     .text:0000000000000034 .L0 
     /tmp/cc9m8ABL.s:74     .text:0000000000000038 .L0 
     /tmp/cc9m8ABL.s:80     .text:000000000000003c .L0 
     /tmp/cc9m8ABL.s:81     .text:000000000000003c .L0 
     /tmp/cc9m8ABL.s:82     .text:000000000000003c .L0 
     /tmp/cc9m8ABL.s:88     .text:0000000000000044 .L0 
     /tmp/cc9m8ABL.s:93     .text:0000000000000048 .L0 
     /tmp/cc9m8ABL.s:94     .text:0000000000000048 .L0 
     /tmp/cc9m8ABL.s:95     .text:0000000000000048 .L0 
     /tmp/cc9m8ABL.s:102    .text:000000000000004c .L0 
     /tmp/cc9m8ABL.s:103    .text:000000000000004c .L0 
     /tmp/cc9m8ABL.s:104    .text:000000000000004c .L0 
     /tmp/cc9m8ABL.s:111    .text:0000000000000050 .L0 
     /tmp/cc9m8ABL.s:112    .text:0000000000000050 .L0 
     /tmp/cc9m8ABL.s:113    .text:0000000000000050 .L0 
     /tmp/cc9m8ABL.s:118    .text:0000000000000054 .L0 
     /tmp/cc9m8ABL.s:123    .text:0000000000000058 .L0 
     /tmp/cc9m8ABL.s:124    .text:0000000000000058 .L0 
     /tmp/cc9m8ABL.s:125    .text:0000000000000058 .L0 
     /tmp/cc9m8ABL.s:130    .text:000000000000005c .L0 
     /tmp/cc9m8ABL.s:131    .text:000000000000005c .L0 
     /tmp/cc9m8ABL.s:136    .text:0000000000000060 .L0 
     /tmp/cc9m8ABL.s:137    .text:0000000000000060 .L0 
     /tmp/cc9m8ABL.s:143    .text:0000000000000064 .L0 
     /tmp/cc9m8ABL.s:144    .text:0000000000000068 .L0 
     /tmp/cc9m8ABL.s:145    .text:0000000000000068 .L0 
     /tmp/cc9m8ABL.s:146    .text:0000000000000068 .L0 
     /tmp/cc9m8ABL.s:148    .text:000000000000006c .L0 
     /tmp/cc9m8ABL.s:152    .text:0000000000000070 .L0 
     /tmp/cc9m8ABL.s:154    .text:0000000000000070 .L0 
GAS LISTING /tmp/cc9m8ABL.s 			page 11


     /tmp/cc9m8ABL.s:155    .text:0000000000000070 .L0 
     /tmp/cc9m8ABL.s:160    .text:0000000000000078 .L0 
     /tmp/cc9m8ABL.s:161    .text:0000000000000078 .L0 
     /tmp/cc9m8ABL.s:162    .text:0000000000000078 .L0 
     /tmp/cc9m8ABL.s:167    .text:000000000000007c .L0 
     /tmp/cc9m8ABL.s:172    .text:0000000000000080 .L0 
     /tmp/cc9m8ABL.s:173    .text:0000000000000080 .L0 
     /tmp/cc9m8ABL.s:174    .text:0000000000000080 .L0 
     /tmp/cc9m8ABL.s:179    .text:0000000000000084 .L0 
     /tmp/cc9m8ABL.s:180    .text:0000000000000084 .L0 
     /tmp/cc9m8ABL.s:185    .text:0000000000000088 .L0 
     /tmp/cc9m8ABL.s:186    .text:0000000000000088 .L0 
     /tmp/cc9m8ABL.s:188    .text:000000000000008c .L0 
     /tmp/cc9m8ABL.s:191    .text:0000000000000090 .L0 
     /tmp/cc9m8ABL.s:197    .text:0000000000000090 _ZN17SleepingProcesses6wakeUpEv
     /tmp/cc9m8ABL.s:200    .text:0000000000000090 .L0 
     /tmp/cc9m8ABL.s:201    .text:0000000000000090 .L0 
     /tmp/cc9m8ABL.s:202    .text:0000000000000090 .L0 
     /tmp/cc9m8ABL.s:203    .text:0000000000000090 .L0 
     /tmp/cc9m8ABL.s:205    .text:0000000000000098 .L0 
     /tmp/cc9m8ABL.s:210    .text:000000000000009c .L0 
     /tmp/cc9m8ABL.s:211    .text:000000000000009c .L0 
     /tmp/cc9m8ABL.s:212    .text:000000000000009c .L0 
     /tmp/cc9m8ABL.s:217    .text:00000000000000a0 .L0 
     /tmp/cc9m8ABL.s:222    .text:00000000000000a4 .L0 
     /tmp/cc9m8ABL.s:223    .text:00000000000000a4 .L0 
     /tmp/cc9m8ABL.s:228    .text:00000000000000a8 .L0 
     /tmp/cc9m8ABL.s:229    .text:00000000000000a8 .L0 
     /tmp/cc9m8ABL.s:230    .text:00000000000000a8 .L0 
     /tmp/cc9m8ABL.s:235    .text:00000000000000ac .L0 
     /tmp/cc9m8ABL.s:236    .text:00000000000000ac .L0 
     /tmp/cc9m8ABL.s:241    .text:00000000000000b0 .L0 
     /tmp/cc9m8ABL.s:243    .text:00000000000000b4 .L0 
     /tmp/cc9m8ABL.s:244    .text:00000000000000b8 .L0 
     /tmp/cc9m8ABL.s:248    .text:00000000000000c4 .L0 
     /tmp/cc9m8ABL.s:249    .text:00000000000000c4 .L0 
     /tmp/cc9m8ABL.s:250    .text:00000000000000c4 .L0 
     /tmp/cc9m8ABL.s:252    .text:00000000000000c8 .L0 
     /tmp/cc9m8ABL.s:259    .text:00000000000000cc .L0 
     /tmp/cc9m8ABL.s:260    .text:00000000000000cc .L0 
     /tmp/cc9m8ABL.s:265    .text:00000000000000d0 .L0 
     /tmp/cc9m8ABL.s:270    .text:00000000000000d4 .L0 
     /tmp/cc9m8ABL.s:273    .text:00000000000000d4 .L0 
     /tmp/cc9m8ABL.s:274    .text:00000000000000d4 .L0 
     /tmp/cc9m8ABL.s:275    .text:00000000000000d4 .L0 
     /tmp/cc9m8ABL.s:282    .text:00000000000000d8 .L0 
     /tmp/cc9m8ABL.s:283    .text:00000000000000d8 .L0 
     /tmp/cc9m8ABL.s:284    .text:00000000000000d8 .L0 
     /tmp/cc9m8ABL.s:291    .text:00000000000000dc .L0 
     /tmp/cc9m8ABL.s:292    .text:00000000000000dc .L0 
     /tmp/cc9m8ABL.s:293    .text:00000000000000dc .L0 
     /tmp/cc9m8ABL.s:298    .text:00000000000000e0 .L0 
     /tmp/cc9m8ABL.s:299    .text:00000000000000e0 .L0 
     /tmp/cc9m8ABL.s:302    .text:00000000000000e8 .L0 
     /tmp/cc9m8ABL.s:305    .text:00000000000000ec .L0 
     /tmp/cc9m8ABL.s:306    .text:00000000000000ec .L0 
     /tmp/cc9m8ABL.s:309    .text:00000000000000f0 .L0 
GAS LISTING /tmp/cc9m8ABL.s 			page 12


     /tmp/cc9m8ABL.s:310    .text:00000000000000f0 .L0 
     /tmp/cc9m8ABL.s:312    .text:00000000000000f8 .L0 
     /tmp/cc9m8ABL.s:313    .text:00000000000000fc .L0 
     /tmp/cc9m8ABL.s:315    .text:0000000000000100 .L0 
     /tmp/cc9m8ABL.s:316    .text:0000000000000100 .L0 
     /tmp/cc9m8ABL.s:318    .text:0000000000000104 .L0 
     /tmp/cc9m8ABL.s:321    .text:0000000000000108 .L0 
     /tmp/cc9m8ABL.s:325    .text:000000000000010c .L0 
     /tmp/cc9m8ABL.s:326    .text:000000000000010c .L0 
     /tmp/cc9m8ABL.s:331    .text:000000000000011c .L0 
     /tmp/cc9m8ABL.s:340    .bss:0000000000000000 _ZN17SleepingProcesses4headE
     /tmp/cc9m8ABL.s:337    .bss:0000000000000000 .LANCHOR0
     /tmp/cc9m8ABL.s:347    .text:000000000000011c .L0 
     /tmp/cc9m8ABL.s:23     .text:000000000000000c .L0 
     /tmp/cc9m8ABL.s:155    .text:0000000000000070 .L0 
     /tmp/cc9m8ABL.s:203    .text:0000000000000090 .L0 
     /tmp/cc9m8ABL.s:310    .text:00000000000000f0 .L0 
     /tmp/cc9m8ABL.s:326    .text:000000000000010c .L0 
     /tmp/cc9m8ABL.s:75     .text:000000000000003c .L2
     /tmp/cc9m8ABL.s:40     .text:0000000000000020 .L3
     /tmp/cc9m8ABL.s:151    .text:0000000000000070 .L7
     /tmp/cc9m8ABL.s:139    .text:0000000000000064 .L1
     /tmp/cc9m8ABL.s:329    .text:0000000000000118 .L13
     /tmp/cc9m8ABL.s:323    .text:000000000000010c .L16
     /tmp/cc9m8ABL.s:267    .text:00000000000000d4 .L17
     /tmp/cc9m8ABL.s:307    .text:00000000000000f0 .L10
     /tmp/cc9m8ABL.s:255    .text:00000000000000cc .L20
     /tmp/cc9m8ABL.s:1367   .debug_abbrev:0000000000000000 .Ldebug_abbrev0
     /tmp/cc9m8ABL.s:2596   .debug_str:0000000000000535 .LASF93
     /tmp/cc9m8ABL.s:2486   .debug_str:00000000000001b3 .LASF94
     /tmp/cc9m8ABL.s:2614   .debug_str:0000000000000666 .LASF95
     /tmp/cc9m8ABL.s:5      .text:0000000000000000 .Ltext0
     /tmp/cc9m8ABL.s:343    .text:000000000000011c .Letext0
     /tmp/cc9m8ABL.s:2426   .debug_line:0000000000000000 .Ldebug_line0
     /tmp/cc9m8ABL.s:2538   .debug_str:0000000000000399 .LASF0
     /tmp/cc9m8ABL.s:2548   .debug_str:00000000000003cc .LASF1
     /tmp/cc9m8ABL.s:2518   .debug_str:00000000000002cb .LASF2
     /tmp/cc9m8ABL.s:2502   .debug_str:0000000000000244 .LASF4
     /tmp/cc9m8ABL.s:2582   .debug_str:00000000000004cd .LASF3
     /tmp/cc9m8ABL.s:2442   .debug_str:0000000000000065 .LASF5
     /tmp/cc9m8ABL.s:2472   .debug_str:000000000000013e .LASF6
     /tmp/cc9m8ABL.s:2550   .debug_str:00000000000003df .LASF7
     /tmp/cc9m8ABL.s:2536   .debug_str:0000000000000386 .LASF8
     /tmp/cc9m8ABL.s:2604   .debug_str:000000000000061e .LASF9
     /tmp/cc9m8ABL.s:2494   .debug_str:00000000000001f3 .LASF10
     /tmp/cc9m8ABL.s:2562   .debug_str:000000000000042f .LASF11
     /tmp/cc9m8ABL.s:2598   .debug_str:00000000000005f9 .LASF12
     /tmp/cc9m8ABL.s:2446   .debug_str:0000000000000084 .LASF13
     /tmp/cc9m8ABL.s:2430   .debug_str:0000000000000008 .LASF14
     /tmp/cc9m8ABL.s:2452   .debug_str:00000000000000ae .LASF15
     /tmp/cc9m8ABL.s:2578   .debug_str:000000000000049c .LASF16
     /tmp/cc9m8ABL.s:2466   .debug_str:0000000000000108 .LASF17
     /tmp/cc9m8ABL.s:2552   .debug_str:00000000000003f2 .LASF18
     /tmp/cc9m8ABL.s:2554   .debug_str:00000000000003fd .LASF20
     /tmp/cc9m8ABL.s:2570   .debug_str:0000000000000467 .LASF19
     /tmp/cc9m8ABL.s:2480   .debug_str:0000000000000183 .LASF21
     /tmp/cc9m8ABL.s:2610   .debug_str:0000000000000649 .LASF22
GAS LISTING /tmp/cc9m8ABL.s 			page 13


     /tmp/cc9m8ABL.s:2496   .debug_str:0000000000000201 .LASF23
     /tmp/cc9m8ABL.s:2516   .debug_str:00000000000002bb .LASF26
     /tmp/cc9m8ABL.s:2580   .debug_str:00000000000004b2 .LASF28
     /tmp/cc9m8ABL.s:2594   .debug_str:0000000000000527 .LASF24
     /tmp/cc9m8ABL.s:2478   .debug_str:0000000000000169 .LASF25
     /tmp/cc9m8ABL.s:2626   .debug_str:00000000000006c5 .LASF27
     /tmp/cc9m8ABL.s:2436   .debug_str:0000000000000036 .LASF29
     /tmp/cc9m8ABL.s:2432   .debug_str:0000000000000018 .LASF30
     /tmp/cc9m8ABL.s:2566   .debug_str:0000000000000443 .LASF31
     /tmp/cc9m8ABL.s:2568   .debug_str:0000000000000459 .LASF32
     /tmp/cc9m8ABL.s:2492   .debug_str:00000000000001da .LASF33
     /tmp/cc9m8ABL.s:2602   .debug_str:0000000000000611 .LASF34
     /tmp/cc9m8ABL.s:2510   .debug_str:0000000000000280 .LASF35
     /tmp/cc9m8ABL.s:2458   .debug_str:00000000000000e2 .LASF36
     /tmp/cc9m8ABL.s:2620   .debug_str:0000000000000695 .LASF37
     /tmp/cc9m8ABL.s:2560   .debug_str:0000000000000423 .LASF96
     /tmp/cc9m8ABL.s:2522   .debug_str:00000000000002f6 .LASF71
     /tmp/cc9m8ABL.s:2606   .debug_str:000000000000062e .LASF73
     /tmp/cc9m8ABL.s:2482   .debug_str:00000000000001a2 .LASF78
     /tmp/cc9m8ABL.s:2576   .debug_str:0000000000000497 .LASF38
     /tmp/cc9m8ABL.s:2530   .debug_str:0000000000000341 .LASF39
     /tmp/cc9m8ABL.s:2612   .debug_str:0000000000000659 .LASF40
     /tmp/cc9m8ABL.s:2504   .debug_str:000000000000024b .LASF41
     /tmp/cc9m8ABL.s:2590   .debug_str:000000000000050a .LASF42
     /tmp/cc9m8ABL.s:2592   .debug_str:000000000000051a .LASF69
     /tmp/cc9m8ABL.s:2450   .debug_str:00000000000000a3 .LASF84
     /tmp/cc9m8ABL.s:2474   .debug_str:0000000000000145 .LASF97
     /tmp/cc9m8ABL.s:2434   .debug_str:0000000000000023 .LASF80
     /tmp/cc9m8ABL.s:2622   .debug_str:00000000000006b5 .LASF43
     /tmp/cc9m8ABL.s:2542   .debug_str:00000000000003af .LASF44
     /tmp/cc9m8ABL.s:2600   .debug_str:0000000000000608 .LASF45
     /tmp/cc9m8ABL.s:2454   .debug_str:00000000000000ba .LASF46
     /tmp/cc9m8ABL.s:2556   .debug_str:0000000000000414 .LASF47
     /tmp/cc9m8ABL.s:2506   .debug_str:0000000000000257 .LASF48
     /tmp/cc9m8ABL.s:2428   .debug_str:0000000000000000 .LASF49
     /tmp/cc9m8ABL.s:2464   .debug_str:00000000000000fd .LASF50
     /tmp/cc9m8ABL.s:2546   .debug_str:00000000000003bf .LASF51
     /tmp/cc9m8ABL.s:2476   .debug_str:000000000000015b .LASF52
     /tmp/cc9m8ABL.s:2544   .debug_str:00000000000003b5 .LASF53
     /tmp/cc9m8ABL.s:2584   .debug_str:00000000000004df .LASF66
     /tmp/cc9m8ABL.s:2540   .debug_str:00000000000003a6 .LASF59
     /tmp/cc9m8ABL.s:2498   .debug_str:000000000000021d .LASF61
     /tmp/cc9m8ABL.s:2440   .debug_str:0000000000000056 .LASF54
     /tmp/cc9m8ABL.s:2456   .debug_str:00000000000000c4 .LASF56
     /tmp/cc9m8ABL.s:2448   .debug_str:0000000000000094 .LASF55
     /tmp/cc9m8ABL.s:2512   .debug_str:0000000000000298 .LASF57
     /tmp/cc9m8ABL.s:2524   .debug_str:00000000000002fc .LASF58
     /tmp/cc9m8ABL.s:2534   .debug_str:0000000000000376 .LASF60
     /tmp/cc9m8ABL.s:2528   .debug_str:0000000000000326 .LASF62
     /tmp/cc9m8ABL.s:2488   .debug_str:00000000000001cd .LASF63
     /tmp/cc9m8ABL.s:2572   .debug_str:000000000000047a .LASF64
     /tmp/cc9m8ABL.s:2468   .debug_str:000000000000011e .LASF65
     /tmp/cc9m8ABL.s:2470   .debug_str:0000000000000139 .LASF67
     /tmp/cc9m8ABL.s:2608   .debug_str:000000000000063e .LASF68
     /tmp/cc9m8ABL.s:2532   .debug_str:000000000000034d .LASF70
     /tmp/cc9m8ABL.s:2462   .debug_str:00000000000000f6 .LASF72
     /tmp/cc9m8ABL.s:2508   .debug_str:0000000000000260 .LASF74
GAS LISTING /tmp/cc9m8ABL.s 			page 14


     /tmp/cc9m8ABL.s:2558   .debug_str:0000000000000419 .LASF75
     /tmp/cc9m8ABL.s:2514   .debug_str:00000000000002b6 .LASF76
     /tmp/cc9m8ABL.s:2586   .debug_str:00000000000004f0 .LASF77
     /tmp/cc9m8ABL.s:2616   .debug_str:0000000000000684 .LASF79
     /tmp/cc9m8ABL.s:2444   .debug_str:000000000000006c .LASF81
     /tmp/cc9m8ABL.s:2574   .debug_str:000000000000048c .LASF82
     /tmp/cc9m8ABL.s:2526   .debug_str:0000000000000306 .LASF83
     /tmp/cc9m8ABL.s:2500   .debug_str:0000000000000230 .LASF98
     /tmp/cc9m8ABL.s:2520   .debug_str:00000000000002d9 .LASF99
     /tmp/cc9m8ABL.s:198    .text:0000000000000090 .LFB10
     /tmp/cc9m8ABL.s:332    .text:000000000000011c .LFE10
     /tmp/cc9m8ABL.s:2564   .debug_str:000000000000043e .LASF85
     /tmp/cc9m8ABL.s:2137   .debug_loc:0000000000000000 .LLST19
     /tmp/cc9m8ABL.s:268    .text:00000000000000d4 .LBB77
     /tmp/cc9m8ABL.s:303    .text:00000000000000ec .LBE77
     /tmp/cc9m8ABL.s:2490   .debug_str:00000000000001d2 .LASF86
     /tmp/cc9m8ABL.s:2160   .debug_loc:000000000000006f .LLST24
     /tmp/cc9m8ABL.s:271    .text:00000000000000d4 .LBB78
     /tmp/cc9m8ABL.s:278    .text:00000000000000d8 .LBE78
     /tmp/cc9m8ABL.s:2167   .debug_loc:0000000000000092 .LLST25
     /tmp/cc9m8ABL.s:280    .text:00000000000000d8 .LBB80
     /tmp/cc9m8ABL.s:287    .text:00000000000000dc .LBE80
     /tmp/cc9m8ABL.s:2174   .debug_loc:00000000000000b5 .LLST26
     /tmp/cc9m8ABL.s:2182   .debug_loc:00000000000000d9 .LLST27
     /tmp/cc9m8ABL.s:289    .text:00000000000000dc .LBB82
     /tmp/cc9m8ABL.s:296    .text:00000000000000e0 .LBE82
     /tmp/cc9m8ABL.s:2189   .debug_loc:00000000000000fc .LLST28
     /tmp/cc9m8ABL.s:2197   .debug_loc:0000000000000120 .LLST29
     /tmp/cc9m8ABL.s:300    .text:00000000000000e8 .LVL37
     /tmp/cc9m8ABL.s:208    .text:000000000000009c .LBB69
     /tmp/cc9m8ABL.s:215    .text:00000000000000a0 .LBE69
     /tmp/cc9m8ABL.s:2204   .debug_loc:0000000000000143 .LLST20
     /tmp/cc9m8ABL.s:219    .text:00000000000000a4 .LBB71
     /tmp/cc9m8ABL.s:226    .text:00000000000000a8 .LBE71
     /tmp/cc9m8ABL.s:2211   .debug_loc:0000000000000166 .LLST21
     /tmp/cc9m8ABL.s:2218   .debug_loc:0000000000000189 .LLST22
     /tmp/cc9m8ABL.s:232    .text:00000000000000ac .LBB73
     /tmp/cc9m8ABL.s:2418   .debug_ranges:0000000000000000 .Ldebug_ranges0
     /tmp/cc9m8ABL.s:2225   .debug_loc:00000000000001ac .LLST23
     /tmp/cc9m8ABL.s:10     .text:0000000000000000 .LFB9
     /tmp/cc9m8ABL.s:192    .text:0000000000000090 .LFE9
     /tmp/cc9m8ABL.s:2236   .debug_loc:00000000000001e2 .LLST0
     /tmp/cc9m8ABL.s:2438   .debug_str:0000000000000051 .LASF87
     /tmp/cc9m8ABL.s:2252   .debug_loc:000000000000022c .LLST1
     /tmp/cc9m8ABL.s:2460   .debug_str:00000000000000f1 .LASF88
     /tmp/cc9m8ABL.s:2272   .debug_loc:0000000000000289 .LLST2
     /tmp/cc9m8ABL.s:26     .text:0000000000000014 .LBB45
     /tmp/cc9m8ABL.s:34     .text:0000000000000018 .LBE45
     /tmp/cc9m8ABL.s:2292   .debug_loc:00000000000002e6 .LLST3
     /tmp/cc9m8ABL.s:45     .text:0000000000000024 .LBB47
     /tmp/cc9m8ABL.s:52     .text:0000000000000028 .LBE47
     /tmp/cc9m8ABL.s:2299   .debug_loc:0000000000000309 .LLST4
     /tmp/cc9m8ABL.s:63     .text:0000000000000030 .LBB49
     /tmp/cc9m8ABL.s:67     .text:0000000000000030 .LBE49
     /tmp/cc9m8ABL.s:78     .text:000000000000003c .LBB51
     /tmp/cc9m8ABL.s:86     .text:0000000000000044 .LBE51
     /tmp/cc9m8ABL.s:2306   .debug_loc:000000000000032c .LLST5
GAS LISTING /tmp/cc9m8ABL.s 			page 15


     /tmp/cc9m8ABL.s:2314   .debug_loc:0000000000000350 .LLST6
     /tmp/cc9m8ABL.s:91     .text:0000000000000048 .LBB53
     /tmp/cc9m8ABL.s:98     .text:000000000000004c .LBE53
     /tmp/cc9m8ABL.s:2321   .debug_loc:0000000000000373 .LLST7
     /tmp/cc9m8ABL.s:2328   .debug_loc:0000000000000396 .LLST8
     /tmp/cc9m8ABL.s:100    .text:000000000000004c .LBB55
     /tmp/cc9m8ABL.s:107    .text:0000000000000050 .LBE55
     /tmp/cc9m8ABL.s:2335   .debug_loc:00000000000003b9 .LLST9
     /tmp/cc9m8ABL.s:2342   .debug_loc:00000000000003dc .LLST10
     /tmp/cc9m8ABL.s:109    .text:0000000000000050 .LBB57
     /tmp/cc9m8ABL.s:116    .text:0000000000000054 .LBE57
     /tmp/cc9m8ABL.s:2349   .debug_loc:00000000000003ff .LLST11
     /tmp/cc9m8ABL.s:2356   .debug_loc:0000000000000422 .LLST12
     /tmp/cc9m8ABL.s:121    .text:0000000000000058 .LBB59
     /tmp/cc9m8ABL.s:128    .text:000000000000005c .LBE59
     /tmp/cc9m8ABL.s:2363   .debug_loc:0000000000000445 .LLST13
     /tmp/cc9m8ABL.s:133    .text:0000000000000060 .LBB61
     /tmp/cc9m8ABL.s:141    .text:0000000000000064 .LBE61
     /tmp/cc9m8ABL.s:2370   .debug_loc:0000000000000468 .LLST14
     /tmp/cc9m8ABL.s:2377   .debug_loc:000000000000048b .LLST15
     /tmp/cc9m8ABL.s:158    .text:0000000000000078 .LBB63
     /tmp/cc9m8ABL.s:165    .text:000000000000007c .LBE63
     /tmp/cc9m8ABL.s:2384   .debug_loc:00000000000004ae .LLST16
     /tmp/cc9m8ABL.s:2391   .debug_loc:00000000000004d1 .LLST17
     /tmp/cc9m8ABL.s:170    .text:0000000000000080 .LBB65
     /tmp/cc9m8ABL.s:177    .text:0000000000000084 .LBE65
     /tmp/cc9m8ABL.s:2398   .debug_loc:00000000000004f4 .LLST18
     /tmp/cc9m8ABL.s:182    .text:0000000000000088 .LBB67
     /tmp/cc9m8ABL.s:190    .text:0000000000000090 .LBE67
     /tmp/cc9m8ABL.s:2618   .debug_str:0000000000000690 .LASF89
     /tmp/cc9m8ABL.s:2484   .debug_str:00000000000001aa .LASF90
     /tmp/cc9m8ABL.s:2624   .debug_str:00000000000006c0 .LASF91
     /tmp/cc9m8ABL.s:2588   .debug_str:0000000000000502 .LASF92
     /tmp/cc9m8ABL.s:224    .text:00000000000000a8 .LVL28
     /tmp/cc9m8ABL.s:254    .text:00000000000000cc .LVL31
     /tmp/cc9m8ABL.s:266    .text:00000000000000d4 .LVL33
     /tmp/cc9m8ABL.s:276    .text:00000000000000d8 .LVL34
     /tmp/cc9m8ABL.s:319    .text:0000000000000104 .LVL38
     /tmp/cc9m8ABL.s:328    .text:0000000000000118 .LVL39
     /tmp/cc9m8ABL.s:285    .text:00000000000000dc .LVL35
     /tmp/cc9m8ABL.s:294    .text:00000000000000e0 .LVL36
     /tmp/cc9m8ABL.s:207    .text:000000000000009c .LVL25
     /tmp/cc9m8ABL.s:213    .text:00000000000000a0 .LVL26
     /tmp/cc9m8ABL.s:218    .text:00000000000000a4 .LVL27
     /tmp/cc9m8ABL.s:231    .text:00000000000000ac .LVL29
     /tmp/cc9m8ABL.s:237    .text:00000000000000b0 .LVL30
     /tmp/cc9m8ABL.s:261    .text:00000000000000d0 .LVL32
     /tmp/cc9m8ABL.s:24     .text:0000000000000014 .LVL1
     /tmp/cc9m8ABL.s:61     .text:0000000000000030 .LVL7
     /tmp/cc9m8ABL.s:72     .text:0000000000000038 .LVL8
     /tmp/cc9m8ABL.s:39     .text:0000000000000020 .LVL3
     /tmp/cc9m8ABL.s:56     .text:000000000000002c .LVL6
     /tmp/cc9m8ABL.s:32     .text:0000000000000018 .LVL2
     /tmp/cc9m8ABL.s:132    .text:0000000000000060 .LVL17
     /tmp/cc9m8ABL.s:138    .text:0000000000000064 .LVL18
     /tmp/cc9m8ABL.s:150    .text:0000000000000070 .LVL19
     /tmp/cc9m8ABL.s:156    .text:0000000000000078 .LVL20
GAS LISTING /tmp/cc9m8ABL.s 			page 16


     /tmp/cc9m8ABL.s:44     .text:0000000000000024 .LVL4
     /tmp/cc9m8ABL.s:50     .text:0000000000000028 .LVL5
     /tmp/cc9m8ABL.s:77     .text:000000000000003c .LVL9
     /tmp/cc9m8ABL.s:84     .text:0000000000000044 .LVL10
     /tmp/cc9m8ABL.s:90     .text:0000000000000048 .LVL11
     /tmp/cc9m8ABL.s:96     .text:000000000000004c .LVL12
     /tmp/cc9m8ABL.s:105    .text:0000000000000050 .LVL13
     /tmp/cc9m8ABL.s:114    .text:0000000000000054 .LVL14
     /tmp/cc9m8ABL.s:120    .text:0000000000000058 .LVL15
     /tmp/cc9m8ABL.s:126    .text:000000000000005c .LVL16
     /tmp/cc9m8ABL.s:163    .text:000000000000007c .LVL21
     /tmp/cc9m8ABL.s:169    .text:0000000000000080 .LVL22
     /tmp/cc9m8ABL.s:175    .text:0000000000000084 .LVL23
     /tmp/cc9m8ABL.s:348    .debug_info:0000000000000000 .Ldebug_info0
     /tmp/cc9m8ABL.s:239    .text:00000000000000b0 .LBE73
     /tmp/cc9m8ABL.s:256    .text:00000000000000cc .LBB76
     /tmp/cc9m8ABL.s:263    .text:00000000000000d0 .LBE76

UNDEFINED SYMBOLS
_ZN9Scheduler3putEP3PCB
