GAS LISTING /tmp/ccBMZU8T.s 			page 1


   1              		.file	"syscall_c.cpp"
   2              		.option pic
   3              		.option norelax
   4              		.text
   5              	.Ltext0:
   6              		.align	2
   7              		.globl	_Z13callInterruptm
   9              	_Z13callInterruptm:
  10              	.LFB34:
  11              		.file 1 "src/syscall_c.cpp"
   1:src/syscall_c.cpp **** #include "../h/syscall_c.h"
   2:src/syscall_c.cpp **** #include "../h/MemoryAllocator.h"
   3:src/syscall_c.cpp **** #include "../h/kernel.h"
   4:src/syscall_c.cpp **** #include "../h/PCB.h"
   5:src/syscall_c.cpp **** #include "../h/console.h"
   6:src/syscall_c.cpp **** 
   7:src/syscall_c.cpp **** extern "C" void interrupt(); // u interrupt treba dodati i cuvanje konteksta
   8:src/syscall_c.cpp **** // prelazak u sistemski rezim i prelazak na sistemsku funkciju zadatu u registru stvec(asemblerska 
   9:src/syscall_c.cpp **** void* callInterrupt(size_t volatile code) {
  12              		.loc 1 9 43
  13              		.cfi_startproc
  14              	.LVL0:
  15 0000 130101FE 		addi	sp,sp,-32
  16              		.cfi_def_cfa_offset 32
  17 0004 233C8100 		sd	s0,24(sp)
  18              		.cfi_offset 8, -8
  19 0008 13040102 		addi	s0,sp,32
  20              		.cfi_def_cfa 8, 0
  21 000c 2334A4FE 		sd	a0,-24(s0)
  10:src/syscall_c.cpp ****     void* res;
  22              		.loc 1 10 5
  11:src/syscall_c.cpp ****     asm volatile("ecall");
  23              		.loc 1 11 5
  24              		.loc 1 11 26 is_stmt 0
  25              	#APP
  26              	# 11 "src/syscall_c.cpp" 1
  12              	    asm volatile("mv %0, a0" : "=r" (res));
  27              		ecall
  28              	# 0 "" 2
  29              		.loc 1 12 5 is_stmt 1
  30              		.loc 1 12 43 is_stmt 0
  31              	# 12 "src/syscall_c.cpp" 1
  13              	    return res;
  32              		mv a0, a0
  33              	# 0 "" 2
  34              	.LVL1:
  35              		.loc 1 13 5 is_stmt 1
  14:src/syscall_c.cpp **** }
  36              		.loc 1 14 1 is_stmt 0
  37              	#NO_APP
  38 0018 03348101 		ld	s0,24(sp)
  39              		.cfi_restore 8
  40              		.cfi_def_cfa 2, 32
  41              	.LVL2:
  42 001c 13010102 		addi	sp,sp,32
  43              		.cfi_def_cfa_offset 0
  44              	.LVL3:
GAS LISTING /tmp/ccBMZU8T.s 			page 2


  45 0020 67800000 		jr	ra
  46              		.cfi_endproc
  47              	.LFE34:
  49              		.align	2
  50              		.globl	_Z9mem_allocm
  52              	_Z9mem_allocm:
  53              	.LFB35:
  15:src/syscall_c.cpp **** 
  16:src/syscall_c.cpp **** // a0 code a1 size
  17:src/syscall_c.cpp **** void* mem_alloc(size_t size) {
  54              		.loc 1 17 30 is_stmt 1
  55              		.cfi_startproc
  56              	.LVL4:
  57 0024 130101FF 		addi	sp,sp,-16
  58              		.cfi_def_cfa_offset 16
  59 0028 23341100 		sd	ra,8(sp)
  60 002c 23308100 		sd	s0,0(sp)
  61              		.cfi_offset 1, -8
  62              		.cfi_offset 8, -16
  63 0030 13040101 		addi	s0,sp,16
  64              		.cfi_def_cfa 8, 0
  18:src/syscall_c.cpp ****     size_t code = Kernel::sysCallCodes::mem_alloc; // kod sistemskog poziva
  65              		.loc 1 18 5
  66              	.LVL5:
  19:src/syscall_c.cpp ****     // size je dat u bajtovima, a mi treba da ga prebacimo u blokove i onda opet upisemo u a1
  20:src/syscall_c.cpp ****     size = MemoryAllocator::sizeInBlocks(size); // funkcija menja a0
  67              		.loc 1 20 5
  68              	.LBB6:
  69              	.LBB7:
  70              		.file 2 "src/../h/MemoryAllocator.h"
   1:src/../h/MemoryAllocator.h **** #ifndef PROJECT_BASE_MEMORYALLOCATOR_H
   2:src/../h/MemoryAllocator.h **** #define PROJECT_BASE_MEMORYALLOCATOR_H
   3:src/../h/MemoryAllocator.h **** 
   4:src/../h/MemoryAllocator.h **** #include "hw.h"
   5:src/../h/MemoryAllocator.h **** 
   6:src/../h/MemoryAllocator.h **** class MemoryAllocator {
   7:src/../h/MemoryAllocator.h **** public:
   8:src/../h/MemoryAllocator.h ****     /*
   9:src/../h/MemoryAllocator.h ****     Alocira (najmanje) size bajtova memorije, zaokruženo i poravnato na blokove veličine MEM_BLOC
  10:src/../h/MemoryAllocator.h ****     Svaki alocirani segment ima zaglavlje sa velicinom tog segmenta(vraca se adresa nakon tog zagla
  11:src/../h/MemoryAllocator.h **** 
  12:src/../h/MemoryAllocator.h ****     Vraća:
  13:src/../h/MemoryAllocator.h ****     pokazivač na alocirani deo memorije u slučaju uspeha, nullptr u slučaju neuspeha
  14:src/../h/MemoryAllocator.h **** 
  15:src/../h/MemoryAllocator.h ****     Radi se po algoritmu first fit(alociramo prvi segment koji je >= size). Ako je preostao prostor
  16:src/../h/MemoryAllocator.h ****     jednog bloka, taj preostali prostor se pridruzuje ovom koji smo sad alocirali(jer nema poente d
  17:src/../h/MemoryAllocator.h ****     */
  18:src/../h/MemoryAllocator.h ****     static void* mem_alloc(size_t size);
  19:src/../h/MemoryAllocator.h ****     /*
  20:src/../h/MemoryAllocator.h ****     Oslobađa prostor prethodno zauzet pomoću mem_alloc.
  21:src/../h/MemoryAllocator.h ****     Vraća 0 u slučaju uspeha, BAD_POINTER  flag ako je dostavljen los pokazivac.
  22:src/../h/MemoryAllocator.h ****     Ako je moguce, spaja dva susedna slobodna segmenta u jedan veci
  23:src/../h/MemoryAllocator.h ****     */
  24:src/../h/MemoryAllocator.h ****     static int mem_free(void* memSegment);
  25:src/../h/MemoryAllocator.h **** 
  26:src/../h/MemoryAllocator.h ****     enum memFreeFlags {
  27:src/../h/MemoryAllocator.h ****         BAD_POINTER = -1 // nije koriscen pokazviac iz mem_alloc
GAS LISTING /tmp/ccBMZU8T.s 			page 3


  28:src/../h/MemoryAllocator.h ****     };
  29:src/../h/MemoryAllocator.h **** 
  30:src/../h/MemoryAllocator.h ****     // Vraca minimalan potreban broj blokova za alokaciju memorije velicine size bajtova
  31:src/../h/MemoryAllocator.h ****     static inline size_t sizeInBlocks(size_t size) {
  32:src/../h/MemoryAllocator.h ****         return (size / MEM_BLOCK_SIZE) + (size % MEM_BLOCK_SIZE > 0);
  71              		.loc 2 32 9
  72              		.loc 2 32 22 is_stmt 0
  73 0034 93576500 		srli	a5,a0,6
  74              		.loc 2 32 48
  75 0038 1375F503 		andi	a0,a0,63
  76              	.LVL6:
  77              		.loc 2 32 65
  78 003c 3335A000 		snez	a0,a0
  79              		.loc 2 32 68
  80 0040 3385A700 		add	a0,a5,a0
  81              	.LVL7:
  82              	.LBE7:
  83              	.LBE6:
  21:src/syscall_c.cpp ****     asm volatile("mv a1, %0" : : "r" (size)); // a1 = size
  84              		.loc 1 21 5 is_stmt 1
  85              		.loc 1 21 45 is_stmt 0
  86              	#APP
  87              	# 21 "src/syscall_c.cpp" 1
  22              	
  23:src/syscall_c.cpp ****     return (void*)callInterrupt(code);
  88              		mv a1, a0
  89              	# 0 "" 2
  90              		.loc 1 23 5 is_stmt 1
  91              		.loc 1 23 32 is_stmt 0
  92              	#NO_APP
  93 0048 13051000 		li	a0,1
  94              	.LVL8:
  95 004c 97000000 		call	_Z13callInterruptm
  95      E7800000 
  96              	.LVL9:
  24:src/syscall_c.cpp **** }
  97              		.loc 1 24 1
  98 0054 83308100 		ld	ra,8(sp)
  99              		.cfi_restore 1
 100 0058 03340100 		ld	s0,0(sp)
 101              		.cfi_restore 8
 102              		.cfi_def_cfa 2, 16
 103 005c 13010101 		addi	sp,sp,16
 104              		.cfi_def_cfa_offset 0
 105 0060 67800000 		jr	ra
 106              		.cfi_endproc
 107              	.LFE35:
 109              		.align	2
 110              		.globl	_Z8mem_freePv
 112              	_Z8mem_freePv:
 113              	.LFB36:
  25:src/syscall_c.cpp **** 
  26:src/syscall_c.cpp **** // a0 code a1 memSegment
  27:src/syscall_c.cpp **** int mem_free (void* memSegment) {
 114              		.loc 1 27 33 is_stmt 1
 115              		.cfi_startproc
 116              	.LVL10:
GAS LISTING /tmp/ccBMZU8T.s 			page 4


 117 0064 130101FF 		addi	sp,sp,-16
 118              		.cfi_def_cfa_offset 16
 119 0068 23341100 		sd	ra,8(sp)
 120 006c 23308100 		sd	s0,0(sp)
 121              		.cfi_offset 1, -8
 122              		.cfi_offset 8, -16
 123 0070 13040101 		addi	s0,sp,16
 124              		.cfi_def_cfa 8, 0
  28:src/syscall_c.cpp ****     size_t code = Kernel::sysCallCodes::mem_free; // kod sistemskog poziva
 125              		.loc 1 28 5
 126              	.LVL11:
  29:src/syscall_c.cpp ****     asm volatile("mv a1, a0"); // a1 = memSegment
 127              		.loc 1 29 5
 128              		.loc 1 29 30 is_stmt 0
 129              	#APP
 130              	# 29 "src/syscall_c.cpp" 1
  30              	
  31:src/syscall_c.cpp ****     return (size_t)(callInterrupt(code));
 131              		mv a1, a0
 132              	# 0 "" 2
 133              		.loc 1 31 5 is_stmt 1
 134              		.loc 1 31 34 is_stmt 0
 135              	#NO_APP
 136 0078 13052000 		li	a0,2
 137              	.LVL12:
 138 007c 97000000 		call	_Z13callInterruptm
 138      E7800000 
 139              	.LVL13:
  32:src/syscall_c.cpp **** }
 140              		.loc 1 32 1
 141 0084 1B050500 		sext.w	a0,a0
 142 0088 83308100 		ld	ra,8(sp)
 143              		.cfi_restore 1
 144 008c 03340100 		ld	s0,0(sp)
 145              		.cfi_restore 8
 146              		.cfi_def_cfa 2, 16
 147 0090 13010101 		addi	sp,sp,16
 148              		.cfi_def_cfa_offset 0
 149 0094 67800000 		jr	ra
 150              		.cfi_endproc
 151              	.LFE36:
 153              		.align	2
 154              		.globl	_Z18thread_create_onlyPP3PCBPFvPvES2_
 156              	_Z18thread_create_onlyPP3PCBPFvPvES2_:
 157              	.LFB37:
  33:src/syscall_c.cpp **** 
  34:src/syscall_c.cpp **** // a0 - code a1 - handle a2 - startRoutine a3 - arg a4 - stackSpace
  35:src/syscall_c.cpp **** int thread_create_only (thread_t* handle, void(*startRoutine)(void*), void* arg) {
 158              		.loc 1 35 82 is_stmt 1
 159              		.cfi_startproc
 160              	.LVL14:
 161 0098 130101FF 		addi	sp,sp,-16
 162              		.cfi_def_cfa_offset 16
 163 009c 23341100 		sd	ra,8(sp)
 164 00a0 23308100 		sd	s0,0(sp)
 165              		.cfi_offset 1, -8
 166              		.cfi_offset 8, -16
GAS LISTING /tmp/ccBMZU8T.s 			page 5


 167 00a4 13040101 		addi	s0,sp,16
 168              		.cfi_def_cfa 8, 0
  36:src/syscall_c.cpp ****     size_t code = Kernel::sysCallCodes::thread_create;
 169              		.loc 1 36 5
 170              	.LVL15:
  37:src/syscall_c.cpp ****     asm volatile("mv a3, a2"); // a3 = arg
 171              		.loc 1 37 5
 172              		.loc 1 37 30 is_stmt 0
 173              	#APP
 174              	# 37 "src/syscall_c.cpp" 1
  38              	    asm volatile("mv a2, a1"); // a2 = startRoutine
 175              		mv a3, a2
 176              	# 0 "" 2
 177              		.loc 1 38 5 is_stmt 1
 178              		.loc 1 38 30 is_stmt 0
 179              	# 38 "src/syscall_c.cpp" 1
  39              	    asm volatile("mv a4, a0"); // a5 = handle privremeno cuvamo da bismo posle vratili u a1
 180              		mv a2, a1
 181              	# 0 "" 2
 182              		.loc 1 39 5 is_stmt 1
 183              		.loc 1 39 30 is_stmt 0
 184              	# 39 "src/syscall_c.cpp" 1
  40              	
  41:src/syscall_c.cpp ****     size_t* stack = (size_t*)mem_alloc(sizeof(size_t)*DEFAULT_STACK_SIZE); // pravimo stack procesa
 185              		mv a4, a0
 186              	# 0 "" 2
 187              		.loc 1 41 5 is_stmt 1
 188              		.loc 1 41 39 is_stmt 0
 189              	#NO_APP
 190 00b4 37850000 		li	a0,32768
 191              	.LVL16:
 192 00b8 97000000 		call	_Z9mem_allocm
 192      E7800000 
 193              	.LVL17:
  42:src/syscall_c.cpp ****     if(stack == nullptr) return -1;
 194              		.loc 1 42 5 is_stmt 1
 195 00c0 630A0502 		beqz	a0,.L9
  43:src/syscall_c.cpp **** 
  44:src/syscall_c.cpp ****     asm volatile("mv a1, a4"); // a1 = a5(handle)
 196              		.loc 1 44 5
 197              		.loc 1 44 30 is_stmt 0
 198              	#APP
 199              	# 44 "src/syscall_c.cpp" 1
  45              	    asm volatile("mv a4, %0" : : "r" (stack));
 200              		mv a1, a4
 201              	# 0 "" 2
 202              		.loc 1 45 5 is_stmt 1
 203              		.loc 1 45 46 is_stmt 0
 204              	# 45 "src/syscall_c.cpp" 1
  46              	
  47:src/syscall_c.cpp ****     handle = (thread_t*)(callInterrupt(code)); // vraca se pokazivac na PCB, ili nullptr ako je neu
 205              		mv a4, a0
 206              	# 0 "" 2
 207              		.loc 1 47 5 is_stmt 1
 208              		.loc 1 47 39 is_stmt 0
 209              	#NO_APP
 210 00cc 13051001 		li	a0,17
GAS LISTING /tmp/ccBMZU8T.s 			page 6


 211              	.LVL18:
 212 00d0 97000000 		call	_Z13callInterruptm
 212      E7800000 
 213              	.LVL19:
  48:src/syscall_c.cpp ****     if(*handle == nullptr) {
 214              		.loc 1 48 5 is_stmt 1
 215              		.loc 1 48 8 is_stmt 0
 216 00d8 83370500 		ld	a5,0(a0)
 217              		.loc 1 48 5
 218 00dc 63800702 		beqz	a5,.L10
  49:src/syscall_c.cpp ****         return -1;
  50:src/syscall_c.cpp ****     }
  51:src/syscall_c.cpp ****     return 0;
 219              		.loc 1 51 12
 220 00e0 13050000 		li	a0,0
 221              	.LVL20:
 222              	.L8:
  52:src/syscall_c.cpp **** }
 223              		.loc 1 52 1
 224 00e4 83308100 		ld	ra,8(sp)
 225              		.cfi_remember_state
 226              		.cfi_restore 1
 227 00e8 03340100 		ld	s0,0(sp)
 228              		.cfi_restore 8
 229              		.cfi_def_cfa 2, 16
 230 00ec 13010101 		addi	sp,sp,16
 231              		.cfi_def_cfa_offset 0
 232 00f0 67800000 		jr	ra
 233              	.LVL21:
 234              	.L9:
 235              		.cfi_restore_state
  42:src/syscall_c.cpp **** 
 236              		.loc 1 42 34
 237 00f4 1305F0FF 		li	a0,-1
 238              	.LVL22:
 239 00f8 6FF0DFFE 		j	.L8
 240              	.LVL23:
 241              	.L10:
  49:src/syscall_c.cpp ****         return -1;
 242              		.loc 1 49 17
 243 00fc 1305F0FF 		li	a0,-1
 244              	.LVL24:
 245 0100 6FF05FFE 		j	.L8
 246              		.cfi_endproc
 247              	.LFE37:
 249              		.align	2
 250              		.globl	_Z15thread_dispatchv
 252              	_Z15thread_dispatchv:
 253              	.LFB39:
  53:src/syscall_c.cpp **** 
  54:src/syscall_c.cpp **** int thread_create(thread_t* handle, void(*startRoutine)(void*), void* arg) {
  55:src/syscall_c.cpp ****     int res = thread_create_only(handle, startRoutine, arg);
  56:src/syscall_c.cpp ****     thread_start(handle);
  57:src/syscall_c.cpp ****     return res;
  58:src/syscall_c.cpp **** }
  59:src/syscall_c.cpp **** 
  60:src/syscall_c.cpp **** void thread_dispatch () {
GAS LISTING /tmp/ccBMZU8T.s 			page 7


 254              		.loc 1 60 25 is_stmt 1
 255              		.cfi_startproc
 256 0104 130101FF 		addi	sp,sp,-16
 257              		.cfi_def_cfa_offset 16
 258 0108 23341100 		sd	ra,8(sp)
 259 010c 23308100 		sd	s0,0(sp)
 260              		.cfi_offset 1, -8
 261              		.cfi_offset 8, -16
 262 0110 13040101 		addi	s0,sp,16
 263              		.cfi_def_cfa 8, 0
  61:src/syscall_c.cpp ****     size_t code = Kernel::sysCallCodes::thread_dispatch;
 264              		.loc 1 61 5
 265              	.LVL25:
  62:src/syscall_c.cpp ****     callInterrupt(code);
 266              		.loc 1 62 5
 267              		.loc 1 62 18 is_stmt 0
 268 0114 13053001 		li	a0,19
 269 0118 97000000 		call	_Z13callInterruptm
 269      E7800000 
 270              	.LVL26:
  63:src/syscall_c.cpp **** }
 271              		.loc 1 63 1
 272 0120 83308100 		ld	ra,8(sp)
 273              		.cfi_restore 1
 274 0124 03340100 		ld	s0,0(sp)
 275              		.cfi_restore 8
 276              		.cfi_def_cfa 2, 16
 277 0128 13010101 		addi	sp,sp,16
 278              		.cfi_def_cfa_offset 0
 279 012c 67800000 		jr	ra
 280              		.cfi_endproc
 281              	.LFE39:
 283              		.align	2
 284              		.globl	_Z11thread_exitv
 286              	_Z11thread_exitv:
 287              	.LFB40:
  64:src/syscall_c.cpp **** 
  65:src/syscall_c.cpp **** int thread_exit () {
 288              		.loc 1 65 20 is_stmt 1
 289              		.cfi_startproc
 290 0130 130101FF 		addi	sp,sp,-16
 291              		.cfi_def_cfa_offset 16
 292 0134 23341100 		sd	ra,8(sp)
 293 0138 23308100 		sd	s0,0(sp)
 294              		.cfi_offset 1, -8
 295              		.cfi_offset 8, -16
 296 013c 13040101 		addi	s0,sp,16
 297              		.cfi_def_cfa 8, 0
  66:src/syscall_c.cpp ****     size_t code = Kernel::sysCallCodes::thread_exit;
 298              		.loc 1 66 5
 299              	.LVL27:
  67:src/syscall_c.cpp ****     return (size_t)(callInterrupt(code));
 300              		.loc 1 67 5
 301              		.loc 1 67 34 is_stmt 0
 302 0140 13052001 		li	a0,18
 303 0144 97000000 		call	_Z13callInterruptm
 303      E7800000 
GAS LISTING /tmp/ccBMZU8T.s 			page 8


 304              	.LVL28:
  68:src/syscall_c.cpp **** }
 305              		.loc 1 68 1
 306 014c 1B050500 		sext.w	a0,a0
 307 0150 83308100 		ld	ra,8(sp)
 308              		.cfi_restore 1
 309 0154 03340100 		ld	s0,0(sp)
 310              		.cfi_restore 8
 311              		.cfi_def_cfa 2, 16
 312 0158 13010101 		addi	sp,sp,16
 313              		.cfi_def_cfa_offset 0
 314 015c 67800000 		jr	ra
 315              		.cfi_endproc
 316              	.LFE40:
 318              		.align	2
 319              		.globl	_Z12thread_startPP3PCB
 321              	_Z12thread_startPP3PCB:
 322              	.LFB41:
  69:src/syscall_c.cpp **** 
  70:src/syscall_c.cpp **** void thread_start(thread_t* handle) {
 323              		.loc 1 70 37 is_stmt 1
 324              		.cfi_startproc
 325              	.LVL29:
 326 0160 130101FF 		addi	sp,sp,-16
 327              		.cfi_def_cfa_offset 16
 328 0164 23341100 		sd	ra,8(sp)
 329 0168 23308100 		sd	s0,0(sp)
 330              		.cfi_offset 1, -8
 331              		.cfi_offset 8, -16
 332 016c 13040101 		addi	s0,sp,16
 333              		.cfi_def_cfa 8, 0
  71:src/syscall_c.cpp ****     size_t code = Kernel::sysCallCodes::thread_start;
 334              		.loc 1 71 5
 335              	.LVL30:
  72:src/syscall_c.cpp ****     asm volatile("mv a1, a0"); // a1 = handle
 336              		.loc 1 72 5
 337              		.loc 1 72 30 is_stmt 0
 338              	#APP
 339              	# 72 "src/syscall_c.cpp" 1
  73              	    callInterrupt(code);
 340              		mv a1, a0
 341              	# 0 "" 2
 342              		.loc 1 73 5 is_stmt 1
 343              		.loc 1 73 18 is_stmt 0
 344              	#NO_APP
 345 0174 13054001 		li	a0,20
 346              	.LVL31:
 347 0178 97000000 		call	_Z13callInterruptm
 347      E7800000 
 348              	.LVL32:
  74:src/syscall_c.cpp **** }
 349              		.loc 1 74 1
 350 0180 83308100 		ld	ra,8(sp)
 351              		.cfi_restore 1
 352 0184 03340100 		ld	s0,0(sp)
 353              		.cfi_restore 8
 354              		.cfi_def_cfa 2, 16
GAS LISTING /tmp/ccBMZU8T.s 			page 9


 355 0188 13010101 		addi	sp,sp,16
 356              		.cfi_def_cfa_offset 0
 357 018c 67800000 		jr	ra
 358              		.cfi_endproc
 359              	.LFE41:
 361              		.align	2
 362              		.globl	_Z13thread_createPP3PCBPFvPvES2_
 364              	_Z13thread_createPP3PCBPFvPvES2_:
 365              	.LFB38:
  54:src/syscall_c.cpp ****     int res = thread_create_only(handle, startRoutine, arg);
 366              		.loc 1 54 76 is_stmt 1
 367              		.cfi_startproc
 368              	.LVL33:
 369 0190 130101FE 		addi	sp,sp,-32
 370              		.cfi_def_cfa_offset 32
 371 0194 233C1100 		sd	ra,24(sp)
 372 0198 23388100 		sd	s0,16(sp)
 373 019c 23349100 		sd	s1,8(sp)
 374 01a0 23302101 		sd	s2,0(sp)
 375              		.cfi_offset 1, -8
 376              		.cfi_offset 8, -16
 377              		.cfi_offset 9, -24
 378              		.cfi_offset 18, -32
 379 01a4 13040102 		addi	s0,sp,32
 380              		.cfi_def_cfa 8, 0
 381 01a8 13090500 		mv	s2,a0
  55:src/syscall_c.cpp ****     thread_start(handle);
 382              		.loc 1 55 5
  55:src/syscall_c.cpp ****     thread_start(handle);
 383              		.loc 1 55 33 is_stmt 0
 384 01ac 97000000 		call	_Z18thread_create_onlyPP3PCBPFvPvES2_
 384      E7800000 
 385              	.LVL34:
 386 01b4 93040500 		mv	s1,a0
 387              	.LVL35:
  56:src/syscall_c.cpp ****     return res;
 388              		.loc 1 56 5 is_stmt 1
  56:src/syscall_c.cpp ****     return res;
 389              		.loc 1 56 17 is_stmt 0
 390 01b8 13050900 		mv	a0,s2
 391 01bc 97000000 		call	_Z12thread_startPP3PCB
 391      E7800000 
 392              	.LVL36:
  57:src/syscall_c.cpp **** }
 393              		.loc 1 57 5 is_stmt 1
  58:src/syscall_c.cpp **** 
 394              		.loc 1 58 1 is_stmt 0
 395 01c4 13850400 		mv	a0,s1
 396 01c8 83308101 		ld	ra,24(sp)
 397              		.cfi_restore 1
 398 01cc 03340101 		ld	s0,16(sp)
 399              		.cfi_restore 8
 400              		.cfi_def_cfa 2, 32
 401 01d0 83348100 		ld	s1,8(sp)
 402              		.cfi_restore 9
 403              	.LVL37:
 404 01d4 03390100 		ld	s2,0(sp)
GAS LISTING /tmp/ccBMZU8T.s 			page 10


 405              		.cfi_restore 18
 406              	.LVL38:
 407 01d8 13010102 		addi	sp,sp,32
 408              		.cfi_def_cfa_offset 0
 409 01dc 67800000 		jr	ra
 410              		.cfi_endproc
 411              	.LFE38:
 413              		.align	2
 414              		.globl	_Z8sem_openPP3SCBj
 416              	_Z8sem_openPP3SCBj:
 417              	.LFB42:
  75:src/syscall_c.cpp **** 
  76:src/syscall_c.cpp **** int sem_open (sem_t* handle, unsigned init) {
 418              		.loc 1 76 45 is_stmt 1
 419              		.cfi_startproc
 420              	.LVL39:
 421 01e0 130101FF 		addi	sp,sp,-16
 422              		.cfi_def_cfa_offset 16
 423 01e4 23341100 		sd	ra,8(sp)
 424 01e8 23308100 		sd	s0,0(sp)
 425              		.cfi_offset 1, -8
 426              		.cfi_offset 8, -16
 427 01ec 13040101 		addi	s0,sp,16
 428              		.cfi_def_cfa 8, 0
  77:src/syscall_c.cpp ****     size_t code = Kernel::sysCallCodes::sem_open;
 429              		.loc 1 77 5
 430              	.LVL40:
  78:src/syscall_c.cpp **** 
  79:src/syscall_c.cpp ****     asm volatile("mv a2, a1"); // a2 = init
 431              		.loc 1 79 5
 432              		.loc 1 79 30 is_stmt 0
 433              	#APP
 434              	# 79 "src/syscall_c.cpp" 1
  80              	    asm volatile("mv a1, a0"); // a1 = handle
 435              		mv a2, a1
 436              	# 0 "" 2
 437              		.loc 1 80 5 is_stmt 1
 438              		.loc 1 80 30 is_stmt 0
 439              	# 80 "src/syscall_c.cpp" 1
  81              	
  82:src/syscall_c.cpp ****     handle = (sem_t*)callInterrupt(code);
 440              		mv a1, a0
 441              	# 0 "" 2
 442              		.loc 1 82 5 is_stmt 1
 443              		.loc 1 82 35 is_stmt 0
 444              	#NO_APP
 445 01f8 13051002 		li	a0,33
 446              	.LVL41:
 447 01fc 97000000 		call	_Z13callInterruptm
 447      E7800000 
 448              	.LVL42:
  83:src/syscall_c.cpp ****     if(*handle == nullptr) {
 449              		.loc 1 83 5 is_stmt 1
 450              		.loc 1 83 8 is_stmt 0
 451 0204 83370500 		ld	a5,0(a0)
 452              		.loc 1 83 5
 453 0208 638C0700 		beqz	a5,.L22
GAS LISTING /tmp/ccBMZU8T.s 			page 11


  84:src/syscall_c.cpp ****         return -1;
  85:src/syscall_c.cpp ****     }
  86:src/syscall_c.cpp **** 
  87:src/syscall_c.cpp ****     return 0;
 454              		.loc 1 87 12
 455 020c 13050000 		li	a0,0
 456              	.LVL43:
 457              	.L21:
  88:src/syscall_c.cpp **** }
 458              		.loc 1 88 1
 459 0210 83308100 		ld	ra,8(sp)
 460              		.cfi_remember_state
 461              		.cfi_restore 1
 462 0214 03340100 		ld	s0,0(sp)
 463              		.cfi_restore 8
 464              		.cfi_def_cfa 2, 16
 465 0218 13010101 		addi	sp,sp,16
 466              		.cfi_def_cfa_offset 0
 467 021c 67800000 		jr	ra
 468              	.LVL44:
 469              	.L22:
 470              		.cfi_restore_state
  84:src/syscall_c.cpp ****         return -1;
 471              		.loc 1 84 17
 472 0220 1305F0FF 		li	a0,-1
 473              	.LVL45:
 474 0224 6FF0DFFE 		j	.L21
 475              		.cfi_endproc
 476              	.LFE42:
 478              		.align	2
 479              		.globl	_Z8sem_waitP3SCB
 481              	_Z8sem_waitP3SCB:
 482              	.LFB43:
  89:src/syscall_c.cpp **** 
  90:src/syscall_c.cpp **** int sem_wait (sem_t volatile handle) {
 483              		.loc 1 90 38 is_stmt 1
 484              		.cfi_startproc
 485              	.LVL46:
 486 0228 130101FE 		addi	sp,sp,-32
 487              		.cfi_def_cfa_offset 32
 488 022c 233C1100 		sd	ra,24(sp)
 489 0230 23388100 		sd	s0,16(sp)
 490              		.cfi_offset 1, -8
 491              		.cfi_offset 8, -16
 492 0234 13040102 		addi	s0,sp,32
 493              		.cfi_def_cfa 8, 0
 494 0238 2334A4FE 		sd	a0,-24(s0)
  91:src/syscall_c.cpp ****     size_t code = Kernel::sysCallCodes::sem_wait;
 495              		.loc 1 91 5
 496              	.LVL47:
  92:src/syscall_c.cpp ****     if(handle == nullptr) return -1;
 497              		.loc 1 92 5
 498              		.loc 1 92 8 is_stmt 0
 499 023c 833784FE 		ld	a5,-24(s0)
 500              		.loc 1 92 5
 501 0240 63840704 		beqz	a5,.L27
  93:src/syscall_c.cpp ****     asm volatile("mv a1, a0");
GAS LISTING /tmp/ccBMZU8T.s 			page 12


 502              		.loc 1 93 5 is_stmt 1
 503              		.loc 1 93 30 is_stmt 0
 504              	#APP
 505              	# 93 "src/syscall_c.cpp" 1
  94              	
  95:src/syscall_c.cpp ****     if(callInterrupt(code)) {
 506              		mv a1, a0
 507              	# 0 "" 2
 508              		.loc 1 95 5 is_stmt 1
 509              		.loc 1 95 21 is_stmt 0
 510              	#NO_APP
 511 0248 13053002 		li	a0,35
 512              	.LVL48:
 513 024c 97000000 		call	_Z13callInterruptm
 513      E7800000 
 514              	.LVL49:
 515              		.loc 1 95 5
 516 0254 63060500 		beqz	a0,.L26
  96:src/syscall_c.cpp ****         thread_dispatch();
 517              		.loc 1 96 9 is_stmt 1
 518              		.loc 1 96 24 is_stmt 0
 519 0258 97000000 		call	_Z15thread_dispatchv
 519      E7800000 
 520              	.LVL50:
 521              	.L26:
  97:src/syscall_c.cpp ****     }
  98:src/syscall_c.cpp **** 
  99:src/syscall_c.cpp ****     if(PCB::running->isSemaphoreDeleted()) return -2; // semafor je obrisan pre nego sto je proces 
 522              		.loc 1 99 5 is_stmt 1
 523              		.loc 1 99 40 is_stmt 0
 524 0260 97070000 		la	a5,_ZN3PCB7runningE
 524      83B70700 
 525 0268 83B70700 		ld	a5,0(a5)
 526              	.LVL51:
 527              	.LBB8:
 528              	.LBB9:
 529              		.file 3 "src/../h/PCB.h"
   1:src/../h/PCB.h **** #ifndef PCB_H
   2:src/../h/PCB.h **** #define PCB_H
   3:src/../h/PCB.h **** 
   4:src/../h/PCB.h **** #include "hw.h"
   5:src/../h/PCB.h **** 
   6:src/../h/PCB.h **** extern "C" void interruptHandler();
   7:src/../h/PCB.h **** 
   8:src/../h/PCB.h **** class PCB {
   9:src/../h/PCB.h **** friend class Scheduler;
  10:src/../h/PCB.h **** friend void interruptHandler();
  11:src/../h/PCB.h **** friend class Kernel;
  12:src/../h/PCB.h **** public:
  13:src/../h/PCB.h ****     // vraca true ako se proces zavrsio, false ako nije
  14:src/../h/PCB.h ****     bool isFinished() const {
  15:src/../h/PCB.h ****         return finished;
  16:src/../h/PCB.h ****     }
  17:src/../h/PCB.h ****     // vraca true ako je semafor obrisan pre nego sto je proces odblokiran
  18:src/../h/PCB.h ****     bool isSemaphoreDeleted() const {
  19:src/../h/PCB.h ****         return semDeleted;
 530              		.loc 3 19 9 is_stmt 1
GAS LISTING /tmp/ccBMZU8T.s 			page 13


 531              		.loc 3 19 16 is_stmt 0
 532 026c 83C7A702 		lbu	a5,42(a5)
 533              	.LVL52:
 534              	.LBE9:
 535              	.LBE8:
 536              		.loc 1 99 5
 537 0270 63900702 		bnez	a5,.L28
 100:src/syscall_c.cpp **** 
 101:src/syscall_c.cpp ****     return 0;
 538              		.loc 1 101 12
 539 0274 13050000 		li	a0,0
 540              	.L25:
 102:src/syscall_c.cpp **** }
 541              		.loc 1 102 1
 542 0278 83308101 		ld	ra,24(sp)
 543              		.cfi_remember_state
 544              		.cfi_restore 1
 545 027c 03340101 		ld	s0,16(sp)
 546              		.cfi_restore 8
 547              		.cfi_def_cfa 2, 32
 548              	.LVL53:
 549 0280 13010102 		addi	sp,sp,32
 550              		.cfi_def_cfa_offset 0
 551              	.LVL54:
 552 0284 67800000 		jr	ra
 553              	.LVL55:
 554              	.L27:
 555              		.cfi_restore_state
  92:src/syscall_c.cpp ****     asm volatile("mv a1, a0");
 556              		.loc 1 92 35
 557 0288 1305F0FF 		li	a0,-1
 558              	.LVL56:
 559 028c 6FF0DFFE 		j	.L25
 560              	.L28:
  99:src/syscall_c.cpp **** 
 561              		.loc 1 99 52
 562 0290 1305E0FF 		li	a0,-2
 563 0294 6FF05FFE 		j	.L25
 564              		.cfi_endproc
 565              	.LFE43:
 567              		.align	2
 568              		.globl	_Z10sem_signalP3SCB
 570              	_Z10sem_signalP3SCB:
 571              	.LFB44:
 103:src/syscall_c.cpp **** 
 104:src/syscall_c.cpp **** int sem_signal (sem_t handle) {
 572              		.loc 1 104 31 is_stmt 1
 573              		.cfi_startproc
 574              	.LVL57:
 105:src/syscall_c.cpp ****     size_t code = Kernel::sysCallCodes::sem_signal;
 575              		.loc 1 105 5
 106:src/syscall_c.cpp ****     if(handle == nullptr) return -1;
 576              		.loc 1 106 5
 577 0298 63060504 		beqz	a0,.L32
 104:src/syscall_c.cpp ****     size_t code = Kernel::sysCallCodes::sem_signal;
 578              		.loc 1 104 31 is_stmt 0
 579 029c 130101FE 		addi	sp,sp,-32
GAS LISTING /tmp/ccBMZU8T.s 			page 14


 580              		.cfi_def_cfa_offset 32
 581 02a0 233C1100 		sd	ra,24(sp)
 582 02a4 23388100 		sd	s0,16(sp)
 583              		.cfi_offset 1, -8
 584              		.cfi_offset 8, -16
 585 02a8 13040102 		addi	s0,sp,32
 586              		.cfi_def_cfa 8, 0
 107:src/syscall_c.cpp ****     asm volatile("mv a1, a0");
 587              		.loc 1 107 5 is_stmt 1
 588              		.loc 1 107 30 is_stmt 0
 589              	#APP
 590              	# 107 "src/syscall_c.cpp" 1
 108              	
 109:src/syscall_c.cpp ****     PCB* process = (PCB*)callInterrupt(code);
 591              		mv a1, a0
 592              	# 0 "" 2
 593              		.loc 1 109 5 is_stmt 1
 594              		.loc 1 109 39 is_stmt 0
 595              	#NO_APP
 596 02b0 13054002 		li	a0,36
 597              	.LVL58:
 598 02b4 97000000 		call	_Z13callInterruptm
 598      E7800000 
 599              	.LVL59:
 600              		.loc 1 109 44
 601 02bc 2334A4FE 		sd	a0,-24(s0)
 110:src/syscall_c.cpp ****     if(process) {
 602              		.loc 1 110 5 is_stmt 1
 603 02c0 63060502 		beqz	a0,.L33
 111:src/syscall_c.cpp ****         thread_start(&process);
 604              		.loc 1 111 9
 605              		.loc 1 111 21 is_stmt 0
 606 02c4 130584FE 		addi	a0,s0,-24
 607 02c8 97000000 		call	_Z12thread_startPP3PCB
 607      E7800000 
 608              	.LVL60:
 112:src/syscall_c.cpp ****     }
 113:src/syscall_c.cpp **** 
 114:src/syscall_c.cpp ****     return 0;
 609              		.loc 1 114 12
 610 02d0 13050000 		li	a0,0
 611              	.L31:
 115:src/syscall_c.cpp **** }
 612              		.loc 1 115 1
 613 02d4 83308101 		ld	ra,24(sp)
 614              		.cfi_restore 1
 615 02d8 03340101 		ld	s0,16(sp)
 616              		.cfi_restore 8
 617              		.cfi_def_cfa 2, 32
 618 02dc 13010102 		addi	sp,sp,32
 619              		.cfi_def_cfa_offset 0
 620 02e0 67800000 		jr	ra
 621              	.LVL61:
 622              	.L32:
 106:src/syscall_c.cpp ****     asm volatile("mv a1, a0");
 623              		.loc 1 106 35
 624 02e4 1305F0FF 		li	a0,-1
GAS LISTING /tmp/ccBMZU8T.s 			page 15


 625              	.LVL62:
 626              		.loc 1 115 1
 627 02e8 67800000 		ret
 628              	.L33:
 629              		.cfi_def_cfa_register 8
 630              		.cfi_offset 1, -8
 631              		.cfi_offset 8, -16
 114:src/syscall_c.cpp **** }
 632              		.loc 1 114 12
 633 02ec 13050000 		li	a0,0
 634 02f0 6FF05FFE 		j	.L31
 635              		.cfi_endproc
 636              	.LFE44:
 638              		.align	2
 639              		.globl	_Z9sem_closeP3SCB
 641              	_Z9sem_closeP3SCB:
 642              	.LFB45:
 116:src/syscall_c.cpp **** 
 117:src/syscall_c.cpp **** int sem_close (sem_t handle) {
 643              		.loc 1 117 30 is_stmt 1
 644              		.cfi_startproc
 645              	.LVL63:
 118:src/syscall_c.cpp ****     size_t code = Kernel::sysCallCodes::sem_close;
 646              		.loc 1 118 5
 119:src/syscall_c.cpp ****     if(handle == nullptr) return -1;
 647              		.loc 1 119 5
 648 02f4 630C0502 		beqz	a0,.L40
 117:src/syscall_c.cpp ****     size_t code = Kernel::sysCallCodes::sem_close;
 649              		.loc 1 117 30 is_stmt 0
 650 02f8 130101FF 		addi	sp,sp,-16
 651              		.cfi_def_cfa_offset 16
 652 02fc 23341100 		sd	ra,8(sp)
 653 0300 23308100 		sd	s0,0(sp)
 654              		.cfi_offset 1, -8
 655              		.cfi_offset 8, -16
 656 0304 13040101 		addi	s0,sp,16
 657              		.cfi_def_cfa 8, 0
 120:src/syscall_c.cpp **** 
 121:src/syscall_c.cpp ****     asm volatile("mv a1, a0");
 658              		.loc 1 121 5 is_stmt 1
 659              		.loc 1 121 30 is_stmt 0
 660              	#APP
 661              	# 121 "src/syscall_c.cpp" 1
 122              	    callInterrupt(code);
 662              		mv a1, a0
 663              	# 0 "" 2
 664              		.loc 1 122 5 is_stmt 1
 665              		.loc 1 122 18 is_stmt 0
 666              	#NO_APP
 667 030c 13052002 		li	a0,34
 668              	.LVL64:
 669 0310 97000000 		call	_Z13callInterruptm
 669      E7800000 
 670              	.LVL65:
 123:src/syscall_c.cpp ****     return 0;
 671              		.loc 1 123 5 is_stmt 1
 672              		.loc 1 123 12 is_stmt 0
GAS LISTING /tmp/ccBMZU8T.s 			page 16


 673 0318 13050000 		li	a0,0
 124:src/syscall_c.cpp **** }
 674              		.loc 1 124 1
 675 031c 83308100 		ld	ra,8(sp)
 676              		.cfi_restore 1
 677 0320 03340100 		ld	s0,0(sp)
 678              		.cfi_restore 8
 679              		.cfi_def_cfa 2, 16
 680 0324 13010101 		addi	sp,sp,16
 681              		.cfi_def_cfa_offset 0
 682 0328 67800000 		jr	ra
 683              	.LVL66:
 684              	.L40:
 119:src/syscall_c.cpp **** 
 685              		.loc 1 119 35
 686 032c 1305F0FF 		li	a0,-1
 687              	.LVL67:
 688              		.loc 1 124 1
 689 0330 67800000 		ret
 690              		.cfi_endproc
 691              	.LFE45:
 693              		.align	2
 694              		.globl	_Z10time_sleepm
 696              	_Z10time_sleepm:
 697              	.LFB46:
 125:src/syscall_c.cpp **** 
 126:src/syscall_c.cpp **** int time_sleep (time_t time) {
 698              		.loc 1 126 30 is_stmt 1
 699              		.cfi_startproc
 700              	.LVL68:
 127:src/syscall_c.cpp ****     size_t code = Kernel::sysCallCodes::time_sleep;
 701              		.loc 1 127 5
 128:src/syscall_c.cpp ****     if(time <= 0) return -1;
 702              		.loc 1 128 5
 703 0334 63000504 		beqz	a0,.L47
 126:src/syscall_c.cpp ****     size_t code = Kernel::sysCallCodes::time_sleep;
 704              		.loc 1 126 30 is_stmt 0
 705 0338 130101FF 		addi	sp,sp,-16
 706              		.cfi_def_cfa_offset 16
 707 033c 23341100 		sd	ra,8(sp)
 708 0340 23308100 		sd	s0,0(sp)
 709              		.cfi_offset 1, -8
 710              		.cfi_offset 8, -16
 711 0344 13040101 		addi	s0,sp,16
 712              		.cfi_def_cfa 8, 0
 129:src/syscall_c.cpp **** 
 130:src/syscall_c.cpp ****     asm volatile("mv a1, a0");
 713              		.loc 1 130 5 is_stmt 1
 714              		.loc 1 130 30 is_stmt 0
 715              	#APP
 716              	# 130 "src/syscall_c.cpp" 1
 131              	    callInterrupt(code);
 717              		mv a1, a0
 718              	# 0 "" 2
 719              		.loc 1 131 5 is_stmt 1
 720              		.loc 1 131 18 is_stmt 0
 721              	#NO_APP
GAS LISTING /tmp/ccBMZU8T.s 			page 17


 722 034c 13051003 		li	a0,49
 723              	.LVL69:
 724 0350 97000000 		call	_Z13callInterruptm
 724      E7800000 
 725              	.LVL70:
 132:src/syscall_c.cpp **** 
 133:src/syscall_c.cpp ****     thread_dispatch(); // radimo odmah dispatch da bi zaustavili tekuci proces
 726              		.loc 1 133 5 is_stmt 1
 727              		.loc 1 133 20 is_stmt 0
 728 0358 97000000 		call	_Z15thread_dispatchv
 728      E7800000 
 729              	.LVL71:
 134:src/syscall_c.cpp **** 
 135:src/syscall_c.cpp ****     return 0;
 730              		.loc 1 135 5 is_stmt 1
 731              		.loc 1 135 12 is_stmt 0
 732 0360 13050000 		li	a0,0
 136:src/syscall_c.cpp **** }
 733              		.loc 1 136 1
 734 0364 83308100 		ld	ra,8(sp)
 735              		.cfi_restore 1
 736 0368 03340100 		ld	s0,0(sp)
 737              		.cfi_restore 8
 738              		.cfi_def_cfa 2, 16
 739 036c 13010101 		addi	sp,sp,16
 740              		.cfi_def_cfa_offset 0
 741 0370 67800000 		jr	ra
 742              	.LVL72:
 743              	.L47:
 128:src/syscall_c.cpp **** 
 744              		.loc 1 128 27
 745 0374 1305F0FF 		li	a0,-1
 746              	.LVL73:
 747              		.loc 1 136 1
 748 0378 67800000 		ret
 749              		.cfi_endproc
 750              	.LFE46:
 752              	.Letext0:
 753              		.file 4 "src/../h/hw.h"
 754              		.file 5 "src/../h/syscall_c.h"
GAS LISTING /tmp/ccBMZU8T.s 			page 18


DEFINED SYMBOLS
                            *ABS*:0000000000000000 syscall_c.cpp
     /tmp/ccBMZU8T.s:9      .text:0000000000000000 _Z13callInterruptm
     /tmp/ccBMZU8T.s:13     .text:0000000000000000 .L0 
     /tmp/ccBMZU8T.s:15     .text:0000000000000000 .L0 
     /tmp/ccBMZU8T.s:16     .text:0000000000000004 .L0 
     /tmp/ccBMZU8T.s:18     .text:0000000000000008 .L0 
     /tmp/ccBMZU8T.s:20     .text:000000000000000c .L0 
     /tmp/ccBMZU8T.s:23     .text:0000000000000010 .L0 
     /tmp/ccBMZU8T.s:24     .text:0000000000000010 .L0 
   src/syscall_c.cpp:11     .text:0000000000000010 .L0 
     /tmp/ccBMZU8T.s:30     .text:0000000000000014 .L0 
   src/syscall_c.cpp:12     .text:0000000000000014 .L0 
     /tmp/ccBMZU8T.s:36     .text:0000000000000018 .L0 
     /tmp/ccBMZU8T.s:38     .text:0000000000000018 .L0 
     /tmp/ccBMZU8T.s:39     .text:000000000000001c .L0 
     /tmp/ccBMZU8T.s:40     .text:000000000000001c .L0 
     /tmp/ccBMZU8T.s:43     .text:0000000000000020 .L0 
     /tmp/ccBMZU8T.s:46     .text:0000000000000024 .L0 
     /tmp/ccBMZU8T.s:52     .text:0000000000000024 _Z9mem_allocm
     /tmp/ccBMZU8T.s:55     .text:0000000000000024 .L0 
     /tmp/ccBMZU8T.s:57     .text:0000000000000024 .L0 
     /tmp/ccBMZU8T.s:58     .text:0000000000000028 .L0 
     /tmp/ccBMZU8T.s:61     .text:0000000000000030 .L0 
     /tmp/ccBMZU8T.s:62     .text:0000000000000030 .L0 
     /tmp/ccBMZU8T.s:64     .text:0000000000000034 .L0 
     /tmp/ccBMZU8T.s:67     .text:0000000000000034 .L0 
     /tmp/ccBMZU8T.s:71     .text:0000000000000034 .L0 
     /tmp/ccBMZU8T.s:72     .text:0000000000000034 .L0 
     /tmp/ccBMZU8T.s:73     .text:0000000000000034 .L0 
     /tmp/ccBMZU8T.s:75     .text:0000000000000038 .L0 
     /tmp/ccBMZU8T.s:78     .text:000000000000003c .L0 
     /tmp/ccBMZU8T.s:80     .text:0000000000000040 .L0 
     /tmp/ccBMZU8T.s:85     .text:0000000000000044 .L0 
   src/syscall_c.cpp:21     .text:0000000000000044 .L0 
     /tmp/ccBMZU8T.s:91     .text:0000000000000048 .L0 
     /tmp/ccBMZU8T.s:93     .text:0000000000000048 .L0 
     /tmp/ccBMZU8T.s:98     .text:0000000000000054 .L0 
     /tmp/ccBMZU8T.s:99     .text:0000000000000058 .L0 
     /tmp/ccBMZU8T.s:101    .text:000000000000005c .L0 
     /tmp/ccBMZU8T.s:102    .text:000000000000005c .L0 
     /tmp/ccBMZU8T.s:104    .text:0000000000000060 .L0 
     /tmp/ccBMZU8T.s:106    .text:0000000000000064 .L0 
     /tmp/ccBMZU8T.s:112    .text:0000000000000064 _Z8mem_freePv
     /tmp/ccBMZU8T.s:115    .text:0000000000000064 .L0 
     /tmp/ccBMZU8T.s:117    .text:0000000000000064 .L0 
     /tmp/ccBMZU8T.s:118    .text:0000000000000068 .L0 
     /tmp/ccBMZU8T.s:121    .text:0000000000000070 .L0 
     /tmp/ccBMZU8T.s:122    .text:0000000000000070 .L0 
     /tmp/ccBMZU8T.s:124    .text:0000000000000074 .L0 
     /tmp/ccBMZU8T.s:127    .text:0000000000000074 .L0 
     /tmp/ccBMZU8T.s:128    .text:0000000000000074 .L0 
   src/syscall_c.cpp:29     .text:0000000000000074 .L0 
     /tmp/ccBMZU8T.s:134    .text:0000000000000078 .L0 
     /tmp/ccBMZU8T.s:136    .text:0000000000000078 .L0 
     /tmp/ccBMZU8T.s:141    .text:0000000000000084 .L0 
     /tmp/ccBMZU8T.s:143    .text:000000000000008c .L0 
GAS LISTING /tmp/ccBMZU8T.s 			page 19


     /tmp/ccBMZU8T.s:145    .text:0000000000000090 .L0 
     /tmp/ccBMZU8T.s:146    .text:0000000000000090 .L0 
     /tmp/ccBMZU8T.s:148    .text:0000000000000094 .L0 
     /tmp/ccBMZU8T.s:150    .text:0000000000000098 .L0 
     /tmp/ccBMZU8T.s:156    .text:0000000000000098 _Z18thread_create_onlyPP3PCBPFvPvES2_
     /tmp/ccBMZU8T.s:159    .text:0000000000000098 .L0 
     /tmp/ccBMZU8T.s:161    .text:0000000000000098 .L0 
     /tmp/ccBMZU8T.s:162    .text:000000000000009c .L0 
     /tmp/ccBMZU8T.s:165    .text:00000000000000a4 .L0 
     /tmp/ccBMZU8T.s:166    .text:00000000000000a4 .L0 
     /tmp/ccBMZU8T.s:168    .text:00000000000000a8 .L0 
     /tmp/ccBMZU8T.s:171    .text:00000000000000a8 .L0 
     /tmp/ccBMZU8T.s:172    .text:00000000000000a8 .L0 
   src/syscall_c.cpp:37     .text:00000000000000a8 .L0 
     /tmp/ccBMZU8T.s:178    .text:00000000000000ac .L0 
   src/syscall_c.cpp:38     .text:00000000000000ac .L0 
     /tmp/ccBMZU8T.s:183    .text:00000000000000b0 .L0 
   src/syscall_c.cpp:39     .text:00000000000000b0 .L0 
     /tmp/ccBMZU8T.s:188    .text:00000000000000b4 .L0 
     /tmp/ccBMZU8T.s:190    .text:00000000000000b4 .L0 
     /tmp/ccBMZU8T.s:195    .text:00000000000000c0 .L0 
     /tmp/ccBMZU8T.s:197    .text:00000000000000c4 .L0 
   src/syscall_c.cpp:44     .text:00000000000000c4 .L0 
     /tmp/ccBMZU8T.s:203    .text:00000000000000c8 .L0 
   src/syscall_c.cpp:45     .text:00000000000000c8 .L0 
     /tmp/ccBMZU8T.s:208    .text:00000000000000cc .L0 
     /tmp/ccBMZU8T.s:210    .text:00000000000000cc .L0 
     /tmp/ccBMZU8T.s:215    .text:00000000000000d8 .L0 
     /tmp/ccBMZU8T.s:216    .text:00000000000000d8 .L0 
     /tmp/ccBMZU8T.s:218    .text:00000000000000dc .L0 
     /tmp/ccBMZU8T.s:220    .text:00000000000000e0 .L0 
     /tmp/ccBMZU8T.s:224    .text:00000000000000e4 .L0 
     /tmp/ccBMZU8T.s:225    .text:00000000000000e8 .L0 
     /tmp/ccBMZU8T.s:226    .text:00000000000000e8 .L0 
     /tmp/ccBMZU8T.s:228    .text:00000000000000ec .L0 
     /tmp/ccBMZU8T.s:229    .text:00000000000000ec .L0 
     /tmp/ccBMZU8T.s:231    .text:00000000000000f0 .L0 
     /tmp/ccBMZU8T.s:235    .text:00000000000000f4 .L0 
     /tmp/ccBMZU8T.s:237    .text:00000000000000f4 .L0 
     /tmp/ccBMZU8T.s:243    .text:00000000000000fc .L0 
     /tmp/ccBMZU8T.s:246    .text:0000000000000104 .L0 
     /tmp/ccBMZU8T.s:252    .text:0000000000000104 _Z15thread_dispatchv
     /tmp/ccBMZU8T.s:255    .text:0000000000000104 .L0 
     /tmp/ccBMZU8T.s:256    .text:0000000000000104 .L0 
     /tmp/ccBMZU8T.s:257    .text:0000000000000108 .L0 
     /tmp/ccBMZU8T.s:260    .text:0000000000000110 .L0 
     /tmp/ccBMZU8T.s:261    .text:0000000000000110 .L0 
     /tmp/ccBMZU8T.s:263    .text:0000000000000114 .L0 
     /tmp/ccBMZU8T.s:266    .text:0000000000000114 .L0 
     /tmp/ccBMZU8T.s:267    .text:0000000000000114 .L0 
     /tmp/ccBMZU8T.s:268    .text:0000000000000114 .L0 
     /tmp/ccBMZU8T.s:272    .text:0000000000000120 .L0 
     /tmp/ccBMZU8T.s:273    .text:0000000000000124 .L0 
     /tmp/ccBMZU8T.s:275    .text:0000000000000128 .L0 
     /tmp/ccBMZU8T.s:276    .text:0000000000000128 .L0 
     /tmp/ccBMZU8T.s:278    .text:000000000000012c .L0 
     /tmp/ccBMZU8T.s:280    .text:0000000000000130 .L0 
GAS LISTING /tmp/ccBMZU8T.s 			page 20


     /tmp/ccBMZU8T.s:286    .text:0000000000000130 _Z11thread_exitv
     /tmp/ccBMZU8T.s:289    .text:0000000000000130 .L0 
     /tmp/ccBMZU8T.s:290    .text:0000000000000130 .L0 
     /tmp/ccBMZU8T.s:291    .text:0000000000000134 .L0 
     /tmp/ccBMZU8T.s:294    .text:000000000000013c .L0 
     /tmp/ccBMZU8T.s:295    .text:000000000000013c .L0 
     /tmp/ccBMZU8T.s:297    .text:0000000000000140 .L0 
     /tmp/ccBMZU8T.s:300    .text:0000000000000140 .L0 
     /tmp/ccBMZU8T.s:301    .text:0000000000000140 .L0 
     /tmp/ccBMZU8T.s:302    .text:0000000000000140 .L0 
     /tmp/ccBMZU8T.s:306    .text:000000000000014c .L0 
     /tmp/ccBMZU8T.s:308    .text:0000000000000154 .L0 
     /tmp/ccBMZU8T.s:310    .text:0000000000000158 .L0 
     /tmp/ccBMZU8T.s:311    .text:0000000000000158 .L0 
     /tmp/ccBMZU8T.s:313    .text:000000000000015c .L0 
     /tmp/ccBMZU8T.s:315    .text:0000000000000160 .L0 
     /tmp/ccBMZU8T.s:321    .text:0000000000000160 _Z12thread_startPP3PCB
     /tmp/ccBMZU8T.s:324    .text:0000000000000160 .L0 
     /tmp/ccBMZU8T.s:326    .text:0000000000000160 .L0 
     /tmp/ccBMZU8T.s:327    .text:0000000000000164 .L0 
     /tmp/ccBMZU8T.s:330    .text:000000000000016c .L0 
     /tmp/ccBMZU8T.s:331    .text:000000000000016c .L0 
     /tmp/ccBMZU8T.s:333    .text:0000000000000170 .L0 
     /tmp/ccBMZU8T.s:336    .text:0000000000000170 .L0 
     /tmp/ccBMZU8T.s:337    .text:0000000000000170 .L0 
   src/syscall_c.cpp:72     .text:0000000000000170 .L0 
     /tmp/ccBMZU8T.s:343    .text:0000000000000174 .L0 
     /tmp/ccBMZU8T.s:345    .text:0000000000000174 .L0 
     /tmp/ccBMZU8T.s:350    .text:0000000000000180 .L0 
     /tmp/ccBMZU8T.s:351    .text:0000000000000184 .L0 
     /tmp/ccBMZU8T.s:353    .text:0000000000000188 .L0 
     /tmp/ccBMZU8T.s:354    .text:0000000000000188 .L0 
     /tmp/ccBMZU8T.s:356    .text:000000000000018c .L0 
     /tmp/ccBMZU8T.s:358    .text:0000000000000190 .L0 
     /tmp/ccBMZU8T.s:364    .text:0000000000000190 _Z13thread_createPP3PCBPFvPvES2_
     /tmp/ccBMZU8T.s:367    .text:0000000000000190 .L0 
     /tmp/ccBMZU8T.s:369    .text:0000000000000190 .L0 
     /tmp/ccBMZU8T.s:370    .text:0000000000000194 .L0 
     /tmp/ccBMZU8T.s:375    .text:00000000000001a4 .L0 
     /tmp/ccBMZU8T.s:376    .text:00000000000001a4 .L0 
     /tmp/ccBMZU8T.s:377    .text:00000000000001a4 .L0 
     /tmp/ccBMZU8T.s:378    .text:00000000000001a4 .L0 
     /tmp/ccBMZU8T.s:380    .text:00000000000001a8 .L0 
     /tmp/ccBMZU8T.s:383    .text:00000000000001ac .L0 
     /tmp/ccBMZU8T.s:384    .text:00000000000001ac .L0 
     /tmp/ccBMZU8T.s:389    .text:00000000000001b8 .L0 
     /tmp/ccBMZU8T.s:390    .text:00000000000001b8 .L0 
     /tmp/ccBMZU8T.s:394    .text:00000000000001c4 .L0 
     /tmp/ccBMZU8T.s:395    .text:00000000000001c4 .L0 
     /tmp/ccBMZU8T.s:397    .text:00000000000001cc .L0 
     /tmp/ccBMZU8T.s:399    .text:00000000000001d0 .L0 
     /tmp/ccBMZU8T.s:400    .text:00000000000001d0 .L0 
     /tmp/ccBMZU8T.s:402    .text:00000000000001d4 .L0 
     /tmp/ccBMZU8T.s:405    .text:00000000000001d8 .L0 
     /tmp/ccBMZU8T.s:408    .text:00000000000001dc .L0 
     /tmp/ccBMZU8T.s:410    .text:00000000000001e0 .L0 
     /tmp/ccBMZU8T.s:416    .text:00000000000001e0 _Z8sem_openPP3SCBj
GAS LISTING /tmp/ccBMZU8T.s 			page 21


     /tmp/ccBMZU8T.s:419    .text:00000000000001e0 .L0 
     /tmp/ccBMZU8T.s:421    .text:00000000000001e0 .L0 
     /tmp/ccBMZU8T.s:422    .text:00000000000001e4 .L0 
     /tmp/ccBMZU8T.s:425    .text:00000000000001ec .L0 
     /tmp/ccBMZU8T.s:426    .text:00000000000001ec .L0 
     /tmp/ccBMZU8T.s:428    .text:00000000000001f0 .L0 
     /tmp/ccBMZU8T.s:431    .text:00000000000001f0 .L0 
     /tmp/ccBMZU8T.s:432    .text:00000000000001f0 .L0 
   src/syscall_c.cpp:79     .text:00000000000001f0 .L0 
     /tmp/ccBMZU8T.s:438    .text:00000000000001f4 .L0 
   src/syscall_c.cpp:80     .text:00000000000001f4 .L0 
     /tmp/ccBMZU8T.s:443    .text:00000000000001f8 .L0 
     /tmp/ccBMZU8T.s:445    .text:00000000000001f8 .L0 
     /tmp/ccBMZU8T.s:450    .text:0000000000000204 .L0 
     /tmp/ccBMZU8T.s:451    .text:0000000000000204 .L0 
     /tmp/ccBMZU8T.s:453    .text:0000000000000208 .L0 
     /tmp/ccBMZU8T.s:455    .text:000000000000020c .L0 
     /tmp/ccBMZU8T.s:459    .text:0000000000000210 .L0 
     /tmp/ccBMZU8T.s:460    .text:0000000000000214 .L0 
     /tmp/ccBMZU8T.s:461    .text:0000000000000214 .L0 
     /tmp/ccBMZU8T.s:463    .text:0000000000000218 .L0 
     /tmp/ccBMZU8T.s:464    .text:0000000000000218 .L0 
     /tmp/ccBMZU8T.s:466    .text:000000000000021c .L0 
     /tmp/ccBMZU8T.s:470    .text:0000000000000220 .L0 
     /tmp/ccBMZU8T.s:472    .text:0000000000000220 .L0 
     /tmp/ccBMZU8T.s:475    .text:0000000000000228 .L0 
     /tmp/ccBMZU8T.s:481    .text:0000000000000228 _Z8sem_waitP3SCB
     /tmp/ccBMZU8T.s:484    .text:0000000000000228 .L0 
     /tmp/ccBMZU8T.s:486    .text:0000000000000228 .L0 
     /tmp/ccBMZU8T.s:487    .text:000000000000022c .L0 
     /tmp/ccBMZU8T.s:490    .text:0000000000000234 .L0 
     /tmp/ccBMZU8T.s:491    .text:0000000000000234 .L0 
     /tmp/ccBMZU8T.s:493    .text:0000000000000238 .L0 
     /tmp/ccBMZU8T.s:497    .text:000000000000023c .L0 
     /tmp/ccBMZU8T.s:498    .text:000000000000023c .L0 
     /tmp/ccBMZU8T.s:499    .text:000000000000023c .L0 
     /tmp/ccBMZU8T.s:501    .text:0000000000000240 .L0 
     /tmp/ccBMZU8T.s:503    .text:0000000000000244 .L0 
   src/syscall_c.cpp:93     .text:0000000000000244 .L0 
     /tmp/ccBMZU8T.s:509    .text:0000000000000248 .L0 
     /tmp/ccBMZU8T.s:511    .text:0000000000000248 .L0 
     /tmp/ccBMZU8T.s:516    .text:0000000000000254 .L0 
     /tmp/ccBMZU8T.s:518    .text:0000000000000258 .L0 
     /tmp/ccBMZU8T.s:519    .text:0000000000000258 .L0 
     /tmp/ccBMZU8T.s:523    .text:0000000000000260 .L0 
     /tmp/ccBMZU8T.s:524    .text:0000000000000260 .L0 
     /tmp/ccBMZU8T.s:531    .text:000000000000026c .L0 
     /tmp/ccBMZU8T.s:532    .text:000000000000026c .L0 
     /tmp/ccBMZU8T.s:537    .text:0000000000000270 .L0 
     /tmp/ccBMZU8T.s:539    .text:0000000000000274 .L0 
     /tmp/ccBMZU8T.s:542    .text:0000000000000278 .L0 
     /tmp/ccBMZU8T.s:543    .text:000000000000027c .L0 
     /tmp/ccBMZU8T.s:544    .text:000000000000027c .L0 
     /tmp/ccBMZU8T.s:546    .text:0000000000000280 .L0 
     /tmp/ccBMZU8T.s:547    .text:0000000000000280 .L0 
     /tmp/ccBMZU8T.s:550    .text:0000000000000284 .L0 
     /tmp/ccBMZU8T.s:555    .text:0000000000000288 .L0 
GAS LISTING /tmp/ccBMZU8T.s 			page 22


     /tmp/ccBMZU8T.s:557    .text:0000000000000288 .L0 
     /tmp/ccBMZU8T.s:562    .text:0000000000000290 .L0 
     /tmp/ccBMZU8T.s:564    .text:0000000000000298 .L0 
     /tmp/ccBMZU8T.s:570    .text:0000000000000298 _Z10sem_signalP3SCB
     /tmp/ccBMZU8T.s:573    .text:0000000000000298 .L0 
     /tmp/ccBMZU8T.s:575    .text:0000000000000298 .L0 
     /tmp/ccBMZU8T.s:576    .text:0000000000000298 .L0 
     /tmp/ccBMZU8T.s:577    .text:0000000000000298 .L0 
     /tmp/ccBMZU8T.s:579    .text:000000000000029c .L0 
     /tmp/ccBMZU8T.s:580    .text:00000000000002a0 .L0 
     /tmp/ccBMZU8T.s:583    .text:00000000000002a8 .L0 
     /tmp/ccBMZU8T.s:584    .text:00000000000002a8 .L0 
     /tmp/ccBMZU8T.s:586    .text:00000000000002ac .L0 
     /tmp/ccBMZU8T.s:588    .text:00000000000002ac .L0 
   src/syscall_c.cpp:107    .text:00000000000002ac .L0 
     /tmp/ccBMZU8T.s:594    .text:00000000000002b0 .L0 
     /tmp/ccBMZU8T.s:596    .text:00000000000002b0 .L0 
     /tmp/ccBMZU8T.s:601    .text:00000000000002bc .L0 
     /tmp/ccBMZU8T.s:603    .text:00000000000002c0 .L0 
     /tmp/ccBMZU8T.s:605    .text:00000000000002c4 .L0 
     /tmp/ccBMZU8T.s:606    .text:00000000000002c4 .L0 
     /tmp/ccBMZU8T.s:610    .text:00000000000002d0 .L0 
     /tmp/ccBMZU8T.s:613    .text:00000000000002d4 .L0 
     /tmp/ccBMZU8T.s:614    .text:00000000000002d8 .L0 
     /tmp/ccBMZU8T.s:616    .text:00000000000002dc .L0 
     /tmp/ccBMZU8T.s:617    .text:00000000000002dc .L0 
     /tmp/ccBMZU8T.s:619    .text:00000000000002e0 .L0 
     /tmp/ccBMZU8T.s:624    .text:00000000000002e4 .L0 
     /tmp/ccBMZU8T.s:627    .text:00000000000002e8 .L0 
     /tmp/ccBMZU8T.s:629    .text:00000000000002ec .L0 
     /tmp/ccBMZU8T.s:630    .text:00000000000002ec .L0 
     /tmp/ccBMZU8T.s:631    .text:00000000000002ec .L0 
     /tmp/ccBMZU8T.s:633    .text:00000000000002ec .L0 
     /tmp/ccBMZU8T.s:635    .text:00000000000002f4 .L0 
     /tmp/ccBMZU8T.s:641    .text:00000000000002f4 _Z9sem_closeP3SCB
     /tmp/ccBMZU8T.s:644    .text:00000000000002f4 .L0 
     /tmp/ccBMZU8T.s:646    .text:00000000000002f4 .L0 
     /tmp/ccBMZU8T.s:647    .text:00000000000002f4 .L0 
     /tmp/ccBMZU8T.s:648    .text:00000000000002f4 .L0 
     /tmp/ccBMZU8T.s:650    .text:00000000000002f8 .L0 
     /tmp/ccBMZU8T.s:651    .text:00000000000002fc .L0 
     /tmp/ccBMZU8T.s:654    .text:0000000000000304 .L0 
     /tmp/ccBMZU8T.s:655    .text:0000000000000304 .L0 
     /tmp/ccBMZU8T.s:657    .text:0000000000000308 .L0 
     /tmp/ccBMZU8T.s:659    .text:0000000000000308 .L0 
   src/syscall_c.cpp:121    .text:0000000000000308 .L0 
     /tmp/ccBMZU8T.s:665    .text:000000000000030c .L0 
     /tmp/ccBMZU8T.s:667    .text:000000000000030c .L0 
     /tmp/ccBMZU8T.s:672    .text:0000000000000318 .L0 
     /tmp/ccBMZU8T.s:673    .text:0000000000000318 .L0 
     /tmp/ccBMZU8T.s:675    .text:000000000000031c .L0 
     /tmp/ccBMZU8T.s:676    .text:0000000000000320 .L0 
     /tmp/ccBMZU8T.s:678    .text:0000000000000324 .L0 
     /tmp/ccBMZU8T.s:679    .text:0000000000000324 .L0 
     /tmp/ccBMZU8T.s:681    .text:0000000000000328 .L0 
     /tmp/ccBMZU8T.s:686    .text:000000000000032c .L0 
     /tmp/ccBMZU8T.s:689    .text:0000000000000330 .L0 
GAS LISTING /tmp/ccBMZU8T.s 			page 23


     /tmp/ccBMZU8T.s:690    .text:0000000000000334 .L0 
     /tmp/ccBMZU8T.s:696    .text:0000000000000334 _Z10time_sleepm
     /tmp/ccBMZU8T.s:699    .text:0000000000000334 .L0 
     /tmp/ccBMZU8T.s:701    .text:0000000000000334 .L0 
     /tmp/ccBMZU8T.s:702    .text:0000000000000334 .L0 
     /tmp/ccBMZU8T.s:703    .text:0000000000000334 .L0 
     /tmp/ccBMZU8T.s:705    .text:0000000000000338 .L0 
     /tmp/ccBMZU8T.s:706    .text:000000000000033c .L0 
     /tmp/ccBMZU8T.s:709    .text:0000000000000344 .L0 
     /tmp/ccBMZU8T.s:710    .text:0000000000000344 .L0 
     /tmp/ccBMZU8T.s:712    .text:0000000000000348 .L0 
     /tmp/ccBMZU8T.s:714    .text:0000000000000348 .L0 
   src/syscall_c.cpp:130    .text:0000000000000348 .L0 
     /tmp/ccBMZU8T.s:720    .text:000000000000034c .L0 
     /tmp/ccBMZU8T.s:722    .text:000000000000034c .L0 
     /tmp/ccBMZU8T.s:727    .text:0000000000000358 .L0 
     /tmp/ccBMZU8T.s:728    .text:0000000000000358 .L0 
     /tmp/ccBMZU8T.s:731    .text:0000000000000360 .L0 
     /tmp/ccBMZU8T.s:732    .text:0000000000000360 .L0 
     /tmp/ccBMZU8T.s:734    .text:0000000000000364 .L0 
     /tmp/ccBMZU8T.s:735    .text:0000000000000368 .L0 
     /tmp/ccBMZU8T.s:737    .text:000000000000036c .L0 
     /tmp/ccBMZU8T.s:738    .text:000000000000036c .L0 
     /tmp/ccBMZU8T.s:740    .text:0000000000000370 .L0 
     /tmp/ccBMZU8T.s:745    .text:0000000000000374 .L0 
     /tmp/ccBMZU8T.s:748    .text:0000000000000378 .L0 
     /tmp/ccBMZU8T.s:749    .text:000000000000037c .L0 
     /tmp/ccBMZU8T.s:755    .text:000000000000037c .L0 
     /tmp/ccBMZU8T.s:524    .text:0000000000000260 .L0 
     /tmp/ccBMZU8T.s:234    .text:00000000000000f4 .L9
     /tmp/ccBMZU8T.s:241    .text:00000000000000fc .L10
     /tmp/ccBMZU8T.s:222    .text:00000000000000e4 .L8
     /tmp/ccBMZU8T.s:469    .text:0000000000000220 .L22
     /tmp/ccBMZU8T.s:457    .text:0000000000000210 .L21
     /tmp/ccBMZU8T.s:554    .text:0000000000000288 .L27
     /tmp/ccBMZU8T.s:521    .text:0000000000000260 .L26
     /tmp/ccBMZU8T.s:560    .text:0000000000000290 .L28
     /tmp/ccBMZU8T.s:540    .text:0000000000000278 .L25
     /tmp/ccBMZU8T.s:622    .text:00000000000002e4 .L32
     /tmp/ccBMZU8T.s:628    .text:00000000000002ec .L33
     /tmp/ccBMZU8T.s:611    .text:00000000000002d4 .L31
     /tmp/ccBMZU8T.s:684    .text:000000000000032c .L40
     /tmp/ccBMZU8T.s:743    .text:0000000000000374 .L47
     /tmp/ccBMZU8T.s:2042   .debug_abbrev:0000000000000000 .Ldebug_abbrev0
     /tmp/ccBMZU8T.s:3542   .debug_str:000000000000068c .LASF119
     /tmp/ccBMZU8T.s:3456   .debug_str:00000000000003b3 .LASF120
     /tmp/ccBMZU8T.s:3516   .debug_str:00000000000005d5 .LASF121
     /tmp/ccBMZU8T.s:5      .text:0000000000000000 .Ltext0
     /tmp/ccBMZU8T.s:752    .text:000000000000037c .Letext0
     /tmp/ccBMZU8T.s:3336   .debug_line:0000000000000000 .Ldebug_line0
     /tmp/ccBMZU8T.s:3412   .debug_str:0000000000000235 .LASF0
     /tmp/ccBMZU8T.s:3434   .debug_str:00000000000002f9 .LASF1
     /tmp/ccBMZU8T.s:3502   .debug_str:000000000000054d .LASF2
     /tmp/ccBMZU8T.s:3506   .debug_str:000000000000056e .LASF4
     /tmp/ccBMZU8T.s:3420   .debug_str:000000000000026d .LASF3
     /tmp/ccBMZU8T.s:3344   .debug_str:0000000000000022 .LASF5
     /tmp/ccBMZU8T.s:3484   .debug_str:00000000000004bc .LASF6
GAS LISTING /tmp/ccBMZU8T.s 			page 24


     /tmp/ccBMZU8T.s:3476   .debug_str:0000000000000487 .LASF7
     /tmp/ccBMZU8T.s:3428   .debug_str:00000000000002d7 .LASF8
     /tmp/ccBMZU8T.s:3396   .debug_str:00000000000001c5 .LASF9
     /tmp/ccBMZU8T.s:3400   .debug_str:00000000000001ec .LASF10
     /tmp/ccBMZU8T.s:3360   .debug_str:00000000000000b5 .LASF11
     /tmp/ccBMZU8T.s:3388   .debug_str:000000000000019d .LASF12
     /tmp/ccBMZU8T.s:3364   .debug_str:00000000000000c9 .LASF13
     /tmp/ccBMZU8T.s:3358   .debug_str:00000000000000a5 .LASF14
     /tmp/ccBMZU8T.s:3530   .debug_str:0000000000000642 .LASF15
     /tmp/ccBMZU8T.s:3380   .debug_str:000000000000014a .LASF16
     /tmp/ccBMZU8T.s:3522   .debug_str:0000000000000608 .LASF17
     /tmp/ccBMZU8T.s:3560   .debug_str:00000000000007e2 .LASF18
     /tmp/ccBMZU8T.s:3534   .debug_str:000000000000065e .LASF19
     /tmp/ccBMZU8T.s:3568   .debug_str:000000000000081b .LASF21
     /tmp/ccBMZU8T.s:3378   .debug_str:0000000000000137 .LASF20
     /tmp/ccBMZU8T.s:3552   .debug_str:000000000000078f .LASF22
     /tmp/ccBMZU8T.s:3532   .debug_str:000000000000064e .LASF23
     /tmp/ccBMZU8T.s:3422   .debug_str:000000000000027f .LASF24
     /tmp/ccBMZU8T.s:3386   .debug_str:000000000000018d .LASF27
     /tmp/ccBMZU8T.s:3598   .debug_str:00000000000008f3 .LASF29
     /tmp/ccBMZU8T.s:3402   .debug_str:00000000000001fa .LASF25
     /tmp/ccBMZU8T.s:3440   .debug_str:0000000000000338 .LASF26
     /tmp/ccBMZU8T.s:3462   .debug_str:00000000000003e5 .LASF28
     /tmp/ccBMZU8T.s:3594   .debug_str:00000000000008d1 .LASF30
     /tmp/ccBMZU8T.s:3536   .debug_str:0000000000000669 .LASF31
     /tmp/ccBMZU8T.s:3582   .debug_str:0000000000000881 .LASF32
     /tmp/ccBMZU8T.s:3556   .debug_str:00000000000007cf .LASF33
     /tmp/ccBMZU8T.s:3544   .debug_str:0000000000000750 .LASF34
     /tmp/ccBMZU8T.s:3592   .debug_str:00000000000008c2 .LASF35
     /tmp/ccBMZU8T.s:3346   .debug_str:0000000000000029 .LASF36
     /tmp/ccBMZU8T.s:3518   .debug_str:00000000000005f3 .LASF122
     /tmp/ccBMZU8T.s:3438   .debug_str:0000000000000332 .LASF123
     /tmp/ccBMZU8T.s:3442   .debug_str:0000000000000352 .LASF124
     /tmp/ccBMZU8T.s:3540   .debug_str:0000000000000684 .LASF79
     /tmp/ccBMZU8T.s:3432   .debug_str:00000000000002f4 .LASF37
     /tmp/ccBMZU8T.s:3586   .debug_str:00000000000008a4 .LASF38
     /tmp/ccBMZU8T.s:3590   .debug_str:00000000000008b5 .LASF39
     /tmp/ccBMZU8T.s:3382   .debug_str:0000000000000160 .LASF40
     /tmp/ccBMZU8T.s:3340   .debug_str:0000000000000007 .LASF41
     /tmp/ccBMZU8T.s:3418   .debug_str:0000000000000260 .LASF77
     /tmp/ccBMZU8T.s:3408   .debug_str:0000000000000221 .LASF125
     /tmp/ccBMZU8T.s:3356   .debug_str:000000000000008f .LASF126
     /tmp/ccBMZU8T.s:3368   .debug_str:00000000000000ec .LASF127
     /tmp/ccBMZU8T.s:3342   .debug_str:0000000000000017 .LASF42
     /tmp/ccBMZU8T.s:3452   .debug_str:00000000000003a1 .LASF43
     /tmp/ccBMZU8T.s:3566   .debug_str:0000000000000812 .LASF44
     /tmp/ccBMZU8T.s:3430   .debug_str:00000000000002ea .LASF45
     /tmp/ccBMZU8T.s:3588   .debug_str:00000000000008b0 .LASF46
     /tmp/ccBMZU8T.s:3520   .debug_str:00000000000005ff .LASF47
     /tmp/ccBMZU8T.s:3470   .debug_str:0000000000000462 .LASF48
     /tmp/ccBMZU8T.s:3446   .debug_str:000000000000036c .LASF49
     /tmp/ccBMZU8T.s:3572   .debug_str:0000000000000840 .LASF50
     /tmp/ccBMZU8T.s:3376   .debug_str:0000000000000129 .LASF51
     /tmp/ccBMZU8T.s:3548   .debug_str:000000000000077b .LASF52
     /tmp/ccBMZU8T.s:3512   .debug_str:00000000000005bb .LASF81
     /tmp/ccBMZU8T.s:3374   .debug_str:0000000000000120 .LASF58
     /tmp/ccBMZU8T.s:3350   .debug_str:000000000000005e .LASF60
GAS LISTING /tmp/ccBMZU8T.s 			page 25


     /tmp/ccBMZU8T.s:3414   .debug_str:0000000000000242 .LASF53
     /tmp/ccBMZU8T.s:3562   .debug_str:00000000000007eb .LASF55
     /tmp/ccBMZU8T.s:3416   .debug_str:0000000000000251 .LASF54
     /tmp/ccBMZU8T.s:3508   .debug_str:0000000000000575 .LASF56
     /tmp/ccBMZU8T.s:3444   .debug_str:0000000000000362 .LASF57
     /tmp/ccBMZU8T.s:3486   .debug_str:00000000000004c3 .LASF59
     /tmp/ccBMZU8T.s:3574   .debug_str:000000000000084d .LASF61
     /tmp/ccBMZU8T.s:3578   .debug_str:000000000000086d .LASF62
     /tmp/ccBMZU8T.s:3474   .debug_str:0000000000000477 .LASF63
     /tmp/ccBMZU8T.s:3394   .debug_str:00000000000001b9 .LASF128
     /tmp/ccBMZU8T.s:3564   .debug_str:0000000000000809 .LASF64
     /tmp/ccBMZU8T.s:3576   .debug_str:0000000000000868 .LASF65
     /tmp/ccBMZU8T.s:3362   .debug_str:00000000000000c4 .LASF66
     /tmp/ccBMZU8T.s:3338   .debug_str:0000000000000000 .LASF67
     /tmp/ccBMZU8T.s:3498   .debug_str:0000000000000514 .LASF68
     /tmp/ccBMZU8T.s:3424   .debug_str:000000000000029b .LASF129
     /tmp/ccBMZU8T.s:3550   .debug_str:0000000000000785 .LASF69
     /tmp/ccBMZU8T.s:3554   .debug_str:00000000000007ae .LASF70
     /tmp/ccBMZU8T.s:3410   .debug_str:000000000000022c .LASF71
     /tmp/ccBMZU8T.s:3464   .debug_str:00000000000003f3 .LASF72
     /tmp/ccBMZU8T.s:3372   .debug_str:0000000000000113 .LASF73
     /tmp/ccBMZU8T.s:3468   .debug_str:000000000000043d .LASF74
     /tmp/ccBMZU8T.s:3472   .debug_str:000000000000046a .LASF75
     /tmp/ccBMZU8T.s:3448   .debug_str:0000000000000377 .LASF76
     /tmp/ccBMZU8T.s:3352   .debug_str:0000000000000071 .LASF78
     /tmp/ccBMZU8T.s:3570   .debug_str:0000000000000832 .LASF80
     /tmp/ccBMZU8T.s:3526   .debug_str:000000000000062f .LASF82
     /tmp/ccBMZU8T.s:3538   .debug_str:0000000000000674 .LASF83
     /tmp/ccBMZU8T.s:3466   .debug_str:0000000000000414 .LASF84
     /tmp/ccBMZU8T.s:3458   .debug_str:00000000000003c5 .LASF85
     /tmp/ccBMZU8T.s:3510   .debug_str:0000000000000593 .LASF86
     /tmp/ccBMZU8T.s:3450   .debug_str:000000000000039c .LASF87
     /tmp/ccBMZU8T.s:3500   .debug_str:0000000000000542 .LASF89
     /tmp/ccBMZU8T.s:3482   .debug_str:00000000000004ac .LASF91
     /tmp/ccBMZU8T.s:697    .text:0000000000000334 .LFB46
     /tmp/ccBMZU8T.s:750    .text:000000000000037c .LFE46
     /tmp/ccBMZU8T.s:3480   .debug_str:00000000000004a7 .LASF93
     /tmp/ccBMZU8T.s:2938   .debug_loc:0000000000000000 .LLST19
     /tmp/ccBMZU8T.s:3558   .debug_str:00000000000007dd .LASF88
     /tmp/ccBMZU8T.s:725    .text:0000000000000358 .LVL70
     /tmp/ccBMZU8T.s:729    .text:0000000000000360 .LVL71
     /tmp/ccBMZU8T.s:3488   .debug_str:00000000000004d3 .LASF90
     /tmp/ccBMZU8T.s:3546   .debug_str:0000000000000769 .LASF92
     /tmp/ccBMZU8T.s:642    .text:00000000000002f4 .LFB45
     /tmp/ccBMZU8T.s:691    .text:0000000000000334 .LFE45
     /tmp/ccBMZU8T.s:3596   .debug_str:00000000000008ec .LASF94
     /tmp/ccBMZU8T.s:2963   .debug_loc:0000000000000062 .LLST18
     /tmp/ccBMZU8T.s:670    .text:0000000000000318 .LVL65
     /tmp/ccBMZU8T.s:3406   .debug_str:0000000000000216 .LASF95
     /tmp/ccBMZU8T.s:3370   .debug_str:00000000000000ff .LASF96
     /tmp/ccBMZU8T.s:571    .text:0000000000000298 .LFB44
     /tmp/ccBMZU8T.s:636    .text:00000000000002f4 .LFE44
     /tmp/ccBMZU8T.s:2988   .debug_loc:00000000000000c4 .LLST17
     /tmp/ccBMZU8T.s:3390   .debug_str:00000000000001ac .LASF97
     /tmp/ccBMZU8T.s:599    .text:00000000000002bc .LVL59
     /tmp/ccBMZU8T.s:608    .text:00000000000002d0 .LVL60
     /tmp/ccBMZU8T.s:3514   .debug_str:00000000000005cc .LASF98
GAS LISTING /tmp/ccBMZU8T.s 			page 26


     /tmp/ccBMZU8T.s:3460   .debug_str:00000000000003d4 .LASF99
     /tmp/ccBMZU8T.s:482    .text:0000000000000228 .LFB43
     /tmp/ccBMZU8T.s:565    .text:0000000000000298 .LFE43
     /tmp/ccBMZU8T.s:3013   .debug_loc:0000000000000126 .LLST15
     /tmp/ccBMZU8T.s:527    .text:000000000000026c .LBB8
     /tmp/ccBMZU8T.s:535    .text:0000000000000270 .LBE8
     /tmp/ccBMZU8T.s:3044   .debug_loc:00000000000001ac .LLST16
     /tmp/ccBMZU8T.s:514    .text:0000000000000254 .LVL49
     /tmp/ccBMZU8T.s:520    .text:0000000000000260 .LVL50
     /tmp/ccBMZU8T.s:3496   .debug_str:000000000000050b .LASF100
     /tmp/ccBMZU8T.s:3494   .debug_str:00000000000004f8 .LASF101
     /tmp/ccBMZU8T.s:417    .text:00000000000001e0 .LFB42
     /tmp/ccBMZU8T.s:476    .text:0000000000000228 .LFE42
     /tmp/ccBMZU8T.s:3051   .debug_loc:00000000000001cf .LLST13
     /tmp/ccBMZU8T.s:3354   .debug_str:000000000000008a .LASF102
     /tmp/ccBMZU8T.s:3073   .debug_loc:000000000000022e .LLST14
     /tmp/ccBMZU8T.s:448    .text:0000000000000204 .LVL42
     /tmp/ccBMZU8T.s:3478   .debug_str:000000000000049a .LASF103
     /tmp/ccBMZU8T.s:3398   .debug_str:00000000000001d5 .LASF104
     /tmp/ccBMZU8T.s:322    .text:0000000000000160 .LFB41
     /tmp/ccBMZU8T.s:359    .text:0000000000000190 .LFE41
     /tmp/ccBMZU8T.s:3087   .debug_loc:0000000000000267 .LLST8
     /tmp/ccBMZU8T.s:348    .text:0000000000000180 .LVL32
     /tmp/ccBMZU8T.s:3454   .debug_str:00000000000003a7 .LASF105
     /tmp/ccBMZU8T.s:3524   .debug_str:000000000000061e .LASF106
     /tmp/ccBMZU8T.s:287    .text:0000000000000130 .LFB40
     /tmp/ccBMZU8T.s:316    .text:0000000000000160 .LFE40
     /tmp/ccBMZU8T.s:304    .text:000000000000014c .LVL28
     /tmp/ccBMZU8T.s:3490   .debug_str:00000000000004dd .LASF107
     /tmp/ccBMZU8T.s:3348   .debug_str:0000000000000049 .LASF108
     /tmp/ccBMZU8T.s:253    .text:0000000000000104 .LFB39
     /tmp/ccBMZU8T.s:281    .text:0000000000000130 .LFE39
     /tmp/ccBMZU8T.s:270    .text:0000000000000120 .LVL26
     /tmp/ccBMZU8T.s:3528   .debug_str:0000000000000634 .LASF109
     /tmp/ccBMZU8T.s:3384   .debug_str:000000000000016c .LASF110
     /tmp/ccBMZU8T.s:365    .text:0000000000000190 .LFB38
     /tmp/ccBMZU8T.s:411    .text:00000000000001e0 .LFE38
     /tmp/ccBMZU8T.s:3101   .debug_loc:00000000000002a0 .LLST9
     /tmp/ccBMZU8T.s:3584   .debug_str:0000000000000897 .LASF111
     /tmp/ccBMZU8T.s:3119   .debug_loc:00000000000002ec .LLST10
     /tmp/ccBMZU8T.s:3133   .debug_loc:0000000000000325 .LLST11
     /tmp/ccBMZU8T.s:3147   .debug_loc:000000000000035e .LLST12
     /tmp/ccBMZU8T.s:385    .text:00000000000001b4 .LVL34
     /tmp/ccBMZU8T.s:392    .text:00000000000001c4 .LVL36
     /tmp/ccBMZU8T.s:3366   .debug_str:00000000000000d9 .LASF112
     /tmp/ccBMZU8T.s:3436   .debug_str:000000000000030c .LASF113
     /tmp/ccBMZU8T.s:157    .text:0000000000000098 .LFB37
     /tmp/ccBMZU8T.s:247    .text:0000000000000104 .LFE37
     /tmp/ccBMZU8T.s:3154   .debug_loc:0000000000000381 .LLST4
     /tmp/ccBMZU8T.s:3183   .debug_loc:00000000000003f6 .LLST5
     /tmp/ccBMZU8T.s:3197   .debug_loc:000000000000042f .LLST6
     /tmp/ccBMZU8T.s:3211   .debug_loc:0000000000000468 .LLST7
     /tmp/ccBMZU8T.s:193    .text:00000000000000c0 .LVL17
     /tmp/ccBMZU8T.s:213    .text:00000000000000d8 .LVL19
     /tmp/ccBMZU8T.s:3580   .debug_str:0000000000000873 .LASF114
     /tmp/ccBMZU8T.s:113    .text:0000000000000064 .LFB36
     /tmp/ccBMZU8T.s:151    .text:0000000000000098 .LFE36
GAS LISTING /tmp/ccBMZU8T.s 			page 27


     /tmp/ccBMZU8T.s:3492   .debug_str:00000000000004ed .LASF115
     /tmp/ccBMZU8T.s:3222   .debug_loc:000000000000049e .LLST3
     /tmp/ccBMZU8T.s:139    .text:0000000000000084 .LVL13
     /tmp/ccBMZU8T.s:3404   .debug_str:0000000000000208 .LASF116
     /tmp/ccBMZU8T.s:53     .text:0000000000000024 .LFB35
     /tmp/ccBMZU8T.s:107    .text:0000000000000064 .LFE35
     /tmp/ccBMZU8T.s:3236   .debug_loc:00000000000004d7 .LLST1
     /tmp/ccBMZU8T.s:68     .text:0000000000000034 .LBB6
     /tmp/ccBMZU8T.s:83     .text:0000000000000044 .LBE6
     /tmp/ccBMZU8T.s:3287   .debug_loc:0000000000000562 .LLST2
     /tmp/ccBMZU8T.s:96     .text:0000000000000054 .LVL9
     /tmp/ccBMZU8T.s:3426   .debug_str:00000000000002c9 .LASF117
     /tmp/ccBMZU8T.s:3504   .debug_str:000000000000055b .LASF118
     /tmp/ccBMZU8T.s:10     .text:0000000000000000 .LFB34
     /tmp/ccBMZU8T.s:47     .text:0000000000000024 .LFE34
     /tmp/ccBMZU8T.s:3301   .debug_loc:000000000000059b .LLST0
     /tmp/ccBMZU8T.s:3392   .debug_str:00000000000001b4 .LASF130
     /tmp/ccBMZU8T.s:700    .text:0000000000000334 .LVL68
     /tmp/ccBMZU8T.s:723    .text:0000000000000350 .LVL69
     /tmp/ccBMZU8T.s:742    .text:0000000000000374 .LVL72
     /tmp/ccBMZU8T.s:746    .text:0000000000000378 .LVL73
     /tmp/ccBMZU8T.s:645    .text:00000000000002f4 .LVL63
     /tmp/ccBMZU8T.s:668    .text:0000000000000310 .LVL64
     /tmp/ccBMZU8T.s:683    .text:000000000000032c .LVL66
     /tmp/ccBMZU8T.s:687    .text:0000000000000330 .LVL67
     /tmp/ccBMZU8T.s:574    .text:0000000000000298 .LVL57
     /tmp/ccBMZU8T.s:597    .text:00000000000002b4 .LVL58
     /tmp/ccBMZU8T.s:621    .text:00000000000002e4 .LVL61
     /tmp/ccBMZU8T.s:625    .text:00000000000002e8 .LVL62
     /tmp/ccBMZU8T.s:485    .text:0000000000000228 .LVL46
     /tmp/ccBMZU8T.s:512    .text:000000000000024c .LVL48
     /tmp/ccBMZU8T.s:548    .text:0000000000000280 .LVL53
     /tmp/ccBMZU8T.s:551    .text:0000000000000284 .LVL54
     /tmp/ccBMZU8T.s:553    .text:0000000000000288 .LVL55
     /tmp/ccBMZU8T.s:558    .text:000000000000028c .LVL56
     /tmp/ccBMZU8T.s:526    .text:000000000000026c .LVL51
     /tmp/ccBMZU8T.s:533    .text:0000000000000270 .LVL52
     /tmp/ccBMZU8T.s:420    .text:00000000000001e0 .LVL39
     /tmp/ccBMZU8T.s:446    .text:00000000000001fc .LVL41
     /tmp/ccBMZU8T.s:456    .text:0000000000000210 .LVL43
     /tmp/ccBMZU8T.s:468    .text:0000000000000220 .LVL44
     /tmp/ccBMZU8T.s:473    .text:0000000000000224 .LVL45
     /tmp/ccBMZU8T.s:325    .text:0000000000000160 .LVL29
     /tmp/ccBMZU8T.s:346    .text:0000000000000178 .LVL31
     /tmp/ccBMZU8T.s:368    .text:0000000000000190 .LVL33
     /tmp/ccBMZU8T.s:406    .text:00000000000001d8 .LVL38
     /tmp/ccBMZU8T.s:387    .text:00000000000001b8 .LVL35
     /tmp/ccBMZU8T.s:403    .text:00000000000001d4 .LVL37
     /tmp/ccBMZU8T.s:160    .text:0000000000000098 .LVL14
     /tmp/ccBMZU8T.s:191    .text:00000000000000b8 .LVL16
     /tmp/ccBMZU8T.s:221    .text:00000000000000e4 .LVL20
     /tmp/ccBMZU8T.s:233    .text:00000000000000f4 .LVL21
     /tmp/ccBMZU8T.s:240    .text:00000000000000fc .LVL23
     /tmp/ccBMZU8T.s:244    .text:0000000000000100 .LVL24
     /tmp/ccBMZU8T.s:211    .text:00000000000000d0 .LVL18
     /tmp/ccBMZU8T.s:238    .text:00000000000000f8 .LVL22
     /tmp/ccBMZU8T.s:116    .text:0000000000000064 .LVL10
GAS LISTING /tmp/ccBMZU8T.s 			page 28


     /tmp/ccBMZU8T.s:137    .text:000000000000007c .LVL12
     /tmp/ccBMZU8T.s:56     .text:0000000000000024 .LVL4
     /tmp/ccBMZU8T.s:76     .text:000000000000003c .LVL6
     /tmp/ccBMZU8T.s:81     .text:0000000000000044 .LVL7
     /tmp/ccBMZU8T.s:94     .text:000000000000004c .LVL8
     /tmp/ccBMZU8T.s:66     .text:0000000000000034 .LVL5
     /tmp/ccBMZU8T.s:14     .text:0000000000000000 .LVL0
     /tmp/ccBMZU8T.s:34     .text:0000000000000018 .LVL1
     /tmp/ccBMZU8T.s:41     .text:000000000000001c .LVL2
     /tmp/ccBMZU8T.s:44     .text:0000000000000020 .LVL3
     /tmp/ccBMZU8T.s:756    .debug_info:0000000000000000 .Ldebug_info0

UNDEFINED SYMBOLS
_ZN3PCB7runningE
