GAS LISTING /tmp/ccxq6xuX.s 			page 1


   1              		.file	"syscall_c.cpp"
   2              		.option pic
   3              		.option norelax
   4              		.text
   5              	.Ltext0:
   6              		.align	2
   7              		.globl	_Z13callInterruptm
   9              	_Z13callInterruptm:
  10              	.LFB42:
  11              		.file 1 "src/syscall_c.cpp"
   1:src/syscall_c.cpp **** #include "../h/syscall_c.h"
   2:src/syscall_c.cpp **** #include "../h/MemoryAllocator.h"
   3:src/syscall_c.cpp **** #include "../h/kernel.h"
   4:src/syscall_c.cpp **** #include "../h/PCB.h"
   5:src/syscall_c.cpp **** 
   6:src/syscall_c.cpp **** extern "C" void interrupt(); // u interrupt treba dodati i cuvanje konteksta
   7:src/syscall_c.cpp **** // prelazak u sistemski rezim i prelazak na sistemsku funkciju zadatu u registru stvec(asemblerska 
   8:src/syscall_c.cpp **** void* callInterrupt(size_t volatile code) {
  12              		.loc 1 8 43
  13              		.cfi_startproc
  14              	.LVL0:
  15 0000 130101FE 		addi	sp,sp,-32
  16              		.cfi_def_cfa_offset 32
  17 0004 233C8100 		sd	s0,24(sp)
  18              		.cfi_offset 8, -8
  19 0008 13040102 		addi	s0,sp,32
  20              		.cfi_def_cfa 8, 0
  21 000c 2334A4FE 		sd	a0,-24(s0)
   9:src/syscall_c.cpp ****     void* res;
  22              		.loc 1 9 5
  10:src/syscall_c.cpp ****     asm volatile("ecall");
  23              		.loc 1 10 5
  24              		.loc 1 10 26 is_stmt 0
  25              	#APP
  26              	# 10 "src/syscall_c.cpp" 1
  11              	    asm volatile("mv %0, a0" : "=r" (res));
  27              		ecall
  28              	# 0 "" 2
  29              		.loc 1 11 5 is_stmt 1
  30              		.loc 1 11 43 is_stmt 0
  31              	# 11 "src/syscall_c.cpp" 1
  12              	    return res;
  32              		mv a0, a0
  33              	# 0 "" 2
  34              	.LVL1:
  35              		.loc 1 12 5 is_stmt 1
  13:src/syscall_c.cpp **** }
  36              		.loc 1 13 1 is_stmt 0
  37              	#NO_APP
  38 0018 03348101 		ld	s0,24(sp)
  39              		.cfi_restore 8
  40              		.cfi_def_cfa 2, 32
  41              	.LVL2:
  42 001c 13010102 		addi	sp,sp,32
  43              		.cfi_def_cfa_offset 0
  44              	.LVL3:
  45 0020 67800000 		jr	ra
GAS LISTING /tmp/ccxq6xuX.s 			page 2


  46              		.cfi_endproc
  47              	.LFE42:
  49              		.align	2
  50              		.globl	_Z9mem_allocm
  52              	_Z9mem_allocm:
  53              	.LFB43:
  14:src/syscall_c.cpp **** 
  15:src/syscall_c.cpp **** // a0 code a1 size
  16:src/syscall_c.cpp **** void* mem_alloc(size_t size) {
  54              		.loc 1 16 30 is_stmt 1
  55              		.cfi_startproc
  56              	.LVL4:
  57 0024 130101FF 		addi	sp,sp,-16
  58              		.cfi_def_cfa_offset 16
  59 0028 23341100 		sd	ra,8(sp)
  60 002c 23308100 		sd	s0,0(sp)
  61              		.cfi_offset 1, -8
  62              		.cfi_offset 8, -16
  63 0030 13040101 		addi	s0,sp,16
  64              		.cfi_def_cfa 8, 0
  17:src/syscall_c.cpp ****     size_t code = Kernel::sysCallCodes::mem_alloc; // kod sistemskog poziva
  65              		.loc 1 17 5
  66              	.LVL5:
  18:src/syscall_c.cpp ****     // size je dat u bajtovima, a mi treba da ga prebacimo u blokove i onda opet upisemo u a1
  19:src/syscall_c.cpp ****     size = MemoryAllocator::sizeInBlocks(size); // funkcija menja a0
  67              		.loc 1 19 5
  68              	.LBB4:
  69              	.LBB5:
  70              		.file 2 "src/../h/MemoryAllocator.h"
   1:src/../h/MemoryAllocator.h **** #ifndef PROJECT_BASE_MEMORYALLOCATOR_H
   2:src/../h/MemoryAllocator.h **** #define PROJECT_BASE_MEMORYALLOCATOR_H
   3:src/../h/MemoryAllocator.h **** 
   4:src/../h/MemoryAllocator.h **** #include "hw.h"
   5:src/../h/MemoryAllocator.h **** 
   6:src/../h/MemoryAllocator.h **** class MemoryAllocator {
   7:src/../h/MemoryAllocator.h **** public:
   8:src/../h/MemoryAllocator.h ****     /*
   9:src/../h/MemoryAllocator.h ****     Alocira (najmanje) size bajtova memorije, zaokruženo i poravnato na blokove veličine MEM_BLOC
  10:src/../h/MemoryAllocator.h ****     Svaki alocirani segment ima zaglavlje sa velicinom tog segmenta(vraca se adresa nakon tog zagla
  11:src/../h/MemoryAllocator.h **** 
  12:src/../h/MemoryAllocator.h ****     Vraća:
  13:src/../h/MemoryAllocator.h ****     pokazivač na alocirani deo memorije u slučaju uspeha, nullptr u slučaju neuspeha
  14:src/../h/MemoryAllocator.h **** 
  15:src/../h/MemoryAllocator.h ****     Radi se po algoritmu first fit(alociramo prvi segment koji je >= size). Ako je preostao prostor
  16:src/../h/MemoryAllocator.h ****     jednog bloka, taj preostali prostor se pridruzuje ovom koji smo sad alocirali(jer nema poente d
  17:src/../h/MemoryAllocator.h ****     */
  18:src/../h/MemoryAllocator.h ****     static void* mem_alloc(size_t size);
  19:src/../h/MemoryAllocator.h ****     /*
  20:src/../h/MemoryAllocator.h ****     Oslobađa prostor prethodno zauzet pomoću mem_alloc.
  21:src/../h/MemoryAllocator.h ****     Vraća 0 u slučaju uspeha, BAD_POINTER  flag ako je dostavljen los pokazivac.
  22:src/../h/MemoryAllocator.h ****     Ako je moguce, spaja dva susedna slobodna segmenta u jedan veci
  23:src/../h/MemoryAllocator.h ****     */
  24:src/../h/MemoryAllocator.h ****     static int mem_free(void* memSegment);
  25:src/../h/MemoryAllocator.h **** 
  26:src/../h/MemoryAllocator.h ****     enum memFreeFlags {
  27:src/../h/MemoryAllocator.h ****         BAD_POINTER = -1 // nije koriscen pokazviac iz mem_alloc
  28:src/../h/MemoryAllocator.h ****     };
GAS LISTING /tmp/ccxq6xuX.s 			page 3


  29:src/../h/MemoryAllocator.h **** 
  30:src/../h/MemoryAllocator.h ****     // Vraca minimalan potreban broj blokova za alokaciju memorije velicine size bajtova
  31:src/../h/MemoryAllocator.h ****     static inline size_t sizeInBlocks(size_t size) {
  32:src/../h/MemoryAllocator.h ****         return (size / MEM_BLOCK_SIZE) + (size % MEM_BLOCK_SIZE > 0);
  71              		.loc 2 32 9
  72              		.loc 2 32 22 is_stmt 0
  73 0034 93576500 		srli	a5,a0,6
  74              		.loc 2 32 48
  75 0038 1375F503 		andi	a0,a0,63
  76              	.LVL6:
  77              		.loc 2 32 65
  78 003c 3335A000 		snez	a0,a0
  79              		.loc 2 32 68
  80 0040 3385A700 		add	a0,a5,a0
  81              	.LVL7:
  82              	.LBE5:
  83              	.LBE4:
  20:src/syscall_c.cpp ****     asm volatile("mv a1, %0" : : "r" (size)); // a1 = size
  84              		.loc 1 20 5 is_stmt 1
  85              		.loc 1 20 45 is_stmt 0
  86              	#APP
  87              	# 20 "src/syscall_c.cpp" 1
  21              	
  22:src/syscall_c.cpp ****     return (void*)callInterrupt(code);
  88              		mv a1, a0
  89              	# 0 "" 2
  90              		.loc 1 22 5 is_stmt 1
  91              		.loc 1 22 32 is_stmt 0
  92              	#NO_APP
  93 0048 13051000 		li	a0,1
  94              	.LVL8:
  95 004c 97000000 		call	_Z13callInterruptm
  95      E7800000 
  96              	.LVL9:
  23:src/syscall_c.cpp **** }
  97              		.loc 1 23 1
  98 0054 83308100 		ld	ra,8(sp)
  99              		.cfi_restore 1
 100 0058 03340100 		ld	s0,0(sp)
 101              		.cfi_restore 8
 102              		.cfi_def_cfa 2, 16
 103 005c 13010101 		addi	sp,sp,16
 104              		.cfi_def_cfa_offset 0
 105 0060 67800000 		jr	ra
 106              		.cfi_endproc
 107              	.LFE43:
 109              		.align	2
 110              		.globl	_Z8mem_freePv
 112              	_Z8mem_freePv:
 113              	.LFB44:
  24:src/syscall_c.cpp **** 
  25:src/syscall_c.cpp **** // a0 code a1 memSegment
  26:src/syscall_c.cpp **** int mem_free (void* memSegment) {
 114              		.loc 1 26 33 is_stmt 1
 115              		.cfi_startproc
 116              	.LVL10:
 117 0064 130101FF 		addi	sp,sp,-16
GAS LISTING /tmp/ccxq6xuX.s 			page 4


 118              		.cfi_def_cfa_offset 16
 119 0068 23341100 		sd	ra,8(sp)
 120 006c 23308100 		sd	s0,0(sp)
 121              		.cfi_offset 1, -8
 122              		.cfi_offset 8, -16
 123 0070 13040101 		addi	s0,sp,16
 124              		.cfi_def_cfa 8, 0
  27:src/syscall_c.cpp ****     size_t code = Kernel::sysCallCodes::mem_free; // kod sistemskog poziva
 125              		.loc 1 27 5
 126              	.LVL11:
  28:src/syscall_c.cpp ****     asm volatile("mv a1, a0"); // a1 = memSegment
 127              		.loc 1 28 5
 128              		.loc 1 28 30 is_stmt 0
 129              	#APP
 130              	# 28 "src/syscall_c.cpp" 1
  29              	
  30:src/syscall_c.cpp ****     return (size_t)(callInterrupt(code));
 131              		mv a1, a0
 132              	# 0 "" 2
 133              		.loc 1 30 5 is_stmt 1
 134              		.loc 1 30 34 is_stmt 0
 135              	#NO_APP
 136 0078 13052000 		li	a0,2
 137              	.LVL12:
 138 007c 97000000 		call	_Z13callInterruptm
 138      E7800000 
 139              	.LVL13:
  31:src/syscall_c.cpp **** }
 140              		.loc 1 31 1
 141 0084 1B050500 		sext.w	a0,a0
 142 0088 83308100 		ld	ra,8(sp)
 143              		.cfi_restore 1
 144 008c 03340100 		ld	s0,0(sp)
 145              		.cfi_restore 8
 146              		.cfi_def_cfa 2, 16
 147 0090 13010101 		addi	sp,sp,16
 148              		.cfi_def_cfa_offset 0
 149 0094 67800000 		jr	ra
 150              		.cfi_endproc
 151              	.LFE44:
 153              		.align	2
 154              		.globl	_Z18thread_create_onlyPP3PCBPFvPvES2_
 156              	_Z18thread_create_onlyPP3PCBPFvPvES2_:
 157              	.LFB45:
  32:src/syscall_c.cpp **** 
  33:src/syscall_c.cpp **** // a0 - code a1 - handle a2 - startRoutine a3 - arg a4 - stackSpace, a5 - deleteArgFlag
  34:src/syscall_c.cpp **** int thread_create_only (thread_t* handle, void(*startRoutine)(void*), void* arg) {
 158              		.loc 1 34 82 is_stmt 1
 159              		.cfi_startproc
 160              	.LVL14:
 161 0098 130101FE 		addi	sp,sp,-32
 162              		.cfi_def_cfa_offset 32
 163 009c 233C1100 		sd	ra,24(sp)
 164 00a0 23388100 		sd	s0,16(sp)
 165 00a4 23349100 		sd	s1,8(sp)
 166              		.cfi_offset 1, -8
 167              		.cfi_offset 8, -16
GAS LISTING /tmp/ccxq6xuX.s 			page 5


 168              		.cfi_offset 9, -24
 169 00a8 13040102 		addi	s0,sp,32
 170              		.cfi_def_cfa 8, 0
 171 00ac 93040500 		mv	s1,a0
  35:src/syscall_c.cpp ****     size_t code = Kernel::sysCallCodes::thread_create;
 172              		.loc 1 35 5
 173              	.LVL15:
  36:src/syscall_c.cpp ****     asm volatile("mv a3, a2"); // a3 = arg
 174              		.loc 1 36 5
 175              		.loc 1 36 30 is_stmt 0
 176              	#APP
 177              	# 36 "src/syscall_c.cpp" 1
  37              	    asm volatile("mv a2, a1"); // a2 = startRoutine
 178              		mv a3, a2
 179              	# 0 "" 2
 180              		.loc 1 37 5 is_stmt 1
 181              		.loc 1 37 30 is_stmt 0
 182              	# 37 "src/syscall_c.cpp" 1
  38              	    asm volatile("mv a4, a0"); // a4 = handle privremeno cuvamo da bismo posle vratili u a1
 183              		mv a2, a1
 184              	# 0 "" 2
 185              		.loc 1 38 5 is_stmt 1
 186              		.loc 1 38 30 is_stmt 0
 187              	# 38 "src/syscall_c.cpp" 1
  39              	
  40:src/syscall_c.cpp **** 
  41:src/syscall_c.cpp ****     size_t* stack = (size_t*)mem_alloc(sizeof(size_t)*DEFAULT_STACK_SIZE); // pravimo stack procesa
 188              		mv a4, a0
 189              	# 0 "" 2
 190              		.loc 1 41 5 is_stmt 1
 191              		.loc 1 41 39 is_stmt 0
 192              	#NO_APP
 193 00bc 37850000 		li	a0,32768
 194              	.LVL16:
 195 00c0 97000000 		call	_Z9mem_allocm
 195      E7800000 
 196              	.LVL17:
  42:src/syscall_c.cpp ****     if(stack == nullptr) {
 197              		.loc 1 42 5 is_stmt 1
 198 00c8 630C0502 		beqz	a0,.L12
  43:src/syscall_c.cpp ****         *handle = nullptr;
  44:src/syscall_c.cpp ****         return -1;
  45:src/syscall_c.cpp ****     }
  46:src/syscall_c.cpp **** 
  47:src/syscall_c.cpp ****     asm volatile("mv a1, a4"); // a1 = a5(handle)
 199              		.loc 1 47 5
 200              		.loc 1 47 30 is_stmt 0
 201              	#APP
 202              	# 47 "src/syscall_c.cpp" 1
  48              	    asm volatile("mv a4, %0" : : "r" (stack));
 203              		mv a1, a4
 204              	# 0 "" 2
 205              		.loc 1 48 5 is_stmt 1
 206              		.loc 1 48 46 is_stmt 0
 207              	# 48 "src/syscall_c.cpp" 1
  49              	
  50:src/syscall_c.cpp ****     handle = (thread_t*)(callInterrupt(code)); // vraca se pokazivac na PCB, ili nullptr ako je neu
GAS LISTING /tmp/ccxq6xuX.s 			page 6


 208              		mv a4, a0
 209              	# 0 "" 2
 210              		.loc 1 50 5 is_stmt 1
 211              		.loc 1 50 39 is_stmt 0
 212              	#NO_APP
 213 00d4 13051001 		li	a0,17
 214              	.LVL18:
 215 00d8 97000000 		call	_Z13callInterruptm
 215      E7800000 
 216              	.LVL19:
  51:src/syscall_c.cpp ****     if(*handle == nullptr) {
 217              		.loc 1 51 5 is_stmt 1
 218              		.loc 1 51 8 is_stmt 0
 219 00e0 83370500 		ld	a5,0(a0)
 220              		.loc 1 51 5
 221 00e4 63840702 		beqz	a5,.L10
  52:src/syscall_c.cpp ****         return -1;
  53:src/syscall_c.cpp ****     }
  54:src/syscall_c.cpp ****     return 0;
 222              		.loc 1 54 12
 223 00e8 13050000 		li	a0,0
 224              	.LVL20:
 225              	.L9:
  55:src/syscall_c.cpp **** }
 226              		.loc 1 55 1
 227 00ec 83308101 		ld	ra,24(sp)
 228              		.cfi_remember_state
 229              		.cfi_restore 1
 230 00f0 03340101 		ld	s0,16(sp)
 231              		.cfi_restore 8
 232              		.cfi_def_cfa 2, 32
 233 00f4 83348100 		ld	s1,8(sp)
 234              		.cfi_restore 9
 235 00f8 13010102 		addi	sp,sp,32
 236              		.cfi_def_cfa_offset 0
 237 00fc 67800000 		jr	ra
 238              	.LVL21:
 239              	.L12:
 240              		.cfi_restore_state
  43:src/syscall_c.cpp ****         return -1;
 241              		.loc 1 43 9 is_stmt 1
  43:src/syscall_c.cpp ****         return -1;
 242              		.loc 1 43 17 is_stmt 0
 243 0100 23B00400 		sd	zero,0(s1)
  44:src/syscall_c.cpp ****     }
 244              		.loc 1 44 9 is_stmt 1
  44:src/syscall_c.cpp ****     }
 245              		.loc 1 44 17 is_stmt 0
 246 0104 1305F0FF 		li	a0,-1
 247              	.LVL22:
 248 0108 6FF05FFE 		j	.L9
 249              	.LVL23:
 250              	.L10:
  52:src/syscall_c.cpp ****     }
 251              		.loc 1 52 17
 252 010c 1305F0FF 		li	a0,-1
 253              	.LVL24:
GAS LISTING /tmp/ccxq6xuX.s 			page 7


 254 0110 6FF0DFFD 		j	.L9
 255              		.cfi_endproc
 256              	.LFE45:
 258              		.align	2
 259              		.globl	_Z15thread_dispatchv
 261              	_Z15thread_dispatchv:
 262              	.LFB47:
  56:src/syscall_c.cpp **** 
  57:src/syscall_c.cpp **** int thread_create(thread_t* handle, void(*startRoutine)(void*), void* arg) {
  58:src/syscall_c.cpp ****     int res = thread_create_only(handle, startRoutine, arg);
  59:src/syscall_c.cpp ****     thread_start(handle);
  60:src/syscall_c.cpp ****     return res;
  61:src/syscall_c.cpp **** }
  62:src/syscall_c.cpp **** 
  63:src/syscall_c.cpp **** void thread_dispatch () {
 263              		.loc 1 63 25 is_stmt 1
 264              		.cfi_startproc
 265 0114 130101FF 		addi	sp,sp,-16
 266              		.cfi_def_cfa_offset 16
 267 0118 23341100 		sd	ra,8(sp)
 268 011c 23308100 		sd	s0,0(sp)
 269              		.cfi_offset 1, -8
 270              		.cfi_offset 8, -16
 271 0120 13040101 		addi	s0,sp,16
 272              		.cfi_def_cfa 8, 0
  64:src/syscall_c.cpp ****     size_t code = Kernel::sysCallCodes::thread_dispatch;
 273              		.loc 1 64 5
 274              	.LVL25:
  65:src/syscall_c.cpp ****     callInterrupt(code);
 275              		.loc 1 65 5
 276              		.loc 1 65 18 is_stmt 0
 277 0124 13053001 		li	a0,19
 278 0128 97000000 		call	_Z13callInterruptm
 278      E7800000 
 279              	.LVL26:
  66:src/syscall_c.cpp **** }
 280              		.loc 1 66 1
 281 0130 83308100 		ld	ra,8(sp)
 282              		.cfi_restore 1
 283 0134 03340100 		ld	s0,0(sp)
 284              		.cfi_restore 8
 285              		.cfi_def_cfa 2, 16
 286 0138 13010101 		addi	sp,sp,16
 287              		.cfi_def_cfa_offset 0
 288 013c 67800000 		jr	ra
 289              		.cfi_endproc
 290              	.LFE47:
 292              		.align	2
 293              		.globl	_Z11thread_exitv
 295              	_Z11thread_exitv:
 296              	.LFB48:
  67:src/syscall_c.cpp **** 
  68:src/syscall_c.cpp **** int thread_exit () {
 297              		.loc 1 68 20 is_stmt 1
 298              		.cfi_startproc
 299 0140 130101FF 		addi	sp,sp,-16
 300              		.cfi_def_cfa_offset 16
GAS LISTING /tmp/ccxq6xuX.s 			page 8


 301 0144 23341100 		sd	ra,8(sp)
 302 0148 23308100 		sd	s0,0(sp)
 303              		.cfi_offset 1, -8
 304              		.cfi_offset 8, -16
 305 014c 13040101 		addi	s0,sp,16
 306              		.cfi_def_cfa 8, 0
  69:src/syscall_c.cpp ****     size_t code = Kernel::sysCallCodes::thread_exit;
 307              		.loc 1 69 5
 308              	.LVL27:
  70:src/syscall_c.cpp ****     return (size_t)(callInterrupt(code));
 309              		.loc 1 70 5
 310              		.loc 1 70 34 is_stmt 0
 311 0150 13052001 		li	a0,18
 312 0154 97000000 		call	_Z13callInterruptm
 312      E7800000 
 313              	.LVL28:
  71:src/syscall_c.cpp **** }
 314              		.loc 1 71 1
 315 015c 1B050500 		sext.w	a0,a0
 316 0160 83308100 		ld	ra,8(sp)
 317              		.cfi_restore 1
 318 0164 03340100 		ld	s0,0(sp)
 319              		.cfi_restore 8
 320              		.cfi_def_cfa 2, 16
 321 0168 13010101 		addi	sp,sp,16
 322              		.cfi_def_cfa_offset 0
 323 016c 67800000 		jr	ra
 324              		.cfi_endproc
 325              	.LFE48:
 327              		.align	2
 328              		.globl	_Z12thread_startPP3PCB
 330              	_Z12thread_startPP3PCB:
 331              	.LFB49:
  72:src/syscall_c.cpp **** 
  73:src/syscall_c.cpp **** void thread_start(thread_t* handle) {
 332              		.loc 1 73 37 is_stmt 1
 333              		.cfi_startproc
 334              	.LVL29:
 335 0170 130101FF 		addi	sp,sp,-16
 336              		.cfi_def_cfa_offset 16
 337 0174 23341100 		sd	ra,8(sp)
 338 0178 23308100 		sd	s0,0(sp)
 339              		.cfi_offset 1, -8
 340              		.cfi_offset 8, -16
 341 017c 13040101 		addi	s0,sp,16
 342              		.cfi_def_cfa 8, 0
  74:src/syscall_c.cpp ****     size_t code = Kernel::sysCallCodes::thread_start;
 343              		.loc 1 74 5
 344              	.LVL30:
  75:src/syscall_c.cpp ****     asm volatile("mv a1, a0"); // a1 = handle
 345              		.loc 1 75 5
 346              		.loc 1 75 30 is_stmt 0
 347              	#APP
 348              	# 75 "src/syscall_c.cpp" 1
  76              	    callInterrupt(code);
 349              		mv a1, a0
 350              	# 0 "" 2
GAS LISTING /tmp/ccxq6xuX.s 			page 9


 351              		.loc 1 76 5 is_stmt 1
 352              		.loc 1 76 18 is_stmt 0
 353              	#NO_APP
 354 0184 13054001 		li	a0,20
 355              	.LVL31:
 356 0188 97000000 		call	_Z13callInterruptm
 356      E7800000 
 357              	.LVL32:
  77:src/syscall_c.cpp **** }
 358              		.loc 1 77 1
 359 0190 83308100 		ld	ra,8(sp)
 360              		.cfi_restore 1
 361 0194 03340100 		ld	s0,0(sp)
 362              		.cfi_restore 8
 363              		.cfi_def_cfa 2, 16
 364 0198 13010101 		addi	sp,sp,16
 365              		.cfi_def_cfa_offset 0
 366 019c 67800000 		jr	ra
 367              		.cfi_endproc
 368              	.LFE49:
 370              		.align	2
 371              		.globl	_Z13thread_createPP3PCBPFvPvES2_
 373              	_Z13thread_createPP3PCBPFvPvES2_:
 374              	.LFB46:
  57:src/syscall_c.cpp ****     int res = thread_create_only(handle, startRoutine, arg);
 375              		.loc 1 57 76 is_stmt 1
 376              		.cfi_startproc
 377              	.LVL33:
 378 01a0 130101FE 		addi	sp,sp,-32
 379              		.cfi_def_cfa_offset 32
 380 01a4 233C1100 		sd	ra,24(sp)
 381 01a8 23388100 		sd	s0,16(sp)
 382 01ac 23349100 		sd	s1,8(sp)
 383 01b0 23302101 		sd	s2,0(sp)
 384              		.cfi_offset 1, -8
 385              		.cfi_offset 8, -16
 386              		.cfi_offset 9, -24
 387              		.cfi_offset 18, -32
 388 01b4 13040102 		addi	s0,sp,32
 389              		.cfi_def_cfa 8, 0
 390 01b8 13090500 		mv	s2,a0
  58:src/syscall_c.cpp ****     thread_start(handle);
 391              		.loc 1 58 5
  58:src/syscall_c.cpp ****     thread_start(handle);
 392              		.loc 1 58 33 is_stmt 0
 393 01bc 97000000 		call	_Z18thread_create_onlyPP3PCBPFvPvES2_
 393      E7800000 
 394              	.LVL34:
 395 01c4 93040500 		mv	s1,a0
 396              	.LVL35:
  59:src/syscall_c.cpp ****     return res;
 397              		.loc 1 59 5 is_stmt 1
  59:src/syscall_c.cpp ****     return res;
 398              		.loc 1 59 17 is_stmt 0
 399 01c8 13050900 		mv	a0,s2
 400 01cc 97000000 		call	_Z12thread_startPP3PCB
 400      E7800000 
GAS LISTING /tmp/ccxq6xuX.s 			page 10


 401              	.LVL36:
  60:src/syscall_c.cpp **** }
 402              		.loc 1 60 5 is_stmt 1
  61:src/syscall_c.cpp **** 
 403              		.loc 1 61 1 is_stmt 0
 404 01d4 13850400 		mv	a0,s1
 405 01d8 83308101 		ld	ra,24(sp)
 406              		.cfi_restore 1
 407 01dc 03340101 		ld	s0,16(sp)
 408              		.cfi_restore 8
 409              		.cfi_def_cfa 2, 32
 410 01e0 83348100 		ld	s1,8(sp)
 411              		.cfi_restore 9
 412              	.LVL37:
 413 01e4 03390100 		ld	s2,0(sp)
 414              		.cfi_restore 18
 415              	.LVL38:
 416 01e8 13010102 		addi	sp,sp,32
 417              		.cfi_def_cfa_offset 0
 418 01ec 67800000 		jr	ra
 419              		.cfi_endproc
 420              	.LFE46:
 422              		.align	2
 423              		.globl	_Z8sem_openPP3SCBj
 425              	_Z8sem_openPP3SCBj:
 426              	.LFB50:
  78:src/syscall_c.cpp **** 
  79:src/syscall_c.cpp **** int sem_open (sem_t* handle, unsigned init) {
 427              		.loc 1 79 45 is_stmt 1
 428              		.cfi_startproc
 429              	.LVL39:
 430 01f0 130101FF 		addi	sp,sp,-16
 431              		.cfi_def_cfa_offset 16
 432 01f4 23341100 		sd	ra,8(sp)
 433 01f8 23308100 		sd	s0,0(sp)
 434              		.cfi_offset 1, -8
 435              		.cfi_offset 8, -16
 436 01fc 13040101 		addi	s0,sp,16
 437              		.cfi_def_cfa 8, 0
  80:src/syscall_c.cpp ****     size_t code = Kernel::sysCallCodes::sem_open;
 438              		.loc 1 80 5
 439              	.LVL40:
  81:src/syscall_c.cpp **** 
  82:src/syscall_c.cpp ****     asm volatile("mv a2, a1"); // a2 = init
 440              		.loc 1 82 5
 441              		.loc 1 82 30 is_stmt 0
 442              	#APP
 443              	# 82 "src/syscall_c.cpp" 1
  83              	    asm volatile("mv a1, a0"); // a1 = handle
 444              		mv a2, a1
 445              	# 0 "" 2
 446              		.loc 1 83 5 is_stmt 1
 447              		.loc 1 83 30 is_stmt 0
 448              	# 83 "src/syscall_c.cpp" 1
  84              	
  85:src/syscall_c.cpp ****     handle = (sem_t*)callInterrupt(code);
 449              		mv a1, a0
GAS LISTING /tmp/ccxq6xuX.s 			page 11


 450              	# 0 "" 2
 451              		.loc 1 85 5 is_stmt 1
 452              		.loc 1 85 35 is_stmt 0
 453              	#NO_APP
 454 0208 13051002 		li	a0,33
 455              	.LVL41:
 456 020c 97000000 		call	_Z13callInterruptm
 456      E7800000 
 457              	.LVL42:
  86:src/syscall_c.cpp ****     if(*handle == nullptr) {
 458              		.loc 1 86 5 is_stmt 1
 459              		.loc 1 86 8 is_stmt 0
 460 0214 83370500 		ld	a5,0(a0)
 461              		.loc 1 86 5
 462 0218 638C0700 		beqz	a5,.L23
  87:src/syscall_c.cpp ****         return -1;
  88:src/syscall_c.cpp ****     }
  89:src/syscall_c.cpp **** 
  90:src/syscall_c.cpp ****     return 0;
 463              		.loc 1 90 12
 464 021c 13050000 		li	a0,0
 465              	.LVL43:
 466              	.L22:
  91:src/syscall_c.cpp **** }
 467              		.loc 1 91 1
 468 0220 83308100 		ld	ra,8(sp)
 469              		.cfi_remember_state
 470              		.cfi_restore 1
 471 0224 03340100 		ld	s0,0(sp)
 472              		.cfi_restore 8
 473              		.cfi_def_cfa 2, 16
 474 0228 13010101 		addi	sp,sp,16
 475              		.cfi_def_cfa_offset 0
 476 022c 67800000 		jr	ra
 477              	.LVL44:
 478              	.L23:
 479              		.cfi_restore_state
  87:src/syscall_c.cpp ****         return -1;
 480              		.loc 1 87 17
 481 0230 1305F0FF 		li	a0,-1
 482              	.LVL45:
 483 0234 6FF0DFFE 		j	.L22
 484              		.cfi_endproc
 485              	.LFE50:
 487              		.align	2
 488              		.globl	_Z8sem_waitP3SCB
 490              	_Z8sem_waitP3SCB:
 491              	.LFB51:
  92:src/syscall_c.cpp **** 
  93:src/syscall_c.cpp **** int sem_wait (sem_t volatile handle) {
 492              		.loc 1 93 38 is_stmt 1
 493              		.cfi_startproc
 494              	.LVL46:
 495 0238 130101FE 		addi	sp,sp,-32
 496              		.cfi_def_cfa_offset 32
 497 023c 233C1100 		sd	ra,24(sp)
 498 0240 23388100 		sd	s0,16(sp)
GAS LISTING /tmp/ccxq6xuX.s 			page 12


 499              		.cfi_offset 1, -8
 500              		.cfi_offset 8, -16
 501 0244 13040102 		addi	s0,sp,32
 502              		.cfi_def_cfa 8, 0
 503 0248 2334A4FE 		sd	a0,-24(s0)
  94:src/syscall_c.cpp ****     size_t code = Kernel::sysCallCodes::sem_wait;
 504              		.loc 1 94 5
 505              	.LVL47:
  95:src/syscall_c.cpp ****     if(handle == nullptr) return -1;
 506              		.loc 1 95 5
 507              		.loc 1 95 8 is_stmt 0
 508 024c 833784FE 		ld	a5,-24(s0)
 509              		.loc 1 95 5
 510 0250 63840702 		beqz	a5,.L27
  96:src/syscall_c.cpp ****     asm volatile("mv a1, a0");
 511              		.loc 1 96 5 is_stmt 1
 512              		.loc 1 96 30 is_stmt 0
 513              	#APP
 514              	# 96 "src/syscall_c.cpp" 1
  97              	
  98:src/syscall_c.cpp ****     return (int)(size_t)callInterrupt(code);
 515              		mv a1, a0
 516              	# 0 "" 2
 517              		.loc 1 98 5 is_stmt 1
 518              		.loc 1 98 38 is_stmt 0
 519              	#NO_APP
 520 0258 13053002 		li	a0,35
 521              	.LVL48:
 522 025c 97000000 		call	_Z13callInterruptm
 522      E7800000 
 523              	.LVL49:
 524              		.loc 1 98 43
 525 0264 1B050500 		sext.w	a0,a0
 526              	.L26:
  99:src/syscall_c.cpp **** }
 527              		.loc 1 99 1
 528 0268 83308101 		ld	ra,24(sp)
 529              		.cfi_remember_state
 530              		.cfi_restore 1
 531 026c 03340101 		ld	s0,16(sp)
 532              		.cfi_restore 8
 533              		.cfi_def_cfa 2, 32
 534              	.LVL50:
 535 0270 13010102 		addi	sp,sp,32
 536              		.cfi_def_cfa_offset 0
 537              	.LVL51:
 538 0274 67800000 		jr	ra
 539              	.LVL52:
 540              	.L27:
 541              		.cfi_restore_state
  95:src/syscall_c.cpp ****     asm volatile("mv a1, a0");
 542              		.loc 1 95 35
 543 0278 1305F0FF 		li	a0,-1
 544              	.LVL53:
 545 027c 6FF0DFFE 		j	.L26
 546              		.cfi_endproc
 547              	.LFE51:
GAS LISTING /tmp/ccxq6xuX.s 			page 13


 549              		.align	2
 550              		.globl	_Z10sem_signalP3SCB
 552              	_Z10sem_signalP3SCB:
 553              	.LFB52:
 100:src/syscall_c.cpp **** 
 101:src/syscall_c.cpp **** int sem_signal (sem_t handle) {
 554              		.loc 1 101 31 is_stmt 1
 555              		.cfi_startproc
 556              	.LVL54:
 102:src/syscall_c.cpp ****     size_t code = Kernel::sysCallCodes::sem_signal;
 557              		.loc 1 102 5
 103:src/syscall_c.cpp ****     if(handle == nullptr) return -1;
 558              		.loc 1 103 5
 559 0280 630C0502 		beqz	a0,.L31
 101:src/syscall_c.cpp ****     size_t code = Kernel::sysCallCodes::sem_signal;
 560              		.loc 1 101 31 is_stmt 0
 561 0284 130101FF 		addi	sp,sp,-16
 562              		.cfi_def_cfa_offset 16
 563 0288 23341100 		sd	ra,8(sp)
 564 028c 23308100 		sd	s0,0(sp)
 565              		.cfi_offset 1, -8
 566              		.cfi_offset 8, -16
 567 0290 13040101 		addi	s0,sp,16
 568              		.cfi_def_cfa 8, 0
 104:src/syscall_c.cpp ****     asm volatile("mv a1, a0");
 569              		.loc 1 104 5 is_stmt 1
 570              		.loc 1 104 30 is_stmt 0
 571              	#APP
 572              	# 104 "src/syscall_c.cpp" 1
 105              	
 106:src/syscall_c.cpp ****     callInterrupt(code);
 573              		mv a1, a0
 574              	# 0 "" 2
 575              		.loc 1 106 5 is_stmt 1
 576              		.loc 1 106 18 is_stmt 0
 577              	#NO_APP
 578 0298 13054002 		li	a0,36
 579              	.LVL55:
 580 029c 97000000 		call	_Z13callInterruptm
 580      E7800000 
 581              	.LVL56:
 107:src/syscall_c.cpp **** 
 108:src/syscall_c.cpp ****     return 0;
 582              		.loc 1 108 5 is_stmt 1
 583              		.loc 1 108 12 is_stmt 0
 584 02a4 13050000 		li	a0,0
 109:src/syscall_c.cpp **** }
 585              		.loc 1 109 1
 586 02a8 83308100 		ld	ra,8(sp)
 587              		.cfi_restore 1
 588 02ac 03340100 		ld	s0,0(sp)
 589              		.cfi_restore 8
 590              		.cfi_def_cfa 2, 16
 591 02b0 13010101 		addi	sp,sp,16
 592              		.cfi_def_cfa_offset 0
 593 02b4 67800000 		jr	ra
 594              	.LVL57:
GAS LISTING /tmp/ccxq6xuX.s 			page 14


 595              	.L31:
 103:src/syscall_c.cpp ****     asm volatile("mv a1, a0");
 596              		.loc 1 103 35
 597 02b8 1305F0FF 		li	a0,-1
 598              	.LVL58:
 599              		.loc 1 109 1
 600 02bc 67800000 		ret
 601              		.cfi_endproc
 602              	.LFE52:
 604              		.align	2
 605              		.globl	_Z9sem_closeP3SCB
 607              	_Z9sem_closeP3SCB:
 608              	.LFB53:
 110:src/syscall_c.cpp **** 
 111:src/syscall_c.cpp **** int sem_close (sem_t handle) {
 609              		.loc 1 111 30 is_stmt 1
 610              		.cfi_startproc
 611              	.LVL59:
 112:src/syscall_c.cpp ****     size_t code = Kernel::sysCallCodes::sem_close;
 612              		.loc 1 112 5
 113:src/syscall_c.cpp ****     if(handle == nullptr) return -1;
 613              		.loc 1 113 5
 614 02c0 630C0502 		beqz	a0,.L38
 111:src/syscall_c.cpp ****     size_t code = Kernel::sysCallCodes::sem_close;
 615              		.loc 1 111 30 is_stmt 0
 616 02c4 130101FF 		addi	sp,sp,-16
 617              		.cfi_def_cfa_offset 16
 618 02c8 23341100 		sd	ra,8(sp)
 619 02cc 23308100 		sd	s0,0(sp)
 620              		.cfi_offset 1, -8
 621              		.cfi_offset 8, -16
 622 02d0 13040101 		addi	s0,sp,16
 623              		.cfi_def_cfa 8, 0
 114:src/syscall_c.cpp **** 
 115:src/syscall_c.cpp ****     asm volatile("mv a1, a0");
 624              		.loc 1 115 5 is_stmt 1
 625              		.loc 1 115 30 is_stmt 0
 626              	#APP
 627              	# 115 "src/syscall_c.cpp" 1
 116              	    callInterrupt(code);
 628              		mv a1, a0
 629              	# 0 "" 2
 630              		.loc 1 116 5 is_stmt 1
 631              		.loc 1 116 18 is_stmt 0
 632              	#NO_APP
 633 02d8 13052002 		li	a0,34
 634              	.LVL60:
 635 02dc 97000000 		call	_Z13callInterruptm
 635      E7800000 
 636              	.LVL61:
 117:src/syscall_c.cpp ****     return 0;
 637              		.loc 1 117 5 is_stmt 1
 638              		.loc 1 117 12 is_stmt 0
 639 02e4 13050000 		li	a0,0
 118:src/syscall_c.cpp **** }
 640              		.loc 1 118 1
 641 02e8 83308100 		ld	ra,8(sp)
GAS LISTING /tmp/ccxq6xuX.s 			page 15


 642              		.cfi_restore 1
 643 02ec 03340100 		ld	s0,0(sp)
 644              		.cfi_restore 8
 645              		.cfi_def_cfa 2, 16
 646 02f0 13010101 		addi	sp,sp,16
 647              		.cfi_def_cfa_offset 0
 648 02f4 67800000 		jr	ra
 649              	.LVL62:
 650              	.L38:
 113:src/syscall_c.cpp **** 
 651              		.loc 1 113 35
 652 02f8 1305F0FF 		li	a0,-1
 653              	.LVL63:
 654              		.loc 1 118 1
 655 02fc 67800000 		ret
 656              		.cfi_endproc
 657              	.LFE53:
 659              		.align	2
 660              		.globl	_Z10time_sleepm
 662              	_Z10time_sleepm:
 663              	.LFB54:
 119:src/syscall_c.cpp **** 
 120:src/syscall_c.cpp **** int time_sleep (time_t time) {
 664              		.loc 1 120 30 is_stmt 1
 665              		.cfi_startproc
 666              	.LVL64:
 121:src/syscall_c.cpp ****     size_t code = Kernel::sysCallCodes::time_sleep;
 667              		.loc 1 121 5
 122:src/syscall_c.cpp ****     if(time <= 0) return -1;
 668              		.loc 1 122 5
 669 0300 63000504 		beqz	a0,.L45
 120:src/syscall_c.cpp ****     size_t code = Kernel::sysCallCodes::time_sleep;
 670              		.loc 1 120 30 is_stmt 0
 671 0304 130101FF 		addi	sp,sp,-16
 672              		.cfi_def_cfa_offset 16
 673 0308 23341100 		sd	ra,8(sp)
 674 030c 23308100 		sd	s0,0(sp)
 675              		.cfi_offset 1, -8
 676              		.cfi_offset 8, -16
 677 0310 13040101 		addi	s0,sp,16
 678              		.cfi_def_cfa 8, 0
 123:src/syscall_c.cpp **** 
 124:src/syscall_c.cpp ****     asm volatile("mv a1, a0");
 679              		.loc 1 124 5 is_stmt 1
 680              		.loc 1 124 30 is_stmt 0
 681              	#APP
 682              	# 124 "src/syscall_c.cpp" 1
 125              	    callInterrupt(code);
 683              		mv a1, a0
 684              	# 0 "" 2
 685              		.loc 1 125 5 is_stmt 1
 686              		.loc 1 125 18 is_stmt 0
 687              	#NO_APP
 688 0318 13051003 		li	a0,49
 689              	.LVL65:
 690 031c 97000000 		call	_Z13callInterruptm
 690      E7800000 
GAS LISTING /tmp/ccxq6xuX.s 			page 16


 691              	.LVL66:
 126:src/syscall_c.cpp **** 
 127:src/syscall_c.cpp ****     thread_dispatch(); // radimo odmah dispatch da bi zaustavili tekuci proces
 692              		.loc 1 127 5 is_stmt 1
 693              		.loc 1 127 20 is_stmt 0
 694 0324 97000000 		call	_Z15thread_dispatchv
 694      E7800000 
 695              	.LVL67:
 128:src/syscall_c.cpp **** 
 129:src/syscall_c.cpp ****     return 0;
 696              		.loc 1 129 5 is_stmt 1
 697              		.loc 1 129 12 is_stmt 0
 698 032c 13050000 		li	a0,0
 130:src/syscall_c.cpp **** }
 699              		.loc 1 130 1
 700 0330 83308100 		ld	ra,8(sp)
 701              		.cfi_restore 1
 702 0334 03340100 		ld	s0,0(sp)
 703              		.cfi_restore 8
 704              		.cfi_def_cfa 2, 16
 705 0338 13010101 		addi	sp,sp,16
 706              		.cfi_def_cfa_offset 0
 707 033c 67800000 		jr	ra
 708              	.LVL68:
 709              	.L45:
 122:src/syscall_c.cpp **** 
 710              		.loc 1 122 27
 711 0340 1305F0FF 		li	a0,-1
 712              	.LVL69:
 713              		.loc 1 130 1
 714 0344 67800000 		ret
 715              		.cfi_endproc
 716              	.LFE54:
 718              		.align	2
 719              		.globl	_Z4getcv
 721              	_Z4getcv:
 722              	.LFB55:
 131:src/syscall_c.cpp **** 
 132:src/syscall_c.cpp **** char getc () {
 723              		.loc 1 132 14 is_stmt 1
 724              		.cfi_startproc
 725 0348 130101FF 		addi	sp,sp,-16
 726              		.cfi_def_cfa_offset 16
 727 034c 23341100 		sd	ra,8(sp)
 728 0350 23308100 		sd	s0,0(sp)
 729              		.cfi_offset 1, -8
 730              		.cfi_offset 8, -16
 731 0354 13040101 		addi	s0,sp,16
 732              		.cfi_def_cfa 8, 0
 133:src/syscall_c.cpp ****     size_t code = Kernel::sysCallCodes::getc;
 733              		.loc 1 133 5
 734              	.LVL70:
 134:src/syscall_c.cpp ****     return (char)(size_t)callInterrupt(code);
 735              		.loc 1 134 5
 736              		.loc 1 134 39 is_stmt 0
 737 0358 13051004 		li	a0,65
 738 035c 97000000 		call	_Z13callInterruptm
GAS LISTING /tmp/ccxq6xuX.s 			page 17


 738      E7800000 
 739              	.LVL71:
 135:src/syscall_c.cpp **** }
 740              		.loc 1 135 1
 741 0364 1375F50F 		andi	a0,a0,0xff
 742 0368 83308100 		ld	ra,8(sp)
 743              		.cfi_restore 1
 744 036c 03340100 		ld	s0,0(sp)
 745              		.cfi_restore 8
 746              		.cfi_def_cfa 2, 16
 747 0370 13010101 		addi	sp,sp,16
 748              		.cfi_def_cfa_offset 0
 749 0374 67800000 		jr	ra
 750              		.cfi_endproc
 751              	.LFE55:
 753              		.align	2
 754              		.globl	_Z4putcc
 756              	_Z4putcc:
 757              	.LFB56:
 136:src/syscall_c.cpp **** 
 137:src/syscall_c.cpp **** void putc(char c) {
 758              		.loc 1 137 19 is_stmt 1
 759              		.cfi_startproc
 760              	.LVL72:
 761 0378 130101FF 		addi	sp,sp,-16
 762              		.cfi_def_cfa_offset 16
 763 037c 23341100 		sd	ra,8(sp)
 764 0380 23308100 		sd	s0,0(sp)
 765              		.cfi_offset 1, -8
 766              		.cfi_offset 8, -16
 767 0384 13040101 		addi	s0,sp,16
 768              		.cfi_def_cfa 8, 0
 138:src/syscall_c.cpp ****     size_t code = Kernel::sysCallCodes::putc;
 769              		.loc 1 138 5
 770              	.LVL73:
 139:src/syscall_c.cpp ****     asm volatile("mv a1, a0"); // a1 = c
 771              		.loc 1 139 5
 772              		.loc 1 139 30 is_stmt 0
 773              	#APP
 774              	# 139 "src/syscall_c.cpp" 1
 140              	    callInterrupt(code);
 775              		mv a1, a0
 776              	# 0 "" 2
 777              		.loc 1 140 5 is_stmt 1
 778              		.loc 1 140 18 is_stmt 0
 779              	#NO_APP
 780 038c 13052004 		li	a0,66
 781              	.LVL74:
 782 0390 97000000 		call	_Z13callInterruptm
 782      E7800000 
 783              	.LVL75:
 141:src/syscall_c.cpp **** }
 784              		.loc 1 141 1
 785 0398 83308100 		ld	ra,8(sp)
 786              		.cfi_restore 1
 787 039c 03340100 		ld	s0,0(sp)
 788              		.cfi_restore 8
GAS LISTING /tmp/ccxq6xuX.s 			page 18


 789              		.cfi_def_cfa 2, 16
 790 03a0 13010101 		addi	sp,sp,16
 791              		.cfi_def_cfa_offset 0
 792 03a4 67800000 		jr	ra
 793              		.cfi_endproc
 794              	.LFE56:
 796              	.Letext0:
 797              		.file 3 "src/../h/hw.h"
 798              		.file 4 "src/../h/slab.h"
 799              		.file 5 "src/../h/PCB.h"
 800              		.file 6 "src/../h/SCB.h"
 801              		.file 7 "src/../h/syscall_c.h"
GAS LISTING /tmp/ccxq6xuX.s 			page 19

