GAS LISTING /tmp/ccULrCDn.s 			page 1


   1              		.file	"syscall_cpp.cpp"
   2              		.option pic
   3              		.option norelax
   4              		.text
   5              	.Ltext0:
   6              		.section	.text._ZN6Thread3runEv,"axG",@progbits,_ZN6Thread3runEv,comdat
   7              		.align	2
   8              		.weak	_ZN6Thread3runEv
  10              	_ZN6Thread3runEv:
  11              	.LFB0:
  12              		.file 1 "src/../h/syscall_cpp.h"
   1:src/../h/syscall_cpp.h **** #ifndef SYSCALL_CPP_H
   2:src/../h/syscall_cpp.h **** #define SYSCALL_CPP_H
   3:src/../h/syscall_cpp.h **** 
   4:src/../h/syscall_cpp.h **** #include "syscall_c.h"
   5:src/../h/syscall_cpp.h **** // Poziva funkciju mem_alloc koja alocira prostora odgovarajuce velicine size
   6:src/../h/syscall_cpp.h **** void* operator new (size_t size);
   7:src/../h/syscall_cpp.h **** void* operator new[] (size_t size);
   8:src/../h/syscall_cpp.h **** // Poziva funkciju mem_free koja oslobadja zauzeti segment memSegment, prethodno alociran preko mem
   9:src/../h/syscall_cpp.h **** void operator delete (void* memSegment) noexcept;
  10:src/../h/syscall_cpp.h **** void operator delete[] (void* memSegment) noexcept;
  11:src/../h/syscall_cpp.h **** 
  12:src/../h/syscall_cpp.h **** class Thread {
  13:src/../h/syscall_cpp.h **** public:
  14:src/../h/syscall_cpp.h ****     void* operator new(size_t size);
  15:src/../h/syscall_cpp.h ****     void operator delete(void* memSegment);
  16:src/../h/syscall_cpp.h ****     Thread (void (*body)(void*), void* arg);
  17:src/../h/syscall_cpp.h ****     virtual ~Thread ();
  18:src/../h/syscall_cpp.h ****     int start ();
  19:src/../h/syscall_cpp.h ****     static void dispatch ();
  20:src/../h/syscall_cpp.h ****     static int sleep (time_t);
  21:src/../h/syscall_cpp.h **** protected:
  22:src/../h/syscall_cpp.h ****     Thread ();
  23:src/../h/syscall_cpp.h ****     virtual void run () {}
  13              		.loc 1 23 18
  14              		.cfi_startproc
  15              	.LVL0:
  16 0000 130101FF 		addi	sp,sp,-16
  17              		.cfi_def_cfa_offset 16
  18 0004 23348100 		sd	s0,8(sp)
  19              		.cfi_offset 8, -8
  20 0008 13040101 		addi	s0,sp,16
  21              		.cfi_def_cfa 8, 0
  22              		.loc 1 23 26 is_stmt 0
  23 000c 03348100 		ld	s0,8(sp)
  24              		.cfi_restore 8
  25              		.cfi_def_cfa 2, 16
  26 0010 13010101 		addi	sp,sp,16
  27              		.cfi_def_cfa_offset 0
  28 0014 67800000 		jr	ra
  29              		.cfi_endproc
  30              	.LFE0:
  32              		.section	.text._ZN14PeriodicThread18periodicActivationEv,"axG",@progbits,_ZN14PeriodicThread18peri
  33              		.align	2
  34              		.weak	_ZN14PeriodicThread18periodicActivationEv
  36              	_ZN14PeriodicThread18periodicActivationEv:
  37              	.LFB1:
GAS LISTING /tmp/ccULrCDn.s 			page 2


  24:src/../h/syscall_cpp.h **** private:
  25:src/../h/syscall_cpp.h ****     thread_t myHandle;
  26:src/../h/syscall_cpp.h **** };
  27:src/../h/syscall_cpp.h **** 
  28:src/../h/syscall_cpp.h **** class Semaphore {
  29:src/../h/syscall_cpp.h **** public:
  30:src/../h/syscall_cpp.h ****     void* operator new(size_t size);
  31:src/../h/syscall_cpp.h ****     void operator delete(void* memSegment);
  32:src/../h/syscall_cpp.h ****     Semaphore (unsigned init = 1);
  33:src/../h/syscall_cpp.h ****     virtual ~Semaphore ();
  34:src/../h/syscall_cpp.h ****     int wait ();
  35:src/../h/syscall_cpp.h ****     int signal ();
  36:src/../h/syscall_cpp.h **** private:
  37:src/../h/syscall_cpp.h ****     sem_t myHandle;
  38:src/../h/syscall_cpp.h **** };
  39:src/../h/syscall_cpp.h **** 
  40:src/../h/syscall_cpp.h **** class PeriodicThread : public Thread {
  41:src/../h/syscall_cpp.h **** protected:
  42:src/../h/syscall_cpp.h ****     PeriodicThread (time_t period);
  43:src/../h/syscall_cpp.h ****     virtual void periodicActivation () {}
  38              		.loc 1 43 18 is_stmt 1
  39              		.cfi_startproc
  40              	.LVL1:
  41 0000 130101FF 		addi	sp,sp,-16
  42              		.cfi_def_cfa_offset 16
  43 0004 23348100 		sd	s0,8(sp)
  44              		.cfi_offset 8, -8
  45 0008 13040101 		addi	s0,sp,16
  46              		.cfi_def_cfa 8, 0
  47              		.loc 1 43 41 is_stmt 0
  48 000c 03348100 		ld	s0,8(sp)
  49              		.cfi_restore 8
  50              		.cfi_def_cfa 2, 16
  51 0010 13010101 		addi	sp,sp,16
  52              		.cfi_def_cfa_offset 0
  53 0014 67800000 		jr	ra
  54              		.cfi_endproc
  55              	.LFE1:
  57              		.text
  58              		.align	2
  59              		.globl	_Z13threadWrapperPv
  61              	_Z13threadWrapperPv:
  62              	.LFB42:
  63              		.file 2 "src/syscall_cpp.cpp"
   1:src/syscall_cpp.cpp **** #include "../h/syscall_cpp.h"
   2:src/syscall_cpp.cpp **** #include "../h/MemoryAllocator.h"
   3:src/syscall_cpp.cpp **** #include "../h/PCB.h"
   4:src/syscall_cpp.cpp **** #include "../h/SCB.h"
   5:src/syscall_cpp.cpp **** 
   6:src/syscall_cpp.cpp **** void* operator new (size_t size) {
   7:src/syscall_cpp.cpp ****     return mem_alloc(size);
   8:src/syscall_cpp.cpp **** }
   9:src/syscall_cpp.cpp **** void* operator new [](size_t size) {
  10:src/syscall_cpp.cpp ****     return mem_alloc(size);
  11:src/syscall_cpp.cpp **** }
  12:src/syscall_cpp.cpp **** void operator delete (void* memSegment) noexcept {
  13:src/syscall_cpp.cpp ****     mem_free(memSegment);
GAS LISTING /tmp/ccULrCDn.s 			page 3


  14:src/syscall_cpp.cpp **** }
  15:src/syscall_cpp.cpp **** void operator delete [](void* memSegment) noexcept {
  16:src/syscall_cpp.cpp ****     mem_free(memSegment);
  17:src/syscall_cpp.cpp **** }
  18:src/syscall_cpp.cpp **** 
  19:src/syscall_cpp.cpp **** Thread::Thread(void (*body)(void *), void *arg) {
  20:src/syscall_cpp.cpp ****     thread_create_only(&myHandle, body, arg);
  21:src/syscall_cpp.cpp **** }
  22:src/syscall_cpp.cpp **** 
  23:src/syscall_cpp.cpp **** Thread::~Thread() {
  24:src/syscall_cpp.cpp ****     delete myHandle;
  25:src/syscall_cpp.cpp **** }
  26:src/syscall_cpp.cpp **** 
  27:src/syscall_cpp.cpp **** void *Thread::operator new(size_t size) {
  28:src/syscall_cpp.cpp ****     return MemoryAllocator::mem_alloc(size);
  29:src/syscall_cpp.cpp **** }
  30:src/syscall_cpp.cpp **** 
  31:src/syscall_cpp.cpp **** void Thread::operator delete(void *memSegment) {
  32:src/syscall_cpp.cpp ****     MemoryAllocator::mem_free(memSegment);
  33:src/syscall_cpp.cpp **** }
  34:src/syscall_cpp.cpp **** 
  35:src/syscall_cpp.cpp **** void Thread::dispatch() {
  36:src/syscall_cpp.cpp ****     thread_dispatch();
  37:src/syscall_cpp.cpp **** }
  38:src/syscall_cpp.cpp **** 
  39:src/syscall_cpp.cpp **** int Thread::start() {
  40:src/syscall_cpp.cpp ****     thread_start(&myHandle);
  41:src/syscall_cpp.cpp ****     return 0;
  42:src/syscall_cpp.cpp **** }
  43:src/syscall_cpp.cpp **** 
  44:src/syscall_cpp.cpp **** struct threadArg {
  45:src/syscall_cpp.cpp ****     void* thread;
  46:src/syscall_cpp.cpp ****     void (Thread::* run)();
  47:src/syscall_cpp.cpp **** };
  48:src/syscall_cpp.cpp **** 
  49:src/syscall_cpp.cpp **** void threadWrapper(void* thread);
  50:src/syscall_cpp.cpp **** Thread::Thread() {
  51:src/syscall_cpp.cpp ****     threadArg* tArg = new threadArg{this, &Thread::run}; // oslobodice se u destruktoru PCB-a
  52:src/syscall_cpp.cpp ****     thread_create_only(&myHandle, threadWrapper, tArg);
  53:src/syscall_cpp.cpp **** }
  54:src/syscall_cpp.cpp **** 
  55:src/syscall_cpp.cpp **** void threadWrapper(void* thread) {
  64              		.loc 2 55 34 is_stmt 1
  65              		.cfi_startproc
  66              	.LVL2:
  67 0000 130101FD 		addi	sp,sp,-48
  68              		.cfi_def_cfa_offset 48
  69 0004 23341102 		sd	ra,40(sp)
  70 0008 23308102 		sd	s0,32(sp)
  71              		.cfi_offset 1, -8
  72              		.cfi_offset 8, -16
  73 000c 13040103 		addi	s0,sp,48
  74              		.cfi_def_cfa 8, 0
  56:src/syscall_cpp.cpp ****     threadArg tArg = *(threadArg*)thread;
  75              		.loc 2 56 5
  76              		.loc 2 56 15 is_stmt 0
  77 0010 83370500 		ld	a5,0(a0)
GAS LISTING /tmp/ccULrCDn.s 			page 4


  78 0014 233CF4FC 		sd	a5,-40(s0)
  79 0018 03378500 		ld	a4,8(a0)
  80 001c 2330E4FE 		sd	a4,-32(s0)
  81 0020 03350501 		ld	a0,16(a0)
  82              	.LVL3:
  83 0024 2334A4FE 		sd	a0,-24(s0)
  57:src/syscall_cpp.cpp ****     (((Thread*)tArg.thread)->*(tArg.run))();
  84              		.loc 2 57 5 is_stmt 1
  85              		.loc 2 57 42 is_stmt 0
  86 0028 3385A700 		add	a0,a5,a0
  87              		.loc 2 57 43
  88 002c 93070700 		mv	a5,a4
  89 0030 93761700 		andi	a3,a4,1
  90 0034 63880600 		beqz	a3,.L6
  91              		.loc 2 57 43 discriminator 1
  92 0038 83370500 		ld	a5,0(a0)
  93 003c 3387E700 		add	a4,a5,a4
  94 0040 8337F7FF 		ld	a5,-1(a4)
  95              	.L6:
  96              		.loc 2 57 42 discriminator 4
  97 0044 E7800700 		jalr	a5
  98              	.LVL4:
  58:src/syscall_cpp.cpp **** }
  99              		.loc 2 58 1 discriminator 4
 100 0048 83308102 		ld	ra,40(sp)
 101              		.cfi_restore 1
 102 004c 03340102 		ld	s0,32(sp)
 103              		.cfi_restore 8
 104              		.cfi_def_cfa 2, 48
 105 0050 13010103 		addi	sp,sp,48
 106              		.cfi_def_cfa_offset 0
 107 0054 67800000 		jr	ra
 108              		.cfi_endproc
 109              	.LFE42:
 111              		.align	2
 112              		.globl	_ZN6ThreadD2Ev
 114              	_ZN6ThreadD2Ev:
 115              	.LFB32:
  23:src/syscall_cpp.cpp ****     delete myHandle;
 116              		.loc 2 23 1 is_stmt 1
 117              		.cfi_startproc
 118              		.cfi_personality 0x9b,DW.ref.__gxx_personality_v0
 119              		.cfi_lsda 0x1b,.LLSDA32
 120              	.LVL5:
 121 0058 130101FE 		addi	sp,sp,-32
 122              		.cfi_def_cfa_offset 32
 123 005c 233C1100 		sd	ra,24(sp)
 124 0060 23388100 		sd	s0,16(sp)
 125 0064 23349100 		sd	s1,8(sp)
 126              		.cfi_offset 1, -8
 127              		.cfi_offset 8, -16
 128              		.cfi_offset 9, -24
 129 0068 13040102 		addi	s0,sp,32
 130              		.cfi_def_cfa 8, 0
 131              	.LBB14:
  23:src/syscall_cpp.cpp ****     delete myHandle;
 132              		.loc 2 23 17 is_stmt 0
GAS LISTING /tmp/ccULrCDn.s 			page 5


 133 006c 97070000 		lla	a5,_ZTV6Thread+16
 133      93870700 
 134 0074 2330F500 		sd	a5,0(a0)
  24:src/syscall_cpp.cpp **** }
 135              		.loc 2 24 5 is_stmt 1
  24:src/syscall_cpp.cpp **** }
 136              		.loc 2 24 12 is_stmt 0
 137 0078 83348500 		ld	s1,8(a0)
  24:src/syscall_cpp.cpp **** }
 138              		.loc 2 24 20
 139 007c 638E0400 		beqz	s1,.L8
  24:src/syscall_cpp.cpp **** }
 140              		.loc 2 24 12 discriminator 1
 141 0080 13850400 		mv	a0,s1
 142              	.LVL6:
 143 0084 97000000 		call	_ZN3PCBD1Ev@plt
 143      E7800000 
 144              	.LVL7:
 145 008c 13850400 		mv	a0,s1
 146 0090 97000000 		call	_ZN3PCBdlEPv@plt
 146      E7800000 
 147              	.LVL8:
 148              	.L8:
 149              	.LBE14:
  25:src/syscall_cpp.cpp **** 
 150              		.loc 2 25 1
 151 0098 83308101 		ld	ra,24(sp)
 152              		.cfi_restore 1
 153 009c 03340101 		ld	s0,16(sp)
 154              		.cfi_restore 8
 155              		.cfi_def_cfa 2, 32
 156 00a0 83348100 		ld	s1,8(sp)
 157              		.cfi_restore 9
 158 00a4 13010102 		addi	sp,sp,32
 159              		.cfi_def_cfa_offset 0
 160 00a8 67800000 		jr	ra
 161              		.cfi_endproc
 162              	.LFE32:
 163              		.globl	__gxx_personality_v0
 164              		.section	.gcc_except_table,"a",@progbits
 165              	.LLSDA32:
 166 0000 FF       		.byte	0xff
 167 0001 FF       		.byte	0xff
 168 0002 03       		.byte	0x3
 169 0003 00       		.byte	0
 170              		.text
 172              		.globl	_ZN6ThreadD1Ev
 173              		.set	_ZN6ThreadD1Ev,_ZN6ThreadD2Ev
 174              		.section	.text._ZN14PeriodicThreadD2Ev,"axG",@progbits,_ZN14PeriodicThreadD5Ev,comdat
 175              		.align	2
 176              		.weak	_ZN14PeriodicThreadD2Ev
 178              	_ZN14PeriodicThreadD2Ev:
 179              	.LFB60:
  40:src/../h/syscall_cpp.h **** protected:
 180              		.loc 1 40 7 is_stmt 1
 181              		.cfi_startproc
 182              	.LVL9:
GAS LISTING /tmp/ccULrCDn.s 			page 6


 183 0000 130101FF 		addi	sp,sp,-16
 184              		.cfi_def_cfa_offset 16
 185 0004 23341100 		sd	ra,8(sp)
 186 0008 23308100 		sd	s0,0(sp)
 187              		.cfi_offset 1, -8
 188              		.cfi_offset 8, -16
 189 000c 13040101 		addi	s0,sp,16
 190              		.cfi_def_cfa 8, 0
 191              	.LBB15:
  40:src/../h/syscall_cpp.h **** protected:
 192              		.loc 1 40 7 is_stmt 0
 193 0010 97070000 		lla	a5,_ZTV14PeriodicThread+16
 193      93870700 
 194 0018 2330F500 		sd	a5,0(a0)
 195 001c 97000000 		call	_ZN6ThreadD2Ev
 195      E7800000 
 196              	.LVL10:
 197              	.LBE15:
 198 0024 83308100 		ld	ra,8(sp)
 199              		.cfi_restore 1
 200 0028 03340100 		ld	s0,0(sp)
 201              		.cfi_restore 8
 202              		.cfi_def_cfa 2, 16
 203 002c 13010101 		addi	sp,sp,16
 204              		.cfi_def_cfa_offset 0
 205 0030 67800000 		jr	ra
 206              		.cfi_endproc
 207              	.LFE60:
 209              		.weak	_ZN14PeriodicThreadD1Ev
 210              		.set	_ZN14PeriodicThreadD1Ev,_ZN14PeriodicThreadD2Ev
 211              		.text
 212              		.align	2
 213              		.globl	_ZN9SemaphoreD2Ev
 215              	_ZN9SemaphoreD2Ev:
 216              	.LFB48:
  59:src/syscall_cpp.cpp **** 
  60:src/syscall_cpp.cpp **** int Thread::sleep(time_t time) {
  61:src/syscall_cpp.cpp ****     return time_sleep(time);
  62:src/syscall_cpp.cpp **** }
  63:src/syscall_cpp.cpp **** 
  64:src/syscall_cpp.cpp **** Semaphore::Semaphore(unsigned int init) {
  65:src/syscall_cpp.cpp ****     myHandle = SCB::createSemaphore(init);
  66:src/syscall_cpp.cpp **** }
  67:src/syscall_cpp.cpp **** 
  68:src/syscall_cpp.cpp **** Semaphore::~Semaphore() {
 217              		.loc 2 68 1 is_stmt 1
 218              		.cfi_startproc
 219              		.cfi_personality 0x9b,DW.ref.__gxx_personality_v0
 220              		.cfi_lsda 0x1b,.LLSDA48
 221              	.LVL11:
 222 00ac 130101FF 		addi	sp,sp,-16
 223              		.cfi_def_cfa_offset 16
 224 00b0 23341100 		sd	ra,8(sp)
 225 00b4 23308100 		sd	s0,0(sp)
 226              		.cfi_offset 1, -8
 227              		.cfi_offset 8, -16
 228 00b8 13040101 		addi	s0,sp,16
GAS LISTING /tmp/ccULrCDn.s 			page 7


 229              		.cfi_def_cfa 8, 0
 230              	.LBB16:
 231              		.loc 2 68 23 is_stmt 0
 232 00bc 97070000 		lla	a5,_ZTV9Semaphore+16
 232      93870700 
 233 00c4 2330F500 		sd	a5,0(a0)
  69:src/syscall_cpp.cpp ****     sem_close(myHandle);
 234              		.loc 2 69 5 is_stmt 1
 235              		.loc 2 69 14 is_stmt 0
 236 00c8 03358500 		ld	a0,8(a0)
 237              	.LVL12:
 238 00cc 97000000 		call	_Z9sem_closeP3SCB@plt
 238      E7800000 
 239              	.LVL13:
 240              	.LBE16:
  70:src/syscall_cpp.cpp **** }
 241              		.loc 2 70 1
 242 00d4 83308100 		ld	ra,8(sp)
 243              		.cfi_restore 1
 244 00d8 03340100 		ld	s0,0(sp)
 245              		.cfi_restore 8
 246              		.cfi_def_cfa 2, 16
 247 00dc 13010101 		addi	sp,sp,16
 248              		.cfi_def_cfa_offset 0
 249 00e0 67800000 		jr	ra
 250              		.cfi_endproc
 251              	.LFE48:
 252              		.section	.gcc_except_table
 253              	.LLSDA48:
 254 0004 FF       		.byte	0xff
 255 0005 FF       		.byte	0xff
 256 0006 03       		.byte	0x3
 257 0007 00       		.byte	0
 258              		.text
 260              		.globl	_ZN9SemaphoreD1Ev
 261              		.set	_ZN9SemaphoreD1Ev,_ZN9SemaphoreD2Ev
 262              		.align	2
 263              		.globl	_Znwm
 265              	_Znwm:
 266              	.LFB24:
   6:src/syscall_cpp.cpp ****     return mem_alloc(size);
 267              		.loc 2 6 34 is_stmt 1
 268              		.cfi_startproc
 269              	.LVL14:
 270 00e4 130101FF 		addi	sp,sp,-16
 271              		.cfi_def_cfa_offset 16
 272 00e8 23341100 		sd	ra,8(sp)
 273 00ec 23308100 		sd	s0,0(sp)
 274              		.cfi_offset 1, -8
 275              		.cfi_offset 8, -16
 276 00f0 13040101 		addi	s0,sp,16
 277              		.cfi_def_cfa 8, 0
   7:src/syscall_cpp.cpp **** }
 278              		.loc 2 7 5
   7:src/syscall_cpp.cpp **** }
 279              		.loc 2 7 21 is_stmt 0
 280 00f4 97000000 		call	_Z9mem_allocm@plt
GAS LISTING /tmp/ccULrCDn.s 			page 8


 280      E7800000 
 281              	.LVL15:
   8:src/syscall_cpp.cpp **** void* operator new [](size_t size) {
 282              		.loc 2 8 1
 283 00fc 83308100 		ld	ra,8(sp)
 284              		.cfi_restore 1
 285 0100 03340100 		ld	s0,0(sp)
 286              		.cfi_restore 8
 287              		.cfi_def_cfa 2, 16
 288 0104 13010101 		addi	sp,sp,16
 289              		.cfi_def_cfa_offset 0
 290 0108 67800000 		jr	ra
 291              		.cfi_endproc
 292              	.LFE24:
 294              		.align	2
 295              		.globl	_Znam
 297              	_Znam:
 298              	.LFB25:
   9:src/syscall_cpp.cpp ****     return mem_alloc(size);
 299              		.loc 2 9 36 is_stmt 1
 300              		.cfi_startproc
 301              	.LVL16:
 302 010c 130101FF 		addi	sp,sp,-16
 303              		.cfi_def_cfa_offset 16
 304 0110 23341100 		sd	ra,8(sp)
 305 0114 23308100 		sd	s0,0(sp)
 306              		.cfi_offset 1, -8
 307              		.cfi_offset 8, -16
 308 0118 13040101 		addi	s0,sp,16
 309              		.cfi_def_cfa 8, 0
  10:src/syscall_cpp.cpp **** }
 310              		.loc 2 10 5
  10:src/syscall_cpp.cpp **** }
 311              		.loc 2 10 21 is_stmt 0
 312 011c 97000000 		call	_Z9mem_allocm@plt
 312      E7800000 
 313              	.LVL17:
  11:src/syscall_cpp.cpp **** void operator delete (void* memSegment) noexcept {
 314              		.loc 2 11 1
 315 0124 83308100 		ld	ra,8(sp)
 316              		.cfi_restore 1
 317 0128 03340100 		ld	s0,0(sp)
 318              		.cfi_restore 8
 319              		.cfi_def_cfa 2, 16
 320 012c 13010101 		addi	sp,sp,16
 321              		.cfi_def_cfa_offset 0
 322 0130 67800000 		jr	ra
 323              		.cfi_endproc
 324              	.LFE25:
 326              		.align	2
 327              		.globl	_ZdlPv
 329              	_ZdlPv:
 330              	.LFB26:
  12:src/syscall_cpp.cpp ****     mem_free(memSegment);
 331              		.loc 2 12 50 is_stmt 1
 332              		.cfi_startproc
 333              		.cfi_personality 0x9b,DW.ref.__gxx_personality_v0
GAS LISTING /tmp/ccULrCDn.s 			page 9


 334              		.cfi_lsda 0x1b,.LLSDA26
 335              	.LVL18:
 336 0134 130101FF 		addi	sp,sp,-16
 337              		.cfi_def_cfa_offset 16
 338 0138 23341100 		sd	ra,8(sp)
 339 013c 23308100 		sd	s0,0(sp)
 340              		.cfi_offset 1, -8
 341              		.cfi_offset 8, -16
 342 0140 13040101 		addi	s0,sp,16
 343              		.cfi_def_cfa 8, 0
  13:src/syscall_cpp.cpp **** }
 344              		.loc 2 13 5
  13:src/syscall_cpp.cpp **** }
 345              		.loc 2 13 13 is_stmt 0
 346 0144 97000000 		call	_Z8mem_freePv@plt
 346      E7800000 
 347              	.LVL19:
  14:src/syscall_cpp.cpp **** void operator delete [](void* memSegment) noexcept {
 348              		.loc 2 14 1
 349 014c 83308100 		ld	ra,8(sp)
 350              		.cfi_restore 1
 351 0150 03340100 		ld	s0,0(sp)
 352              		.cfi_restore 8
 353              		.cfi_def_cfa 2, 16
 354 0154 13010101 		addi	sp,sp,16
 355              		.cfi_def_cfa_offset 0
 356 0158 67800000 		jr	ra
 357              		.cfi_endproc
 358              	.LFE26:
 359              		.section	.gcc_except_table
 360              	.LLSDA26:
 361 0008 FF       		.byte	0xff
 362 0009 FF       		.byte	0xff
 363 000a 03       		.byte	0x3
 364 000b 00       		.byte	0
 365              		.text
 367              		.align	2
 368              		.globl	_ZdaPv
 370              	_ZdaPv:
 371              	.LFB27:
  15:src/syscall_cpp.cpp ****     mem_free(memSegment);
 372              		.loc 2 15 52 is_stmt 1
 373              		.cfi_startproc
 374              		.cfi_personality 0x9b,DW.ref.__gxx_personality_v0
 375              		.cfi_lsda 0x1b,.LLSDA27
 376              	.LVL20:
 377 015c 130101FF 		addi	sp,sp,-16
 378              		.cfi_def_cfa_offset 16
 379 0160 23341100 		sd	ra,8(sp)
 380 0164 23308100 		sd	s0,0(sp)
 381              		.cfi_offset 1, -8
 382              		.cfi_offset 8, -16
 383 0168 13040101 		addi	s0,sp,16
 384              		.cfi_def_cfa 8, 0
  16:src/syscall_cpp.cpp **** }
 385              		.loc 2 16 5
  16:src/syscall_cpp.cpp **** }
GAS LISTING /tmp/ccULrCDn.s 			page 10


 386              		.loc 2 16 13 is_stmt 0
 387 016c 97000000 		call	_Z8mem_freePv@plt
 387      E7800000 
 388              	.LVL21:
  17:src/syscall_cpp.cpp **** 
 389              		.loc 2 17 1
 390 0174 83308100 		ld	ra,8(sp)
 391              		.cfi_restore 1
 392 0178 03340100 		ld	s0,0(sp)
 393              		.cfi_restore 8
 394              		.cfi_def_cfa 2, 16
 395 017c 13010101 		addi	sp,sp,16
 396              		.cfi_def_cfa_offset 0
 397 0180 67800000 		jr	ra
 398              		.cfi_endproc
 399              	.LFE27:
 400              		.section	.gcc_except_table
 401              	.LLSDA27:
 402 000c FF       		.byte	0xff
 403 000d FF       		.byte	0xff
 404 000e 03       		.byte	0x3
 405 000f 00       		.byte	0
 406              		.text
 408              		.align	2
 409              		.globl	_ZN6ThreadC2EPFvPvES0_
 411              	_ZN6ThreadC2EPFvPvES0_:
 412              	.LFB29:
  19:src/syscall_cpp.cpp ****     thread_create_only(&myHandle, body, arg);
 413              		.loc 2 19 1 is_stmt 1
 414              		.cfi_startproc
 415              	.LVL22:
 416 0184 130101FF 		addi	sp,sp,-16
 417              		.cfi_def_cfa_offset 16
 418 0188 23341100 		sd	ra,8(sp)
 419 018c 23308100 		sd	s0,0(sp)
 420              		.cfi_offset 1, -8
 421              		.cfi_offset 8, -16
 422 0190 13040101 		addi	s0,sp,16
 423              		.cfi_def_cfa 8, 0
 424              	.LBB17:
  19:src/syscall_cpp.cpp ****     thread_create_only(&myHandle, body, arg);
 425              		.loc 2 19 47 is_stmt 0
 426 0194 97070000 		lla	a5,_ZTV6Thread+16
 426      93870700 
 427 019c 2330F500 		sd	a5,0(a0)
  20:src/syscall_cpp.cpp **** }
 428              		.loc 2 20 5 is_stmt 1
  20:src/syscall_cpp.cpp **** }
 429              		.loc 2 20 23 is_stmt 0
 430 01a0 13058500 		addi	a0,a0,8
 431              	.LVL23:
 432 01a4 97000000 		call	_Z18thread_create_onlyPP3PCBPFvPvES2_@plt
 432      E7800000 
 433              	.LVL24:
 434              	.LBE17:
  21:src/syscall_cpp.cpp **** 
 435              		.loc 2 21 1
GAS LISTING /tmp/ccULrCDn.s 			page 11


 436 01ac 83308100 		ld	ra,8(sp)
 437              		.cfi_restore 1
 438 01b0 03340100 		ld	s0,0(sp)
 439              		.cfi_restore 8
 440              		.cfi_def_cfa 2, 16
 441 01b4 13010101 		addi	sp,sp,16
 442              		.cfi_def_cfa_offset 0
 443 01b8 67800000 		jr	ra
 444              		.cfi_endproc
 445              	.LFE29:
 447              		.globl	_ZN6ThreadC1EPFvPvES0_
 448              		.set	_ZN6ThreadC1EPFvPvES0_,_ZN6ThreadC2EPFvPvES0_
 449              		.align	2
 450              		.globl	_ZN6ThreadnwEm
 452              	_ZN6ThreadnwEm:
 453              	.LFB35:
  27:src/syscall_cpp.cpp ****     return MemoryAllocator::mem_alloc(size);
 454              		.loc 2 27 41 is_stmt 1
 455              		.cfi_startproc
 456              	.LVL25:
 457 01bc 130101FF 		addi	sp,sp,-16
 458              		.cfi_def_cfa_offset 16
 459 01c0 23341100 		sd	ra,8(sp)
 460 01c4 23308100 		sd	s0,0(sp)
 461              		.cfi_offset 1, -8
 462              		.cfi_offset 8, -16
 463 01c8 13040101 		addi	s0,sp,16
 464              		.cfi_def_cfa 8, 0
  28:src/syscall_cpp.cpp **** }
 465              		.loc 2 28 5
  28:src/syscall_cpp.cpp **** }
 466              		.loc 2 28 38 is_stmt 0
 467 01cc 97000000 		call	_ZN15MemoryAllocator9mem_allocEm@plt
 467      E7800000 
 468              	.LVL26:
  29:src/syscall_cpp.cpp **** 
 469              		.loc 2 29 1
 470 01d4 83308100 		ld	ra,8(sp)
 471              		.cfi_restore 1
 472 01d8 03340100 		ld	s0,0(sp)
 473              		.cfi_restore 8
 474              		.cfi_def_cfa 2, 16
 475 01dc 13010101 		addi	sp,sp,16
 476              		.cfi_def_cfa_offset 0
 477 01e0 67800000 		jr	ra
 478              		.cfi_endproc
 479              	.LFE35:
 481              		.align	2
 482              		.globl	_ZN6ThreaddlEPv
 484              	_ZN6ThreaddlEPv:
 485              	.LFB36:
  31:src/syscall_cpp.cpp ****     MemoryAllocator::mem_free(memSegment);
 486              		.loc 2 31 48 is_stmt 1
 487              		.cfi_startproc
 488              	.LVL27:
 489 01e4 130101FF 		addi	sp,sp,-16
 490              		.cfi_def_cfa_offset 16
GAS LISTING /tmp/ccULrCDn.s 			page 12


 491 01e8 23341100 		sd	ra,8(sp)
 492 01ec 23308100 		sd	s0,0(sp)
 493              		.cfi_offset 1, -8
 494              		.cfi_offset 8, -16
 495 01f0 13040101 		addi	s0,sp,16
 496              		.cfi_def_cfa 8, 0
  32:src/syscall_cpp.cpp **** }
 497              		.loc 2 32 5
  32:src/syscall_cpp.cpp **** }
 498              		.loc 2 32 30 is_stmt 0
 499 01f4 97000000 		call	_ZN15MemoryAllocator8mem_freeEPv@plt
 499      E7800000 
 500              	.LVL28:
  33:src/syscall_cpp.cpp **** 
 501              		.loc 2 33 1
 502 01fc 83308100 		ld	ra,8(sp)
 503              		.cfi_restore 1
 504 0200 03340100 		ld	s0,0(sp)
 505              		.cfi_restore 8
 506              		.cfi_def_cfa 2, 16
 507 0204 13010101 		addi	sp,sp,16
 508              		.cfi_def_cfa_offset 0
 509 0208 67800000 		jr	ra
 510              		.cfi_endproc
 511              	.LFE36:
 513              		.align	2
 514              		.globl	_ZN6ThreadD0Ev
 516              	_ZN6ThreadD0Ev:
 517              	.LFB34:
  23:src/syscall_cpp.cpp ****     delete myHandle;
 518              		.loc 2 23 1 is_stmt 1
 519              		.cfi_startproc
 520              	.LVL29:
 521 020c 130101FE 		addi	sp,sp,-32
 522              		.cfi_def_cfa_offset 32
 523 0210 233C1100 		sd	ra,24(sp)
 524 0214 23388100 		sd	s0,16(sp)
 525 0218 23349100 		sd	s1,8(sp)
 526              		.cfi_offset 1, -8
 527              		.cfi_offset 8, -16
 528              		.cfi_offset 9, -24
 529 021c 13040102 		addi	s0,sp,32
 530              		.cfi_def_cfa 8, 0
 531 0220 93040500 		mv	s1,a0
  25:src/syscall_cpp.cpp **** 
 532              		.loc 2 25 1 is_stmt 0
 533 0224 97000000 		call	_ZN6ThreadD1Ev
 533      E7800000 
 534              	.LVL30:
 535 022c 13850400 		mv	a0,s1
 536 0230 97000000 		call	_ZN6ThreaddlEPv
 536      E7800000 
 537              	.LVL31:
 538 0238 83308101 		ld	ra,24(sp)
 539              		.cfi_restore 1
 540 023c 03340101 		ld	s0,16(sp)
 541              		.cfi_restore 8
GAS LISTING /tmp/ccULrCDn.s 			page 13


 542              		.cfi_def_cfa 2, 32
 543 0240 83348100 		ld	s1,8(sp)
 544              		.cfi_restore 9
 545              	.LVL32:
 546 0244 13010102 		addi	sp,sp,32
 547              		.cfi_def_cfa_offset 0
 548 0248 67800000 		jr	ra
 549              		.cfi_endproc
 550              	.LFE34:
 552              		.section	.text._ZN14PeriodicThreadD0Ev,"axG",@progbits,_ZN14PeriodicThreadD5Ev,comdat
 553              		.align	2
 554              		.weak	_ZN14PeriodicThreadD0Ev
 556              	_ZN14PeriodicThreadD0Ev:
 557              	.LFB62:
  40:src/../h/syscall_cpp.h **** protected:
 558              		.loc 1 40 7 is_stmt 1
 559              		.cfi_startproc
 560              	.LVL33:
 561 0000 130101FE 		addi	sp,sp,-32
 562              		.cfi_def_cfa_offset 32
 563 0004 233C1100 		sd	ra,24(sp)
 564 0008 23388100 		sd	s0,16(sp)
 565 000c 23349100 		sd	s1,8(sp)
 566              		.cfi_offset 1, -8
 567              		.cfi_offset 8, -16
 568              		.cfi_offset 9, -24
 569 0010 13040102 		addi	s0,sp,32
 570              		.cfi_def_cfa 8, 0
 571 0014 93040500 		mv	s1,a0
 572              	.LVL34:
 573              	.LBB18:
 574              	.LBB19:
  40:src/../h/syscall_cpp.h **** protected:
 575              		.loc 1 40 7 is_stmt 0
 576 0018 97070000 		lla	a5,_ZTV14PeriodicThread+16
 576      93870700 
 577 0020 2330F500 		sd	a5,0(a0)
 578 0024 97000000 		call	_ZN6ThreadD2Ev
 578      E7800000 
 579              	.LVL35:
 580              	.LBE19:
 581              	.LBE18:
 582 002c 13850400 		mv	a0,s1
 583 0030 97000000 		call	_ZN6ThreaddlEPv
 583      E7800000 
 584              	.LVL36:
 585 0038 83308101 		ld	ra,24(sp)
 586              		.cfi_restore 1
 587 003c 03340101 		ld	s0,16(sp)
 588              		.cfi_restore 8
 589              		.cfi_def_cfa 2, 32
 590 0040 83348100 		ld	s1,8(sp)
 591              		.cfi_restore 9
 592              	.LVL37:
 593 0044 13010102 		addi	sp,sp,32
 594              		.cfi_def_cfa_offset 0
 595 0048 67800000 		jr	ra
GAS LISTING /tmp/ccULrCDn.s 			page 14


 596              		.cfi_endproc
 597              	.LFE62:
 599              		.text
 600              		.align	2
 601              		.globl	_ZN6Thread8dispatchEv
 603              	_ZN6Thread8dispatchEv:
 604              	.LFB37:
  35:src/syscall_cpp.cpp ****     thread_dispatch();
 605              		.loc 2 35 25 is_stmt 1
 606              		.cfi_startproc
 607 024c 130101FF 		addi	sp,sp,-16
 608              		.cfi_def_cfa_offset 16
 609 0250 23341100 		sd	ra,8(sp)
 610 0254 23308100 		sd	s0,0(sp)
 611              		.cfi_offset 1, -8
 612              		.cfi_offset 8, -16
 613 0258 13040101 		addi	s0,sp,16
 614              		.cfi_def_cfa 8, 0
  36:src/syscall_cpp.cpp **** }
 615              		.loc 2 36 5
  36:src/syscall_cpp.cpp **** }
 616              		.loc 2 36 20 is_stmt 0
 617 025c 97000000 		call	_Z15thread_dispatchv@plt
 617      E7800000 
 618              	.LVL38:
  37:src/syscall_cpp.cpp **** 
 619              		.loc 2 37 1
 620 0264 83308100 		ld	ra,8(sp)
 621              		.cfi_restore 1
 622 0268 03340100 		ld	s0,0(sp)
 623              		.cfi_restore 8
 624              		.cfi_def_cfa 2, 16
 625 026c 13010101 		addi	sp,sp,16
 626              		.cfi_def_cfa_offset 0
 627 0270 67800000 		jr	ra
 628              		.cfi_endproc
 629              	.LFE37:
 631              		.align	2
 632              		.globl	_ZN6Thread5startEv
 634              	_ZN6Thread5startEv:
 635              	.LFB38:
  39:src/syscall_cpp.cpp ****     thread_start(&myHandle);
 636              		.loc 2 39 21 is_stmt 1
 637              		.cfi_startproc
 638              	.LVL39:
 639 0274 130101FF 		addi	sp,sp,-16
 640              		.cfi_def_cfa_offset 16
 641 0278 23341100 		sd	ra,8(sp)
 642 027c 23308100 		sd	s0,0(sp)
 643              		.cfi_offset 1, -8
 644              		.cfi_offset 8, -16
 645 0280 13040101 		addi	s0,sp,16
 646              		.cfi_def_cfa 8, 0
  40:src/syscall_cpp.cpp ****     return 0;
 647              		.loc 2 40 5
  40:src/syscall_cpp.cpp ****     return 0;
 648              		.loc 2 40 17 is_stmt 0
GAS LISTING /tmp/ccULrCDn.s 			page 15


 649 0284 13058500 		addi	a0,a0,8
 650              	.LVL40:
 651 0288 97000000 		call	_Z12thread_startPP3PCB@plt
 651      E7800000 
 652              	.LVL41:
  41:src/syscall_cpp.cpp **** }
 653              		.loc 2 41 5 is_stmt 1
  42:src/syscall_cpp.cpp **** 
 654              		.loc 2 42 1 is_stmt 0
 655 0290 13050000 		li	a0,0
 656 0294 83308100 		ld	ra,8(sp)
 657              		.cfi_restore 1
 658 0298 03340100 		ld	s0,0(sp)
 659              		.cfi_restore 8
 660              		.cfi_def_cfa 2, 16
 661 029c 13010101 		addi	sp,sp,16
 662              		.cfi_def_cfa_offset 0
 663 02a0 67800000 		jr	ra
 664              		.cfi_endproc
 665              	.LFE38:
 667              		.align	2
 668              		.globl	_ZN6ThreadC2Ev
 670              	_ZN6ThreadC2Ev:
 671              	.LFB40:
  50:src/syscall_cpp.cpp ****     threadArg* tArg = new threadArg{this, &Thread::run}; // oslobodice se u destruktoru PCB-a
 672              		.loc 2 50 1 is_stmt 1
 673              		.cfi_startproc
 674              	.LVL42:
 675 02a4 130101FE 		addi	sp,sp,-32
 676              		.cfi_def_cfa_offset 32
 677 02a8 233C1100 		sd	ra,24(sp)
 678 02ac 23388100 		sd	s0,16(sp)
 679 02b0 23349100 		sd	s1,8(sp)
 680              		.cfi_offset 1, -8
 681              		.cfi_offset 8, -16
 682              		.cfi_offset 9, -24
 683 02b4 13040102 		addi	s0,sp,32
 684              		.cfi_def_cfa 8, 0
 685 02b8 93040500 		mv	s1,a0
 686              	.LBB20:
  50:src/syscall_cpp.cpp ****     threadArg* tArg = new threadArg{this, &Thread::run}; // oslobodice se u destruktoru PCB-a
 687              		.loc 2 50 16 is_stmt 0
 688 02bc 97070000 		lla	a5,_ZTV6Thread+16
 688      93870700 
 689 02c4 2330F500 		sd	a5,0(a0)
 690              	.LBB21:
  51:src/syscall_cpp.cpp ****     thread_create_only(&myHandle, threadWrapper, tArg);
 691              		.loc 2 51 5 is_stmt 1
  51:src/syscall_cpp.cpp ****     thread_create_only(&myHandle, threadWrapper, tArg);
 692              		.loc 2 51 55 is_stmt 0
 693 02c8 13058001 		li	a0,24
 694              	.LVL43:
 695 02cc 97000000 		call	_Znwm
 695      E7800000 
 696              	.LVL44:
 697 02d4 13060500 		mv	a2,a0
 698 02d8 23309500 		sd	s1,0(a0)
GAS LISTING /tmp/ccULrCDn.s 			page 16


 699 02dc 93071001 		li	a5,17
 700 02e0 2334F500 		sd	a5,8(a0)
 701 02e4 23380500 		sd	zero,16(a0)
 702              	.LVL45:
  52:src/syscall_cpp.cpp **** }
 703              		.loc 2 52 5 is_stmt 1
  52:src/syscall_cpp.cpp **** }
 704              		.loc 2 52 23 is_stmt 0
 705 02e8 97050000 		lla	a1,_Z13threadWrapperPv
 705      93850500 
 706 02f0 13858400 		addi	a0,s1,8
 707              	.LVL46:
 708 02f4 97000000 		call	_Z18thread_create_onlyPP3PCBPFvPvES2_@plt
 708      E7800000 
 709              	.LVL47:
 710              	.LBE21:
 711              	.LBE20:
  53:src/syscall_cpp.cpp **** 
 712              		.loc 2 53 1
 713 02fc 83308101 		ld	ra,24(sp)
 714              		.cfi_restore 1
 715 0300 03340101 		ld	s0,16(sp)
 716              		.cfi_restore 8
 717              		.cfi_def_cfa 2, 32
 718 0304 83348100 		ld	s1,8(sp)
 719              		.cfi_restore 9
 720              	.LVL48:
 721 0308 13010102 		addi	sp,sp,32
 722              		.cfi_def_cfa_offset 0
 723 030c 67800000 		jr	ra
 724              		.cfi_endproc
 725              	.LFE40:
 727              		.globl	_ZN6ThreadC1Ev
 728              		.set	_ZN6ThreadC1Ev,_ZN6ThreadC2Ev
 729              		.align	2
 730              		.globl	_ZN6Thread5sleepEm
 732              	_ZN6Thread5sleepEm:
 733              	.LFB43:
  60:src/syscall_cpp.cpp ****     return time_sleep(time);
 734              		.loc 2 60 32 is_stmt 1
 735              		.cfi_startproc
 736              	.LVL49:
 737 0310 130101FF 		addi	sp,sp,-16
 738              		.cfi_def_cfa_offset 16
 739 0314 23341100 		sd	ra,8(sp)
 740 0318 23308100 		sd	s0,0(sp)
 741              		.cfi_offset 1, -8
 742              		.cfi_offset 8, -16
 743 031c 13040101 		addi	s0,sp,16
 744              		.cfi_def_cfa 8, 0
  61:src/syscall_cpp.cpp **** }
 745              		.loc 2 61 5
  61:src/syscall_cpp.cpp **** }
 746              		.loc 2 61 22 is_stmt 0
 747 0320 97000000 		call	_Z10time_sleepm@plt
 747      E7800000 
 748              	.LVL50:
GAS LISTING /tmp/ccULrCDn.s 			page 17


  62:src/syscall_cpp.cpp **** 
 749              		.loc 2 62 1
 750 0328 83308100 		ld	ra,8(sp)
 751              		.cfi_restore 1
 752 032c 03340100 		ld	s0,0(sp)
 753              		.cfi_restore 8
 754              		.cfi_def_cfa 2, 16
 755 0330 13010101 		addi	sp,sp,16
 756              		.cfi_def_cfa_offset 0
 757 0334 67800000 		jr	ra
 758              		.cfi_endproc
 759              	.LFE43:
 761              		.align	2
 762              		.globl	_Z21periodicThreadWrapperPv
 764              	_Z21periodicThreadWrapperPv:
 765              	.LFB55:
  71:src/syscall_cpp.cpp **** 
  72:src/syscall_cpp.cpp **** int Semaphore::wait() {
  73:src/syscall_cpp.cpp ****     return sem_wait(myHandle);
  74:src/syscall_cpp.cpp **** }
  75:src/syscall_cpp.cpp **** 
  76:src/syscall_cpp.cpp **** int Semaphore::signal() {
  77:src/syscall_cpp.cpp ****     return sem_signal(myHandle);
  78:src/syscall_cpp.cpp **** }
  79:src/syscall_cpp.cpp **** 
  80:src/syscall_cpp.cpp **** void Semaphore::operator delete(void *memSegment) {
  81:src/syscall_cpp.cpp ****     MemoryAllocator::mem_free(memSegment);
  82:src/syscall_cpp.cpp **** }
  83:src/syscall_cpp.cpp **** 
  84:src/syscall_cpp.cpp **** void *Semaphore::operator new(size_t size) {
  85:src/syscall_cpp.cpp ****     return MemoryAllocator::mem_alloc(size);
  86:src/syscall_cpp.cpp **** }
  87:src/syscall_cpp.cpp **** 
  88:src/syscall_cpp.cpp **** struct periodicThreadArg {
  89:src/syscall_cpp.cpp ****     void* periodicThread;
  90:src/syscall_cpp.cpp ****     void (PeriodicThread::*periodicActivation)();
  91:src/syscall_cpp.cpp ****     time_t period;
  92:src/syscall_cpp.cpp **** };
  93:src/syscall_cpp.cpp **** 
  94:src/syscall_cpp.cpp **** void periodicThreadWrapper(void* periodicThread) {
 766              		.loc 2 94 50 is_stmt 1
 767              		.cfi_startproc
 768              	.LVL51:
 769 0338 130101FD 		addi	sp,sp,-48
 770              		.cfi_def_cfa_offset 48
 771 033c 23341102 		sd	ra,40(sp)
 772 0340 23308102 		sd	s0,32(sp)
 773              		.cfi_offset 1, -8
 774              		.cfi_offset 8, -16
 775 0344 13040103 		addi	s0,sp,48
 776              		.cfi_def_cfa 8, 0
  95:src/syscall_cpp.cpp ****     periodicThreadArg pArg = *(periodicThreadArg*)periodicThread;
 777              		.loc 2 95 5
 778              		.loc 2 95 23 is_stmt 0
 779 0348 03360500 		ld	a2,0(a0)
 780 034c 83368500 		ld	a3,8(a0)
 781 0350 03370501 		ld	a4,16(a0)
GAS LISTING /tmp/ccULrCDn.s 			page 18


 782 0354 83378501 		ld	a5,24(a0)
 783 0358 2338C4FC 		sd	a2,-48(s0)
 784 035c 233CD4FC 		sd	a3,-40(s0)
 785 0360 2330E4FE 		sd	a4,-32(s0)
 786 0364 2334F4FE 		sd	a5,-24(s0)
 787 0368 6F000002 		j	.L43
 788              	.LVL52:
 789              	.L45:
  96:src/syscall_cpp.cpp ****     while(true) {
  97:src/syscall_cpp.cpp ****         (((PeriodicThread*)pArg.periodicThread)->*((pArg.periodicActivation)))();
 790              		.loc 2 97 80 discriminator 1
 791 036c 03370500 		ld	a4,0(a0)
 792 0370 B307F700 		add	a5,a4,a5
 793 0374 83B7F7FF 		ld	a5,-1(a5)
 794              	.L42:
 795              		.loc 2 97 79 discriminator 4
 796 0378 E7800700 		jalr	a5
 797              	.LVL53:
  98:src/syscall_cpp.cpp ****         Thread::sleep(pArg.period);
 798              		.loc 2 98 9 is_stmt 1 discriminator 4
 799              		.loc 2 98 22 is_stmt 0 discriminator 4
 800 037c 033584FE 		ld	a0,-24(s0)
 801 0380 97000000 		call	_ZN6Thread5sleepEm
 801      E7800000 
 802              	.LVL54:
 803              	.L43:
  96:src/syscall_cpp.cpp ****     while(true) {
 804              		.loc 2 96 5 is_stmt 1
  97:src/syscall_cpp.cpp ****         Thread::sleep(pArg.period);
 805              		.loc 2 97 9
  97:src/syscall_cpp.cpp ****         Thread::sleep(pArg.period);
 806              		.loc 2 97 79 is_stmt 0
 807 0388 033504FD 		ld	a0,-48(s0)
 808 038c 833704FE 		ld	a5,-32(s0)
 809 0390 3305F500 		add	a0,a0,a5
  97:src/syscall_cpp.cpp ****         Thread::sleep(pArg.period);
 810              		.loc 2 97 80
 811 0394 833784FD 		ld	a5,-40(s0)
 812 0398 13F71700 		andi	a4,a5,1
 813 039c E30E07FC 		beqz	a4,.L42
 814 03a0 6FF0DFFC 		j	.L45
 815              		.cfi_endproc
 816              	.LFE55:
 818              		.align	2
 819              		.globl	_ZN9SemaphoreC2Ej
 821              	_ZN9SemaphoreC2Ej:
 822              	.LFB45:
  64:src/syscall_cpp.cpp ****     myHandle = SCB::createSemaphore(init);
 823              		.loc 2 64 1 is_stmt 1
 824              		.cfi_startproc
 825              	.LVL55:
 826 03a4 130101FE 		addi	sp,sp,-32
 827              		.cfi_def_cfa_offset 32
 828 03a8 233C1100 		sd	ra,24(sp)
 829 03ac 23388100 		sd	s0,16(sp)
 830 03b0 23349100 		sd	s1,8(sp)
 831 03b4 23302101 		sd	s2,0(sp)
GAS LISTING /tmp/ccULrCDn.s 			page 19


 832              		.cfi_offset 1, -8
 833              		.cfi_offset 8, -16
 834              		.cfi_offset 9, -24
 835              		.cfi_offset 18, -32
 836 03b8 13040102 		addi	s0,sp,32
 837              		.cfi_def_cfa 8, 0
 838 03bc 93040500 		mv	s1,a0
 839              	.LBB22:
  64:src/syscall_cpp.cpp ****     myHandle = SCB::createSemaphore(init);
 840              		.loc 2 64 39 is_stmt 0
 841 03c0 97070000 		lla	a5,_ZTV9Semaphore+16
 841      93870700 
 842 03c8 2330F500 		sd	a5,0(a0)
  65:src/syscall_cpp.cpp **** }
 843              		.loc 2 65 5 is_stmt 1
  65:src/syscall_cpp.cpp **** }
 844              		.loc 2 65 36 is_stmt 0
 845 03cc 13890500 		mv	s2,a1
 846              	.LVL56:
 847              	.LBB23:
 848              	.LBB24:
 849              		.file 3 "src/../h/SCB.h"
   1:src/../h/SCB.h **** #ifndef PROJECT_BASE_SCB_H
   2:src/../h/SCB.h **** #define PROJECT_BASE_SCB_H
   3:src/../h/SCB.h **** 
   4:src/../h/SCB.h **** #include "PCB.h"
   5:src/../h/SCB.h **** #include "Scheduler.h"
   6:src/../h/SCB.h **** 
   7:src/../h/SCB.h **** class SCB { // Semaphore Control Block
   8:src/../h/SCB.h **** public:
   9:src/../h/SCB.h ****     int getSemValue() const {
  10:src/../h/SCB.h ****         return semValue;
  11:src/../h/SCB.h ****     }
  12:src/../h/SCB.h **** 
  13:src/../h/SCB.h ****     // smanjuje vrednost semValue i ako ona padne manje od 0, vraca true(tekuci proces treba da se 
  14:src/../h/SCB.h ****     bool wait();
  15:src/../h/SCB.h **** 
  16:src/../h/SCB.h ****     // povecava vrednost semValue i ako je ona posle povecanja <= 0, vraca se proces koji treba da 
  17:src/../h/SCB.h ****     PCB* signal();
  18:src/../h/SCB.h **** 
  19:src/../h/SCB.h ****     void* operator new(size_t size);
  20:src/../h/SCB.h ****     void operator delete(void* memSegment);
  21:src/../h/SCB.h **** 
  22:src/../h/SCB.h ****     static SCB* createSemaphore(int semValue = 1) {
  23:src/../h/SCB.h ****         return new SCB(semValue);
 850              		.loc 3 23 9 is_stmt 1
 851              		.loc 3 23 32 is_stmt 0
 852 03d0 13058001 		li	a0,24
 853              	.LVL57:
 854 03d4 97000000 		call	_ZN3SCBnwEm@plt
 854      E7800000 
 855              	.LVL58:
 856              	.LBB25:
 857              	.LBB26:
  24:src/../h/SCB.h ****     }
  25:src/../h/SCB.h **** 
  26:src/../h/SCB.h ****     // Pre zatvaranja svim procesima koji su cekali na semaforu signalizira da je semafor obrisan i
GAS LISTING /tmp/ccULrCDn.s 			page 20


  27:src/../h/SCB.h ****     void signalClosing();
  28:src/../h/SCB.h **** private:
  29:src/../h/SCB.h ****     SCB(int semValue_ = 1) {
 858              		.loc 3 29 28
 859 03dc 23300500 		sd	zero,0(a0)
 860 03e0 23340500 		sd	zero,8(a0)
  30:src/../h/SCB.h ****         semValue = semValue_;
 861              		.loc 3 30 9 is_stmt 1
 862              		.loc 3 30 18 is_stmt 0
 863 03e4 23282501 		sw	s2,16(a0)
 864              	.LVL59:
 865              	.LBE26:
 866              	.LBE25:
 867              	.LBE24:
 868              	.LBE23:
  65:src/syscall_cpp.cpp **** }
 869              		.loc 2 65 14
 870 03e8 23B4A400 		sd	a0,8(s1)
 871              	.LBE22:
  66:src/syscall_cpp.cpp **** 
 872              		.loc 2 66 1
 873 03ec 83308101 		ld	ra,24(sp)
 874              		.cfi_restore 1
 875 03f0 03340101 		ld	s0,16(sp)
 876              		.cfi_restore 8
 877              		.cfi_def_cfa 2, 32
 878 03f4 83348100 		ld	s1,8(sp)
 879              		.cfi_restore 9
 880              	.LVL60:
 881 03f8 03390100 		ld	s2,0(sp)
 882              		.cfi_restore 18
 883 03fc 13010102 		addi	sp,sp,32
 884              		.cfi_def_cfa_offset 0
 885 0400 67800000 		jr	ra
 886              		.cfi_endproc
 887              	.LFE45:
 889              		.globl	_ZN9SemaphoreC1Ej
 890              		.set	_ZN9SemaphoreC1Ej,_ZN9SemaphoreC2Ej
 891              		.align	2
 892              		.globl	_ZN9Semaphore4waitEv
 894              	_ZN9Semaphore4waitEv:
 895              	.LFB51:
  72:src/syscall_cpp.cpp ****     return sem_wait(myHandle);
 896              		.loc 2 72 23 is_stmt 1
 897              		.cfi_startproc
 898              	.LVL61:
 899 0404 130101FF 		addi	sp,sp,-16
 900              		.cfi_def_cfa_offset 16
 901 0408 23341100 		sd	ra,8(sp)
 902 040c 23308100 		sd	s0,0(sp)
 903              		.cfi_offset 1, -8
 904              		.cfi_offset 8, -16
 905 0410 13040101 		addi	s0,sp,16
 906              		.cfi_def_cfa 8, 0
  73:src/syscall_cpp.cpp **** }
 907              		.loc 2 73 5
  73:src/syscall_cpp.cpp **** }
GAS LISTING /tmp/ccULrCDn.s 			page 21


 908              		.loc 2 73 20 is_stmt 0
 909 0414 03358500 		ld	a0,8(a0)
 910              	.LVL62:
 911 0418 97000000 		call	_Z8sem_waitP3SCB@plt
 911      E7800000 
 912              	.LVL63:
  74:src/syscall_cpp.cpp **** 
 913              		.loc 2 74 1
 914 0420 83308100 		ld	ra,8(sp)
 915              		.cfi_restore 1
 916 0424 03340100 		ld	s0,0(sp)
 917              		.cfi_restore 8
 918              		.cfi_def_cfa 2, 16
 919 0428 13010101 		addi	sp,sp,16
 920              		.cfi_def_cfa_offset 0
 921 042c 67800000 		jr	ra
 922              		.cfi_endproc
 923              	.LFE51:
 925              		.align	2
 926              		.globl	_ZN9Semaphore6signalEv
 928              	_ZN9Semaphore6signalEv:
 929              	.LFB52:
  76:src/syscall_cpp.cpp ****     return sem_signal(myHandle);
 930              		.loc 2 76 25 is_stmt 1
 931              		.cfi_startproc
 932              	.LVL64:
 933 0430 130101FF 		addi	sp,sp,-16
 934              		.cfi_def_cfa_offset 16
 935 0434 23341100 		sd	ra,8(sp)
 936 0438 23308100 		sd	s0,0(sp)
 937              		.cfi_offset 1, -8
 938              		.cfi_offset 8, -16
 939 043c 13040101 		addi	s0,sp,16
 940              		.cfi_def_cfa 8, 0
  77:src/syscall_cpp.cpp **** }
 941              		.loc 2 77 5
  77:src/syscall_cpp.cpp **** }
 942              		.loc 2 77 22 is_stmt 0
 943 0440 03358500 		ld	a0,8(a0)
 944              	.LVL65:
 945 0444 97000000 		call	_Z10sem_signalP3SCB@plt
 945      E7800000 
 946              	.LVL66:
  78:src/syscall_cpp.cpp **** 
 947              		.loc 2 78 1
 948 044c 83308100 		ld	ra,8(sp)
 949              		.cfi_restore 1
 950 0450 03340100 		ld	s0,0(sp)
 951              		.cfi_restore 8
 952              		.cfi_def_cfa 2, 16
 953 0454 13010101 		addi	sp,sp,16
 954              		.cfi_def_cfa_offset 0
 955 0458 67800000 		jr	ra
 956              		.cfi_endproc
 957              	.LFE52:
 959              		.align	2
 960              		.globl	_ZN9SemaphoredlEPv
GAS LISTING /tmp/ccULrCDn.s 			page 22


 962              	_ZN9SemaphoredlEPv:
 963              	.LFB53:
  80:src/syscall_cpp.cpp ****     MemoryAllocator::mem_free(memSegment);
 964              		.loc 2 80 51 is_stmt 1
 965              		.cfi_startproc
 966              	.LVL67:
 967 045c 130101FF 		addi	sp,sp,-16
 968              		.cfi_def_cfa_offset 16
 969 0460 23341100 		sd	ra,8(sp)
 970 0464 23308100 		sd	s0,0(sp)
 971              		.cfi_offset 1, -8
 972              		.cfi_offset 8, -16
 973 0468 13040101 		addi	s0,sp,16
 974              		.cfi_def_cfa 8, 0
  81:src/syscall_cpp.cpp **** }
 975              		.loc 2 81 5
  81:src/syscall_cpp.cpp **** }
 976              		.loc 2 81 30 is_stmt 0
 977 046c 97000000 		call	_ZN15MemoryAllocator8mem_freeEPv@plt
 977      E7800000 
 978              	.LVL68:
  82:src/syscall_cpp.cpp **** 
 979              		.loc 2 82 1
 980 0474 83308100 		ld	ra,8(sp)
 981              		.cfi_restore 1
 982 0478 03340100 		ld	s0,0(sp)
 983              		.cfi_restore 8
 984              		.cfi_def_cfa 2, 16
 985 047c 13010101 		addi	sp,sp,16
 986              		.cfi_def_cfa_offset 0
 987 0480 67800000 		jr	ra
 988              		.cfi_endproc
 989              	.LFE53:
 991              		.align	2
 992              		.globl	_ZN9SemaphoreD0Ev
 994              	_ZN9SemaphoreD0Ev:
 995              	.LFB50:
  68:src/syscall_cpp.cpp ****     sem_close(myHandle);
 996              		.loc 2 68 1 is_stmt 1
 997              		.cfi_startproc
 998              	.LVL69:
 999 0484 130101FE 		addi	sp,sp,-32
 1000              		.cfi_def_cfa_offset 32
 1001 0488 233C1100 		sd	ra,24(sp)
 1002 048c 23388100 		sd	s0,16(sp)
 1003 0490 23349100 		sd	s1,8(sp)
 1004              		.cfi_offset 1, -8
 1005              		.cfi_offset 8, -16
 1006              		.cfi_offset 9, -24
 1007 0494 13040102 		addi	s0,sp,32
 1008              		.cfi_def_cfa 8, 0
 1009 0498 93040500 		mv	s1,a0
  70:src/syscall_cpp.cpp **** 
 1010              		.loc 2 70 1 is_stmt 0
 1011 049c 97000000 		call	_ZN9SemaphoreD1Ev
 1011      E7800000 
 1012              	.LVL70:
GAS LISTING /tmp/ccULrCDn.s 			page 23


 1013 04a4 13850400 		mv	a0,s1
 1014 04a8 97000000 		call	_ZN9SemaphoredlEPv
 1014      E7800000 
 1015              	.LVL71:
 1016 04b0 83308101 		ld	ra,24(sp)
 1017              		.cfi_restore 1
 1018 04b4 03340101 		ld	s0,16(sp)
 1019              		.cfi_restore 8
 1020              		.cfi_def_cfa 2, 32
 1021 04b8 83348100 		ld	s1,8(sp)
 1022              		.cfi_restore 9
 1023              	.LVL72:
 1024 04bc 13010102 		addi	sp,sp,32
 1025              		.cfi_def_cfa_offset 0
 1026 04c0 67800000 		jr	ra
 1027              		.cfi_endproc
 1028              	.LFE50:
 1030              		.align	2
 1031              		.globl	_ZN9SemaphorenwEm
 1033              	_ZN9SemaphorenwEm:
 1034              	.LFB54:
  84:src/syscall_cpp.cpp ****     return MemoryAllocator::mem_alloc(size);
 1035              		.loc 2 84 44 is_stmt 1
 1036              		.cfi_startproc
 1037              	.LVL73:
 1038 04c4 130101FF 		addi	sp,sp,-16
 1039              		.cfi_def_cfa_offset 16
 1040 04c8 23341100 		sd	ra,8(sp)
 1041 04cc 23308100 		sd	s0,0(sp)
 1042              		.cfi_offset 1, -8
 1043              		.cfi_offset 8, -16
 1044 04d0 13040101 		addi	s0,sp,16
 1045              		.cfi_def_cfa 8, 0
  85:src/syscall_cpp.cpp **** }
 1046              		.loc 2 85 5
  85:src/syscall_cpp.cpp **** }
 1047              		.loc 2 85 38 is_stmt 0
 1048 04d4 97000000 		call	_ZN15MemoryAllocator9mem_allocEm@plt
 1048      E7800000 
 1049              	.LVL74:
  86:src/syscall_cpp.cpp **** 
 1050              		.loc 2 86 1
 1051 04dc 83308100 		ld	ra,8(sp)
 1052              		.cfi_restore 1
 1053 04e0 03340100 		ld	s0,0(sp)
 1054              		.cfi_restore 8
 1055              		.cfi_def_cfa 2, 16
 1056 04e4 13010101 		addi	sp,sp,16
 1057              		.cfi_def_cfa_offset 0
 1058 04e8 67800000 		jr	ra
 1059              		.cfi_endproc
 1060              	.LFE54:
 1062              		.align	2
 1063              		.globl	_ZN14PeriodicThreadC2Em
 1065              	_ZN14PeriodicThreadC2Em:
 1066              	.LFB57:
  99:src/syscall_cpp.cpp ****     }
GAS LISTING /tmp/ccULrCDn.s 			page 24


 100:src/syscall_cpp.cpp **** }
 101:src/syscall_cpp.cpp **** 
 102:src/syscall_cpp.cpp **** PeriodicThread::PeriodicThread(time_t period)
 1067              		.loc 2 102 1 is_stmt 1
 1068              		.cfi_startproc
 1069              	.LVL75:
 1070 04ec 130101FE 		addi	sp,sp,-32
 1071              		.cfi_def_cfa_offset 32
 1072 04f0 233C1100 		sd	ra,24(sp)
 1073 04f4 23388100 		sd	s0,16(sp)
 1074 04f8 23349100 		sd	s1,8(sp)
 1075 04fc 23302101 		sd	s2,0(sp)
 1076              		.cfi_offset 1, -8
 1077              		.cfi_offset 8, -16
 1078              		.cfi_offset 9, -24
 1079              		.cfi_offset 18, -32
 1080 0500 13040102 		addi	s0,sp,32
 1081              		.cfi_def_cfa 8, 0
 1082 0504 93040500 		mv	s1,a0
 1083 0508 13890500 		mv	s2,a1
 1084              	.LBB27:
 103:src/syscall_cpp.cpp **** : Thread(periodicThreadWrapper, new periodicThreadArg {this, &PeriodicThread::periodicActivation, p
 1085              		.loc 2 103 105 is_stmt 0
 1086 050c 13050002 		li	a0,32
 1087              	.LVL76:
 1088 0510 97000000 		call	_Znwm
 1088      E7800000 
 1089              	.LVL77:
 1090 0518 13060500 		mv	a2,a0
 1091 051c 23309500 		sd	s1,0(a0)
 1092 0520 93079001 		li	a5,25
 1093 0524 2334F500 		sd	a5,8(a0)
 1094 0528 23380500 		sd	zero,16(a0)
 1095 052c 233C2501 		sd	s2,24(a0)
 1096              		.loc 2 103 106
 1097 0530 97050000 		lla	a1,_Z21periodicThreadWrapperPv
 1097      93850500 
 1098 0538 13850400 		mv	a0,s1
 1099 053c 97000000 		call	_ZN6ThreadC2EPFvPvES0_
 1099      E7800000 
 1100              	.LVL78:
 1101 0544 97070000 		lla	a5,_ZTV14PeriodicThread+16
 1101      93870700 
 1102 054c 23B0F400 		sd	a5,0(s1)
 1103              	.LBE27:
 104:src/syscall_cpp.cpp **** {}
 1104              		.loc 2 104 2
 1105 0550 83308101 		ld	ra,24(sp)
 1106              		.cfi_restore 1
 1107 0554 03340101 		ld	s0,16(sp)
 1108              		.cfi_restore 8
 1109              		.cfi_def_cfa 2, 32
 1110 0558 83348100 		ld	s1,8(sp)
 1111              		.cfi_restore 9
 1112              	.LVL79:
 1113 055c 03390100 		ld	s2,0(sp)
 1114              		.cfi_restore 18
GAS LISTING /tmp/ccULrCDn.s 			page 25


 1115              	.LVL80:
 1116 0560 13010102 		addi	sp,sp,32
 1117              		.cfi_def_cfa_offset 0
 1118 0564 67800000 		jr	ra
 1119              		.cfi_endproc
 1120              	.LFE57:
 1122              		.globl	_ZN14PeriodicThreadC1Em
 1123              		.set	_ZN14PeriodicThreadC1Em,_ZN14PeriodicThreadC2Em
 1124              		.weak	_ZTV14PeriodicThread
 1125              		.section	.data.rel.ro.local._ZTV14PeriodicThread,"awG",@progbits,_ZTV14PeriodicThread,comdat
 1126              		.align	3
 1129              	_ZTV14PeriodicThread:
 1130 0000 00000000 		.dword	0
 1130      00000000 
 1131 0008 00000000 		.dword	0
 1131      00000000 
 1132 0010 00000000 		.dword	_ZN14PeriodicThreadD1Ev
 1132      00000000 
 1133 0018 00000000 		.dword	_ZN14PeriodicThreadD0Ev
 1133      00000000 
 1134 0020 00000000 		.dword	_ZN6Thread3runEv
 1134      00000000 
 1135 0028 00000000 		.dword	_ZN14PeriodicThread18periodicActivationEv
 1135      00000000 
 1136              		.weak	_ZTV6Thread
 1137              		.section	.data.rel.ro.local._ZTV6Thread,"awG",@progbits,_ZTV6Thread,comdat
 1138              		.align	3
 1141              	_ZTV6Thread:
 1142 0000 00000000 		.dword	0
 1142      00000000 
 1143 0008 00000000 		.dword	0
 1143      00000000 
 1144 0010 00000000 		.dword	_ZN6ThreadD1Ev
 1144      00000000 
 1145 0018 00000000 		.dword	_ZN6ThreadD0Ev
 1145      00000000 
 1146 0020 00000000 		.dword	_ZN6Thread3runEv
 1146      00000000 
 1147              		.weak	_ZTV9Semaphore
 1148              		.section	.data.rel.ro.local._ZTV9Semaphore,"awG",@progbits,_ZTV9Semaphore,comdat
 1149              		.align	3
 1152              	_ZTV9Semaphore:
 1153 0000 00000000 		.dword	0
 1153      00000000 
 1154 0008 00000000 		.dword	0
 1154      00000000 
 1155 0010 00000000 		.dword	_ZN9SemaphoreD1Ev
 1155      00000000 
 1156 0018 00000000 		.dword	_ZN9SemaphoreD0Ev
 1156      00000000 
 1157              		.text
 1158              	.Letext0:
 1159              		.file 4 "src/../h/hw.h"
 1160              		.file 5 "src/../h/syscall_c.h"
 1161              		.file 6 "src/../h/PCB.h"
 1162              		.file 7 "src/../h/MemoryAllocator.h"
 5747              		.align	3
GAS LISTING /tmp/ccULrCDn.s 			page 26


 5750              	DW.ref.__gxx_personality_v0:
 5751 0000 00000000 		.dword	__gxx_personality_v0
 5751      00000000 
 5752              		.ident	"GCC: (Ubuntu 9.4.0-1ubuntu1~20.04) 9.4.0"
 5753              		.section	.note.GNU-stack,"",@progbits
GAS LISTING /tmp/ccULrCDn.s 			page 27


DEFINED SYMBOLS
                            *ABS*:0000000000000000 syscall_cpp.cpp
     /tmp/ccULrCDn.s:10     .text._ZN6Thread3runEv:0000000000000000 _ZN6Thread3runEv
     /tmp/ccULrCDn.s:14     .text._ZN6Thread3runEv:0000000000000000 .L0 
     /tmp/ccULrCDn.s:16     .text._ZN6Thread3runEv:0000000000000000 .L0 
     /tmp/ccULrCDn.s:17     .text._ZN6Thread3runEv:0000000000000004 .L0 
     /tmp/ccULrCDn.s:19     .text._ZN6Thread3runEv:0000000000000008 .L0 
     /tmp/ccULrCDn.s:21     .text._ZN6Thread3runEv:000000000000000c .L0 
     /tmp/ccULrCDn.s:23     .text._ZN6Thread3runEv:000000000000000c .L0 
     /tmp/ccULrCDn.s:24     .text._ZN6Thread3runEv:0000000000000010 .L0 
     /tmp/ccULrCDn.s:25     .text._ZN6Thread3runEv:0000000000000010 .L0 
     /tmp/ccULrCDn.s:27     .text._ZN6Thread3runEv:0000000000000014 .L0 
     /tmp/ccULrCDn.s:29     .text._ZN6Thread3runEv:0000000000000018 .L0 
     /tmp/ccULrCDn.s:36     .text._ZN14PeriodicThread18periodicActivationEv:0000000000000000 _ZN14PeriodicThread18periodicActivationEv
     /tmp/ccULrCDn.s:39     .text._ZN14PeriodicThread18periodicActivationEv:0000000000000000 .L0 
     /tmp/ccULrCDn.s:41     .text._ZN14PeriodicThread18periodicActivationEv:0000000000000000 .L0 
     /tmp/ccULrCDn.s:42     .text._ZN14PeriodicThread18periodicActivationEv:0000000000000004 .L0 
     /tmp/ccULrCDn.s:44     .text._ZN14PeriodicThread18periodicActivationEv:0000000000000008 .L0 
     /tmp/ccULrCDn.s:46     .text._ZN14PeriodicThread18periodicActivationEv:000000000000000c .L0 
     /tmp/ccULrCDn.s:48     .text._ZN14PeriodicThread18periodicActivationEv:000000000000000c .L0 
     /tmp/ccULrCDn.s:49     .text._ZN14PeriodicThread18periodicActivationEv:0000000000000010 .L0 
     /tmp/ccULrCDn.s:50     .text._ZN14PeriodicThread18periodicActivationEv:0000000000000010 .L0 
     /tmp/ccULrCDn.s:52     .text._ZN14PeriodicThread18periodicActivationEv:0000000000000014 .L0 
     /tmp/ccULrCDn.s:54     .text._ZN14PeriodicThread18periodicActivationEv:0000000000000018 .L0 
     /tmp/ccULrCDn.s:61     .text:0000000000000000 _Z13threadWrapperPv
     /tmp/ccULrCDn.s:65     .text:0000000000000000 .L0 
     /tmp/ccULrCDn.s:67     .text:0000000000000000 .L0 
     /tmp/ccULrCDn.s:68     .text:0000000000000004 .L0 
     /tmp/ccULrCDn.s:71     .text:000000000000000c .L0 
     /tmp/ccULrCDn.s:72     .text:000000000000000c .L0 
     /tmp/ccULrCDn.s:74     .text:0000000000000010 .L0 
     /tmp/ccULrCDn.s:76     .text:0000000000000010 .L0 
     /tmp/ccULrCDn.s:77     .text:0000000000000010 .L0 
     /tmp/ccULrCDn.s:85     .text:0000000000000028 .L0 
     /tmp/ccULrCDn.s:86     .text:0000000000000028 .L0 
     /tmp/ccULrCDn.s:88     .text:000000000000002c .L0 
     /tmp/ccULrCDn.s:92     .text:0000000000000038 .L0 
     /tmp/ccULrCDn.s:97     .text:0000000000000044 .L0 
     /tmp/ccULrCDn.s:100    .text:0000000000000048 .L0 
     /tmp/ccULrCDn.s:101    .text:000000000000004c .L0 
     /tmp/ccULrCDn.s:103    .text:0000000000000050 .L0 
     /tmp/ccULrCDn.s:104    .text:0000000000000050 .L0 
     /tmp/ccULrCDn.s:106    .text:0000000000000054 .L0 
     /tmp/ccULrCDn.s:108    .text:0000000000000058 .L0 
     /tmp/ccULrCDn.s:114    .text:0000000000000058 _ZN6ThreadD2Ev
     /tmp/ccULrCDn.s:117    .text:0000000000000058 .L0 
     /tmp/ccULrCDn.s:5750   .data.rel.local.DW.ref.__gxx_personality_v0:0000000000000000 DW.ref.__gxx_personality_v0
     /tmp/ccULrCDn.s:121    .text:0000000000000058 .L0 
     /tmp/ccULrCDn.s:122    .text:000000000000005c .L0 
     /tmp/ccULrCDn.s:126    .text:0000000000000068 .L0 
     /tmp/ccULrCDn.s:127    .text:0000000000000068 .L0 
     /tmp/ccULrCDn.s:128    .text:0000000000000068 .L0 
     /tmp/ccULrCDn.s:130    .text:000000000000006c .L0 
     /tmp/ccULrCDn.s:1141   .data.rel.ro.local._ZTV6Thread:0000000000000000 _ZTV6Thread
     /tmp/ccULrCDn.s:133    .text:000000000000006c .L0 
     /tmp/ccULrCDn.s:136    .text:0000000000000078 .L0 
     /tmp/ccULrCDn.s:137    .text:0000000000000078 .L0 
GAS LISTING /tmp/ccULrCDn.s 			page 28


     /tmp/ccULrCDn.s:139    .text:000000000000007c .L0 
     /tmp/ccULrCDn.s:141    .text:0000000000000080 .L0 
     /tmp/ccULrCDn.s:151    .text:0000000000000098 .L0 
     /tmp/ccULrCDn.s:152    .text:000000000000009c .L0 
     /tmp/ccULrCDn.s:154    .text:00000000000000a0 .L0 
     /tmp/ccULrCDn.s:155    .text:00000000000000a0 .L0 
     /tmp/ccULrCDn.s:157    .text:00000000000000a4 .L0 
     /tmp/ccULrCDn.s:159    .text:00000000000000a8 .L0 
     /tmp/ccULrCDn.s:161    .text:00000000000000ac .L0 
     /tmp/ccULrCDn.s:114    .text:0000000000000058 _ZN6ThreadD1Ev
     /tmp/ccULrCDn.s:178    .text._ZN14PeriodicThreadD2Ev:0000000000000000 _ZN14PeriodicThreadD2Ev
     /tmp/ccULrCDn.s:181    .text._ZN14PeriodicThreadD2Ev:0000000000000000 .L0 
     /tmp/ccULrCDn.s:183    .text._ZN14PeriodicThreadD2Ev:0000000000000000 .L0 
     /tmp/ccULrCDn.s:184    .text._ZN14PeriodicThreadD2Ev:0000000000000004 .L0 
     /tmp/ccULrCDn.s:187    .text._ZN14PeriodicThreadD2Ev:000000000000000c .L0 
     /tmp/ccULrCDn.s:188    .text._ZN14PeriodicThreadD2Ev:000000000000000c .L0 
     /tmp/ccULrCDn.s:190    .text._ZN14PeriodicThreadD2Ev:0000000000000010 .L0 
     /tmp/ccULrCDn.s:1129   .data.rel.ro.local._ZTV14PeriodicThread:0000000000000000 _ZTV14PeriodicThread
     /tmp/ccULrCDn.s:193    .text._ZN14PeriodicThreadD2Ev:0000000000000010 .L0 
     /tmp/ccULrCDn.s:199    .text._ZN14PeriodicThreadD2Ev:0000000000000028 .L0 
     /tmp/ccULrCDn.s:201    .text._ZN14PeriodicThreadD2Ev:000000000000002c .L0 
     /tmp/ccULrCDn.s:202    .text._ZN14PeriodicThreadD2Ev:000000000000002c .L0 
     /tmp/ccULrCDn.s:204    .text._ZN14PeriodicThreadD2Ev:0000000000000030 .L0 
     /tmp/ccULrCDn.s:206    .text._ZN14PeriodicThreadD2Ev:0000000000000034 .L0 
     /tmp/ccULrCDn.s:178    .text._ZN14PeriodicThreadD2Ev:0000000000000000 _ZN14PeriodicThreadD1Ev
     /tmp/ccULrCDn.s:215    .text:00000000000000ac _ZN9SemaphoreD2Ev
     /tmp/ccULrCDn.s:218    .text:00000000000000ac .L0 
     /tmp/ccULrCDn.s:222    .text:00000000000000ac .L0 
     /tmp/ccULrCDn.s:223    .text:00000000000000b0 .L0 
     /tmp/ccULrCDn.s:226    .text:00000000000000b8 .L0 
     /tmp/ccULrCDn.s:227    .text:00000000000000b8 .L0 
     /tmp/ccULrCDn.s:229    .text:00000000000000bc .L0 
     /tmp/ccULrCDn.s:1152   .data.rel.ro.local._ZTV9Semaphore:0000000000000000 _ZTV9Semaphore
     /tmp/ccULrCDn.s:232    .text:00000000000000bc .L0 
     /tmp/ccULrCDn.s:235    .text:00000000000000c8 .L0 
     /tmp/ccULrCDn.s:236    .text:00000000000000c8 .L0 
     /tmp/ccULrCDn.s:242    .text:00000000000000d4 .L0 
     /tmp/ccULrCDn.s:243    .text:00000000000000d8 .L0 
     /tmp/ccULrCDn.s:245    .text:00000000000000dc .L0 
     /tmp/ccULrCDn.s:246    .text:00000000000000dc .L0 
     /tmp/ccULrCDn.s:248    .text:00000000000000e0 .L0 
     /tmp/ccULrCDn.s:250    .text:00000000000000e4 .L0 
     /tmp/ccULrCDn.s:215    .text:00000000000000ac _ZN9SemaphoreD1Ev
     /tmp/ccULrCDn.s:265    .text:00000000000000e4 _Znwm
     /tmp/ccULrCDn.s:268    .text:00000000000000e4 .L0 
     /tmp/ccULrCDn.s:270    .text:00000000000000e4 .L0 
     /tmp/ccULrCDn.s:271    .text:00000000000000e8 .L0 
     /tmp/ccULrCDn.s:274    .text:00000000000000f0 .L0 
     /tmp/ccULrCDn.s:275    .text:00000000000000f0 .L0 
     /tmp/ccULrCDn.s:277    .text:00000000000000f4 .L0 
     /tmp/ccULrCDn.s:279    .text:00000000000000f4 .L0 
     /tmp/ccULrCDn.s:280    .text:00000000000000f4 .L0 
     /tmp/ccULrCDn.s:283    .text:00000000000000fc .L0 
     /tmp/ccULrCDn.s:284    .text:0000000000000100 .L0 
     /tmp/ccULrCDn.s:286    .text:0000000000000104 .L0 
     /tmp/ccULrCDn.s:287    .text:0000000000000104 .L0 
     /tmp/ccULrCDn.s:289    .text:0000000000000108 .L0 
GAS LISTING /tmp/ccULrCDn.s 			page 29


     /tmp/ccULrCDn.s:291    .text:000000000000010c .L0 
     /tmp/ccULrCDn.s:297    .text:000000000000010c _Znam
     /tmp/ccULrCDn.s:300    .text:000000000000010c .L0 
     /tmp/ccULrCDn.s:302    .text:000000000000010c .L0 
     /tmp/ccULrCDn.s:303    .text:0000000000000110 .L0 
     /tmp/ccULrCDn.s:306    .text:0000000000000118 .L0 
     /tmp/ccULrCDn.s:307    .text:0000000000000118 .L0 
     /tmp/ccULrCDn.s:309    .text:000000000000011c .L0 
     /tmp/ccULrCDn.s:311    .text:000000000000011c .L0 
     /tmp/ccULrCDn.s:312    .text:000000000000011c .L0 
     /tmp/ccULrCDn.s:315    .text:0000000000000124 .L0 
     /tmp/ccULrCDn.s:316    .text:0000000000000128 .L0 
     /tmp/ccULrCDn.s:318    .text:000000000000012c .L0 
     /tmp/ccULrCDn.s:319    .text:000000000000012c .L0 
     /tmp/ccULrCDn.s:321    .text:0000000000000130 .L0 
     /tmp/ccULrCDn.s:323    .text:0000000000000134 .L0 
     /tmp/ccULrCDn.s:329    .text:0000000000000134 _ZdlPv
     /tmp/ccULrCDn.s:332    .text:0000000000000134 .L0 
     /tmp/ccULrCDn.s:336    .text:0000000000000134 .L0 
     /tmp/ccULrCDn.s:337    .text:0000000000000138 .L0 
     /tmp/ccULrCDn.s:340    .text:0000000000000140 .L0 
     /tmp/ccULrCDn.s:341    .text:0000000000000140 .L0 
     /tmp/ccULrCDn.s:343    .text:0000000000000144 .L0 
     /tmp/ccULrCDn.s:345    .text:0000000000000144 .L0 
     /tmp/ccULrCDn.s:346    .text:0000000000000144 .L0 
     /tmp/ccULrCDn.s:349    .text:000000000000014c .L0 
     /tmp/ccULrCDn.s:350    .text:0000000000000150 .L0 
     /tmp/ccULrCDn.s:352    .text:0000000000000154 .L0 
     /tmp/ccULrCDn.s:353    .text:0000000000000154 .L0 
     /tmp/ccULrCDn.s:355    .text:0000000000000158 .L0 
     /tmp/ccULrCDn.s:357    .text:000000000000015c .L0 
     /tmp/ccULrCDn.s:370    .text:000000000000015c _ZdaPv
     /tmp/ccULrCDn.s:373    .text:000000000000015c .L0 
     /tmp/ccULrCDn.s:377    .text:000000000000015c .L0 
     /tmp/ccULrCDn.s:378    .text:0000000000000160 .L0 
     /tmp/ccULrCDn.s:381    .text:0000000000000168 .L0 
     /tmp/ccULrCDn.s:382    .text:0000000000000168 .L0 
     /tmp/ccULrCDn.s:384    .text:000000000000016c .L0 
     /tmp/ccULrCDn.s:386    .text:000000000000016c .L0 
     /tmp/ccULrCDn.s:387    .text:000000000000016c .L0 
     /tmp/ccULrCDn.s:390    .text:0000000000000174 .L0 
     /tmp/ccULrCDn.s:391    .text:0000000000000178 .L0 
     /tmp/ccULrCDn.s:393    .text:000000000000017c .L0 
     /tmp/ccULrCDn.s:394    .text:000000000000017c .L0 
     /tmp/ccULrCDn.s:396    .text:0000000000000180 .L0 
     /tmp/ccULrCDn.s:398    .text:0000000000000184 .L0 
     /tmp/ccULrCDn.s:411    .text:0000000000000184 _ZN6ThreadC2EPFvPvES0_
     /tmp/ccULrCDn.s:414    .text:0000000000000184 .L0 
     /tmp/ccULrCDn.s:416    .text:0000000000000184 .L0 
     /tmp/ccULrCDn.s:417    .text:0000000000000188 .L0 
     /tmp/ccULrCDn.s:420    .text:0000000000000190 .L0 
     /tmp/ccULrCDn.s:421    .text:0000000000000190 .L0 
     /tmp/ccULrCDn.s:423    .text:0000000000000194 .L0 
     /tmp/ccULrCDn.s:426    .text:0000000000000194 .L0 
     /tmp/ccULrCDn.s:429    .text:00000000000001a0 .L0 
     /tmp/ccULrCDn.s:430    .text:00000000000001a0 .L0 
     /tmp/ccULrCDn.s:436    .text:00000000000001ac .L0 
GAS LISTING /tmp/ccULrCDn.s 			page 30


     /tmp/ccULrCDn.s:437    .text:00000000000001b0 .L0 
     /tmp/ccULrCDn.s:439    .text:00000000000001b4 .L0 
     /tmp/ccULrCDn.s:440    .text:00000000000001b4 .L0 
     /tmp/ccULrCDn.s:442    .text:00000000000001b8 .L0 
     /tmp/ccULrCDn.s:444    .text:00000000000001bc .L0 
     /tmp/ccULrCDn.s:411    .text:0000000000000184 _ZN6ThreadC1EPFvPvES0_
     /tmp/ccULrCDn.s:452    .text:00000000000001bc _ZN6ThreadnwEm
     /tmp/ccULrCDn.s:455    .text:00000000000001bc .L0 
     /tmp/ccULrCDn.s:457    .text:00000000000001bc .L0 
     /tmp/ccULrCDn.s:458    .text:00000000000001c0 .L0 
     /tmp/ccULrCDn.s:461    .text:00000000000001c8 .L0 
     /tmp/ccULrCDn.s:462    .text:00000000000001c8 .L0 
     /tmp/ccULrCDn.s:464    .text:00000000000001cc .L0 
     /tmp/ccULrCDn.s:466    .text:00000000000001cc .L0 
     /tmp/ccULrCDn.s:467    .text:00000000000001cc .L0 
     /tmp/ccULrCDn.s:470    .text:00000000000001d4 .L0 
     /tmp/ccULrCDn.s:471    .text:00000000000001d8 .L0 
     /tmp/ccULrCDn.s:473    .text:00000000000001dc .L0 
     /tmp/ccULrCDn.s:474    .text:00000000000001dc .L0 
     /tmp/ccULrCDn.s:476    .text:00000000000001e0 .L0 
     /tmp/ccULrCDn.s:478    .text:00000000000001e4 .L0 
     /tmp/ccULrCDn.s:484    .text:00000000000001e4 _ZN6ThreaddlEPv
     /tmp/ccULrCDn.s:487    .text:00000000000001e4 .L0 
     /tmp/ccULrCDn.s:489    .text:00000000000001e4 .L0 
     /tmp/ccULrCDn.s:490    .text:00000000000001e8 .L0 
     /tmp/ccULrCDn.s:493    .text:00000000000001f0 .L0 
     /tmp/ccULrCDn.s:494    .text:00000000000001f0 .L0 
     /tmp/ccULrCDn.s:496    .text:00000000000001f4 .L0 
     /tmp/ccULrCDn.s:498    .text:00000000000001f4 .L0 
     /tmp/ccULrCDn.s:499    .text:00000000000001f4 .L0 
     /tmp/ccULrCDn.s:502    .text:00000000000001fc .L0 
     /tmp/ccULrCDn.s:503    .text:0000000000000200 .L0 
     /tmp/ccULrCDn.s:505    .text:0000000000000204 .L0 
     /tmp/ccULrCDn.s:506    .text:0000000000000204 .L0 
     /tmp/ccULrCDn.s:508    .text:0000000000000208 .L0 
     /tmp/ccULrCDn.s:510    .text:000000000000020c .L0 
     /tmp/ccULrCDn.s:516    .text:000000000000020c _ZN6ThreadD0Ev
     /tmp/ccULrCDn.s:519    .text:000000000000020c .L0 
     /tmp/ccULrCDn.s:521    .text:000000000000020c .L0 
     /tmp/ccULrCDn.s:522    .text:0000000000000210 .L0 
     /tmp/ccULrCDn.s:526    .text:000000000000021c .L0 
     /tmp/ccULrCDn.s:527    .text:000000000000021c .L0 
     /tmp/ccULrCDn.s:528    .text:000000000000021c .L0 
     /tmp/ccULrCDn.s:530    .text:0000000000000220 .L0 
     /tmp/ccULrCDn.s:533    .text:0000000000000224 .L0 
     /tmp/ccULrCDn.s:539    .text:000000000000023c .L0 
     /tmp/ccULrCDn.s:541    .text:0000000000000240 .L0 
     /tmp/ccULrCDn.s:542    .text:0000000000000240 .L0 
     /tmp/ccULrCDn.s:544    .text:0000000000000244 .L0 
     /tmp/ccULrCDn.s:547    .text:0000000000000248 .L0 
     /tmp/ccULrCDn.s:549    .text:000000000000024c .L0 
     /tmp/ccULrCDn.s:556    .text._ZN14PeriodicThreadD0Ev:0000000000000000 _ZN14PeriodicThreadD0Ev
     /tmp/ccULrCDn.s:559    .text._ZN14PeriodicThreadD0Ev:0000000000000000 .L0 
     /tmp/ccULrCDn.s:561    .text._ZN14PeriodicThreadD0Ev:0000000000000000 .L0 
     /tmp/ccULrCDn.s:562    .text._ZN14PeriodicThreadD0Ev:0000000000000004 .L0 
     /tmp/ccULrCDn.s:566    .text._ZN14PeriodicThreadD0Ev:0000000000000010 .L0 
     /tmp/ccULrCDn.s:567    .text._ZN14PeriodicThreadD0Ev:0000000000000010 .L0 
GAS LISTING /tmp/ccULrCDn.s 			page 31


     /tmp/ccULrCDn.s:568    .text._ZN14PeriodicThreadD0Ev:0000000000000010 .L0 
     /tmp/ccULrCDn.s:570    .text._ZN14PeriodicThreadD0Ev:0000000000000014 .L0 
     /tmp/ccULrCDn.s:576    .text._ZN14PeriodicThreadD0Ev:0000000000000018 .L0 
     /tmp/ccULrCDn.s:586    .text._ZN14PeriodicThreadD0Ev:000000000000003c .L0 
     /tmp/ccULrCDn.s:588    .text._ZN14PeriodicThreadD0Ev:0000000000000040 .L0 
     /tmp/ccULrCDn.s:589    .text._ZN14PeriodicThreadD0Ev:0000000000000040 .L0 
     /tmp/ccULrCDn.s:591    .text._ZN14PeriodicThreadD0Ev:0000000000000044 .L0 
     /tmp/ccULrCDn.s:594    .text._ZN14PeriodicThreadD0Ev:0000000000000048 .L0 
     /tmp/ccULrCDn.s:596    .text._ZN14PeriodicThreadD0Ev:000000000000004c .L0 
     /tmp/ccULrCDn.s:603    .text:000000000000024c _ZN6Thread8dispatchEv
     /tmp/ccULrCDn.s:606    .text:000000000000024c .L0 
     /tmp/ccULrCDn.s:607    .text:000000000000024c .L0 
     /tmp/ccULrCDn.s:608    .text:0000000000000250 .L0 
     /tmp/ccULrCDn.s:611    .text:0000000000000258 .L0 
     /tmp/ccULrCDn.s:612    .text:0000000000000258 .L0 
     /tmp/ccULrCDn.s:614    .text:000000000000025c .L0 
     /tmp/ccULrCDn.s:616    .text:000000000000025c .L0 
     /tmp/ccULrCDn.s:617    .text:000000000000025c .L0 
     /tmp/ccULrCDn.s:620    .text:0000000000000264 .L0 
     /tmp/ccULrCDn.s:621    .text:0000000000000268 .L0 
     /tmp/ccULrCDn.s:623    .text:000000000000026c .L0 
     /tmp/ccULrCDn.s:624    .text:000000000000026c .L0 
     /tmp/ccULrCDn.s:626    .text:0000000000000270 .L0 
     /tmp/ccULrCDn.s:628    .text:0000000000000274 .L0 
     /tmp/ccULrCDn.s:634    .text:0000000000000274 _ZN6Thread5startEv
     /tmp/ccULrCDn.s:637    .text:0000000000000274 .L0 
     /tmp/ccULrCDn.s:639    .text:0000000000000274 .L0 
     /tmp/ccULrCDn.s:640    .text:0000000000000278 .L0 
     /tmp/ccULrCDn.s:643    .text:0000000000000280 .L0 
     /tmp/ccULrCDn.s:644    .text:0000000000000280 .L0 
     /tmp/ccULrCDn.s:646    .text:0000000000000284 .L0 
     /tmp/ccULrCDn.s:648    .text:0000000000000284 .L0 
     /tmp/ccULrCDn.s:649    .text:0000000000000284 .L0 
     /tmp/ccULrCDn.s:654    .text:0000000000000290 .L0 
     /tmp/ccULrCDn.s:655    .text:0000000000000290 .L0 
     /tmp/ccULrCDn.s:657    .text:0000000000000298 .L0 
     /tmp/ccULrCDn.s:659    .text:000000000000029c .L0 
     /tmp/ccULrCDn.s:660    .text:000000000000029c .L0 
     /tmp/ccULrCDn.s:662    .text:00000000000002a0 .L0 
     /tmp/ccULrCDn.s:664    .text:00000000000002a4 .L0 
     /tmp/ccULrCDn.s:670    .text:00000000000002a4 _ZN6ThreadC2Ev
     /tmp/ccULrCDn.s:673    .text:00000000000002a4 .L0 
     /tmp/ccULrCDn.s:675    .text:00000000000002a4 .L0 
     /tmp/ccULrCDn.s:676    .text:00000000000002a8 .L0 
     /tmp/ccULrCDn.s:680    .text:00000000000002b4 .L0 
     /tmp/ccULrCDn.s:681    .text:00000000000002b4 .L0 
     /tmp/ccULrCDn.s:682    .text:00000000000002b4 .L0 
     /tmp/ccULrCDn.s:684    .text:00000000000002b8 .L0 
     /tmp/ccULrCDn.s:688    .text:00000000000002bc .L0 
     /tmp/ccULrCDn.s:692    .text:00000000000002c8 .L0 
     /tmp/ccULrCDn.s:693    .text:00000000000002c8 .L0 
     /tmp/ccULrCDn.s:704    .text:00000000000002e8 .L0 
     /tmp/ccULrCDn.s:705    .text:00000000000002e8 .L0 
     /tmp/ccULrCDn.s:713    .text:00000000000002fc .L0 
     /tmp/ccULrCDn.s:714    .text:0000000000000300 .L0 
     /tmp/ccULrCDn.s:716    .text:0000000000000304 .L0 
     /tmp/ccULrCDn.s:717    .text:0000000000000304 .L0 
GAS LISTING /tmp/ccULrCDn.s 			page 32


     /tmp/ccULrCDn.s:719    .text:0000000000000308 .L0 
     /tmp/ccULrCDn.s:722    .text:000000000000030c .L0 
     /tmp/ccULrCDn.s:724    .text:0000000000000310 .L0 
     /tmp/ccULrCDn.s:670    .text:00000000000002a4 _ZN6ThreadC1Ev
     /tmp/ccULrCDn.s:732    .text:0000000000000310 _ZN6Thread5sleepEm
     /tmp/ccULrCDn.s:735    .text:0000000000000310 .L0 
     /tmp/ccULrCDn.s:737    .text:0000000000000310 .L0 
     /tmp/ccULrCDn.s:738    .text:0000000000000314 .L0 
     /tmp/ccULrCDn.s:741    .text:000000000000031c .L0 
     /tmp/ccULrCDn.s:742    .text:000000000000031c .L0 
     /tmp/ccULrCDn.s:744    .text:0000000000000320 .L0 
     /tmp/ccULrCDn.s:746    .text:0000000000000320 .L0 
     /tmp/ccULrCDn.s:747    .text:0000000000000320 .L0 
     /tmp/ccULrCDn.s:750    .text:0000000000000328 .L0 
     /tmp/ccULrCDn.s:751    .text:000000000000032c .L0 
     /tmp/ccULrCDn.s:753    .text:0000000000000330 .L0 
     /tmp/ccULrCDn.s:754    .text:0000000000000330 .L0 
     /tmp/ccULrCDn.s:756    .text:0000000000000334 .L0 
     /tmp/ccULrCDn.s:758    .text:0000000000000338 .L0 
     /tmp/ccULrCDn.s:764    .text:0000000000000338 _Z21periodicThreadWrapperPv
     /tmp/ccULrCDn.s:767    .text:0000000000000338 .L0 
     /tmp/ccULrCDn.s:769    .text:0000000000000338 .L0 
     /tmp/ccULrCDn.s:770    .text:000000000000033c .L0 
     /tmp/ccULrCDn.s:773    .text:0000000000000344 .L0 
     /tmp/ccULrCDn.s:774    .text:0000000000000344 .L0 
     /tmp/ccULrCDn.s:776    .text:0000000000000348 .L0 
     /tmp/ccULrCDn.s:778    .text:0000000000000348 .L0 
     /tmp/ccULrCDn.s:779    .text:0000000000000348 .L0 
     /tmp/ccULrCDn.s:791    .text:000000000000036c .L0 
     /tmp/ccULrCDn.s:796    .text:0000000000000378 .L0 
     /tmp/ccULrCDn.s:799    .text:000000000000037c .L0 
     /tmp/ccULrCDn.s:800    .text:000000000000037c .L0 
     /tmp/ccULrCDn.s:805    .text:0000000000000388 .L0 
     /tmp/ccULrCDn.s:806    .text:0000000000000388 .L0 
     /tmp/ccULrCDn.s:807    .text:0000000000000388 .L0 
     /tmp/ccULrCDn.s:811    .text:0000000000000394 .L0 
     /tmp/ccULrCDn.s:815    .text:00000000000003a4 .L0 
     /tmp/ccULrCDn.s:821    .text:00000000000003a4 _ZN9SemaphoreC2Ej
     /tmp/ccULrCDn.s:824    .text:00000000000003a4 .L0 
     /tmp/ccULrCDn.s:826    .text:00000000000003a4 .L0 
     /tmp/ccULrCDn.s:827    .text:00000000000003a8 .L0 
     /tmp/ccULrCDn.s:832    .text:00000000000003b8 .L0 
     /tmp/ccULrCDn.s:833    .text:00000000000003b8 .L0 
     /tmp/ccULrCDn.s:834    .text:00000000000003b8 .L0 
     /tmp/ccULrCDn.s:835    .text:00000000000003b8 .L0 
     /tmp/ccULrCDn.s:837    .text:00000000000003bc .L0 
     /tmp/ccULrCDn.s:841    .text:00000000000003c0 .L0 
     /tmp/ccULrCDn.s:844    .text:00000000000003cc .L0 
     /tmp/ccULrCDn.s:845    .text:00000000000003cc .L0 
     /tmp/ccULrCDn.s:851    .text:00000000000003d0 .L0 
     /tmp/ccULrCDn.s:852    .text:00000000000003d0 .L0 
     /tmp/ccULrCDn.s:859    .text:00000000000003dc .L0 
     /tmp/ccULrCDn.s:862    .text:00000000000003e4 .L0 
     /tmp/ccULrCDn.s:863    .text:00000000000003e4 .L0 
     /tmp/ccULrCDn.s:870    .text:00000000000003e8 .L0 
     /tmp/ccULrCDn.s:873    .text:00000000000003ec .L0 
     /tmp/ccULrCDn.s:874    .text:00000000000003f0 .L0 
GAS LISTING /tmp/ccULrCDn.s 			page 33


     /tmp/ccULrCDn.s:876    .text:00000000000003f4 .L0 
     /tmp/ccULrCDn.s:877    .text:00000000000003f4 .L0 
     /tmp/ccULrCDn.s:879    .text:00000000000003f8 .L0 
     /tmp/ccULrCDn.s:882    .text:00000000000003fc .L0 
     /tmp/ccULrCDn.s:884    .text:0000000000000400 .L0 
     /tmp/ccULrCDn.s:886    .text:0000000000000404 .L0 
     /tmp/ccULrCDn.s:821    .text:00000000000003a4 _ZN9SemaphoreC1Ej
     /tmp/ccULrCDn.s:894    .text:0000000000000404 _ZN9Semaphore4waitEv
     /tmp/ccULrCDn.s:897    .text:0000000000000404 .L0 
     /tmp/ccULrCDn.s:899    .text:0000000000000404 .L0 
     /tmp/ccULrCDn.s:900    .text:0000000000000408 .L0 
     /tmp/ccULrCDn.s:903    .text:0000000000000410 .L0 
     /tmp/ccULrCDn.s:904    .text:0000000000000410 .L0 
     /tmp/ccULrCDn.s:906    .text:0000000000000414 .L0 
     /tmp/ccULrCDn.s:908    .text:0000000000000414 .L0 
     /tmp/ccULrCDn.s:909    .text:0000000000000414 .L0 
     /tmp/ccULrCDn.s:914    .text:0000000000000420 .L0 
     /tmp/ccULrCDn.s:915    .text:0000000000000424 .L0 
     /tmp/ccULrCDn.s:917    .text:0000000000000428 .L0 
     /tmp/ccULrCDn.s:918    .text:0000000000000428 .L0 
     /tmp/ccULrCDn.s:920    .text:000000000000042c .L0 
     /tmp/ccULrCDn.s:922    .text:0000000000000430 .L0 
     /tmp/ccULrCDn.s:928    .text:0000000000000430 _ZN9Semaphore6signalEv
     /tmp/ccULrCDn.s:931    .text:0000000000000430 .L0 
     /tmp/ccULrCDn.s:933    .text:0000000000000430 .L0 
     /tmp/ccULrCDn.s:934    .text:0000000000000434 .L0 
     /tmp/ccULrCDn.s:937    .text:000000000000043c .L0 
     /tmp/ccULrCDn.s:938    .text:000000000000043c .L0 
     /tmp/ccULrCDn.s:940    .text:0000000000000440 .L0 
     /tmp/ccULrCDn.s:942    .text:0000000000000440 .L0 
     /tmp/ccULrCDn.s:943    .text:0000000000000440 .L0 
     /tmp/ccULrCDn.s:948    .text:000000000000044c .L0 
     /tmp/ccULrCDn.s:949    .text:0000000000000450 .L0 
     /tmp/ccULrCDn.s:951    .text:0000000000000454 .L0 
     /tmp/ccULrCDn.s:952    .text:0000000000000454 .L0 
     /tmp/ccULrCDn.s:954    .text:0000000000000458 .L0 
     /tmp/ccULrCDn.s:956    .text:000000000000045c .L0 
     /tmp/ccULrCDn.s:962    .text:000000000000045c _ZN9SemaphoredlEPv
     /tmp/ccULrCDn.s:965    .text:000000000000045c .L0 
     /tmp/ccULrCDn.s:967    .text:000000000000045c .L0 
     /tmp/ccULrCDn.s:968    .text:0000000000000460 .L0 
     /tmp/ccULrCDn.s:971    .text:0000000000000468 .L0 
     /tmp/ccULrCDn.s:972    .text:0000000000000468 .L0 
     /tmp/ccULrCDn.s:974    .text:000000000000046c .L0 
     /tmp/ccULrCDn.s:976    .text:000000000000046c .L0 
     /tmp/ccULrCDn.s:977    .text:000000000000046c .L0 
     /tmp/ccULrCDn.s:980    .text:0000000000000474 .L0 
     /tmp/ccULrCDn.s:981    .text:0000000000000478 .L0 
     /tmp/ccULrCDn.s:983    .text:000000000000047c .L0 
     /tmp/ccULrCDn.s:984    .text:000000000000047c .L0 
     /tmp/ccULrCDn.s:986    .text:0000000000000480 .L0 
     /tmp/ccULrCDn.s:988    .text:0000000000000484 .L0 
     /tmp/ccULrCDn.s:994    .text:0000000000000484 _ZN9SemaphoreD0Ev
     /tmp/ccULrCDn.s:997    .text:0000000000000484 .L0 
     /tmp/ccULrCDn.s:999    .text:0000000000000484 .L0 
     /tmp/ccULrCDn.s:1000   .text:0000000000000488 .L0 
     /tmp/ccULrCDn.s:1004   .text:0000000000000494 .L0 
GAS LISTING /tmp/ccULrCDn.s 			page 34


     /tmp/ccULrCDn.s:1005   .text:0000000000000494 .L0 
     /tmp/ccULrCDn.s:1006   .text:0000000000000494 .L0 
     /tmp/ccULrCDn.s:1008   .text:0000000000000498 .L0 
     /tmp/ccULrCDn.s:1011   .text:000000000000049c .L0 
     /tmp/ccULrCDn.s:1017   .text:00000000000004b4 .L0 
     /tmp/ccULrCDn.s:1019   .text:00000000000004b8 .L0 
     /tmp/ccULrCDn.s:1020   .text:00000000000004b8 .L0 
     /tmp/ccULrCDn.s:1022   .text:00000000000004bc .L0 
     /tmp/ccULrCDn.s:1025   .text:00000000000004c0 .L0 
     /tmp/ccULrCDn.s:1027   .text:00000000000004c4 .L0 
     /tmp/ccULrCDn.s:1033   .text:00000000000004c4 _ZN9SemaphorenwEm
     /tmp/ccULrCDn.s:1036   .text:00000000000004c4 .L0 
     /tmp/ccULrCDn.s:1038   .text:00000000000004c4 .L0 
     /tmp/ccULrCDn.s:1039   .text:00000000000004c8 .L0 
     /tmp/ccULrCDn.s:1042   .text:00000000000004d0 .L0 
     /tmp/ccULrCDn.s:1043   .text:00000000000004d0 .L0 
     /tmp/ccULrCDn.s:1045   .text:00000000000004d4 .L0 
     /tmp/ccULrCDn.s:1047   .text:00000000000004d4 .L0 
     /tmp/ccULrCDn.s:1048   .text:00000000000004d4 .L0 
     /tmp/ccULrCDn.s:1051   .text:00000000000004dc .L0 
     /tmp/ccULrCDn.s:1052   .text:00000000000004e0 .L0 
     /tmp/ccULrCDn.s:1054   .text:00000000000004e4 .L0 
     /tmp/ccULrCDn.s:1055   .text:00000000000004e4 .L0 
     /tmp/ccULrCDn.s:1057   .text:00000000000004e8 .L0 
     /tmp/ccULrCDn.s:1059   .text:00000000000004ec .L0 
     /tmp/ccULrCDn.s:1065   .text:00000000000004ec _ZN14PeriodicThreadC2Em
     /tmp/ccULrCDn.s:1068   .text:00000000000004ec .L0 
     /tmp/ccULrCDn.s:1070   .text:00000000000004ec .L0 
     /tmp/ccULrCDn.s:1071   .text:00000000000004f0 .L0 
     /tmp/ccULrCDn.s:1076   .text:0000000000000500 .L0 
     /tmp/ccULrCDn.s:1077   .text:0000000000000500 .L0 
     /tmp/ccULrCDn.s:1078   .text:0000000000000500 .L0 
     /tmp/ccULrCDn.s:1079   .text:0000000000000500 .L0 
     /tmp/ccULrCDn.s:1081   .text:0000000000000504 .L0 
     /tmp/ccULrCDn.s:1086   .text:000000000000050c .L0 
     /tmp/ccULrCDn.s:1097   .text:0000000000000530 .L0 
     /tmp/ccULrCDn.s:1105   .text:0000000000000550 .L0 
     /tmp/ccULrCDn.s:1106   .text:0000000000000554 .L0 
     /tmp/ccULrCDn.s:1108   .text:0000000000000558 .L0 
     /tmp/ccULrCDn.s:1109   .text:0000000000000558 .L0 
     /tmp/ccULrCDn.s:1111   .text:000000000000055c .L0 
     /tmp/ccULrCDn.s:1114   .text:0000000000000560 .L0 
     /tmp/ccULrCDn.s:1117   .text:0000000000000564 .L0 
     /tmp/ccULrCDn.s:1119   .text:0000000000000568 .L0 
     /tmp/ccULrCDn.s:1065   .text:00000000000004ec _ZN14PeriodicThreadC1Em
     /tmp/ccULrCDn.s:32     .text._ZN6Thread3runEv:0000000000000018 .L0 
     /tmp/ccULrCDn.s:57     .text._ZN14PeriodicThread18periodicActivationEv:0000000000000018 .L0 
     /tmp/ccULrCDn.s:1163   .text:0000000000000568 .L0 
     /tmp/ccULrCDn.s:211    .text._ZN14PeriodicThreadD2Ev:0000000000000034 .L0 
     /tmp/ccULrCDn.s:599    .text._ZN14PeriodicThreadD0Ev:000000000000004c .L0 
     /tmp/ccULrCDn.s:133    .text:000000000000006c .L0 
     /tmp/ccULrCDn.s:232    .text:00000000000000bc .L0 
     /tmp/ccULrCDn.s:426    .text:0000000000000194 .L0 
     /tmp/ccULrCDn.s:688    .text:00000000000002bc .L0 
     /tmp/ccULrCDn.s:705    .text:00000000000002e8 .L0 
     /tmp/ccULrCDn.s:841    .text:00000000000003c0 .L0 
     /tmp/ccULrCDn.s:1097   .text:0000000000000530 .L0 
GAS LISTING /tmp/ccULrCDn.s 			page 35


     /tmp/ccULrCDn.s:1101   .text:0000000000000544 .L0 
     /tmp/ccULrCDn.s:95     .text:0000000000000044 .L6
     /tmp/ccULrCDn.s:148    .text:0000000000000098 .L8
     /tmp/ccULrCDn.s:803    .text:0000000000000388 .L43
     /tmp/ccULrCDn.s:794    .text:0000000000000378 .L42
     /tmp/ccULrCDn.s:789    .text:000000000000036c .L45
     /tmp/ccULrCDn.s:193    .text._ZN14PeriodicThreadD2Ev:0000000000000010 .L0 
     /tmp/ccULrCDn.s:576    .text._ZN14PeriodicThreadD0Ev:0000000000000018 .L0 
     /tmp/ccULrCDn.s:3443   .debug_abbrev:0000000000000000 .Ldebug_abbrev0
     /tmp/ccULrCDn.s:5660   .debug_str:0000000000000a10 .LASF192
     /tmp/ccULrCDn.s:5482   .debug_str:000000000000045b .LASF193
     /tmp/ccULrCDn.s:5622   .debug_str:0000000000000905 .LASF194
     /tmp/ccULrCDn.s:5320   .debug_ranges:0000000000000000 .Ldebug_ranges0
     /tmp/ccULrCDn.s:5334   .debug_line:0000000000000000 .Ldebug_line0
     /tmp/ccULrCDn.s:5474   .debug_str:0000000000000423 .LASF0
     /tmp/ccULrCDn.s:5500   .debug_str:0000000000000512 .LASF1
     /tmp/ccULrCDn.s:5602   .debug_str:000000000000085b .LASF2
     /tmp/ccULrCDn.s:5608   .debug_str:0000000000000886 .LASF4
     /tmp/ccULrCDn.s:5484   .debug_str:000000000000046f .LASF3
     /tmp/ccULrCDn.s:5350   .debug_str:0000000000000071 .LASF5
     /tmp/ccULrCDn.s:5572   .debug_str:000000000000077b .LASF6
     /tmp/ccULrCDn.s:5562   .debug_str:000000000000072a .LASF7
     /tmp/ccULrCDn.s:5492   .debug_str:00000000000004dc .LASF8
     /tmp/ccULrCDn.s:5444   .debug_str:0000000000000344 .LASF9
     /tmp/ccULrCDn.s:5456   .debug_str:00000000000003bc .LASF10
     /tmp/ccULrCDn.s:5380   .debug_str:0000000000000156 .LASF11
     /tmp/ccULrCDn.s:5436   .debug_str:0000000000000312 .LASF12
     /tmp/ccULrCDn.s:5394   .debug_str:00000000000001c8 .LASF13
     /tmp/ccULrCDn.s:5378   .debug_str:0000000000000146 .LASF14
     /tmp/ccULrCDn.s:5636   .debug_str:0000000000000973 .LASF15
     /tmp/ccULrCDn.s:5422   .debug_str:00000000000002af .LASF16
     /tmp/ccULrCDn.s:5630   .debug_str:0000000000000940 .LASF17
     /tmp/ccULrCDn.s:5692   .debug_str:0000000000000bf1 .LASF18
     /tmp/ccULrCDn.s:5646   .debug_str:00000000000009bb .LASF19
     /tmp/ccULrCDn.s:5704   .debug_str:0000000000000c42 .LASF21
     /tmp/ccULrCDn.s:5416   .debug_str:0000000000000279 .LASF20
     /tmp/ccULrCDn.s:5674   .debug_str:0000000000000b2f .LASF22
     /tmp/ccULrCDn.s:5644   .debug_str:00000000000009ab .LASF23
     /tmp/ccULrCDn.s:5486   .debug_str:0000000000000481 .LASF24
     /tmp/ccULrCDn.s:5428   .debug_str:00000000000002da .LASF27
     /tmp/ccULrCDn.s:5742   .debug_str:0000000000000d6f .LASF29
     /tmp/ccULrCDn.s:5458   .debug_str:00000000000003ca .LASF25
     /tmp/ccULrCDn.s:5506   .debug_str:0000000000000551 .LASF26
     /tmp/ccULrCDn.s:5532   .debug_str:0000000000000610 .LASF28
     /tmp/ccULrCDn.s:5738   .debug_str:0000000000000d3d .LASF30
     /tmp/ccULrCDn.s:5648   .debug_str:00000000000009c6 .LASF31
     /tmp/ccULrCDn.s:5724   .debug_str:0000000000000cd8 .LASF32
     /tmp/ccULrCDn.s:5684   .debug_str:0000000000000bb4 .LASF33
     /tmp/ccULrCDn.s:5662   .debug_str:0000000000000ad4 .LASF34
     /tmp/ccULrCDn.s:5734   .debug_str:0000000000000d1c .LASF35
     /tmp/ccULrCDn.s:5354   .debug_str:000000000000008f .LASF36
     /tmp/ccULrCDn.s:5624   .debug_str:0000000000000923 .LASF195
     /tmp/ccULrCDn.s:5504   .debug_str:000000000000054b .LASF117
     /tmp/ccULrCDn.s:5508   .debug_str:000000000000056b .LASF118
     /tmp/ccULrCDn.s:5658   .debug_str:0000000000000a08 .LASF100
     /tmp/ccULrCDn.s:5498   .debug_str:000000000000050d .LASF37
     /tmp/ccULrCDn.s:5726   .debug_str:0000000000000cee .LASF38
GAS LISTING /tmp/ccULrCDn.s 			page 36


     /tmp/ccULrCDn.s:5732   .debug_str:0000000000000d0f .LASF39
     /tmp/ccULrCDn.s:5426   .debug_str:00000000000002ce .LASF40
     /tmp/ccULrCDn.s:5340   .debug_str:0000000000000031 .LASF41
     /tmp/ccULrCDn.s:5480   .debug_str:000000000000044e .LASF70
     /tmp/ccULrCDn.s:5466   .debug_str:00000000000003f9 .LASF196
     /tmp/ccULrCDn.s:5366   .debug_str:00000000000000f8 .LASF197
     /tmp/ccULrCDn.s:5400   .debug_str:00000000000001f6 .LASF76
     /tmp/ccULrCDn.s:5344   .debug_str:0000000000000049 .LASF42
     /tmp/ccULrCDn.s:5524   .debug_str:00000000000005e5 .LASF43
     /tmp/ccULrCDn.s:5700   .debug_str:0000000000000c2a .LASF44
     /tmp/ccULrCDn.s:5494   .debug_str:00000000000004ef .LASF45
     /tmp/ccULrCDn.s:5730   .debug_str:0000000000000d0a .LASF46
     /tmp/ccULrCDn.s:5628   .debug_str:0000000000000937 .LASF47
     /tmp/ccULrCDn.s:5552   .debug_str:00000000000006e8 .LASF48
     /tmp/ccULrCDn.s:5516   .debug_str:00000000000005a1 .LASF49
     /tmp/ccULrCDn.s:5708   .debug_str:0000000000000c67 .LASF50
     /tmp/ccULrCDn.s:5414   .debug_str:000000000000026b .LASF51
     /tmp/ccULrCDn.s:5670   .debug_str:0000000000000b1b .LASF52
     /tmp/ccULrCDn.s:5614   .debug_str:00000000000008d3 .LASF102
     /tmp/ccULrCDn.s:5412   .debug_str:0000000000000262 .LASF58
     /tmp/ccULrCDn.s:5358   .debug_str:00000000000000c1 .LASF60
     /tmp/ccULrCDn.s:5476   .debug_str:0000000000000430 .LASF53
     /tmp/ccULrCDn.s:5696   .debug_str:0000000000000c03 .LASF55
     /tmp/ccULrCDn.s:5478   .debug_str:000000000000043f .LASF54
     /tmp/ccULrCDn.s:5610   .debug_str:000000000000088d .LASF56
     /tmp/ccULrCDn.s:5512   .debug_str:000000000000058d .LASF57
     /tmp/ccULrCDn.s:5580   .debug_str:00000000000007a3 .LASF59
     /tmp/ccULrCDn.s:5710   .debug_str:0000000000000c74 .LASF61
     /tmp/ccULrCDn.s:5720   .debug_str:0000000000000cc6 .LASF62
     /tmp/ccULrCDn.s:5376   .debug_str:000000000000013a .LASF63
     /tmp/ccULrCDn.s:5446   .debug_str:0000000000000354 .LASF64
     /tmp/ccULrCDn.s:5664   .debug_str:0000000000000aed .LASF65
     /tmp/ccULrCDn.s:5702   .debug_str:0000000000000c33 .LASF66
     /tmp/ccULrCDn.s:5640   .debug_str:000000000000098c .LASF67
     /tmp/ccULrCDn.s:5490   .debug_str:00000000000004cb .LASF68
     /tmp/ccULrCDn.s:5652   .debug_str:00000000000009d7 .LASF69
     /tmp/ccULrCDn.s:5638   .debug_str:000000000000097f .LASF71
     /tmp/ccULrCDn.s:5600   .debug_str:000000000000084b .LASF72
     /tmp/ccULrCDn.s:5408   .debug_str:0000000000000242 .LASF73
     /tmp/ccULrCDn.s:5606   .debug_str:0000000000000878 .LASF74
     /tmp/ccULrCDn.s:5418   .debug_str:000000000000028c .LASF75
     /tmp/ccULrCDn.s:5576   .debug_str:0000000000000792 .LASF77
     /tmp/ccULrCDn.s:5472   .debug_str:000000000000041d .LASF78
     /tmp/ccULrCDn.s:5574   .debug_str:0000000000000782 .LASF79
     /tmp/ccULrCDn.s:5342   .debug_str:0000000000000041 .LASF80
     /tmp/ccULrCDn.s:5736   .debug_str:0000000000000d2b .LASF81
     /tmp/ccULrCDn.s:5632   .debug_str:0000000000000956 .LASF82
     /tmp/ccULrCDn.s:5544   .debug_str:00000000000006b1 .LASF83
     /tmp/ccULrCDn.s:5468   .debug_str:0000000000000404 .LASF84
     /tmp/ccULrCDn.s:5560   .debug_str:000000000000071a .LASF85
     /tmp/ccULrCDn.s:5442   .debug_str:0000000000000338 .LASF108
     /tmp/ccULrCDn.s:5698   .debug_str:0000000000000c21 .LASF86
     /tmp/ccULrCDn.s:5718   .debug_str:0000000000000cc1 .LASF87
     /tmp/ccULrCDn.s:5382   .debug_str:0000000000000165 .LASF88
     /tmp/ccULrCDn.s:5338   .debug_str:000000000000002a .LASF89
     /tmp/ccULrCDn.s:5592   .debug_str:00000000000007f1 .LASF90
     /tmp/ccULrCDn.s:5488   .debug_str:000000000000049d .LASF198
GAS LISTING /tmp/ccULrCDn.s 			page 37


     /tmp/ccULrCDn.s:5672   .debug_str:0000000000000b25 .LASF91
     /tmp/ccULrCDn.s:5676   .debug_str:0000000000000b4e .LASF92
     /tmp/ccULrCDn.s:5694   .debug_str:0000000000000bfa .LASF93
     /tmp/ccULrCDn.s:5534   .debug_str:000000000000061e .LASF94
     /tmp/ccULrCDn.s:5406   .debug_str:0000000000000235 .LASF95
     /tmp/ccULrCDn.s:5540   .debug_str:000000000000067d .LASF96
     /tmp/ccULrCDn.s:5558   .debug_str:000000000000070d .LASF97
     /tmp/ccULrCDn.s:5520   .debug_str:00000000000005bb .LASF98
     /tmp/ccULrCDn.s:5362   .debug_str:00000000000000da .LASF99
     /tmp/ccULrCDn.s:5706   .debug_str:0000000000000c59 .LASF101
     /tmp/ccULrCDn.s:5654   .debug_str:00000000000009e3 .LASF103
     /tmp/ccULrCDn.s:5538   .debug_str:0000000000000654 .LASF104
     /tmp/ccULrCDn.s:5528   .debug_str:00000000000005f0 .LASF105
     /tmp/ccULrCDn.s:5612   .debug_str:00000000000008ab .LASF106
     /tmp/ccULrCDn.s:5522   .debug_str:00000000000005e0 .LASF107
     /tmp/ccULrCDn.s:5690   .debug_str:0000000000000be7 .LASF109
     /tmp/ccULrCDn.s:5596   .debug_str:000000000000082c .LASF110
     /tmp/ccULrCDn.s:5464   .debug_str:00000000000003f2 .LASF111
     /tmp/ccULrCDn.s:5390   .debug_str:00000000000001a0 .LASF129
     /tmp/ccULrCDn.s:5594   .debug_str:000000000000081f .LASF136
     /tmp/ccULrCDn.s:5542   .debug_str:00000000000006a2 .LASF112
     /tmp/ccULrCDn.s:5680   .debug_str:0000000000000b89 .LASF113
     /tmp/ccULrCDn.s:5740   .debug_str:0000000000000d58 .LASF114
     /tmp/ccULrCDn.s:5626   .debug_str:000000000000092f .LASF141
     /tmp/ccULrCDn.s:5432   .debug_str:00000000000002fd .LASF143
     /tmp/ccULrCDn.s:5618   .debug_str:00000000000008f6 .LASF115
     /tmp/ccULrCDn.s:5346   .debug_str:0000000000000054 .LASF116
     /tmp/ccULrCDn.s:5556   .debug_str:00000000000006f7 .LASF119
     /tmp/ccULrCDn.s:5360   .debug_str:00000000000000d4 .LASF120
     /tmp/ccULrCDn.s:5546   .debug_str:00000000000006b6 .LASF121
     /tmp/ccULrCDn.s:5460   .debug_str:00000000000003d8 .LASF122
     /tmp/ccULrCDn.s:5714   .debug_str:0000000000000c9e .LASF199
     /tmp/ccULrCDn.s:5424   .debug_str:00000000000002c5 .LASF123
     /tmp/ccULrCDn.s:5438   .debug_str:0000000000000321 .LASF124
     /tmp/ccULrCDn.s:5550   .debug_str:00000000000006d9 .LASF125
     /tmp/ccULrCDn.s:5452   .debug_str:000000000000039b .LASF126
     /tmp/ccULrCDn.s:5368   .debug_str:000000000000010e .LASF127
     /tmp/ccULrCDn.s:5388   .debug_str:0000000000000191 .LASF128
     /tmp/ccULrCDn.s:5678   .debug_str:0000000000000b6f .LASF130
     /tmp/ccULrCDn.s:5682   .debug_str:0000000000000b99 .LASF131
     /tmp/ccULrCDn.s:5642   .debug_str:0000000000000993 .LASF132
     /tmp/ccULrCDn.s:5336   .debug_str:0000000000000000 .LASF200
     /tmp/ccULrCDn.s:5548   .debug_str:00000000000006c9 .LASF133
     /tmp/ccULrCDn.s:5450   .debug_str:0000000000000383 .LASF201
     /tmp/ccULrCDn.s:5420   .debug_str:00000000000002a5 .LASF134
     /tmp/ccULrCDn.s:5656   .debug_str:00000000000009f3 .LASF135
     /tmp/ccULrCDn.s:5728   .debug_str:0000000000000cfa .LASF137
     /tmp/ccULrCDn.s:5716   .debug_str:0000000000000caf .LASF138
     /tmp/ccULrCDn.s:5686   .debug_str:0000000000000bc2 .LASF139
     /tmp/ccULrCDn.s:5688   .debug_str:0000000000000bd5 .LASF140
     /tmp/ccULrCDn.s:5582   .debug_str:00000000000007b3 .LASF142
     /tmp/ccULrCDn.s:5616   .debug_str:00000000000008e4 .LASF144
     /tmp/ccULrCDn.s:5386   .debug_str:000000000000017c .LASF145
     /tmp/ccULrCDn.s:5352   .debug_str:0000000000000078 .LASF146
     /tmp/ccULrCDn.s:5470   .debug_str:000000000000040d .LASF202
     /tmp/ccULrCDn.s:5440   .debug_str:0000000000000333 .LASF147
     /tmp/ccULrCDn.s:5348   .debug_str:0000000000000067 .LASF148
GAS LISTING /tmp/ccULrCDn.s 			page 38


     /tmp/ccULrCDn.s:5402   .debug_str:0000000000000209 .LASF149
     /tmp/ccULrCDn.s:557    .text._ZN14PeriodicThreadD0Ev:0000000000000000 .LFB62
     /tmp/ccULrCDn.s:597    .text._ZN14PeriodicThreadD0Ev:000000000000004c .LFE62
     /tmp/ccULrCDn.s:4824   .debug_loc:0000000000000000 .LLST14
     /tmp/ccULrCDn.s:573    .text._ZN14PeriodicThreadD0Ev:0000000000000018 .LBB18
     /tmp/ccULrCDn.s:581    .text._ZN14PeriodicThreadD0Ev:000000000000002c .LBE18
     /tmp/ccULrCDn.s:4842   .debug_loc:000000000000004c .LLST15
     /tmp/ccULrCDn.s:579    .text._ZN14PeriodicThreadD0Ev:000000000000002c .LVL35
     /tmp/ccULrCDn.s:584    .text._ZN14PeriodicThreadD0Ev:0000000000000038 .LVL36
     /tmp/ccULrCDn.s:5598   .debug_str:0000000000000833 .LASF150
     /tmp/ccULrCDn.s:179    .text._ZN14PeriodicThreadD2Ev:0000000000000000 .LFB60
     /tmp/ccULrCDn.s:207    .text._ZN14PeriodicThreadD2Ev:0000000000000034 .LFE60
     /tmp/ccULrCDn.s:4853   .debug_loc:0000000000000082 .LLST2
     /tmp/ccULrCDn.s:196    .text._ZN14PeriodicThreadD2Ev:0000000000000024 .LVL10
     /tmp/ccULrCDn.s:5634   .debug_str:000000000000095b .LASF151
     /tmp/ccULrCDn.s:1066   .text:00000000000004ec .LFB57
     /tmp/ccULrCDn.s:1120   .text:0000000000000568 .LFE57
     /tmp/ccULrCDn.s:4867   .debug_loc:00000000000000bb .LLST31
     /tmp/ccULrCDn.s:4885   .debug_loc:0000000000000107 .LLST32
     /tmp/ccULrCDn.s:1089   .text:0000000000000518 .LVL77
     /tmp/ccULrCDn.s:1100   .text:0000000000000544 .LVL78
     /tmp/ccULrCDn.s:5392   .debug_str:00000000000001b2 .LASF152
     /tmp/ccULrCDn.s:5566   .debug_str:000000000000074a .LASF153
     /tmp/ccULrCDn.s:765    .text:0000000000000338 .LFB55
     /tmp/ccULrCDn.s:816    .text:00000000000003a4 .LFE55
     /tmp/ccULrCDn.s:4903   .debug_loc:0000000000000153 .LLST20
     /tmp/ccULrCDn.s:5578   .debug_str:000000000000079e .LASF154
     /tmp/ccULrCDn.s:802    .text:0000000000000388 .LVL54
     /tmp/ccULrCDn.s:1034   .text:00000000000004c4 .LFB54
     /tmp/ccULrCDn.s:1060   .text:00000000000004ec .LFE54
     /tmp/ccULrCDn.s:4917   .debug_loc:000000000000018c .LLST30
     /tmp/ccULrCDn.s:1049   .text:00000000000004dc .LVL74
     /tmp/ccULrCDn.s:963    .text:000000000000045c .LFB53
     /tmp/ccULrCDn.s:989    .text:0000000000000484 .LFE53
     /tmp/ccULrCDn.s:5588   .debug_str:00000000000007d8 .LASF155
     /tmp/ccULrCDn.s:4931   .debug_loc:00000000000001c5 .LLST28
     /tmp/ccULrCDn.s:978    .text:0000000000000474 .LVL68
     /tmp/ccULrCDn.s:929    .text:0000000000000430 .LFB52
     /tmp/ccULrCDn.s:957    .text:000000000000045c .LFE52
     /tmp/ccULrCDn.s:4945   .debug_loc:00000000000001fe .LLST27
     /tmp/ccULrCDn.s:946    .text:000000000000044c .LVL66
     /tmp/ccULrCDn.s:895    .text:0000000000000404 .LFB51
     /tmp/ccULrCDn.s:923    .text:0000000000000430 .LFE51
     /tmp/ccULrCDn.s:4959   .debug_loc:0000000000000237 .LLST26
     /tmp/ccULrCDn.s:912    .text:0000000000000420 .LVL63
     /tmp/ccULrCDn.s:5510   .debug_str:000000000000057b .LASF156
     /tmp/ccULrCDn.s:995    .text:0000000000000484 .LFB50
     /tmp/ccULrCDn.s:1028   .text:00000000000004c4 .LFE50
     /tmp/ccULrCDn.s:4973   .debug_loc:0000000000000270 .LLST29
     /tmp/ccULrCDn.s:1012   .text:00000000000004a4 .LVL70
     /tmp/ccULrCDn.s:1015   .text:00000000000004b0 .LVL71
     /tmp/ccULrCDn.s:5356   .debug_str:00000000000000af .LASF157
     /tmp/ccULrCDn.s:216    .text:00000000000000ac .LFB48
     /tmp/ccULrCDn.s:251    .text:00000000000000e4 .LFE48
     /tmp/ccULrCDn.s:4991   .debug_loc:00000000000002bc .LLST3
     /tmp/ccULrCDn.s:239    .text:00000000000000d4 .LVL13
     /tmp/ccULrCDn.s:5364   .debug_str:00000000000000f3 .LASF158
GAS LISTING /tmp/ccULrCDn.s 			page 39


     /tmp/ccULrCDn.s:5384   .debug_str:000000000000016a .LASF159
     /tmp/ccULrCDn.s:822    .text:00000000000003a4 .LFB45
     /tmp/ccULrCDn.s:887    .text:0000000000000404 .LFE45
     /tmp/ccULrCDn.s:5005   .debug_loc:00000000000002f5 .LLST21
     /tmp/ccULrCDn.s:5023   .debug_loc:0000000000000341 .LLST22
     /tmp/ccULrCDn.s:847    .text:00000000000003d0 .LBB23
     /tmp/ccULrCDn.s:868    .text:00000000000003e8 .LBE23
     /tmp/ccULrCDn.s:5037   .debug_loc:000000000000037a .LLST23
     /tmp/ccULrCDn.s:856    .text:00000000000003dc .LBB25
     /tmp/ccULrCDn.s:866    .text:00000000000003e8 .LBE25
     /tmp/ccULrCDn.s:5044   .debug_loc:000000000000039d .LLST24
     /tmp/ccULrCDn.s:5051   .debug_loc:00000000000003c0 .LLST25
     /tmp/ccULrCDn.s:855    .text:00000000000003dc .LVL58
     /tmp/ccULrCDn.s:733    .text:0000000000000310 .LFB43
     /tmp/ccULrCDn.s:759    .text:0000000000000338 .LFE43
     /tmp/ccULrCDn.s:5568   .debug_str:0000000000000766 .LASF160
     /tmp/ccULrCDn.s:5058   .debug_loc:00000000000003e3 .LLST19
     /tmp/ccULrCDn.s:748    .text:0000000000000328 .LVL50
     /tmp/ccULrCDn.s:5372   .debug_str:000000000000011c .LASF161
     /tmp/ccULrCDn.s:5496   .debug_str:00000000000004f9 .LASF162
     /tmp/ccULrCDn.s:62     .text:0000000000000000 .LFB42
     /tmp/ccULrCDn.s:109    .text:0000000000000058 .LFE42
     /tmp/ccULrCDn.s:5072   .debug_loc:000000000000041c .LLST0
     /tmp/ccULrCDn.s:5526   .debug_str:00000000000005eb .LASF163
     /tmp/ccULrCDn.s:5604   .debug_str:0000000000000869 .LASF164
     /tmp/ccULrCDn.s:671    .text:00000000000002a4 .LFB40
     /tmp/ccULrCDn.s:725    .text:0000000000000310 .LFE40
     /tmp/ccULrCDn.s:5086   .debug_loc:0000000000000455 .LLST17
     /tmp/ccULrCDn.s:696    .text:00000000000002d4 .LVL44
     /tmp/ccULrCDn.s:709    .text:00000000000002fc .LVL47
     /tmp/ccULrCDn.s:690    .text:00000000000002c8 .LBB21
     /tmp/ccULrCDn.s:710    .text:00000000000002fc .LBE21
     /tmp/ccULrCDn.s:5104   .debug_loc:00000000000004a1 .LLST18
     /tmp/ccULrCDn.s:635    .text:0000000000000274 .LFB38
     /tmp/ccULrCDn.s:665    .text:00000000000002a4 .LFE38
     /tmp/ccULrCDn.s:5115   .debug_loc:00000000000004d7 .LLST16
     /tmp/ccULrCDn.s:652    .text:0000000000000290 .LVL41
     /tmp/ccULrCDn.s:604    .text:000000000000024c .LFB37
     /tmp/ccULrCDn.s:629    .text:0000000000000274 .LFE37
     /tmp/ccULrCDn.s:618    .text:0000000000000264 .LVL38
     /tmp/ccULrCDn.s:485    .text:00000000000001e4 .LFB36
     /tmp/ccULrCDn.s:511    .text:000000000000020c .LFE36
     /tmp/ccULrCDn.s:5135   .debug_loc:0000000000000525 .LLST12
     /tmp/ccULrCDn.s:500    .text:00000000000001fc .LVL28
     /tmp/ccULrCDn.s:453    .text:00000000000001bc .LFB35
     /tmp/ccULrCDn.s:479    .text:00000000000001e4 .LFE35
     /tmp/ccULrCDn.s:5149   .debug_loc:000000000000055e .LLST11
     /tmp/ccULrCDn.s:468    .text:00000000000001d4 .LVL26
     /tmp/ccULrCDn.s:5518   .debug_str:00000000000005ac .LASF165
     /tmp/ccULrCDn.s:517    .text:000000000000020c .LFB34
     /tmp/ccULrCDn.s:550    .text:000000000000024c .LFE34
     /tmp/ccULrCDn.s:5163   .debug_loc:0000000000000597 .LLST13
     /tmp/ccULrCDn.s:534    .text:000000000000022c .LVL30
     /tmp/ccULrCDn.s:537    .text:0000000000000238 .LVL31
     /tmp/ccULrCDn.s:5712   .debug_str:0000000000000c8f .LASF166
     /tmp/ccULrCDn.s:115    .text:0000000000000058 .LFB32
     /tmp/ccULrCDn.s:162    .text:00000000000000ac .LFE32
GAS LISTING /tmp/ccULrCDn.s 			page 40


     /tmp/ccULrCDn.s:5181   .debug_loc:00000000000005e3 .LLST1
     /tmp/ccULrCDn.s:144    .text:000000000000008c .LVL7
     /tmp/ccULrCDn.s:147    .text:0000000000000098 .LVL8
     /tmp/ccULrCDn.s:5410   .debug_str:000000000000025d .LASF167
     /tmp/ccULrCDn.s:5666   .debug_str:0000000000000af2 .LASF168
     /tmp/ccULrCDn.s:412    .text:0000000000000184 .LFB29
     /tmp/ccULrCDn.s:445    .text:00000000000001bc .LFE29
     /tmp/ccULrCDn.s:5195   .debug_loc:000000000000061c .LLST8
     /tmp/ccULrCDn.s:5215   .debug_loc:000000000000066a .LLST9
     /tmp/ccULrCDn.s:5229   .debug_loc:00000000000006a3 .LLST10
     /tmp/ccULrCDn.s:433    .text:00000000000001ac .LVL24
     /tmp/ccULrCDn.s:5430   .debug_str:00000000000002ea .LASF169
     /tmp/ccULrCDn.s:5370   .debug_str:0000000000000115 .LASF170
     /tmp/ccULrCDn.s:371    .text:000000000000015c .LFB27
     /tmp/ccULrCDn.s:399    .text:0000000000000184 .LFE27
     /tmp/ccULrCDn.s:5243   .debug_loc:00000000000006dc .LLST7
     /tmp/ccULrCDn.s:388    .text:0000000000000174 .LVL21
     /tmp/ccULrCDn.s:5554   .debug_str:00000000000006f0 .LASF171
     /tmp/ccULrCDn.s:330    .text:0000000000000134 .LFB26
     /tmp/ccULrCDn.s:358    .text:000000000000015c .LFE26
     /tmp/ccULrCDn.s:5257   .debug_loc:0000000000000715 .LLST6
     /tmp/ccULrCDn.s:347    .text:000000000000014c .LVL19
     /tmp/ccULrCDn.s:5374   .debug_str:000000000000012a .LASF172
     /tmp/ccULrCDn.s:5650   .debug_str:00000000000009d1 .LASF173
     /tmp/ccULrCDn.s:298    .text:000000000000010c .LFB25
     /tmp/ccULrCDn.s:324    .text:0000000000000134 .LFE25
     /tmp/ccULrCDn.s:5271   .debug_loc:000000000000074e .LLST5
     /tmp/ccULrCDn.s:313    .text:0000000000000124 .LVL17
     /tmp/ccULrCDn.s:5434   .debug_str:000000000000030c .LASF174
     /tmp/ccULrCDn.s:266    .text:00000000000000e4 .LFB24
     /tmp/ccULrCDn.s:292    .text:000000000000010c .LFE24
     /tmp/ccULrCDn.s:5285   .debug_loc:0000000000000787 .LLST4
     /tmp/ccULrCDn.s:281    .text:00000000000000fc .LVL15
     /tmp/ccULrCDn.s:5514   .debug_str:0000000000000597 .LASF175
     /tmp/ccULrCDn.s:5722   .debug_str:0000000000000ccc .LASF203
     /tmp/ccULrCDn.s:37     .text._ZN14PeriodicThread18periodicActivationEv:0000000000000000 .LFB1
     /tmp/ccULrCDn.s:55     .text._ZN14PeriodicThread18periodicActivationEv:0000000000000018 .LFE1
     /tmp/ccULrCDn.s:11     .text._ZN6Thread3runEv:0000000000000000 .LFB0
     /tmp/ccULrCDn.s:30     .text._ZN6Thread3runEv:0000000000000018 .LFE0
     /tmp/ccULrCDn.s:5404   .debug_str:0000000000000221 .LASF176
     /tmp/ccULrCDn.s:5462   .debug_str:00000000000003e7 .LASF178
     /tmp/ccULrCDn.s:5530   .debug_str:00000000000005ff .LASF177
     /tmp/ccULrCDn.s:5620   .debug_str:00000000000008fc .LASF179
     /tmp/ccULrCDn.s:5668   .debug_str:0000000000000b09 .LASF180
     /tmp/ccULrCDn.s:5584   .debug_str:00000000000007be .LASF181
     /tmp/ccULrCDn.s:5570   .debug_str:000000000000076b .LASF182
     /tmp/ccULrCDn.s:5398   .debug_str:00000000000001eb .LASF183
     /tmp/ccULrCDn.s:5502   .debug_str:0000000000000525 .LASF184
     /tmp/ccULrCDn.s:5396   .debug_str:00000000000001d8 .LASF185
     /tmp/ccULrCDn.s:5448   .debug_str:000000000000036c .LASF186
     /tmp/ccULrCDn.s:5564   .debug_str:000000000000073d .LASF187
     /tmp/ccULrCDn.s:5536   .debug_str:000000000000063f .LASF188
     /tmp/ccULrCDn.s:5586   .debug_str:00000000000007c8 .LASF189
     /tmp/ccULrCDn.s:5590   .debug_str:00000000000007e3 .LASF190
     /tmp/ccULrCDn.s:5454   .debug_str:00000000000003ae .LASF191
     /tmp/ccULrCDn.s:560    .text._ZN14PeriodicThreadD0Ev:0000000000000000 .LVL33
     /tmp/ccULrCDn.s:592    .text._ZN14PeriodicThreadD0Ev:0000000000000044 .LVL37
GAS LISTING /tmp/ccULrCDn.s 			page 41


     /tmp/ccULrCDn.s:572    .text._ZN14PeriodicThreadD0Ev:0000000000000018 .LVL34
     /tmp/ccULrCDn.s:182    .text._ZN14PeriodicThreadD2Ev:0000000000000000 .LVL9
     /tmp/ccULrCDn.s:1069   .text:00000000000004ec .LVL75
     /tmp/ccULrCDn.s:1087   .text:0000000000000510 .LVL76
     /tmp/ccULrCDn.s:1112   .text:000000000000055c .LVL79
     /tmp/ccULrCDn.s:1115   .text:0000000000000560 .LVL80
     /tmp/ccULrCDn.s:768    .text:0000000000000338 .LVL51
     /tmp/ccULrCDn.s:788    .text:000000000000036c .LVL52
     /tmp/ccULrCDn.s:1037   .text:00000000000004c4 .LVL73
     /tmp/ccULrCDn.s:966    .text:000000000000045c .LVL67
     /tmp/ccULrCDn.s:932    .text:0000000000000430 .LVL64
     /tmp/ccULrCDn.s:944    .text:0000000000000444 .LVL65
     /tmp/ccULrCDn.s:898    .text:0000000000000404 .LVL61
     /tmp/ccULrCDn.s:910    .text:0000000000000418 .LVL62
     /tmp/ccULrCDn.s:998    .text:0000000000000484 .LVL69
     /tmp/ccULrCDn.s:1023   .text:00000000000004bc .LVL72
     /tmp/ccULrCDn.s:221    .text:00000000000000ac .LVL11
     /tmp/ccULrCDn.s:237    .text:00000000000000cc .LVL12
     /tmp/ccULrCDn.s:825    .text:00000000000003a4 .LVL55
     /tmp/ccULrCDn.s:853    .text:00000000000003d4 .LVL57
     /tmp/ccULrCDn.s:880    .text:00000000000003f8 .LVL60
     /tmp/ccULrCDn.s:846    .text:00000000000003d0 .LVL56
     /tmp/ccULrCDn.s:864    .text:00000000000003e8 .LVL59
     /tmp/ccULrCDn.s:736    .text:0000000000000310 .LVL49
     /tmp/ccULrCDn.s:66     .text:0000000000000000 .LVL2
     /tmp/ccULrCDn.s:82     .text:0000000000000024 .LVL3
     /tmp/ccULrCDn.s:674    .text:00000000000002a4 .LVL42
     /tmp/ccULrCDn.s:694    .text:00000000000002cc .LVL43
     /tmp/ccULrCDn.s:720    .text:0000000000000308 .LVL48
     /tmp/ccULrCDn.s:702    .text:00000000000002e8 .LVL45
     /tmp/ccULrCDn.s:707    .text:00000000000002f4 .LVL46
     /tmp/ccULrCDn.s:638    .text:0000000000000274 .LVL39
     /tmp/ccULrCDn.s:650    .text:0000000000000288 .LVL40
     /tmp/ccULrCDn.s:488    .text:00000000000001e4 .LVL27
     /tmp/ccULrCDn.s:456    .text:00000000000001bc .LVL25
     /tmp/ccULrCDn.s:520    .text:000000000000020c .LVL29
     /tmp/ccULrCDn.s:545    .text:0000000000000244 .LVL32
     /tmp/ccULrCDn.s:120    .text:0000000000000058 .LVL5
     /tmp/ccULrCDn.s:142    .text:0000000000000084 .LVL6
     /tmp/ccULrCDn.s:415    .text:0000000000000184 .LVL22
     /tmp/ccULrCDn.s:431    .text:00000000000001a4 .LVL23
     /tmp/ccULrCDn.s:376    .text:000000000000015c .LVL20
     /tmp/ccULrCDn.s:335    .text:0000000000000134 .LVL18
     /tmp/ccULrCDn.s:301    .text:000000000000010c .LVL16
     /tmp/ccULrCDn.s:269    .text:00000000000000e4 .LVL14
     /tmp/ccULrCDn.s:1164   .debug_info:0000000000000000 .Ldebug_info0
     /tmp/ccULrCDn.s:5      .text:0000000000000000 .Ltext0
     /tmp/ccULrCDn.s:1158   .text:0000000000000568 .Letext0
     /tmp/ccULrCDn.s:165    .gcc_except_table:0000000000000000 .LLSDA32
     /tmp/ccULrCDn.s:253    .gcc_except_table:0000000000000004 .LLSDA48
     /tmp/ccULrCDn.s:360    .gcc_except_table:0000000000000008 .LLSDA26
     /tmp/ccULrCDn.s:401    .gcc_except_table:000000000000000c .LLSDA27
                           .group:0000000000000000 _ZN14PeriodicThreadD5Ev

UNDEFINED SYMBOLS
_ZN3PCBD1Ev
_ZN3PCBdlEPv
GAS LISTING /tmp/ccULrCDn.s 			page 42


__gxx_personality_v0
_Z9sem_closeP3SCB
_Z9mem_allocm
_Z8mem_freePv
_Z18thread_create_onlyPP3PCBPFvPvES2_
_ZN15MemoryAllocator9mem_allocEm
_ZN15MemoryAllocator8mem_freeEPv
_Z15thread_dispatchv
_Z12thread_startPP3PCB
_Z10time_sleepm
_ZN3SCBnwEm
_Z8sem_waitP3SCB
_Z10sem_signalP3SCB
