GAS LISTING /tmp/ccWdciDI.s 			page 1


   1              		.file	"syscall_cpp.cpp"
   2              		.option pic
   3              		.option norelax
   4              		.text
   5              	.Ltext0:
   6              		.section	.text._ZN6Thread3runEv,"axG",@progbits,_ZN6Thread3runEv,comdat
   7              		.align	2
   8              		.weak	_ZN6Thread3runEv
  10              	_ZN6Thread3runEv:
  11              	.LFB16:
  12              		.file 1 "src/../h/syscall_cpp.hpp"
   1:src/../h/syscall_cpp.hpp **** #ifndef SYSCALL_CPP_H
   2:src/../h/syscall_cpp.hpp **** #define SYSCALL_CPP_H
   3:src/../h/syscall_cpp.hpp **** 
   4:src/../h/syscall_cpp.hpp **** #include "syscall_c.h"
   5:src/../h/syscall_cpp.hpp **** // Poziva funkciju mem_alloc koja alocira prostora odgovarajuce velicine size
   6:src/../h/syscall_cpp.hpp **** void* operator new (size_t size);
   7:src/../h/syscall_cpp.hpp **** void* operator new[] (size_t size);
   8:src/../h/syscall_cpp.hpp **** // Poziva funkciju mem_free koja oslobadja zauzeti segment memSegment, prethodno alociran preko mem
   9:src/../h/syscall_cpp.hpp **** void operator delete (void* memSegment) noexcept;
  10:src/../h/syscall_cpp.hpp **** void operator delete[] (void* memSegment) noexcept;
  11:src/../h/syscall_cpp.hpp **** 
  12:src/../h/syscall_cpp.hpp **** class Thread {
  13:src/../h/syscall_cpp.hpp **** public:
  14:src/../h/syscall_cpp.hpp ****     void* operator new(size_t size);
  15:src/../h/syscall_cpp.hpp ****     void operator delete(void* memSegment);
  16:src/../h/syscall_cpp.hpp ****     Thread (void (*body)(void*), void* arg);
  17:src/../h/syscall_cpp.hpp ****     virtual ~Thread ();
  18:src/../h/syscall_cpp.hpp ****     int start ();
  19:src/../h/syscall_cpp.hpp ****     static void dispatch ();
  20:src/../h/syscall_cpp.hpp ****     static int sleep (time_t);
  21:src/../h/syscall_cpp.hpp **** protected:
  22:src/../h/syscall_cpp.hpp ****     Thread ();
  23:src/../h/syscall_cpp.hpp ****     virtual void run () {}
  13              		.loc 1 23 18
  14              		.cfi_startproc
  15              	.LVL0:
  16 0000 130101FF 		addi	sp,sp,-16
  17              		.cfi_def_cfa_offset 16
  18 0004 23348100 		sd	s0,8(sp)
  19              		.cfi_offset 8, -8
  20 0008 13040101 		addi	s0,sp,16
  21              		.cfi_def_cfa 8, 0
  22              		.loc 1 23 26 is_stmt 0
  23 000c 03348100 		ld	s0,8(sp)
  24              		.cfi_restore 8
  25              		.cfi_def_cfa 2, 16
  26 0010 13010101 		addi	sp,sp,16
  27              		.cfi_def_cfa_offset 0
  28 0014 67800000 		jr	ra
  29              		.cfi_endproc
  30              	.LFE16:
  32              		.section	.text._ZN14PeriodicThread18periodicActivationEv,"axG",@progbits,_ZN14PeriodicThread18peri
  33              		.align	2
  34              		.weak	_ZN14PeriodicThread18periodicActivationEv
  36              	_ZN14PeriodicThread18periodicActivationEv:
  37              	.LFB17:
GAS LISTING /tmp/ccWdciDI.s 			page 2


  24:src/../h/syscall_cpp.hpp **** private:
  25:src/../h/syscall_cpp.hpp ****     thread_t myHandle;
  26:src/../h/syscall_cpp.hpp **** };
  27:src/../h/syscall_cpp.hpp **** 
  28:src/../h/syscall_cpp.hpp **** class Semaphore {
  29:src/../h/syscall_cpp.hpp **** public:
  30:src/../h/syscall_cpp.hpp ****     void* operator new(size_t size);
  31:src/../h/syscall_cpp.hpp ****     void operator delete(void* memSegment);
  32:src/../h/syscall_cpp.hpp ****     Semaphore (unsigned init = 1);
  33:src/../h/syscall_cpp.hpp ****     virtual ~Semaphore ();
  34:src/../h/syscall_cpp.hpp ****     int wait ();
  35:src/../h/syscall_cpp.hpp ****     int signal ();
  36:src/../h/syscall_cpp.hpp **** private:
  37:src/../h/syscall_cpp.hpp ****     sem_t myHandle;
  38:src/../h/syscall_cpp.hpp **** };
  39:src/../h/syscall_cpp.hpp **** 
  40:src/../h/syscall_cpp.hpp **** class PeriodicThread : public Thread {
  41:src/../h/syscall_cpp.hpp **** protected:
  42:src/../h/syscall_cpp.hpp ****     PeriodicThread (time_t period);
  43:src/../h/syscall_cpp.hpp ****     virtual void periodicActivation () {}
  38              		.loc 1 43 18 is_stmt 1
  39              		.cfi_startproc
  40              	.LVL1:
  41 0000 130101FF 		addi	sp,sp,-16
  42              		.cfi_def_cfa_offset 16
  43 0004 23348100 		sd	s0,8(sp)
  44              		.cfi_offset 8, -8
  45 0008 13040101 		addi	s0,sp,16
  46              		.cfi_def_cfa 8, 0
  47              		.loc 1 43 41 is_stmt 0
  48 000c 03348100 		ld	s0,8(sp)
  49              		.cfi_restore 8
  50              		.cfi_def_cfa 2, 16
  51 0010 13010101 		addi	sp,sp,16
  52              		.cfi_def_cfa_offset 0
  53 0014 67800000 		jr	ra
  54              		.cfi_endproc
  55              	.LFE17:
  57              		.text
  58              		.align	2
  59              		.globl	_ZN6ThreadD2Ev
  61              	_ZN6ThreadD2Ev:
  62              	.LFB54:
  63              		.file 2 "src/syscall_cpp.cpp"
   1:src/syscall_cpp.cpp **** #include "../h/syscall_cpp.hpp"
   2:src/syscall_cpp.cpp **** #include "../h/MemoryAllocator.h"
   3:src/syscall_cpp.cpp **** #include "../h/PCB.h"
   4:src/syscall_cpp.cpp **** #include "../h/SCB.h"
   5:src/syscall_cpp.cpp **** #include "../h/kernel.h"
   6:src/syscall_cpp.cpp **** void* operator new (size_t size) {
   7:src/syscall_cpp.cpp ****     return mem_alloc(size);
   8:src/syscall_cpp.cpp **** }
   9:src/syscall_cpp.cpp **** void* operator new [](size_t size) {
  10:src/syscall_cpp.cpp ****     return mem_alloc(size);
  11:src/syscall_cpp.cpp **** }
  12:src/syscall_cpp.cpp **** void operator delete (void* memSegment) noexcept {
  13:src/syscall_cpp.cpp ****     mem_free(memSegment);
GAS LISTING /tmp/ccWdciDI.s 			page 3


  14:src/syscall_cpp.cpp **** }
  15:src/syscall_cpp.cpp **** void operator delete [](void* memSegment) noexcept {
  16:src/syscall_cpp.cpp ****     mem_free(memSegment);
  17:src/syscall_cpp.cpp **** }
  18:src/syscall_cpp.cpp **** 
  19:src/syscall_cpp.cpp **** Thread::Thread(void (*body)(void *), void *arg) {
  20:src/syscall_cpp.cpp ****     thread_create_only(&myHandle, body, arg);
  21:src/syscall_cpp.cpp **** }
  22:src/syscall_cpp.cpp **** 
  23:src/syscall_cpp.cpp **** Thread::~Thread() {
  64              		.loc 2 23 1 is_stmt 1
  65              		.cfi_startproc
  66              		.cfi_personality 0x9b,DW.ref.__gxx_personality_v0
  67              		.cfi_lsda 0x1b,.LLSDA54
  68              	.LVL2:
  69 0000 130101FE 		addi	sp,sp,-32
  70              		.cfi_def_cfa_offset 32
  71 0004 233C1100 		sd	ra,24(sp)
  72 0008 23388100 		sd	s0,16(sp)
  73 000c 23349100 		sd	s1,8(sp)
  74              		.cfi_offset 1, -8
  75              		.cfi_offset 8, -16
  76              		.cfi_offset 9, -24
  77 0010 13040102 		addi	s0,sp,32
  78              		.cfi_def_cfa 8, 0
  79              	.LBB5:
  80              		.loc 2 23 17 is_stmt 0
  81 0014 97070000 		lla	a5,_ZTV6Thread+16
  81      93870700 
  82 001c 2330F500 		sd	a5,0(a0)
  24:src/syscall_cpp.cpp ****     delete myHandle;
  83              		.loc 2 24 5 is_stmt 1
  84              		.loc 2 24 12 is_stmt 0
  85 0020 83348500 		ld	s1,8(a0)
  86              		.loc 2 24 20
  87 0024 638E0400 		beqz	s1,.L5
  88              		.loc 2 24 12 discriminator 1
  89 0028 13850400 		mv	a0,s1
  90              	.LVL3:
  91 002c 97000000 		call	_ZN3PCBD1Ev@plt
  91      E7800000 
  92              	.LVL4:
  93 0034 13850400 		mv	a0,s1
  94 0038 97000000 		call	_ZN3PCBdlEPv@plt
  94      E7800000 
  95              	.LVL5:
  96              	.L5:
  97              	.LBE5:
  25:src/syscall_cpp.cpp **** }
  98              		.loc 2 25 1
  99 0040 83308101 		ld	ra,24(sp)
 100              		.cfi_restore 1
 101 0044 03340101 		ld	s0,16(sp)
 102              		.cfi_restore 8
 103              		.cfi_def_cfa 2, 32
 104 0048 83348100 		ld	s1,8(sp)
 105              		.cfi_restore 9
GAS LISTING /tmp/ccWdciDI.s 			page 4


 106 004c 13010102 		addi	sp,sp,32
 107              		.cfi_def_cfa_offset 0
 108 0050 67800000 		jr	ra
 109              		.cfi_endproc
 110              	.LFE54:
 111              		.globl	__gxx_personality_v0
 112              		.section	.gcc_except_table,"a",@progbits
 113              	.LLSDA54:
 114 0000 FF       		.byte	0xff
 115 0001 FF       		.byte	0xff
 116 0002 03       		.byte	0x3
 117 0003 00       		.byte	0
 118              		.text
 120              		.globl	_ZN6ThreadD1Ev
 121              		.set	_ZN6ThreadD1Ev,_ZN6ThreadD2Ev
 122              		.section	.text._ZN14PeriodicThreadD2Ev,"axG",@progbits,_ZN14PeriodicThreadD5Ev,comdat
 123              		.align	2
 124              		.weak	_ZN14PeriodicThreadD2Ev
 126              	_ZN14PeriodicThreadD2Ev:
 127              	.LFB84:
  40:src/../h/syscall_cpp.hpp **** protected:
 128              		.loc 1 40 7 is_stmt 1
 129              		.cfi_startproc
 130              	.LVL6:
 131 0000 130101FF 		addi	sp,sp,-16
 132              		.cfi_def_cfa_offset 16
 133 0004 23341100 		sd	ra,8(sp)
 134 0008 23308100 		sd	s0,0(sp)
 135              		.cfi_offset 1, -8
 136              		.cfi_offset 8, -16
 137 000c 13040101 		addi	s0,sp,16
 138              		.cfi_def_cfa 8, 0
 139              	.LBB6:
  40:src/../h/syscall_cpp.hpp **** protected:
 140              		.loc 1 40 7 is_stmt 0
 141 0010 97070000 		lla	a5,_ZTV14PeriodicThread+16
 141      93870700 
 142 0018 2330F500 		sd	a5,0(a0)
 143 001c 97000000 		call	_ZN6ThreadD2Ev
 143      E7800000 
 144              	.LVL7:
 145              	.LBE6:
 146 0024 83308100 		ld	ra,8(sp)
 147              		.cfi_restore 1
 148 0028 03340100 		ld	s0,0(sp)
 149              		.cfi_restore 8
 150              		.cfi_def_cfa 2, 16
 151 002c 13010101 		addi	sp,sp,16
 152              		.cfi_def_cfa_offset 0
 153 0030 67800000 		jr	ra
 154              		.cfi_endproc
 155              	.LFE84:
 157              		.weak	_ZN14PeriodicThreadD1Ev
 158              		.set	_ZN14PeriodicThreadD1Ev,_ZN14PeriodicThreadD2Ev
 159              		.text
 160              		.align	2
 161              		.globl	_ZN9SemaphoreD2Ev
GAS LISTING /tmp/ccWdciDI.s 			page 5


 163              	_ZN9SemaphoreD2Ev:
 164              	.LFB70:
  26:src/syscall_cpp.cpp **** 
  27:src/syscall_cpp.cpp **** void *Thread::operator new(size_t size) {
  28:src/syscall_cpp.cpp ****     return MemoryAllocator::mem_alloc(size);
  29:src/syscall_cpp.cpp **** }
  30:src/syscall_cpp.cpp **** 
  31:src/syscall_cpp.cpp **** void Thread::operator delete(void *memSegment) {
  32:src/syscall_cpp.cpp ****     MemoryAllocator::mem_free(memSegment);
  33:src/syscall_cpp.cpp **** }
  34:src/syscall_cpp.cpp **** 
  35:src/syscall_cpp.cpp **** void Thread::dispatch() {
  36:src/syscall_cpp.cpp ****     thread_dispatch();
  37:src/syscall_cpp.cpp **** }
  38:src/syscall_cpp.cpp **** 
  39:src/syscall_cpp.cpp **** int Thread::start() {
  40:src/syscall_cpp.cpp ****     thread_start(&myHandle);
  41:src/syscall_cpp.cpp ****     return 0;
  42:src/syscall_cpp.cpp **** }
  43:src/syscall_cpp.cpp **** 
  44:src/syscall_cpp.cpp **** struct threadArg {
  45:src/syscall_cpp.cpp ****     void* thread;
  46:src/syscall_cpp.cpp ****     void (Thread::* run)();
  47:src/syscall_cpp.cpp **** };
  48:src/syscall_cpp.cpp **** 
  49:src/syscall_cpp.cpp **** void threadWrapper(void* thread);
  50:src/syscall_cpp.cpp **** Thread::Thread() {
  51:src/syscall_cpp.cpp ****     threadArg* tArg = new threadArg{this, &Thread::run}; // oslobodice se u destruktoru PCB-a
  52:src/syscall_cpp.cpp ****     thread_create_only(&myHandle, threadWrapper, tArg);
  53:src/syscall_cpp.cpp **** }
  54:src/syscall_cpp.cpp **** 
  55:src/syscall_cpp.cpp **** void threadWrapper(void* thread) {
  56:src/syscall_cpp.cpp ****     threadArg *tArg = (threadArg*)thread;
  57:src/syscall_cpp.cpp ****     (((Thread*)tArg->thread)->*(tArg->run))();
  58:src/syscall_cpp.cpp ****     delete tArg;
  59:src/syscall_cpp.cpp **** }
  60:src/syscall_cpp.cpp **** 
  61:src/syscall_cpp.cpp **** int Thread::sleep(time_t time) {
  62:src/syscall_cpp.cpp ****     return time_sleep(time);
  63:src/syscall_cpp.cpp **** }
  64:src/syscall_cpp.cpp **** 
  65:src/syscall_cpp.cpp **** Semaphore::Semaphore(unsigned int init) {
  66:src/syscall_cpp.cpp ****     myHandle = SCB::createSemaphore(init);
  67:src/syscall_cpp.cpp **** }
  68:src/syscall_cpp.cpp **** 
  69:src/syscall_cpp.cpp **** Semaphore::~Semaphore() {
 165              		.loc 2 69 1 is_stmt 1
 166              		.cfi_startproc
 167              		.cfi_personality 0x9b,DW.ref.__gxx_personality_v0
 168              		.cfi_lsda 0x1b,.LLSDA70
 169              	.LVL8:
 170 0054 130101FF 		addi	sp,sp,-16
 171              		.cfi_def_cfa_offset 16
 172 0058 23341100 		sd	ra,8(sp)
 173 005c 23308100 		sd	s0,0(sp)
 174              		.cfi_offset 1, -8
 175              		.cfi_offset 8, -16
GAS LISTING /tmp/ccWdciDI.s 			page 6


 176 0060 13040101 		addi	s0,sp,16
 177              		.cfi_def_cfa 8, 0
 178              	.LBB7:
 179              		.loc 2 69 23 is_stmt 0
 180 0064 97070000 		lla	a5,_ZTV9Semaphore+16
 180      93870700 
 181 006c 2330F500 		sd	a5,0(a0)
  70:src/syscall_cpp.cpp ****     sem_close(myHandle);
 182              		.loc 2 70 5 is_stmt 1
 183              		.loc 2 70 14 is_stmt 0
 184 0070 03358500 		ld	a0,8(a0)
 185              	.LVL9:
 186 0074 97000000 		call	_Z9sem_closeP3SCB@plt
 186      E7800000 
 187              	.LVL10:
 188              	.LBE7:
  71:src/syscall_cpp.cpp **** }
 189              		.loc 2 71 1
 190 007c 83308100 		ld	ra,8(sp)
 191              		.cfi_restore 1
 192 0080 03340100 		ld	s0,0(sp)
 193              		.cfi_restore 8
 194              		.cfi_def_cfa 2, 16
 195 0084 13010101 		addi	sp,sp,16
 196              		.cfi_def_cfa_offset 0
 197 0088 67800000 		jr	ra
 198              		.cfi_endproc
 199              	.LFE70:
 200              		.section	.gcc_except_table
 201              	.LLSDA70:
 202 0004 FF       		.byte	0xff
 203 0005 FF       		.byte	0xff
 204 0006 03       		.byte	0x3
 205 0007 00       		.byte	0
 206              		.text
 208              		.globl	_ZN9SemaphoreD1Ev
 209              		.set	_ZN9SemaphoreD1Ev,_ZN9SemaphoreD2Ev
 210              		.align	2
 211              		.globl	_Znwm
 213              	_Znwm:
 214              	.LFB46:
   6:src/syscall_cpp.cpp ****     return mem_alloc(size);
 215              		.loc 2 6 34 is_stmt 1
 216              		.cfi_startproc
 217              	.LVL11:
 218 008c 130101FF 		addi	sp,sp,-16
 219              		.cfi_def_cfa_offset 16
 220 0090 23341100 		sd	ra,8(sp)
 221 0094 23308100 		sd	s0,0(sp)
 222              		.cfi_offset 1, -8
 223              		.cfi_offset 8, -16
 224 0098 13040101 		addi	s0,sp,16
 225              		.cfi_def_cfa 8, 0
   7:src/syscall_cpp.cpp **** }
 226              		.loc 2 7 5
   7:src/syscall_cpp.cpp **** }
 227              		.loc 2 7 21 is_stmt 0
GAS LISTING /tmp/ccWdciDI.s 			page 7


 228 009c 97000000 		call	_Z9mem_allocm@plt
 228      E7800000 
 229              	.LVL12:
   8:src/syscall_cpp.cpp **** void* operator new [](size_t size) {
 230              		.loc 2 8 1
 231 00a4 83308100 		ld	ra,8(sp)
 232              		.cfi_restore 1
 233 00a8 03340100 		ld	s0,0(sp)
 234              		.cfi_restore 8
 235              		.cfi_def_cfa 2, 16
 236 00ac 13010101 		addi	sp,sp,16
 237              		.cfi_def_cfa_offset 0
 238 00b0 67800000 		jr	ra
 239              		.cfi_endproc
 240              	.LFE46:
 242              		.align	2
 243              		.globl	_Znam
 245              	_Znam:
 246              	.LFB47:
   9:src/syscall_cpp.cpp ****     return mem_alloc(size);
 247              		.loc 2 9 36 is_stmt 1
 248              		.cfi_startproc
 249              	.LVL13:
 250 00b4 130101FF 		addi	sp,sp,-16
 251              		.cfi_def_cfa_offset 16
 252 00b8 23341100 		sd	ra,8(sp)
 253 00bc 23308100 		sd	s0,0(sp)
 254              		.cfi_offset 1, -8
 255              		.cfi_offset 8, -16
 256 00c0 13040101 		addi	s0,sp,16
 257              		.cfi_def_cfa 8, 0
  10:src/syscall_cpp.cpp **** }
 258              		.loc 2 10 5
  10:src/syscall_cpp.cpp **** }
 259              		.loc 2 10 21 is_stmt 0
 260 00c4 97000000 		call	_Z9mem_allocm@plt
 260      E7800000 
 261              	.LVL14:
  11:src/syscall_cpp.cpp **** void operator delete (void* memSegment) noexcept {
 262              		.loc 2 11 1
 263 00cc 83308100 		ld	ra,8(sp)
 264              		.cfi_restore 1
 265 00d0 03340100 		ld	s0,0(sp)
 266              		.cfi_restore 8
 267              		.cfi_def_cfa 2, 16
 268 00d4 13010101 		addi	sp,sp,16
 269              		.cfi_def_cfa_offset 0
 270 00d8 67800000 		jr	ra
 271              		.cfi_endproc
 272              	.LFE47:
 274              		.align	2
 275              		.globl	_ZdlPv
 277              	_ZdlPv:
 278              	.LFB48:
  12:src/syscall_cpp.cpp ****     mem_free(memSegment);
 279              		.loc 2 12 50 is_stmt 1
 280              		.cfi_startproc
GAS LISTING /tmp/ccWdciDI.s 			page 8


 281              		.cfi_personality 0x9b,DW.ref.__gxx_personality_v0
 282              		.cfi_lsda 0x1b,.LLSDA48
 283              	.LVL15:
 284 00dc 130101FF 		addi	sp,sp,-16
 285              		.cfi_def_cfa_offset 16
 286 00e0 23341100 		sd	ra,8(sp)
 287 00e4 23308100 		sd	s0,0(sp)
 288              		.cfi_offset 1, -8
 289              		.cfi_offset 8, -16
 290 00e8 13040101 		addi	s0,sp,16
 291              		.cfi_def_cfa 8, 0
  13:src/syscall_cpp.cpp **** }
 292              		.loc 2 13 5
  13:src/syscall_cpp.cpp **** }
 293              		.loc 2 13 13 is_stmt 0
 294 00ec 97000000 		call	_Z8mem_freePv@plt
 294      E7800000 
 295              	.LVL16:
  14:src/syscall_cpp.cpp **** void operator delete [](void* memSegment) noexcept {
 296              		.loc 2 14 1
 297 00f4 83308100 		ld	ra,8(sp)
 298              		.cfi_restore 1
 299 00f8 03340100 		ld	s0,0(sp)
 300              		.cfi_restore 8
 301              		.cfi_def_cfa 2, 16
 302 00fc 13010101 		addi	sp,sp,16
 303              		.cfi_def_cfa_offset 0
 304 0100 67800000 		jr	ra
 305              		.cfi_endproc
 306              	.LFE48:
 307              		.section	.gcc_except_table
 308              	.LLSDA48:
 309 0008 FF       		.byte	0xff
 310 0009 FF       		.byte	0xff
 311 000a 03       		.byte	0x3
 312 000b 00       		.byte	0
 313              		.text
 315              		.align	2
 316              		.globl	_Z13threadWrapperPv
 318              	_Z13threadWrapperPv:
 319              	.LFB64:
  55:src/syscall_cpp.cpp ****     threadArg *tArg = (threadArg*)thread;
 320              		.loc 2 55 34 is_stmt 1
 321              		.cfi_startproc
 322              	.LVL17:
 323 0104 130101FE 		addi	sp,sp,-32
 324              		.cfi_def_cfa_offset 32
 325 0108 233C1100 		sd	ra,24(sp)
 326 010c 23388100 		sd	s0,16(sp)
 327 0110 23349100 		sd	s1,8(sp)
 328              		.cfi_offset 1, -8
 329              		.cfi_offset 8, -16
 330              		.cfi_offset 9, -24
 331 0114 13040102 		addi	s0,sp,32
 332              		.cfi_def_cfa 8, 0
 333 0118 93040500 		mv	s1,a0
  56:src/syscall_cpp.cpp ****     (((Thread*)tArg->thread)->*(tArg->run))();
GAS LISTING /tmp/ccWdciDI.s 			page 9


 334              		.loc 2 56 5
 335              	.LVL18:
  57:src/syscall_cpp.cpp ****     delete tArg;
 336              		.loc 2 57 5
  57:src/syscall_cpp.cpp ****     delete tArg;
 337              		.loc 2 57 22 is_stmt 0
 338 011c 03350500 		ld	a0,0(a0)
 339              	.LVL19:
  57:src/syscall_cpp.cpp ****     delete tArg;
 340              		.loc 2 57 45
 341 0120 83B70401 		ld	a5,16(s1)
  57:src/syscall_cpp.cpp ****     delete tArg;
 342              		.loc 2 57 44
 343 0124 3305F500 		add	a0,a0,a5
  57:src/syscall_cpp.cpp ****     delete tArg;
 344              		.loc 2 57 45
 345 0128 83B78400 		ld	a5,8(s1)
 346 012c 13F71700 		andi	a4,a5,1
 347 0130 63080700 		beqz	a4,.L19
  57:src/syscall_cpp.cpp ****     delete tArg;
 348              		.loc 2 57 45 discriminator 1
 349 0134 03370500 		ld	a4,0(a0)
 350 0138 B307F700 		add	a5,a4,a5
 351 013c 83B7F7FF 		ld	a5,-1(a5)
 352              	.L19:
  57:src/syscall_cpp.cpp ****     delete tArg;
 353              		.loc 2 57 44 discriminator 4
 354 0140 E7800700 		jalr	a5
 355              	.LVL20:
  58:src/syscall_cpp.cpp **** }
 356              		.loc 2 58 5 is_stmt 1 discriminator 4
  58:src/syscall_cpp.cpp **** }
 357              		.loc 2 58 16 is_stmt 0 discriminator 4
 358 0144 63880400 		beqz	s1,.L18
  58:src/syscall_cpp.cpp **** }
 359              		.loc 2 58 12 discriminator 1
 360 0148 13850400 		mv	a0,s1
 361 014c 97000000 		call	_ZdlPv
 361      E7800000 
 362              	.LVL21:
 363              	.L18:
  59:src/syscall_cpp.cpp **** 
 364              		.loc 2 59 1
 365 0154 83308101 		ld	ra,24(sp)
 366              		.cfi_restore 1
 367 0158 03340101 		ld	s0,16(sp)
 368              		.cfi_restore 8
 369              		.cfi_def_cfa 2, 32
 370 015c 83348100 		ld	s1,8(sp)
 371              		.cfi_restore 9
 372              	.LVL22:
 373 0160 13010102 		addi	sp,sp,32
 374              		.cfi_def_cfa_offset 0
 375 0164 67800000 		jr	ra
 376              		.cfi_endproc
 377              	.LFE64:
 379              		.align	2
GAS LISTING /tmp/ccWdciDI.s 			page 10


 380              		.globl	_ZdaPv
 382              	_ZdaPv:
 383              	.LFB49:
  15:src/syscall_cpp.cpp ****     mem_free(memSegment);
 384              		.loc 2 15 52 is_stmt 1
 385              		.cfi_startproc
 386              		.cfi_personality 0x9b,DW.ref.__gxx_personality_v0
 387              		.cfi_lsda 0x1b,.LLSDA49
 388              	.LVL23:
 389 0168 130101FF 		addi	sp,sp,-16
 390              		.cfi_def_cfa_offset 16
 391 016c 23341100 		sd	ra,8(sp)
 392 0170 23308100 		sd	s0,0(sp)
 393              		.cfi_offset 1, -8
 394              		.cfi_offset 8, -16
 395 0174 13040101 		addi	s0,sp,16
 396              		.cfi_def_cfa 8, 0
  16:src/syscall_cpp.cpp **** }
 397              		.loc 2 16 5
  16:src/syscall_cpp.cpp **** }
 398              		.loc 2 16 13 is_stmt 0
 399 0178 97000000 		call	_Z8mem_freePv@plt
 399      E7800000 
 400              	.LVL24:
  17:src/syscall_cpp.cpp **** 
 401              		.loc 2 17 1
 402 0180 83308100 		ld	ra,8(sp)
 403              		.cfi_restore 1
 404 0184 03340100 		ld	s0,0(sp)
 405              		.cfi_restore 8
 406              		.cfi_def_cfa 2, 16
 407 0188 13010101 		addi	sp,sp,16
 408              		.cfi_def_cfa_offset 0
 409 018c 67800000 		jr	ra
 410              		.cfi_endproc
 411              	.LFE49:
 412              		.section	.gcc_except_table
 413              	.LLSDA49:
 414 000c FF       		.byte	0xff
 415 000d FF       		.byte	0xff
 416 000e 03       		.byte	0x3
 417 000f 00       		.byte	0
 418              		.text
 420              		.align	2
 421              		.globl	_ZN6ThreadC2EPFvPvES0_
 423              	_ZN6ThreadC2EPFvPvES0_:
 424              	.LFB51:
  19:src/syscall_cpp.cpp ****     thread_create_only(&myHandle, body, arg);
 425              		.loc 2 19 1 is_stmt 1
 426              		.cfi_startproc
 427              	.LVL25:
 428 0190 130101FF 		addi	sp,sp,-16
 429              		.cfi_def_cfa_offset 16
 430 0194 23341100 		sd	ra,8(sp)
 431 0198 23308100 		sd	s0,0(sp)
 432              		.cfi_offset 1, -8
 433              		.cfi_offset 8, -16
GAS LISTING /tmp/ccWdciDI.s 			page 11


 434 019c 13040101 		addi	s0,sp,16
 435              		.cfi_def_cfa 8, 0
 436              	.LBB8:
  19:src/syscall_cpp.cpp ****     thread_create_only(&myHandle, body, arg);
 437              		.loc 2 19 47 is_stmt 0
 438 01a0 97070000 		lla	a5,_ZTV6Thread+16
 438      93870700 
 439 01a8 2330F500 		sd	a5,0(a0)
  20:src/syscall_cpp.cpp **** }
 440              		.loc 2 20 5 is_stmt 1
  20:src/syscall_cpp.cpp **** }
 441              		.loc 2 20 23 is_stmt 0
 442 01ac 13058500 		addi	a0,a0,8
 443              	.LVL26:
 444 01b0 97000000 		call	_Z18thread_create_onlyPP3PCBPFvPvES2_@plt
 444      E7800000 
 445              	.LVL27:
 446              	.LBE8:
  21:src/syscall_cpp.cpp **** 
 447              		.loc 2 21 1
 448 01b8 83308100 		ld	ra,8(sp)
 449              		.cfi_restore 1
 450 01bc 03340100 		ld	s0,0(sp)
 451              		.cfi_restore 8
 452              		.cfi_def_cfa 2, 16
 453 01c0 13010101 		addi	sp,sp,16
 454              		.cfi_def_cfa_offset 0
 455 01c4 67800000 		jr	ra
 456              		.cfi_endproc
 457              	.LFE51:
 459              		.globl	_ZN6ThreadC1EPFvPvES0_
 460              		.set	_ZN6ThreadC1EPFvPvES0_,_ZN6ThreadC2EPFvPvES0_
 461              		.align	2
 462              		.globl	_ZN6ThreadnwEm
 464              	_ZN6ThreadnwEm:
 465              	.LFB57:
  27:src/syscall_cpp.cpp ****     return MemoryAllocator::mem_alloc(size);
 466              		.loc 2 27 41 is_stmt 1
 467              		.cfi_startproc
 468              	.LVL28:
 469 01c8 130101FF 		addi	sp,sp,-16
 470              		.cfi_def_cfa_offset 16
 471 01cc 23341100 		sd	ra,8(sp)
 472 01d0 23308100 		sd	s0,0(sp)
 473              		.cfi_offset 1, -8
 474              		.cfi_offset 8, -16
 475 01d4 13040101 		addi	s0,sp,16
 476              		.cfi_def_cfa 8, 0
  28:src/syscall_cpp.cpp **** }
 477              		.loc 2 28 5
  28:src/syscall_cpp.cpp **** }
 478              		.loc 2 28 38 is_stmt 0
 479 01d8 97000000 		call	_ZN15MemoryAllocator9mem_allocEm@plt
 479      E7800000 
 480              	.LVL29:
  29:src/syscall_cpp.cpp **** 
 481              		.loc 2 29 1
GAS LISTING /tmp/ccWdciDI.s 			page 12


 482 01e0 83308100 		ld	ra,8(sp)
 483              		.cfi_restore 1
 484 01e4 03340100 		ld	s0,0(sp)
 485              		.cfi_restore 8
 486              		.cfi_def_cfa 2, 16
 487 01e8 13010101 		addi	sp,sp,16
 488              		.cfi_def_cfa_offset 0
 489 01ec 67800000 		jr	ra
 490              		.cfi_endproc
 491              	.LFE57:
 493              		.align	2
 494              		.globl	_ZN6ThreaddlEPv
 496              	_ZN6ThreaddlEPv:
 497              	.LFB58:
  31:src/syscall_cpp.cpp ****     MemoryAllocator::mem_free(memSegment);
 498              		.loc 2 31 48 is_stmt 1
 499              		.cfi_startproc
 500              	.LVL30:
 501 01f0 130101FF 		addi	sp,sp,-16
 502              		.cfi_def_cfa_offset 16
 503 01f4 23341100 		sd	ra,8(sp)
 504 01f8 23308100 		sd	s0,0(sp)
 505              		.cfi_offset 1, -8
 506              		.cfi_offset 8, -16
 507 01fc 13040101 		addi	s0,sp,16
 508              		.cfi_def_cfa 8, 0
  32:src/syscall_cpp.cpp **** }
 509              		.loc 2 32 5
  32:src/syscall_cpp.cpp **** }
 510              		.loc 2 32 30 is_stmt 0
 511 0200 97000000 		call	_ZN15MemoryAllocator8mem_freeEPv@plt
 511      E7800000 
 512              	.LVL31:
  33:src/syscall_cpp.cpp **** 
 513              		.loc 2 33 1
 514 0208 83308100 		ld	ra,8(sp)
 515              		.cfi_restore 1
 516 020c 03340100 		ld	s0,0(sp)
 517              		.cfi_restore 8
 518              		.cfi_def_cfa 2, 16
 519 0210 13010101 		addi	sp,sp,16
 520              		.cfi_def_cfa_offset 0
 521 0214 67800000 		jr	ra
 522              		.cfi_endproc
 523              	.LFE58:
 525              		.align	2
 526              		.globl	_ZN6ThreadD0Ev
 528              	_ZN6ThreadD0Ev:
 529              	.LFB56:
  23:src/syscall_cpp.cpp ****     delete myHandle;
 530              		.loc 2 23 1 is_stmt 1
 531              		.cfi_startproc
 532              	.LVL32:
 533 0218 130101FE 		addi	sp,sp,-32
 534              		.cfi_def_cfa_offset 32
 535 021c 233C1100 		sd	ra,24(sp)
 536 0220 23388100 		sd	s0,16(sp)
GAS LISTING /tmp/ccWdciDI.s 			page 13


 537 0224 23349100 		sd	s1,8(sp)
 538              		.cfi_offset 1, -8
 539              		.cfi_offset 8, -16
 540              		.cfi_offset 9, -24
 541 0228 13040102 		addi	s0,sp,32
 542              		.cfi_def_cfa 8, 0
 543 022c 93040500 		mv	s1,a0
  25:src/syscall_cpp.cpp **** 
 544              		.loc 2 25 1 is_stmt 0
 545 0230 97000000 		call	_ZN6ThreadD1Ev
 545      E7800000 
 546              	.LVL33:
 547 0238 13850400 		mv	a0,s1
 548 023c 97000000 		call	_ZN6ThreaddlEPv
 548      E7800000 
 549              	.LVL34:
 550 0244 83308101 		ld	ra,24(sp)
 551              		.cfi_restore 1
 552 0248 03340101 		ld	s0,16(sp)
 553              		.cfi_restore 8
 554              		.cfi_def_cfa 2, 32
 555 024c 83348100 		ld	s1,8(sp)
 556              		.cfi_restore 9
 557              	.LVL35:
 558 0250 13010102 		addi	sp,sp,32
 559              		.cfi_def_cfa_offset 0
 560 0254 67800000 		jr	ra
 561              		.cfi_endproc
 562              	.LFE56:
 564              		.section	.text._ZN14PeriodicThreadD0Ev,"axG",@progbits,_ZN14PeriodicThreadD5Ev,comdat
 565              		.align	2
 566              		.weak	_ZN14PeriodicThreadD0Ev
 568              	_ZN14PeriodicThreadD0Ev:
 569              	.LFB86:
  40:src/../h/syscall_cpp.hpp **** protected:
 570              		.loc 1 40 7 is_stmt 1
 571              		.cfi_startproc
 572              	.LVL36:
 573 0000 130101FE 		addi	sp,sp,-32
 574              		.cfi_def_cfa_offset 32
 575 0004 233C1100 		sd	ra,24(sp)
 576 0008 23388100 		sd	s0,16(sp)
 577 000c 23349100 		sd	s1,8(sp)
 578              		.cfi_offset 1, -8
 579              		.cfi_offset 8, -16
 580              		.cfi_offset 9, -24
 581 0010 13040102 		addi	s0,sp,32
 582              		.cfi_def_cfa 8, 0
 583 0014 93040500 		mv	s1,a0
 584              	.LVL37:
 585              	.LBB9:
 586              	.LBB10:
  40:src/../h/syscall_cpp.hpp **** protected:
 587              		.loc 1 40 7 is_stmt 0
 588 0018 97070000 		lla	a5,_ZTV14PeriodicThread+16
 588      93870700 
 589 0020 2330F500 		sd	a5,0(a0)
GAS LISTING /tmp/ccWdciDI.s 			page 14


 590 0024 97000000 		call	_ZN6ThreadD2Ev
 590      E7800000 
 591              	.LVL38:
 592              	.LBE10:
 593              	.LBE9:
 594 002c 13850400 		mv	a0,s1
 595 0030 97000000 		call	_ZN6ThreaddlEPv
 595      E7800000 
 596              	.LVL39:
 597 0038 83308101 		ld	ra,24(sp)
 598              		.cfi_restore 1
 599 003c 03340101 		ld	s0,16(sp)
 600              		.cfi_restore 8
 601              		.cfi_def_cfa 2, 32
 602 0040 83348100 		ld	s1,8(sp)
 603              		.cfi_restore 9
 604              	.LVL40:
 605 0044 13010102 		addi	sp,sp,32
 606              		.cfi_def_cfa_offset 0
 607 0048 67800000 		jr	ra
 608              		.cfi_endproc
 609              	.LFE86:
 611              		.text
 612              		.align	2
 613              		.globl	_ZN6Thread8dispatchEv
 615              	_ZN6Thread8dispatchEv:
 616              	.LFB59:
  35:src/syscall_cpp.cpp ****     thread_dispatch();
 617              		.loc 2 35 25 is_stmt 1
 618              		.cfi_startproc
 619 0258 130101FF 		addi	sp,sp,-16
 620              		.cfi_def_cfa_offset 16
 621 025c 23341100 		sd	ra,8(sp)
 622 0260 23308100 		sd	s0,0(sp)
 623              		.cfi_offset 1, -8
 624              		.cfi_offset 8, -16
 625 0264 13040101 		addi	s0,sp,16
 626              		.cfi_def_cfa 8, 0
  36:src/syscall_cpp.cpp **** }
 627              		.loc 2 36 5
  36:src/syscall_cpp.cpp **** }
 628              		.loc 2 36 20 is_stmt 0
 629 0268 97000000 		call	_Z15thread_dispatchv@plt
 629      E7800000 
 630              	.LVL41:
  37:src/syscall_cpp.cpp **** 
 631              		.loc 2 37 1
 632 0270 83308100 		ld	ra,8(sp)
 633              		.cfi_restore 1
 634 0274 03340100 		ld	s0,0(sp)
 635              		.cfi_restore 8
 636              		.cfi_def_cfa 2, 16
 637 0278 13010101 		addi	sp,sp,16
 638              		.cfi_def_cfa_offset 0
 639 027c 67800000 		jr	ra
 640              		.cfi_endproc
 641              	.LFE59:
GAS LISTING /tmp/ccWdciDI.s 			page 15


 643              		.align	2
 644              		.globl	_ZN6Thread5startEv
 646              	_ZN6Thread5startEv:
 647              	.LFB60:
  39:src/syscall_cpp.cpp ****     thread_start(&myHandle);
 648              		.loc 2 39 21 is_stmt 1
 649              		.cfi_startproc
 650              	.LVL42:
 651 0280 130101FF 		addi	sp,sp,-16
 652              		.cfi_def_cfa_offset 16
 653 0284 23341100 		sd	ra,8(sp)
 654 0288 23308100 		sd	s0,0(sp)
 655              		.cfi_offset 1, -8
 656              		.cfi_offset 8, -16
 657 028c 13040101 		addi	s0,sp,16
 658              		.cfi_def_cfa 8, 0
  40:src/syscall_cpp.cpp ****     return 0;
 659              		.loc 2 40 5
  40:src/syscall_cpp.cpp ****     return 0;
 660              		.loc 2 40 17 is_stmt 0
 661 0290 13058500 		addi	a0,a0,8
 662              	.LVL43:
 663 0294 97000000 		call	_Z12thread_startPP3PCB@plt
 663      E7800000 
 664              	.LVL44:
  41:src/syscall_cpp.cpp **** }
 665              		.loc 2 41 5 is_stmt 1
  42:src/syscall_cpp.cpp **** 
 666              		.loc 2 42 1 is_stmt 0
 667 029c 13050000 		li	a0,0
 668 02a0 83308100 		ld	ra,8(sp)
 669              		.cfi_restore 1
 670 02a4 03340100 		ld	s0,0(sp)
 671              		.cfi_restore 8
 672              		.cfi_def_cfa 2, 16
 673 02a8 13010101 		addi	sp,sp,16
 674              		.cfi_def_cfa_offset 0
 675 02ac 67800000 		jr	ra
 676              		.cfi_endproc
 677              	.LFE60:
 679              		.align	2
 680              		.globl	_ZN6ThreadC2Ev
 682              	_ZN6ThreadC2Ev:
 683              	.LFB62:
  50:src/syscall_cpp.cpp ****     threadArg* tArg = new threadArg{this, &Thread::run}; // oslobodice se u destruktoru PCB-a
 684              		.loc 2 50 1 is_stmt 1
 685              		.cfi_startproc
 686              	.LVL45:
 687 02b0 130101FE 		addi	sp,sp,-32
 688              		.cfi_def_cfa_offset 32
 689 02b4 233C1100 		sd	ra,24(sp)
 690 02b8 23388100 		sd	s0,16(sp)
 691 02bc 23349100 		sd	s1,8(sp)
 692              		.cfi_offset 1, -8
 693              		.cfi_offset 8, -16
 694              		.cfi_offset 9, -24
 695 02c0 13040102 		addi	s0,sp,32
GAS LISTING /tmp/ccWdciDI.s 			page 16


 696              		.cfi_def_cfa 8, 0
 697 02c4 93040500 		mv	s1,a0
 698              	.LBB11:
  50:src/syscall_cpp.cpp ****     threadArg* tArg = new threadArg{this, &Thread::run}; // oslobodice se u destruktoru PCB-a
 699              		.loc 2 50 16 is_stmt 0
 700 02c8 97070000 		lla	a5,_ZTV6Thread+16
 700      93870700 
 701 02d0 2330F500 		sd	a5,0(a0)
 702              	.LBB12:
  51:src/syscall_cpp.cpp ****     thread_create_only(&myHandle, threadWrapper, tArg);
 703              		.loc 2 51 5 is_stmt 1
  51:src/syscall_cpp.cpp ****     thread_create_only(&myHandle, threadWrapper, tArg);
 704              		.loc 2 51 55 is_stmt 0
 705 02d4 13058001 		li	a0,24
 706              	.LVL46:
 707 02d8 97000000 		call	_Znwm
 707      E7800000 
 708              	.LVL47:
 709 02e0 13060500 		mv	a2,a0
 710 02e4 23309500 		sd	s1,0(a0)
 711 02e8 93071001 		li	a5,17
 712 02ec 2334F500 		sd	a5,8(a0)
 713 02f0 23380500 		sd	zero,16(a0)
 714              	.LVL48:
  52:src/syscall_cpp.cpp **** }
 715              		.loc 2 52 5 is_stmt 1
  52:src/syscall_cpp.cpp **** }
 716              		.loc 2 52 23 is_stmt 0
 717 02f4 97050000 		lla	a1,_Z13threadWrapperPv
 717      93850500 
 718 02fc 13858400 		addi	a0,s1,8
 719              	.LVL49:
 720 0300 97000000 		call	_Z18thread_create_onlyPP3PCBPFvPvES2_@plt
 720      E7800000 
 721              	.LVL50:
 722              	.LBE12:
 723              	.LBE11:
  53:src/syscall_cpp.cpp **** 
 724              		.loc 2 53 1
 725 0308 83308101 		ld	ra,24(sp)
 726              		.cfi_restore 1
 727 030c 03340101 		ld	s0,16(sp)
 728              		.cfi_restore 8
 729              		.cfi_def_cfa 2, 32
 730 0310 83348100 		ld	s1,8(sp)
 731              		.cfi_restore 9
 732              	.LVL51:
 733 0314 13010102 		addi	sp,sp,32
 734              		.cfi_def_cfa_offset 0
 735 0318 67800000 		jr	ra
 736              		.cfi_endproc
 737              	.LFE62:
 739              		.globl	_ZN6ThreadC1Ev
 740              		.set	_ZN6ThreadC1Ev,_ZN6ThreadC2Ev
 741              		.align	2
 742              		.globl	_ZN6Thread5sleepEm
 744              	_ZN6Thread5sleepEm:
GAS LISTING /tmp/ccWdciDI.s 			page 17


 745              	.LFB65:
  61:src/syscall_cpp.cpp ****     return time_sleep(time);
 746              		.loc 2 61 32 is_stmt 1
 747              		.cfi_startproc
 748              	.LVL52:
 749 031c 130101FF 		addi	sp,sp,-16
 750              		.cfi_def_cfa_offset 16
 751 0320 23341100 		sd	ra,8(sp)
 752 0324 23308100 		sd	s0,0(sp)
 753              		.cfi_offset 1, -8
 754              		.cfi_offset 8, -16
 755 0328 13040101 		addi	s0,sp,16
 756              		.cfi_def_cfa 8, 0
  62:src/syscall_cpp.cpp **** }
 757              		.loc 2 62 5
  62:src/syscall_cpp.cpp **** }
 758              		.loc 2 62 22 is_stmt 0
 759 032c 97000000 		call	_Z10time_sleepm@plt
 759      E7800000 
 760              	.LVL53:
  63:src/syscall_cpp.cpp **** 
 761              		.loc 2 63 1
 762 0334 83308100 		ld	ra,8(sp)
 763              		.cfi_restore 1
 764 0338 03340100 		ld	s0,0(sp)
 765              		.cfi_restore 8
 766              		.cfi_def_cfa 2, 16
 767 033c 13010101 		addi	sp,sp,16
 768              		.cfi_def_cfa_offset 0
 769 0340 67800000 		jr	ra
 770              		.cfi_endproc
 771              	.LFE65:
 773              		.align	2
 774              		.globl	_Z21periodicThreadWrapperPv
 776              	_Z21periodicThreadWrapperPv:
 777              	.LFB77:
  72:src/syscall_cpp.cpp **** 
  73:src/syscall_cpp.cpp **** int Semaphore::wait() {
  74:src/syscall_cpp.cpp ****     return sem_wait(myHandle);
  75:src/syscall_cpp.cpp **** }
  76:src/syscall_cpp.cpp **** 
  77:src/syscall_cpp.cpp **** int Semaphore::signal() {
  78:src/syscall_cpp.cpp ****     return sem_signal(myHandle);
  79:src/syscall_cpp.cpp **** }
  80:src/syscall_cpp.cpp **** 
  81:src/syscall_cpp.cpp **** void Semaphore::operator delete(void *memSegment) {
  82:src/syscall_cpp.cpp ****     MemoryAllocator::mem_free(memSegment);
  83:src/syscall_cpp.cpp **** }
  84:src/syscall_cpp.cpp **** 
  85:src/syscall_cpp.cpp **** void *Semaphore::operator new(size_t size) {
  86:src/syscall_cpp.cpp ****     return MemoryAllocator::mem_alloc(size);
  87:src/syscall_cpp.cpp **** }
  88:src/syscall_cpp.cpp **** 
  89:src/syscall_cpp.cpp **** struct periodicThreadArg {
  90:src/syscall_cpp.cpp ****     void* periodicThread;
  91:src/syscall_cpp.cpp ****     void (PeriodicThread::*periodicActivation)();
  92:src/syscall_cpp.cpp ****     time_t period;
GAS LISTING /tmp/ccWdciDI.s 			page 18


  93:src/syscall_cpp.cpp **** };
  94:src/syscall_cpp.cpp **** 
  95:src/syscall_cpp.cpp **** void periodicThreadWrapper(void* periodicThread) {
 778              		.loc 2 95 50 is_stmt 1
 779              		.cfi_startproc
 780              	.LVL54:
 781 0344 130101FE 		addi	sp,sp,-32
 782              		.cfi_def_cfa_offset 32
 783 0348 233C1100 		sd	ra,24(sp)
 784 034c 23388100 		sd	s0,16(sp)
 785 0350 23349100 		sd	s1,8(sp)
 786              		.cfi_offset 1, -8
 787              		.cfi_offset 8, -16
 788              		.cfi_offset 9, -24
 789 0354 13040102 		addi	s0,sp,32
 790              		.cfi_def_cfa 8, 0
 791 0358 93040500 		mv	s1,a0
  96:src/syscall_cpp.cpp ****     periodicThreadArg *pArg = (periodicThreadArg*)periodicThread;
 792              		.loc 2 96 5
 793              	.LVL55:
 794 035c 6F000002 		j	.L44
 795              	.LVL56:
 796              	.L46:
  97:src/syscall_cpp.cpp ****     while(true) {
  98:src/syscall_cpp.cpp ****         (((PeriodicThread*)pArg->periodicThread)->*((pArg->periodicActivation)))();
 797              		.loc 2 98 82 is_stmt 0 discriminator 1
 798 0360 03370500 		ld	a4,0(a0)
 799 0364 B307F700 		add	a5,a4,a5
 800 0368 83B7F7FF 		ld	a5,-1(a5)
 801              	.L43:
 802              		.loc 2 98 81 discriminator 4
 803 036c E7800700 		jalr	a5
 804              	.LVL57:
  99:src/syscall_cpp.cpp ****         Thread::sleep(pArg->period);
 805              		.loc 2 99 9 is_stmt 1 discriminator 4
 806              		.loc 2 99 22 is_stmt 0 discriminator 4
 807 0370 03B58401 		ld	a0,24(s1)
 808 0374 97000000 		call	_ZN6Thread5sleepEm
 808      E7800000 
 809              	.LVL58:
  97:src/syscall_cpp.cpp ****     while(true) {
 810              		.loc 2 97 5 is_stmt 1 discriminator 4
 811              	.L44:
  97:src/syscall_cpp.cpp ****     while(true) {
 812              		.loc 2 97 5
  98:src/syscall_cpp.cpp ****         Thread::sleep(pArg->period);
 813              		.loc 2 98 9
  98:src/syscall_cpp.cpp ****         Thread::sleep(pArg->period);
 814              		.loc 2 98 34 is_stmt 0
 815 037c 03B50400 		ld	a0,0(s1)
  98:src/syscall_cpp.cpp ****         Thread::sleep(pArg->period);
 816              		.loc 2 98 82
 817 0380 83B70401 		ld	a5,16(s1)
  98:src/syscall_cpp.cpp ****         Thread::sleep(pArg->period);
 818              		.loc 2 98 81
 819 0384 3305F500 		add	a0,a0,a5
  98:src/syscall_cpp.cpp ****         Thread::sleep(pArg->period);
GAS LISTING /tmp/ccWdciDI.s 			page 19


 820              		.loc 2 98 82
 821 0388 83B78400 		ld	a5,8(s1)
 822 038c 13F71700 		andi	a4,a5,1
 823 0390 E30E07FC 		beqz	a4,.L43
 824 0394 6FF0DFFC 		j	.L46
 825              		.cfi_endproc
 826              	.LFE77:
 828              		.align	2
 829              		.globl	_ZN9SemaphoreC2Ej
 831              	_ZN9SemaphoreC2Ej:
 832              	.LFB67:
  65:src/syscall_cpp.cpp ****     myHandle = SCB::createSemaphore(init);
 833              		.loc 2 65 1 is_stmt 1
 834              		.cfi_startproc
 835              	.LVL59:
 836 0398 130101FE 		addi	sp,sp,-32
 837              		.cfi_def_cfa_offset 32
 838 039c 233C1100 		sd	ra,24(sp)
 839 03a0 23388100 		sd	s0,16(sp)
 840 03a4 23349100 		sd	s1,8(sp)
 841              		.cfi_offset 1, -8
 842              		.cfi_offset 8, -16
 843              		.cfi_offset 9, -24
 844 03a8 13040102 		addi	s0,sp,32
 845              		.cfi_def_cfa 8, 0
 846 03ac 93040500 		mv	s1,a0
 847              	.LBB13:
  65:src/syscall_cpp.cpp ****     myHandle = SCB::createSemaphore(init);
 848              		.loc 2 65 39 is_stmt 0
 849 03b0 97070000 		lla	a5,_ZTV9Semaphore+16
 849      93870700 
 850 03b8 2330F500 		sd	a5,0(a0)
  66:src/syscall_cpp.cpp **** }
 851              		.loc 2 66 5 is_stmt 1
  66:src/syscall_cpp.cpp **** }
 852              		.loc 2 66 36 is_stmt 0
 853 03bc 13850500 		mv	a0,a1
 854              	.LVL60:
 855 03c0 97000000 		call	_ZN3SCB15createSemaphoreEi@plt
 855      E7800000 
 856              	.LVL61:
  66:src/syscall_cpp.cpp **** }
 857              		.loc 2 66 14
 858 03c8 23B4A400 		sd	a0,8(s1)
 859              	.LBE13:
  67:src/syscall_cpp.cpp **** 
 860              		.loc 2 67 1
 861 03cc 83308101 		ld	ra,24(sp)
 862              		.cfi_restore 1
 863 03d0 03340101 		ld	s0,16(sp)
 864              		.cfi_restore 8
 865              		.cfi_def_cfa 2, 32
 866 03d4 83348100 		ld	s1,8(sp)
 867              		.cfi_restore 9
 868              	.LVL62:
 869 03d8 13010102 		addi	sp,sp,32
 870              		.cfi_def_cfa_offset 0
GAS LISTING /tmp/ccWdciDI.s 			page 20


 871 03dc 67800000 		jr	ra
 872              		.cfi_endproc
 873              	.LFE67:
 875              		.globl	_ZN9SemaphoreC1Ej
 876              		.set	_ZN9SemaphoreC1Ej,_ZN9SemaphoreC2Ej
 877              		.align	2
 878              		.globl	_ZN9Semaphore4waitEv
 880              	_ZN9Semaphore4waitEv:
 881              	.LFB73:
  73:src/syscall_cpp.cpp ****     return sem_wait(myHandle);
 882              		.loc 2 73 23 is_stmt 1
 883              		.cfi_startproc
 884              	.LVL63:
 885 03e0 130101FF 		addi	sp,sp,-16
 886              		.cfi_def_cfa_offset 16
 887 03e4 23341100 		sd	ra,8(sp)
 888 03e8 23308100 		sd	s0,0(sp)
 889              		.cfi_offset 1, -8
 890              		.cfi_offset 8, -16
 891 03ec 13040101 		addi	s0,sp,16
 892              		.cfi_def_cfa 8, 0
  74:src/syscall_cpp.cpp **** }
 893              		.loc 2 74 5
  74:src/syscall_cpp.cpp **** }
 894              		.loc 2 74 20 is_stmt 0
 895 03f0 03358500 		ld	a0,8(a0)
 896              	.LVL64:
 897 03f4 97000000 		call	_Z8sem_waitP3SCB@plt
 897      E7800000 
 898              	.LVL65:
  75:src/syscall_cpp.cpp **** 
 899              		.loc 2 75 1
 900 03fc 83308100 		ld	ra,8(sp)
 901              		.cfi_restore 1
 902 0400 03340100 		ld	s0,0(sp)
 903              		.cfi_restore 8
 904              		.cfi_def_cfa 2, 16
 905 0404 13010101 		addi	sp,sp,16
 906              		.cfi_def_cfa_offset 0
 907 0408 67800000 		jr	ra
 908              		.cfi_endproc
 909              	.LFE73:
 911              		.align	2
 912              		.globl	_ZN9Semaphore6signalEv
 914              	_ZN9Semaphore6signalEv:
 915              	.LFB74:
  77:src/syscall_cpp.cpp ****     return sem_signal(myHandle);
 916              		.loc 2 77 25 is_stmt 1
 917              		.cfi_startproc
 918              	.LVL66:
 919 040c 130101FF 		addi	sp,sp,-16
 920              		.cfi_def_cfa_offset 16
 921 0410 23341100 		sd	ra,8(sp)
 922 0414 23308100 		sd	s0,0(sp)
 923              		.cfi_offset 1, -8
 924              		.cfi_offset 8, -16
 925 0418 13040101 		addi	s0,sp,16
GAS LISTING /tmp/ccWdciDI.s 			page 21


 926              		.cfi_def_cfa 8, 0
  78:src/syscall_cpp.cpp **** }
 927              		.loc 2 78 5
  78:src/syscall_cpp.cpp **** }
 928              		.loc 2 78 22 is_stmt 0
 929 041c 03358500 		ld	a0,8(a0)
 930              	.LVL67:
 931 0420 97000000 		call	_Z10sem_signalP3SCB@plt
 931      E7800000 
 932              	.LVL68:
  79:src/syscall_cpp.cpp **** 
 933              		.loc 2 79 1
 934 0428 83308100 		ld	ra,8(sp)
 935              		.cfi_restore 1
 936 042c 03340100 		ld	s0,0(sp)
 937              		.cfi_restore 8
 938              		.cfi_def_cfa 2, 16
 939 0430 13010101 		addi	sp,sp,16
 940              		.cfi_def_cfa_offset 0
 941 0434 67800000 		jr	ra
 942              		.cfi_endproc
 943              	.LFE74:
 945              		.align	2
 946              		.globl	_ZN9SemaphoredlEPv
 948              	_ZN9SemaphoredlEPv:
 949              	.LFB75:
  81:src/syscall_cpp.cpp ****     MemoryAllocator::mem_free(memSegment);
 950              		.loc 2 81 51 is_stmt 1
 951              		.cfi_startproc
 952              	.LVL69:
 953 0438 130101FF 		addi	sp,sp,-16
 954              		.cfi_def_cfa_offset 16
 955 043c 23341100 		sd	ra,8(sp)
 956 0440 23308100 		sd	s0,0(sp)
 957              		.cfi_offset 1, -8
 958              		.cfi_offset 8, -16
 959 0444 13040101 		addi	s0,sp,16
 960              		.cfi_def_cfa 8, 0
  82:src/syscall_cpp.cpp **** }
 961              		.loc 2 82 5
  82:src/syscall_cpp.cpp **** }
 962              		.loc 2 82 30 is_stmt 0
 963 0448 97000000 		call	_ZN15MemoryAllocator8mem_freeEPv@plt
 963      E7800000 
 964              	.LVL70:
  83:src/syscall_cpp.cpp **** 
 965              		.loc 2 83 1
 966 0450 83308100 		ld	ra,8(sp)
 967              		.cfi_restore 1
 968 0454 03340100 		ld	s0,0(sp)
 969              		.cfi_restore 8
 970              		.cfi_def_cfa 2, 16
 971 0458 13010101 		addi	sp,sp,16
 972              		.cfi_def_cfa_offset 0
 973 045c 67800000 		jr	ra
 974              		.cfi_endproc
 975              	.LFE75:
GAS LISTING /tmp/ccWdciDI.s 			page 22


 977              		.align	2
 978              		.globl	_ZN9SemaphoreD0Ev
 980              	_ZN9SemaphoreD0Ev:
 981              	.LFB72:
  69:src/syscall_cpp.cpp ****     sem_close(myHandle);
 982              		.loc 2 69 1 is_stmt 1
 983              		.cfi_startproc
 984              	.LVL71:
 985 0460 130101FE 		addi	sp,sp,-32
 986              		.cfi_def_cfa_offset 32
 987 0464 233C1100 		sd	ra,24(sp)
 988 0468 23388100 		sd	s0,16(sp)
 989 046c 23349100 		sd	s1,8(sp)
 990              		.cfi_offset 1, -8
 991              		.cfi_offset 8, -16
 992              		.cfi_offset 9, -24
 993 0470 13040102 		addi	s0,sp,32
 994              		.cfi_def_cfa 8, 0
 995 0474 93040500 		mv	s1,a0
  71:src/syscall_cpp.cpp **** 
 996              		.loc 2 71 1 is_stmt 0
 997 0478 97000000 		call	_ZN9SemaphoreD1Ev
 997      E7800000 
 998              	.LVL72:
 999 0480 13850400 		mv	a0,s1
 1000 0484 97000000 		call	_ZN9SemaphoredlEPv
 1000      E7800000 
 1001              	.LVL73:
 1002 048c 83308101 		ld	ra,24(sp)
 1003              		.cfi_restore 1
 1004 0490 03340101 		ld	s0,16(sp)
 1005              		.cfi_restore 8
 1006              		.cfi_def_cfa 2, 32
 1007 0494 83348100 		ld	s1,8(sp)
 1008              		.cfi_restore 9
 1009              	.LVL74:
 1010 0498 13010102 		addi	sp,sp,32
 1011              		.cfi_def_cfa_offset 0
 1012 049c 67800000 		jr	ra
 1013              		.cfi_endproc
 1014              	.LFE72:
 1016              		.align	2
 1017              		.globl	_ZN9SemaphorenwEm
 1019              	_ZN9SemaphorenwEm:
 1020              	.LFB76:
  85:src/syscall_cpp.cpp ****     return MemoryAllocator::mem_alloc(size);
 1021              		.loc 2 85 44 is_stmt 1
 1022              		.cfi_startproc
 1023              	.LVL75:
 1024 04a0 130101FF 		addi	sp,sp,-16
 1025              		.cfi_def_cfa_offset 16
 1026 04a4 23341100 		sd	ra,8(sp)
 1027 04a8 23308100 		sd	s0,0(sp)
 1028              		.cfi_offset 1, -8
 1029              		.cfi_offset 8, -16
 1030 04ac 13040101 		addi	s0,sp,16
 1031              		.cfi_def_cfa 8, 0
GAS LISTING /tmp/ccWdciDI.s 			page 23


  86:src/syscall_cpp.cpp **** }
 1032              		.loc 2 86 5
  86:src/syscall_cpp.cpp **** }
 1033              		.loc 2 86 38 is_stmt 0
 1034 04b0 97000000 		call	_ZN15MemoryAllocator9mem_allocEm@plt
 1034      E7800000 
 1035              	.LVL76:
  87:src/syscall_cpp.cpp **** 
 1036              		.loc 2 87 1
 1037 04b8 83308100 		ld	ra,8(sp)
 1038              		.cfi_restore 1
 1039 04bc 03340100 		ld	s0,0(sp)
 1040              		.cfi_restore 8
 1041              		.cfi_def_cfa 2, 16
 1042 04c0 13010101 		addi	sp,sp,16
 1043              		.cfi_def_cfa_offset 0
 1044 04c4 67800000 		jr	ra
 1045              		.cfi_endproc
 1046              	.LFE76:
 1048              		.align	2
 1049              		.globl	_ZN14PeriodicThreadC2Em
 1051              	_ZN14PeriodicThreadC2Em:
 1052              	.LFB79:
 100:src/syscall_cpp.cpp ****     }
 101:src/syscall_cpp.cpp ****     delete pArg;
 102:src/syscall_cpp.cpp **** }
 103:src/syscall_cpp.cpp **** 
 104:src/syscall_cpp.cpp **** PeriodicThread::PeriodicThread(time_t period)
 1053              		.loc 2 104 1 is_stmt 1
 1054              		.cfi_startproc
 1055              	.LVL77:
 1056 04c8 130101FE 		addi	sp,sp,-32
 1057              		.cfi_def_cfa_offset 32
 1058 04cc 233C1100 		sd	ra,24(sp)
 1059 04d0 23388100 		sd	s0,16(sp)
 1060 04d4 23349100 		sd	s1,8(sp)
 1061 04d8 23302101 		sd	s2,0(sp)
 1062              		.cfi_offset 1, -8
 1063              		.cfi_offset 8, -16
 1064              		.cfi_offset 9, -24
 1065              		.cfi_offset 18, -32
 1066 04dc 13040102 		addi	s0,sp,32
 1067              		.cfi_def_cfa 8, 0
 1068 04e0 93040500 		mv	s1,a0
 1069 04e4 13890500 		mv	s2,a1
 1070              	.LBB14:
 105:src/syscall_cpp.cpp **** : Thread(periodicThreadWrapper, new periodicThreadArg {this, &PeriodicThread::periodicActivation, p
 1071              		.loc 2 105 105 is_stmt 0
 1072 04e8 13050002 		li	a0,32
 1073              	.LVL78:
 1074 04ec 97000000 		call	_Znwm
 1074      E7800000 
 1075              	.LVL79:
 1076 04f4 13060500 		mv	a2,a0
 1077 04f8 23309500 		sd	s1,0(a0)
 1078 04fc 93079001 		li	a5,25
 1079 0500 2334F500 		sd	a5,8(a0)
GAS LISTING /tmp/ccWdciDI.s 			page 24


 1080 0504 23380500 		sd	zero,16(a0)
 1081 0508 233C2501 		sd	s2,24(a0)
 1082              		.loc 2 105 106
 1083 050c 97050000 		lla	a1,_Z21periodicThreadWrapperPv
 1083      93850500 
 1084 0514 13850400 		mv	a0,s1
 1085 0518 97000000 		call	_ZN6ThreadC2EPFvPvES0_
 1085      E7800000 
 1086              	.LVL80:
 1087 0520 97070000 		lla	a5,_ZTV14PeriodicThread+16
 1087      93870700 
 1088 0528 23B0F400 		sd	a5,0(s1)
 1089              	.LBE14:
 106:src/syscall_cpp.cpp **** {}
 1090              		.loc 2 106 2
 1091 052c 83308101 		ld	ra,24(sp)
 1092              		.cfi_restore 1
 1093 0530 03340101 		ld	s0,16(sp)
 1094              		.cfi_restore 8
 1095              		.cfi_def_cfa 2, 32
 1096 0534 83348100 		ld	s1,8(sp)
 1097              		.cfi_restore 9
 1098              	.LVL81:
 1099 0538 03390100 		ld	s2,0(sp)
 1100              		.cfi_restore 18
 1101              	.LVL82:
 1102 053c 13010102 		addi	sp,sp,32
 1103              		.cfi_def_cfa_offset 0
 1104 0540 67800000 		jr	ra
 1105              		.cfi_endproc
 1106              	.LFE79:
 1108              		.globl	_ZN14PeriodicThreadC1Em
 1109              		.set	_ZN14PeriodicThreadC1Em,_ZN14PeriodicThreadC2Em
 1110              		.align	2
 1111              		.globl	_ZN7Console4getcEv
 1113              	_ZN7Console4getcEv:
 1114              	.LFB81:
 107:src/syscall_cpp.cpp **** 
 108:src/syscall_cpp.cpp **** 
 109:src/syscall_cpp.cpp **** char Console::getc() {
 1115              		.loc 2 109 22 is_stmt 1
 1116              		.cfi_startproc
 1117 0544 130101FF 		addi	sp,sp,-16
 1118              		.cfi_def_cfa_offset 16
 1119 0548 23341100 		sd	ra,8(sp)
 1120 054c 23308100 		sd	s0,0(sp)
 1121              		.cfi_offset 1, -8
 1122              		.cfi_offset 8, -16
 1123 0550 13040101 		addi	s0,sp,16
 1124              		.cfi_def_cfa 8, 0
 110:src/syscall_cpp.cpp ****     return ::getc();
 1125              		.loc 2 110 5
 1126              		.loc 2 110 18 is_stmt 0
 1127 0554 97000000 		call	_Z4getcv@plt
 1127      E7800000 
 1128              	.LVL83:
 111:src/syscall_cpp.cpp **** }
GAS LISTING /tmp/ccWdciDI.s 			page 25


 1129              		.loc 2 111 1
 1130 055c 83308100 		ld	ra,8(sp)
 1131              		.cfi_restore 1
 1132 0560 03340100 		ld	s0,0(sp)
 1133              		.cfi_restore 8
 1134              		.cfi_def_cfa 2, 16
 1135 0564 13010101 		addi	sp,sp,16
 1136              		.cfi_def_cfa_offset 0
 1137 0568 67800000 		jr	ra
 1138              		.cfi_endproc
 1139              	.LFE81:
 1141              		.align	2
 1142              		.globl	_ZN7Console4putcEc
 1144              	_ZN7Console4putcEc:
 1145              	.LFB82:
 112:src/syscall_cpp.cpp **** 
 113:src/syscall_cpp.cpp **** void Console::putc(char c) {
 1146              		.loc 2 113 28 is_stmt 1
 1147              		.cfi_startproc
 1148              	.LVL84:
 1149 056c 130101FF 		addi	sp,sp,-16
 1150              		.cfi_def_cfa_offset 16
 1151 0570 23341100 		sd	ra,8(sp)
 1152 0574 23308100 		sd	s0,0(sp)
 1153              		.cfi_offset 1, -8
 1154              		.cfi_offset 8, -16
 1155 0578 13040101 		addi	s0,sp,16
 1156              		.cfi_def_cfa 8, 0
 114:src/syscall_cpp.cpp ****     return ::putc(c);
 1157              		.loc 2 114 5
 1158              		.loc 2 114 18 is_stmt 0
 1159 057c 97000000 		call	_Z4putcc@plt
 1159      E7800000 
 1160              	.LVL85:
 115:src/syscall_cpp.cpp **** }
 1161              		.loc 2 115 1
 1162 0584 83308100 		ld	ra,8(sp)
 1163              		.cfi_restore 1
 1164 0588 03340100 		ld	s0,0(sp)
 1165              		.cfi_restore 8
 1166              		.cfi_def_cfa 2, 16
 1167 058c 13010101 		addi	sp,sp,16
 1168              		.cfi_def_cfa_offset 0
 1169 0590 67800000 		jr	ra
 1170              		.cfi_endproc
 1171              	.LFE82:
 1173              		.weak	_ZTV14PeriodicThread
 1174              		.section	.data.rel.ro.local._ZTV14PeriodicThread,"awG",@progbits,_ZTV14PeriodicThread,comdat
 1175              		.align	3
 1178              	_ZTV14PeriodicThread:
 1179 0000 00000000 		.dword	0
 1179      00000000 
 1180 0008 00000000 		.dword	0
 1180      00000000 
 1181 0010 00000000 		.dword	_ZN14PeriodicThreadD1Ev
 1181      00000000 
 1182 0018 00000000 		.dword	_ZN14PeriodicThreadD0Ev
GAS LISTING /tmp/ccWdciDI.s 			page 26


 1182      00000000 
 1183 0020 00000000 		.dword	_ZN6Thread3runEv
 1183      00000000 
 1184 0028 00000000 		.dword	_ZN14PeriodicThread18periodicActivationEv
 1184      00000000 
 1185              		.weak	_ZTV6Thread
 1186              		.section	.data.rel.ro.local._ZTV6Thread,"awG",@progbits,_ZTV6Thread,comdat
 1187              		.align	3
 1190              	_ZTV6Thread:
 1191 0000 00000000 		.dword	0
 1191      00000000 
 1192 0008 00000000 		.dword	0
 1192      00000000 
 1193 0010 00000000 		.dword	_ZN6ThreadD1Ev
 1193      00000000 
 1194 0018 00000000 		.dword	_ZN6ThreadD0Ev
 1194      00000000 
 1195 0020 00000000 		.dword	_ZN6Thread3runEv
 1195      00000000 
 1196              		.weak	_ZTV9Semaphore
 1197              		.section	.data.rel.ro.local._ZTV9Semaphore,"awG",@progbits,_ZTV9Semaphore,comdat
 1198              		.align	3
 1201              	_ZTV9Semaphore:
 1202 0000 00000000 		.dword	0
 1202      00000000 
 1203 0008 00000000 		.dword	0
 1203      00000000 
 1204 0010 00000000 		.dword	_ZN9SemaphoreD1Ev
 1204      00000000 
 1205 0018 00000000 		.dword	_ZN9SemaphoreD0Ev
 1205      00000000 
 1206              		.text
 1207              	.Letext0:
 1208              		.file 3 "src/../h/hw.h"
 1209              		.file 4 "src/../h/slab.h"
 1210              		.file 5 "src/../h/PCB.h"
 1211              		.file 6 "src/../h/SCB.h"
 1212              		.file 7 "src/../h/syscall_c.h"
 1213              		.file 8 "src/../h/MemoryAllocator.h"
 6142              		.align	3
 6145              	DW.ref.__gxx_personality_v0:
 6146 0000 00000000 		.dword	__gxx_personality_v0
 6146      00000000 
 6147              		.ident	"GCC: (Ubuntu 9.4.0-1ubuntu1~20.04) 9.4.0"
 6148              		.section	.note.GNU-stack,"",@progbits
GAS LISTING /tmp/ccWdciDI.s 			page 27


DEFINED SYMBOLS
                            *ABS*:0000000000000000 syscall_cpp.cpp
     /tmp/ccWdciDI.s:10     .text._ZN6Thread3runEv:0000000000000000 _ZN6Thread3runEv
     /tmp/ccWdciDI.s:14     .text._ZN6Thread3runEv:0000000000000000 .L0 
     /tmp/ccWdciDI.s:16     .text._ZN6Thread3runEv:0000000000000000 .L0 
     /tmp/ccWdciDI.s:17     .text._ZN6Thread3runEv:0000000000000004 .L0 
     /tmp/ccWdciDI.s:19     .text._ZN6Thread3runEv:0000000000000008 .L0 
     /tmp/ccWdciDI.s:21     .text._ZN6Thread3runEv:000000000000000c .L0 
     /tmp/ccWdciDI.s:23     .text._ZN6Thread3runEv:000000000000000c .L0 
     /tmp/ccWdciDI.s:24     .text._ZN6Thread3runEv:0000000000000010 .L0 
     /tmp/ccWdciDI.s:25     .text._ZN6Thread3runEv:0000000000000010 .L0 
     /tmp/ccWdciDI.s:27     .text._ZN6Thread3runEv:0000000000000014 .L0 
     /tmp/ccWdciDI.s:29     .text._ZN6Thread3runEv:0000000000000018 .L0 
     /tmp/ccWdciDI.s:36     .text._ZN14PeriodicThread18periodicActivationEv:0000000000000000 _ZN14PeriodicThread18periodicActivationEv
     /tmp/ccWdciDI.s:39     .text._ZN14PeriodicThread18periodicActivationEv:0000000000000000 .L0 
     /tmp/ccWdciDI.s:41     .text._ZN14PeriodicThread18periodicActivationEv:0000000000000000 .L0 
     /tmp/ccWdciDI.s:42     .text._ZN14PeriodicThread18periodicActivationEv:0000000000000004 .L0 
     /tmp/ccWdciDI.s:44     .text._ZN14PeriodicThread18periodicActivationEv:0000000000000008 .L0 
     /tmp/ccWdciDI.s:46     .text._ZN14PeriodicThread18periodicActivationEv:000000000000000c .L0 
     /tmp/ccWdciDI.s:48     .text._ZN14PeriodicThread18periodicActivationEv:000000000000000c .L0 
     /tmp/ccWdciDI.s:49     .text._ZN14PeriodicThread18periodicActivationEv:0000000000000010 .L0 
     /tmp/ccWdciDI.s:50     .text._ZN14PeriodicThread18periodicActivationEv:0000000000000010 .L0 
     /tmp/ccWdciDI.s:52     .text._ZN14PeriodicThread18periodicActivationEv:0000000000000014 .L0 
     /tmp/ccWdciDI.s:54     .text._ZN14PeriodicThread18periodicActivationEv:0000000000000018 .L0 
     /tmp/ccWdciDI.s:61     .text:0000000000000000 _ZN6ThreadD2Ev
     /tmp/ccWdciDI.s:65     .text:0000000000000000 .L0 
     /tmp/ccWdciDI.s:6145   .data.rel.local.DW.ref.__gxx_personality_v0:0000000000000000 DW.ref.__gxx_personality_v0
     /tmp/ccWdciDI.s:69     .text:0000000000000000 .L0 
     /tmp/ccWdciDI.s:70     .text:0000000000000004 .L0 
     /tmp/ccWdciDI.s:74     .text:0000000000000010 .L0 
     /tmp/ccWdciDI.s:75     .text:0000000000000010 .L0 
     /tmp/ccWdciDI.s:76     .text:0000000000000010 .L0 
     /tmp/ccWdciDI.s:78     .text:0000000000000014 .L0 
     /tmp/ccWdciDI.s:1190   .data.rel.ro.local._ZTV6Thread:0000000000000000 _ZTV6Thread
     /tmp/ccWdciDI.s:81     .text:0000000000000014 .L0 
     /tmp/ccWdciDI.s:84     .text:0000000000000020 .L0 
     /tmp/ccWdciDI.s:85     .text:0000000000000020 .L0 
     /tmp/ccWdciDI.s:87     .text:0000000000000024 .L0 
     /tmp/ccWdciDI.s:89     .text:0000000000000028 .L0 
     /tmp/ccWdciDI.s:99     .text:0000000000000040 .L0 
     /tmp/ccWdciDI.s:100    .text:0000000000000044 .L0 
     /tmp/ccWdciDI.s:102    .text:0000000000000048 .L0 
     /tmp/ccWdciDI.s:103    .text:0000000000000048 .L0 
     /tmp/ccWdciDI.s:105    .text:000000000000004c .L0 
     /tmp/ccWdciDI.s:107    .text:0000000000000050 .L0 
     /tmp/ccWdciDI.s:109    .text:0000000000000054 .L0 
     /tmp/ccWdciDI.s:61     .text:0000000000000000 _ZN6ThreadD1Ev
     /tmp/ccWdciDI.s:126    .text._ZN14PeriodicThreadD2Ev:0000000000000000 _ZN14PeriodicThreadD2Ev
     /tmp/ccWdciDI.s:129    .text._ZN14PeriodicThreadD2Ev:0000000000000000 .L0 
     /tmp/ccWdciDI.s:131    .text._ZN14PeriodicThreadD2Ev:0000000000000000 .L0 
     /tmp/ccWdciDI.s:132    .text._ZN14PeriodicThreadD2Ev:0000000000000004 .L0 
     /tmp/ccWdciDI.s:135    .text._ZN14PeriodicThreadD2Ev:000000000000000c .L0 
     /tmp/ccWdciDI.s:136    .text._ZN14PeriodicThreadD2Ev:000000000000000c .L0 
     /tmp/ccWdciDI.s:138    .text._ZN14PeriodicThreadD2Ev:0000000000000010 .L0 
     /tmp/ccWdciDI.s:1178   .data.rel.ro.local._ZTV14PeriodicThread:0000000000000000 _ZTV14PeriodicThread
     /tmp/ccWdciDI.s:141    .text._ZN14PeriodicThreadD2Ev:0000000000000010 .L0 
     /tmp/ccWdciDI.s:147    .text._ZN14PeriodicThreadD2Ev:0000000000000028 .L0 
GAS LISTING /tmp/ccWdciDI.s 			page 28


     /tmp/ccWdciDI.s:149    .text._ZN14PeriodicThreadD2Ev:000000000000002c .L0 
     /tmp/ccWdciDI.s:150    .text._ZN14PeriodicThreadD2Ev:000000000000002c .L0 
     /tmp/ccWdciDI.s:152    .text._ZN14PeriodicThreadD2Ev:0000000000000030 .L0 
     /tmp/ccWdciDI.s:154    .text._ZN14PeriodicThreadD2Ev:0000000000000034 .L0 
     /tmp/ccWdciDI.s:126    .text._ZN14PeriodicThreadD2Ev:0000000000000000 _ZN14PeriodicThreadD1Ev
     /tmp/ccWdciDI.s:163    .text:0000000000000054 _ZN9SemaphoreD2Ev
     /tmp/ccWdciDI.s:166    .text:0000000000000054 .L0 
     /tmp/ccWdciDI.s:170    .text:0000000000000054 .L0 
     /tmp/ccWdciDI.s:171    .text:0000000000000058 .L0 
     /tmp/ccWdciDI.s:174    .text:0000000000000060 .L0 
     /tmp/ccWdciDI.s:175    .text:0000000000000060 .L0 
     /tmp/ccWdciDI.s:177    .text:0000000000000064 .L0 
     /tmp/ccWdciDI.s:1201   .data.rel.ro.local._ZTV9Semaphore:0000000000000000 _ZTV9Semaphore
     /tmp/ccWdciDI.s:180    .text:0000000000000064 .L0 
     /tmp/ccWdciDI.s:183    .text:0000000000000070 .L0 
     /tmp/ccWdciDI.s:184    .text:0000000000000070 .L0 
     /tmp/ccWdciDI.s:190    .text:000000000000007c .L0 
     /tmp/ccWdciDI.s:191    .text:0000000000000080 .L0 
     /tmp/ccWdciDI.s:193    .text:0000000000000084 .L0 
     /tmp/ccWdciDI.s:194    .text:0000000000000084 .L0 
     /tmp/ccWdciDI.s:196    .text:0000000000000088 .L0 
     /tmp/ccWdciDI.s:198    .text:000000000000008c .L0 
     /tmp/ccWdciDI.s:163    .text:0000000000000054 _ZN9SemaphoreD1Ev
     /tmp/ccWdciDI.s:213    .text:000000000000008c _Znwm
     /tmp/ccWdciDI.s:216    .text:000000000000008c .L0 
     /tmp/ccWdciDI.s:218    .text:000000000000008c .L0 
     /tmp/ccWdciDI.s:219    .text:0000000000000090 .L0 
     /tmp/ccWdciDI.s:222    .text:0000000000000098 .L0 
     /tmp/ccWdciDI.s:223    .text:0000000000000098 .L0 
     /tmp/ccWdciDI.s:225    .text:000000000000009c .L0 
     /tmp/ccWdciDI.s:227    .text:000000000000009c .L0 
     /tmp/ccWdciDI.s:228    .text:000000000000009c .L0 
     /tmp/ccWdciDI.s:231    .text:00000000000000a4 .L0 
     /tmp/ccWdciDI.s:232    .text:00000000000000a8 .L0 
     /tmp/ccWdciDI.s:234    .text:00000000000000ac .L0 
     /tmp/ccWdciDI.s:235    .text:00000000000000ac .L0 
     /tmp/ccWdciDI.s:237    .text:00000000000000b0 .L0 
     /tmp/ccWdciDI.s:239    .text:00000000000000b4 .L0 
     /tmp/ccWdciDI.s:245    .text:00000000000000b4 _Znam
     /tmp/ccWdciDI.s:248    .text:00000000000000b4 .L0 
     /tmp/ccWdciDI.s:250    .text:00000000000000b4 .L0 
     /tmp/ccWdciDI.s:251    .text:00000000000000b8 .L0 
     /tmp/ccWdciDI.s:254    .text:00000000000000c0 .L0 
     /tmp/ccWdciDI.s:255    .text:00000000000000c0 .L0 
     /tmp/ccWdciDI.s:257    .text:00000000000000c4 .L0 
     /tmp/ccWdciDI.s:259    .text:00000000000000c4 .L0 
     /tmp/ccWdciDI.s:260    .text:00000000000000c4 .L0 
     /tmp/ccWdciDI.s:263    .text:00000000000000cc .L0 
     /tmp/ccWdciDI.s:264    .text:00000000000000d0 .L0 
     /tmp/ccWdciDI.s:266    .text:00000000000000d4 .L0 
     /tmp/ccWdciDI.s:267    .text:00000000000000d4 .L0 
     /tmp/ccWdciDI.s:269    .text:00000000000000d8 .L0 
     /tmp/ccWdciDI.s:271    .text:00000000000000dc .L0 
     /tmp/ccWdciDI.s:277    .text:00000000000000dc _ZdlPv
     /tmp/ccWdciDI.s:280    .text:00000000000000dc .L0 
     /tmp/ccWdciDI.s:284    .text:00000000000000dc .L0 
     /tmp/ccWdciDI.s:285    .text:00000000000000e0 .L0 
GAS LISTING /tmp/ccWdciDI.s 			page 29


     /tmp/ccWdciDI.s:288    .text:00000000000000e8 .L0 
     /tmp/ccWdciDI.s:289    .text:00000000000000e8 .L0 
     /tmp/ccWdciDI.s:291    .text:00000000000000ec .L0 
     /tmp/ccWdciDI.s:293    .text:00000000000000ec .L0 
     /tmp/ccWdciDI.s:294    .text:00000000000000ec .L0 
     /tmp/ccWdciDI.s:297    .text:00000000000000f4 .L0 
     /tmp/ccWdciDI.s:298    .text:00000000000000f8 .L0 
     /tmp/ccWdciDI.s:300    .text:00000000000000fc .L0 
     /tmp/ccWdciDI.s:301    .text:00000000000000fc .L0 
     /tmp/ccWdciDI.s:303    .text:0000000000000100 .L0 
     /tmp/ccWdciDI.s:305    .text:0000000000000104 .L0 
     /tmp/ccWdciDI.s:318    .text:0000000000000104 _Z13threadWrapperPv
     /tmp/ccWdciDI.s:321    .text:0000000000000104 .L0 
     /tmp/ccWdciDI.s:323    .text:0000000000000104 .L0 
     /tmp/ccWdciDI.s:324    .text:0000000000000108 .L0 
     /tmp/ccWdciDI.s:328    .text:0000000000000114 .L0 
     /tmp/ccWdciDI.s:329    .text:0000000000000114 .L0 
     /tmp/ccWdciDI.s:330    .text:0000000000000114 .L0 
     /tmp/ccWdciDI.s:332    .text:0000000000000118 .L0 
     /tmp/ccWdciDI.s:336    .text:000000000000011c .L0 
     /tmp/ccWdciDI.s:337    .text:000000000000011c .L0 
     /tmp/ccWdciDI.s:338    .text:000000000000011c .L0 
     /tmp/ccWdciDI.s:341    .text:0000000000000120 .L0 
     /tmp/ccWdciDI.s:343    .text:0000000000000124 .L0 
     /tmp/ccWdciDI.s:345    .text:0000000000000128 .L0 
     /tmp/ccWdciDI.s:349    .text:0000000000000134 .L0 
     /tmp/ccWdciDI.s:354    .text:0000000000000140 .L0 
     /tmp/ccWdciDI.s:357    .text:0000000000000144 .L0 
     /tmp/ccWdciDI.s:358    .text:0000000000000144 .L0 
     /tmp/ccWdciDI.s:360    .text:0000000000000148 .L0 
     /tmp/ccWdciDI.s:365    .text:0000000000000154 .L0 
     /tmp/ccWdciDI.s:366    .text:0000000000000158 .L0 
     /tmp/ccWdciDI.s:368    .text:000000000000015c .L0 
     /tmp/ccWdciDI.s:369    .text:000000000000015c .L0 
     /tmp/ccWdciDI.s:371    .text:0000000000000160 .L0 
     /tmp/ccWdciDI.s:374    .text:0000000000000164 .L0 
     /tmp/ccWdciDI.s:376    .text:0000000000000168 .L0 
     /tmp/ccWdciDI.s:382    .text:0000000000000168 _ZdaPv
     /tmp/ccWdciDI.s:385    .text:0000000000000168 .L0 
     /tmp/ccWdciDI.s:389    .text:0000000000000168 .L0 
     /tmp/ccWdciDI.s:390    .text:000000000000016c .L0 
     /tmp/ccWdciDI.s:393    .text:0000000000000174 .L0 
     /tmp/ccWdciDI.s:394    .text:0000000000000174 .L0 
     /tmp/ccWdciDI.s:396    .text:0000000000000178 .L0 
     /tmp/ccWdciDI.s:398    .text:0000000000000178 .L0 
     /tmp/ccWdciDI.s:399    .text:0000000000000178 .L0 
     /tmp/ccWdciDI.s:402    .text:0000000000000180 .L0 
     /tmp/ccWdciDI.s:403    .text:0000000000000184 .L0 
     /tmp/ccWdciDI.s:405    .text:0000000000000188 .L0 
     /tmp/ccWdciDI.s:406    .text:0000000000000188 .L0 
     /tmp/ccWdciDI.s:408    .text:000000000000018c .L0 
     /tmp/ccWdciDI.s:410    .text:0000000000000190 .L0 
     /tmp/ccWdciDI.s:423    .text:0000000000000190 _ZN6ThreadC2EPFvPvES0_
     /tmp/ccWdciDI.s:426    .text:0000000000000190 .L0 
     /tmp/ccWdciDI.s:428    .text:0000000000000190 .L0 
     /tmp/ccWdciDI.s:429    .text:0000000000000194 .L0 
     /tmp/ccWdciDI.s:432    .text:000000000000019c .L0 
GAS LISTING /tmp/ccWdciDI.s 			page 30


     /tmp/ccWdciDI.s:433    .text:000000000000019c .L0 
     /tmp/ccWdciDI.s:435    .text:00000000000001a0 .L0 
     /tmp/ccWdciDI.s:438    .text:00000000000001a0 .L0 
     /tmp/ccWdciDI.s:441    .text:00000000000001ac .L0 
     /tmp/ccWdciDI.s:442    .text:00000000000001ac .L0 
     /tmp/ccWdciDI.s:448    .text:00000000000001b8 .L0 
     /tmp/ccWdciDI.s:449    .text:00000000000001bc .L0 
     /tmp/ccWdciDI.s:451    .text:00000000000001c0 .L0 
     /tmp/ccWdciDI.s:452    .text:00000000000001c0 .L0 
     /tmp/ccWdciDI.s:454    .text:00000000000001c4 .L0 
     /tmp/ccWdciDI.s:456    .text:00000000000001c8 .L0 
     /tmp/ccWdciDI.s:423    .text:0000000000000190 _ZN6ThreadC1EPFvPvES0_
     /tmp/ccWdciDI.s:464    .text:00000000000001c8 _ZN6ThreadnwEm
     /tmp/ccWdciDI.s:467    .text:00000000000001c8 .L0 
     /tmp/ccWdciDI.s:469    .text:00000000000001c8 .L0 
     /tmp/ccWdciDI.s:470    .text:00000000000001cc .L0 
     /tmp/ccWdciDI.s:473    .text:00000000000001d4 .L0 
     /tmp/ccWdciDI.s:474    .text:00000000000001d4 .L0 
     /tmp/ccWdciDI.s:476    .text:00000000000001d8 .L0 
     /tmp/ccWdciDI.s:478    .text:00000000000001d8 .L0 
     /tmp/ccWdciDI.s:479    .text:00000000000001d8 .L0 
     /tmp/ccWdciDI.s:482    .text:00000000000001e0 .L0 
     /tmp/ccWdciDI.s:483    .text:00000000000001e4 .L0 
     /tmp/ccWdciDI.s:485    .text:00000000000001e8 .L0 
     /tmp/ccWdciDI.s:486    .text:00000000000001e8 .L0 
     /tmp/ccWdciDI.s:488    .text:00000000000001ec .L0 
     /tmp/ccWdciDI.s:490    .text:00000000000001f0 .L0 
     /tmp/ccWdciDI.s:496    .text:00000000000001f0 _ZN6ThreaddlEPv
     /tmp/ccWdciDI.s:499    .text:00000000000001f0 .L0 
     /tmp/ccWdciDI.s:501    .text:00000000000001f0 .L0 
     /tmp/ccWdciDI.s:502    .text:00000000000001f4 .L0 
     /tmp/ccWdciDI.s:505    .text:00000000000001fc .L0 
     /tmp/ccWdciDI.s:506    .text:00000000000001fc .L0 
     /tmp/ccWdciDI.s:508    .text:0000000000000200 .L0 
     /tmp/ccWdciDI.s:510    .text:0000000000000200 .L0 
     /tmp/ccWdciDI.s:511    .text:0000000000000200 .L0 
     /tmp/ccWdciDI.s:514    .text:0000000000000208 .L0 
     /tmp/ccWdciDI.s:515    .text:000000000000020c .L0 
     /tmp/ccWdciDI.s:517    .text:0000000000000210 .L0 
     /tmp/ccWdciDI.s:518    .text:0000000000000210 .L0 
     /tmp/ccWdciDI.s:520    .text:0000000000000214 .L0 
     /tmp/ccWdciDI.s:522    .text:0000000000000218 .L0 
     /tmp/ccWdciDI.s:528    .text:0000000000000218 _ZN6ThreadD0Ev
     /tmp/ccWdciDI.s:531    .text:0000000000000218 .L0 
     /tmp/ccWdciDI.s:533    .text:0000000000000218 .L0 
     /tmp/ccWdciDI.s:534    .text:000000000000021c .L0 
     /tmp/ccWdciDI.s:538    .text:0000000000000228 .L0 
     /tmp/ccWdciDI.s:539    .text:0000000000000228 .L0 
     /tmp/ccWdciDI.s:540    .text:0000000000000228 .L0 
     /tmp/ccWdciDI.s:542    .text:000000000000022c .L0 
     /tmp/ccWdciDI.s:545    .text:0000000000000230 .L0 
     /tmp/ccWdciDI.s:551    .text:0000000000000248 .L0 
     /tmp/ccWdciDI.s:553    .text:000000000000024c .L0 
     /tmp/ccWdciDI.s:554    .text:000000000000024c .L0 
     /tmp/ccWdciDI.s:556    .text:0000000000000250 .L0 
     /tmp/ccWdciDI.s:559    .text:0000000000000254 .L0 
     /tmp/ccWdciDI.s:561    .text:0000000000000258 .L0 
GAS LISTING /tmp/ccWdciDI.s 			page 31


     /tmp/ccWdciDI.s:568    .text._ZN14PeriodicThreadD0Ev:0000000000000000 _ZN14PeriodicThreadD0Ev
     /tmp/ccWdciDI.s:571    .text._ZN14PeriodicThreadD0Ev:0000000000000000 .L0 
     /tmp/ccWdciDI.s:573    .text._ZN14PeriodicThreadD0Ev:0000000000000000 .L0 
     /tmp/ccWdciDI.s:574    .text._ZN14PeriodicThreadD0Ev:0000000000000004 .L0 
     /tmp/ccWdciDI.s:578    .text._ZN14PeriodicThreadD0Ev:0000000000000010 .L0 
     /tmp/ccWdciDI.s:579    .text._ZN14PeriodicThreadD0Ev:0000000000000010 .L0 
     /tmp/ccWdciDI.s:580    .text._ZN14PeriodicThreadD0Ev:0000000000000010 .L0 
     /tmp/ccWdciDI.s:582    .text._ZN14PeriodicThreadD0Ev:0000000000000014 .L0 
     /tmp/ccWdciDI.s:588    .text._ZN14PeriodicThreadD0Ev:0000000000000018 .L0 
     /tmp/ccWdciDI.s:598    .text._ZN14PeriodicThreadD0Ev:000000000000003c .L0 
     /tmp/ccWdciDI.s:600    .text._ZN14PeriodicThreadD0Ev:0000000000000040 .L0 
     /tmp/ccWdciDI.s:601    .text._ZN14PeriodicThreadD0Ev:0000000000000040 .L0 
     /tmp/ccWdciDI.s:603    .text._ZN14PeriodicThreadD0Ev:0000000000000044 .L0 
     /tmp/ccWdciDI.s:606    .text._ZN14PeriodicThreadD0Ev:0000000000000048 .L0 
     /tmp/ccWdciDI.s:608    .text._ZN14PeriodicThreadD0Ev:000000000000004c .L0 
     /tmp/ccWdciDI.s:615    .text:0000000000000258 _ZN6Thread8dispatchEv
     /tmp/ccWdciDI.s:618    .text:0000000000000258 .L0 
     /tmp/ccWdciDI.s:619    .text:0000000000000258 .L0 
     /tmp/ccWdciDI.s:620    .text:000000000000025c .L0 
     /tmp/ccWdciDI.s:623    .text:0000000000000264 .L0 
     /tmp/ccWdciDI.s:624    .text:0000000000000264 .L0 
     /tmp/ccWdciDI.s:626    .text:0000000000000268 .L0 
     /tmp/ccWdciDI.s:628    .text:0000000000000268 .L0 
     /tmp/ccWdciDI.s:629    .text:0000000000000268 .L0 
     /tmp/ccWdciDI.s:632    .text:0000000000000270 .L0 
     /tmp/ccWdciDI.s:633    .text:0000000000000274 .L0 
     /tmp/ccWdciDI.s:635    .text:0000000000000278 .L0 
     /tmp/ccWdciDI.s:636    .text:0000000000000278 .L0 
     /tmp/ccWdciDI.s:638    .text:000000000000027c .L0 
     /tmp/ccWdciDI.s:640    .text:0000000000000280 .L0 
     /tmp/ccWdciDI.s:646    .text:0000000000000280 _ZN6Thread5startEv
     /tmp/ccWdciDI.s:649    .text:0000000000000280 .L0 
     /tmp/ccWdciDI.s:651    .text:0000000000000280 .L0 
     /tmp/ccWdciDI.s:652    .text:0000000000000284 .L0 
     /tmp/ccWdciDI.s:655    .text:000000000000028c .L0 
     /tmp/ccWdciDI.s:656    .text:000000000000028c .L0 
     /tmp/ccWdciDI.s:658    .text:0000000000000290 .L0 
     /tmp/ccWdciDI.s:660    .text:0000000000000290 .L0 
     /tmp/ccWdciDI.s:661    .text:0000000000000290 .L0 
     /tmp/ccWdciDI.s:666    .text:000000000000029c .L0 
     /tmp/ccWdciDI.s:667    .text:000000000000029c .L0 
     /tmp/ccWdciDI.s:669    .text:00000000000002a4 .L0 
     /tmp/ccWdciDI.s:671    .text:00000000000002a8 .L0 
     /tmp/ccWdciDI.s:672    .text:00000000000002a8 .L0 
     /tmp/ccWdciDI.s:674    .text:00000000000002ac .L0 
     /tmp/ccWdciDI.s:676    .text:00000000000002b0 .L0 
     /tmp/ccWdciDI.s:682    .text:00000000000002b0 _ZN6ThreadC2Ev
     /tmp/ccWdciDI.s:685    .text:00000000000002b0 .L0 
     /tmp/ccWdciDI.s:687    .text:00000000000002b0 .L0 
     /tmp/ccWdciDI.s:688    .text:00000000000002b4 .L0 
     /tmp/ccWdciDI.s:692    .text:00000000000002c0 .L0 
     /tmp/ccWdciDI.s:693    .text:00000000000002c0 .L0 
     /tmp/ccWdciDI.s:694    .text:00000000000002c0 .L0 
     /tmp/ccWdciDI.s:696    .text:00000000000002c4 .L0 
     /tmp/ccWdciDI.s:700    .text:00000000000002c8 .L0 
     /tmp/ccWdciDI.s:704    .text:00000000000002d4 .L0 
     /tmp/ccWdciDI.s:705    .text:00000000000002d4 .L0 
GAS LISTING /tmp/ccWdciDI.s 			page 32


     /tmp/ccWdciDI.s:716    .text:00000000000002f4 .L0 
     /tmp/ccWdciDI.s:717    .text:00000000000002f4 .L0 
     /tmp/ccWdciDI.s:725    .text:0000000000000308 .L0 
     /tmp/ccWdciDI.s:726    .text:000000000000030c .L0 
     /tmp/ccWdciDI.s:728    .text:0000000000000310 .L0 
     /tmp/ccWdciDI.s:729    .text:0000000000000310 .L0 
     /tmp/ccWdciDI.s:731    .text:0000000000000314 .L0 
     /tmp/ccWdciDI.s:734    .text:0000000000000318 .L0 
     /tmp/ccWdciDI.s:736    .text:000000000000031c .L0 
     /tmp/ccWdciDI.s:682    .text:00000000000002b0 _ZN6ThreadC1Ev
     /tmp/ccWdciDI.s:744    .text:000000000000031c _ZN6Thread5sleepEm
     /tmp/ccWdciDI.s:747    .text:000000000000031c .L0 
     /tmp/ccWdciDI.s:749    .text:000000000000031c .L0 
     /tmp/ccWdciDI.s:750    .text:0000000000000320 .L0 
     /tmp/ccWdciDI.s:753    .text:0000000000000328 .L0 
     /tmp/ccWdciDI.s:754    .text:0000000000000328 .L0 
     /tmp/ccWdciDI.s:756    .text:000000000000032c .L0 
     /tmp/ccWdciDI.s:758    .text:000000000000032c .L0 
     /tmp/ccWdciDI.s:759    .text:000000000000032c .L0 
     /tmp/ccWdciDI.s:762    .text:0000000000000334 .L0 
     /tmp/ccWdciDI.s:763    .text:0000000000000338 .L0 
     /tmp/ccWdciDI.s:765    .text:000000000000033c .L0 
     /tmp/ccWdciDI.s:766    .text:000000000000033c .L0 
     /tmp/ccWdciDI.s:768    .text:0000000000000340 .L0 
     /tmp/ccWdciDI.s:770    .text:0000000000000344 .L0 
     /tmp/ccWdciDI.s:776    .text:0000000000000344 _Z21periodicThreadWrapperPv
     /tmp/ccWdciDI.s:779    .text:0000000000000344 .L0 
     /tmp/ccWdciDI.s:781    .text:0000000000000344 .L0 
     /tmp/ccWdciDI.s:782    .text:0000000000000348 .L0 
     /tmp/ccWdciDI.s:786    .text:0000000000000354 .L0 
     /tmp/ccWdciDI.s:787    .text:0000000000000354 .L0 
     /tmp/ccWdciDI.s:788    .text:0000000000000354 .L0 
     /tmp/ccWdciDI.s:790    .text:0000000000000358 .L0 
     /tmp/ccWdciDI.s:794    .text:000000000000035c .L0 
     /tmp/ccWdciDI.s:798    .text:0000000000000360 .L0 
     /tmp/ccWdciDI.s:803    .text:000000000000036c .L0 
     /tmp/ccWdciDI.s:806    .text:0000000000000370 .L0 
     /tmp/ccWdciDI.s:807    .text:0000000000000370 .L0 
     /tmp/ccWdciDI.s:812    .text:000000000000037c .L0 
     /tmp/ccWdciDI.s:813    .text:000000000000037c .L0 
     /tmp/ccWdciDI.s:814    .text:000000000000037c .L0 
     /tmp/ccWdciDI.s:815    .text:000000000000037c .L0 
     /tmp/ccWdciDI.s:817    .text:0000000000000380 .L0 
     /tmp/ccWdciDI.s:819    .text:0000000000000384 .L0 
     /tmp/ccWdciDI.s:821    .text:0000000000000388 .L0 
     /tmp/ccWdciDI.s:825    .text:0000000000000398 .L0 
     /tmp/ccWdciDI.s:831    .text:0000000000000398 _ZN9SemaphoreC2Ej
     /tmp/ccWdciDI.s:834    .text:0000000000000398 .L0 
     /tmp/ccWdciDI.s:836    .text:0000000000000398 .L0 
     /tmp/ccWdciDI.s:837    .text:000000000000039c .L0 
     /tmp/ccWdciDI.s:841    .text:00000000000003a8 .L0 
     /tmp/ccWdciDI.s:842    .text:00000000000003a8 .L0 
     /tmp/ccWdciDI.s:843    .text:00000000000003a8 .L0 
     /tmp/ccWdciDI.s:845    .text:00000000000003ac .L0 
     /tmp/ccWdciDI.s:849    .text:00000000000003b0 .L0 
     /tmp/ccWdciDI.s:852    .text:00000000000003bc .L0 
     /tmp/ccWdciDI.s:853    .text:00000000000003bc .L0 
GAS LISTING /tmp/ccWdciDI.s 			page 33


     /tmp/ccWdciDI.s:858    .text:00000000000003c8 .L0 
     /tmp/ccWdciDI.s:861    .text:00000000000003cc .L0 
     /tmp/ccWdciDI.s:862    .text:00000000000003d0 .L0 
     /tmp/ccWdciDI.s:864    .text:00000000000003d4 .L0 
     /tmp/ccWdciDI.s:865    .text:00000000000003d4 .L0 
     /tmp/ccWdciDI.s:867    .text:00000000000003d8 .L0 
     /tmp/ccWdciDI.s:870    .text:00000000000003dc .L0 
     /tmp/ccWdciDI.s:872    .text:00000000000003e0 .L0 
     /tmp/ccWdciDI.s:831    .text:0000000000000398 _ZN9SemaphoreC1Ej
     /tmp/ccWdciDI.s:880    .text:00000000000003e0 _ZN9Semaphore4waitEv
     /tmp/ccWdciDI.s:883    .text:00000000000003e0 .L0 
     /tmp/ccWdciDI.s:885    .text:00000000000003e0 .L0 
     /tmp/ccWdciDI.s:886    .text:00000000000003e4 .L0 
     /tmp/ccWdciDI.s:889    .text:00000000000003ec .L0 
     /tmp/ccWdciDI.s:890    .text:00000000000003ec .L0 
     /tmp/ccWdciDI.s:892    .text:00000000000003f0 .L0 
     /tmp/ccWdciDI.s:894    .text:00000000000003f0 .L0 
     /tmp/ccWdciDI.s:895    .text:00000000000003f0 .L0 
     /tmp/ccWdciDI.s:900    .text:00000000000003fc .L0 
     /tmp/ccWdciDI.s:901    .text:0000000000000400 .L0 
     /tmp/ccWdciDI.s:903    .text:0000000000000404 .L0 
     /tmp/ccWdciDI.s:904    .text:0000000000000404 .L0 
     /tmp/ccWdciDI.s:906    .text:0000000000000408 .L0 
     /tmp/ccWdciDI.s:908    .text:000000000000040c .L0 
     /tmp/ccWdciDI.s:914    .text:000000000000040c _ZN9Semaphore6signalEv
     /tmp/ccWdciDI.s:917    .text:000000000000040c .L0 
     /tmp/ccWdciDI.s:919    .text:000000000000040c .L0 
     /tmp/ccWdciDI.s:920    .text:0000000000000410 .L0 
     /tmp/ccWdciDI.s:923    .text:0000000000000418 .L0 
     /tmp/ccWdciDI.s:924    .text:0000000000000418 .L0 
     /tmp/ccWdciDI.s:926    .text:000000000000041c .L0 
     /tmp/ccWdciDI.s:928    .text:000000000000041c .L0 
     /tmp/ccWdciDI.s:929    .text:000000000000041c .L0 
     /tmp/ccWdciDI.s:934    .text:0000000000000428 .L0 
     /tmp/ccWdciDI.s:935    .text:000000000000042c .L0 
     /tmp/ccWdciDI.s:937    .text:0000000000000430 .L0 
     /tmp/ccWdciDI.s:938    .text:0000000000000430 .L0 
     /tmp/ccWdciDI.s:940    .text:0000000000000434 .L0 
     /tmp/ccWdciDI.s:942    .text:0000000000000438 .L0 
     /tmp/ccWdciDI.s:948    .text:0000000000000438 _ZN9SemaphoredlEPv
     /tmp/ccWdciDI.s:951    .text:0000000000000438 .L0 
     /tmp/ccWdciDI.s:953    .text:0000000000000438 .L0 
     /tmp/ccWdciDI.s:954    .text:000000000000043c .L0 
     /tmp/ccWdciDI.s:957    .text:0000000000000444 .L0 
     /tmp/ccWdciDI.s:958    .text:0000000000000444 .L0 
     /tmp/ccWdciDI.s:960    .text:0000000000000448 .L0 
     /tmp/ccWdciDI.s:962    .text:0000000000000448 .L0 
     /tmp/ccWdciDI.s:963    .text:0000000000000448 .L0 
     /tmp/ccWdciDI.s:966    .text:0000000000000450 .L0 
     /tmp/ccWdciDI.s:967    .text:0000000000000454 .L0 
     /tmp/ccWdciDI.s:969    .text:0000000000000458 .L0 
     /tmp/ccWdciDI.s:970    .text:0000000000000458 .L0 
     /tmp/ccWdciDI.s:972    .text:000000000000045c .L0 
     /tmp/ccWdciDI.s:974    .text:0000000000000460 .L0 
     /tmp/ccWdciDI.s:980    .text:0000000000000460 _ZN9SemaphoreD0Ev
     /tmp/ccWdciDI.s:983    .text:0000000000000460 .L0 
     /tmp/ccWdciDI.s:985    .text:0000000000000460 .L0 
GAS LISTING /tmp/ccWdciDI.s 			page 34


     /tmp/ccWdciDI.s:986    .text:0000000000000464 .L0 
     /tmp/ccWdciDI.s:990    .text:0000000000000470 .L0 
     /tmp/ccWdciDI.s:991    .text:0000000000000470 .L0 
     /tmp/ccWdciDI.s:992    .text:0000000000000470 .L0 
     /tmp/ccWdciDI.s:994    .text:0000000000000474 .L0 
     /tmp/ccWdciDI.s:997    .text:0000000000000478 .L0 
     /tmp/ccWdciDI.s:1003   .text:0000000000000490 .L0 
     /tmp/ccWdciDI.s:1005   .text:0000000000000494 .L0 
     /tmp/ccWdciDI.s:1006   .text:0000000000000494 .L0 
     /tmp/ccWdciDI.s:1008   .text:0000000000000498 .L0 
     /tmp/ccWdciDI.s:1011   .text:000000000000049c .L0 
     /tmp/ccWdciDI.s:1013   .text:00000000000004a0 .L0 
     /tmp/ccWdciDI.s:1019   .text:00000000000004a0 _ZN9SemaphorenwEm
     /tmp/ccWdciDI.s:1022   .text:00000000000004a0 .L0 
     /tmp/ccWdciDI.s:1024   .text:00000000000004a0 .L0 
     /tmp/ccWdciDI.s:1025   .text:00000000000004a4 .L0 
     /tmp/ccWdciDI.s:1028   .text:00000000000004ac .L0 
     /tmp/ccWdciDI.s:1029   .text:00000000000004ac .L0 
     /tmp/ccWdciDI.s:1031   .text:00000000000004b0 .L0 
     /tmp/ccWdciDI.s:1033   .text:00000000000004b0 .L0 
     /tmp/ccWdciDI.s:1034   .text:00000000000004b0 .L0 
     /tmp/ccWdciDI.s:1037   .text:00000000000004b8 .L0 
     /tmp/ccWdciDI.s:1038   .text:00000000000004bc .L0 
     /tmp/ccWdciDI.s:1040   .text:00000000000004c0 .L0 
     /tmp/ccWdciDI.s:1041   .text:00000000000004c0 .L0 
     /tmp/ccWdciDI.s:1043   .text:00000000000004c4 .L0 
     /tmp/ccWdciDI.s:1045   .text:00000000000004c8 .L0 
     /tmp/ccWdciDI.s:1051   .text:00000000000004c8 _ZN14PeriodicThreadC2Em
     /tmp/ccWdciDI.s:1054   .text:00000000000004c8 .L0 
     /tmp/ccWdciDI.s:1056   .text:00000000000004c8 .L0 
     /tmp/ccWdciDI.s:1057   .text:00000000000004cc .L0 
     /tmp/ccWdciDI.s:1062   .text:00000000000004dc .L0 
     /tmp/ccWdciDI.s:1063   .text:00000000000004dc .L0 
     /tmp/ccWdciDI.s:1064   .text:00000000000004dc .L0 
     /tmp/ccWdciDI.s:1065   .text:00000000000004dc .L0 
     /tmp/ccWdciDI.s:1067   .text:00000000000004e0 .L0 
     /tmp/ccWdciDI.s:1072   .text:00000000000004e8 .L0 
     /tmp/ccWdciDI.s:1083   .text:000000000000050c .L0 
     /tmp/ccWdciDI.s:1091   .text:000000000000052c .L0 
     /tmp/ccWdciDI.s:1092   .text:0000000000000530 .L0 
     /tmp/ccWdciDI.s:1094   .text:0000000000000534 .L0 
     /tmp/ccWdciDI.s:1095   .text:0000000000000534 .L0 
     /tmp/ccWdciDI.s:1097   .text:0000000000000538 .L0 
     /tmp/ccWdciDI.s:1100   .text:000000000000053c .L0 
     /tmp/ccWdciDI.s:1103   .text:0000000000000540 .L0 
     /tmp/ccWdciDI.s:1105   .text:0000000000000544 .L0 
     /tmp/ccWdciDI.s:1051   .text:00000000000004c8 _ZN14PeriodicThreadC1Em
     /tmp/ccWdciDI.s:1113   .text:0000000000000544 _ZN7Console4getcEv
     /tmp/ccWdciDI.s:1116   .text:0000000000000544 .L0 
     /tmp/ccWdciDI.s:1117   .text:0000000000000544 .L0 
     /tmp/ccWdciDI.s:1118   .text:0000000000000548 .L0 
     /tmp/ccWdciDI.s:1121   .text:0000000000000550 .L0 
     /tmp/ccWdciDI.s:1122   .text:0000000000000550 .L0 
     /tmp/ccWdciDI.s:1124   .text:0000000000000554 .L0 
     /tmp/ccWdciDI.s:1126   .text:0000000000000554 .L0 
     /tmp/ccWdciDI.s:1127   .text:0000000000000554 .L0 
     /tmp/ccWdciDI.s:1130   .text:000000000000055c .L0 
GAS LISTING /tmp/ccWdciDI.s 			page 35


     /tmp/ccWdciDI.s:1131   .text:0000000000000560 .L0 
     /tmp/ccWdciDI.s:1133   .text:0000000000000564 .L0 
     /tmp/ccWdciDI.s:1134   .text:0000000000000564 .L0 
     /tmp/ccWdciDI.s:1136   .text:0000000000000568 .L0 
     /tmp/ccWdciDI.s:1138   .text:000000000000056c .L0 
     /tmp/ccWdciDI.s:1144   .text:000000000000056c _ZN7Console4putcEc
     /tmp/ccWdciDI.s:1147   .text:000000000000056c .L0 
     /tmp/ccWdciDI.s:1149   .text:000000000000056c .L0 
     /tmp/ccWdciDI.s:1150   .text:0000000000000570 .L0 
     /tmp/ccWdciDI.s:1153   .text:0000000000000578 .L0 
     /tmp/ccWdciDI.s:1154   .text:0000000000000578 .L0 
     /tmp/ccWdciDI.s:1156   .text:000000000000057c .L0 
     /tmp/ccWdciDI.s:1158   .text:000000000000057c .L0 
     /tmp/ccWdciDI.s:1159   .text:000000000000057c .L0 
     /tmp/ccWdciDI.s:1162   .text:0000000000000584 .L0 
     /tmp/ccWdciDI.s:1163   .text:0000000000000588 .L0 
     /tmp/ccWdciDI.s:1165   .text:000000000000058c .L0 
     /tmp/ccWdciDI.s:1166   .text:000000000000058c .L0 
     /tmp/ccWdciDI.s:1168   .text:0000000000000590 .L0 
     /tmp/ccWdciDI.s:1170   .text:0000000000000594 .L0 
     /tmp/ccWdciDI.s:32     .text._ZN6Thread3runEv:0000000000000018 .L0 
     /tmp/ccWdciDI.s:57     .text._ZN14PeriodicThread18periodicActivationEv:0000000000000018 .L0 
     /tmp/ccWdciDI.s:1214   .text:0000000000000594 .L0 
     /tmp/ccWdciDI.s:159    .text._ZN14PeriodicThreadD2Ev:0000000000000034 .L0 
     /tmp/ccWdciDI.s:611    .text._ZN14PeriodicThreadD0Ev:000000000000004c .L0 
     /tmp/ccWdciDI.s:81     .text:0000000000000014 .L0 
     /tmp/ccWdciDI.s:180    .text:0000000000000064 .L0 
     /tmp/ccWdciDI.s:438    .text:00000000000001a0 .L0 
     /tmp/ccWdciDI.s:700    .text:00000000000002c8 .L0 
     /tmp/ccWdciDI.s:717    .text:00000000000002f4 .L0 
     /tmp/ccWdciDI.s:849    .text:00000000000003b0 .L0 
     /tmp/ccWdciDI.s:1083   .text:000000000000050c .L0 
     /tmp/ccWdciDI.s:1087   .text:0000000000000520 .L0 
     /tmp/ccWdciDI.s:96     .text:0000000000000040 .L5
     /tmp/ccWdciDI.s:352    .text:0000000000000140 .L19
     /tmp/ccWdciDI.s:363    .text:0000000000000154 .L18
     /tmp/ccWdciDI.s:811    .text:000000000000037c .L44
     /tmp/ccWdciDI.s:801    .text:000000000000036c .L43
     /tmp/ccWdciDI.s:796    .text:0000000000000360 .L46
     /tmp/ccWdciDI.s:141    .text._ZN14PeriodicThreadD2Ev:0000000000000010 .L0 
     /tmp/ccWdciDI.s:588    .text._ZN14PeriodicThreadD0Ev:0000000000000018 .L0 
     /tmp/ccWdciDI.s:3700   .debug_abbrev:0000000000000000 .Ldebug_abbrev0
     /tmp/ccWdciDI.s:6047   .debug_str:0000000000000c53 .LASF232
     /tmp/ccWdciDI.s:5839   .debug_str:00000000000005c9 .LASF233
     /tmp/ccWdciDI.s:5817   .debug_str:0000000000000530 .LASF234
     /tmp/ccWdciDI.s:5639   .debug_ranges:0000000000000000 .Ldebug_ranges0
     /tmp/ccWdciDI.s:5653   .debug_line:0000000000000000 .Ldebug_line0
     /tmp/ccWdciDI.s:5825   .debug_str:0000000000000574 .LASF0
     /tmp/ccWdciDI.s:5861   .debug_str:00000000000006a4 .LASF1
     /tmp/ccWdciDI.s:5977   .debug_str:0000000000000a40 .LASF2
     /tmp/ccWdciDI.s:5987   .debug_str:0000000000000a8e .LASF4
     /tmp/ccWdciDI.s:5841   .debug_str:00000000000005dd .LASF3
     /tmp/ccWdciDI.s:5671   .debug_str:0000000000000080 .LASF5
     /tmp/ccWdciDI.s:5945   .debug_str:0000000000000946 .LASF6
     /tmp/ccWdciDI.s:5935   .debug_str:0000000000000901 .LASF7
     /tmp/ccWdciDI.s:5851   .debug_str:0000000000000651 .LASF8
     /tmp/ccWdciDI.s:5789   .debug_str:000000000000044d .LASF9
GAS LISTING /tmp/ccWdciDI.s 			page 36


     /tmp/ccWdciDI.s:5803   .debug_str:00000000000004d1 .LASF10
     /tmp/ccWdciDI.s:5711   .debug_str:00000000000001b3 .LASF11
     /tmp/ccWdciDI.s:5779   .debug_str:0000000000000403 .LASF12
     /tmp/ccWdciDI.s:5725   .debug_str:0000000000000225 .LASF13
     /tmp/ccWdciDI.s:5709   .debug_str:00000000000001a3 .LASF14
     /tmp/ccWdciDI.s:6017   .debug_str:0000000000000b7e .LASF15
     /tmp/ccWdciDI.s:5759   .debug_str:0000000000000370 .LASF16
     /tmp/ccWdciDI.s:6011   .debug_str:0000000000000b4b .LASF17
     /tmp/ccWdciDI.s:5775   .debug_str:00000000000003f1 .LASF18
     /tmp/ccWdciDI.s:5773   .debug_str:00000000000003e4 .LASF235
     /tmp/ccWdciDI.s:6029   .debug_str:0000000000000bcf .LASF19
     /tmp/ccWdciDI.s:6099   .debug_str:0000000000000edb .LASF21
     /tmp/ccWdciDI.s:5749   .debug_str:00000000000002f0 .LASF20
     /tmp/ccWdciDI.s:6063   .debug_str:0000000000000d7f .LASF22
     /tmp/ccWdciDI.s:6027   .debug_str:0000000000000bbf .LASF23
     /tmp/ccWdciDI.s:5843   .debug_str:00000000000005ef .LASF24
     /tmp/ccWdciDI.s:5769   .debug_str:00000000000003c1 .LASF27
     /tmp/ccWdciDI.s:6137   .debug_str:0000000000001028 .LASF29
     /tmp/ccWdciDI.s:5805   .debug_str:00000000000004df .LASF25
     /tmp/ccWdciDI.s:5867   .debug_str:00000000000006e3 .LASF26
     /tmp/ccWdciDI.s:5895   .debug_str:00000000000007ae .LASF28
     /tmp/ccWdciDI.s:6133   .debug_str:0000000000000ff6 .LASF30
     /tmp/ccWdciDI.s:6033   .debug_str:0000000000000bdf .LASF31
     /tmp/ccWdciDI.s:6117   .debug_str:0000000000000f7e .LASF32
     /tmp/ccWdciDI.s:6075   .debug_str:0000000000000e22 .LASF33
     /tmp/ccWdciDI.s:6051   .debug_str:0000000000000d24 .LASF34
     /tmp/ccWdciDI.s:5743   .debug_str:00000000000002cc .LASF35
     /tmp/ccWdciDI.s:5983   .debug_str:0000000000000a68 .LASF36
     /tmp/ccWdciDI.s:5693   .debug_str:000000000000012e .LASF37
     /tmp/ccWdciDI.s:5807   .debug_str:00000000000004ed .LASF38
     /tmp/ccWdciDI.s:6127   .debug_str:0000000000000fc2 .LASF39
     /tmp/ccWdciDI.s:5675   .debug_str:000000000000009e .LASF40
     /tmp/ccWdciDI.s:6005   .debug_str:0000000000000b2e .LASF236
     /tmp/ccWdciDI.s:6087   .debug_str:0000000000000e71 .LASF41
     /tmp/ccWdciDI.s:5995   .debug_str:0000000000000aec .LASF42
     /tmp/ccWdciDI.s:5865   .debug_str:00000000000006dd .LASF47
     /tmp/ccWdciDI.s:5869   .debug_str:00000000000006fd .LASF49
     /tmp/ccWdciDI.s:6045   .debug_str:0000000000000c4b .LASF51
     /tmp/ccWdciDI.s:5859   .debug_str:000000000000069f .LASF43
     /tmp/ccWdciDI.s:6119   .debug_str:0000000000000f94 .LASF44
     /tmp/ccWdciDI.s:6125   .debug_str:0000000000000fb5 .LASF45
     /tmp/ccWdciDI.s:5765   .debug_str:00000000000003a8 .LASF46
     /tmp/ccWdciDI.s:5659   .debug_str:0000000000000031 .LASF53
     /tmp/ccWdciDI.s:5833   .debug_str:00000000000005a4 .LASF59
     /tmp/ccWdciDI.s:5815   .debug_str:0000000000000525 .LASF117
     /tmp/ccWdciDI.s:5689   .debug_str:0000000000000111 .LASF119
     /tmp/ccWdciDI.s:5927   .debug_str:00000000000008ca .LASF48
     /tmp/ccWdciDI.s:5695   .debug_str:000000000000013a .LASF50
     /tmp/ccWdciDI.s:5963   .debug_str:00000000000009bf .LASF52
     /tmp/ccWdciDI.s:5731   .debug_str:0000000000000253 .LASF105
     /tmp/ccWdciDI.s:5767   .debug_str:00000000000003b4 .LASF54
     /tmp/ccWdciDI.s:5757   .debug_str:0000000000000357 .LASF56
     /tmp/ccWdciDI.s:5889   .debug_str:0000000000000783 .LASF55
     /tmp/ccWdciDI.s:5741   .debug_str:00000000000002b5 .LASF57
     /tmp/ccWdciDI.s:5997   .debug_str:0000000000000b0e .LASF58
     /tmp/ccWdciDI.s:5857   .debug_str:0000000000000682 .LASF60
     /tmp/ccWdciDI.s:5663   .debug_str:0000000000000049 .LASF61
GAS LISTING /tmp/ccWdciDI.s 			page 37


     /tmp/ccWdciDI.s:6003   .debug_str:0000000000000b28 .LASF62
     /tmp/ccWdciDI.s:6095   .debug_str:0000000000000ec3 .LASF63
     /tmp/ccWdciDI.s:5853   .debug_str:0000000000000664 .LASF64
     /tmp/ccWdciDI.s:6123   .debug_str:0000000000000fb0 .LASF65
     /tmp/ccWdciDI.s:6009   .debug_str:0000000000000b42 .LASF66
     /tmp/ccWdciDI.s:5921   .debug_str:00000000000008a5 .LASF67
     /tmp/ccWdciDI.s:5875   .debug_str:0000000000000729 .LASF68
     /tmp/ccWdciDI.s:6103   .debug_str:0000000000000f00 .LASF69
     /tmp/ccWdciDI.s:5747   .debug_str:00000000000002e2 .LASF70
     /tmp/ccWdciDI.s:6059   .debug_str:0000000000000d6b .LASF71
     /tmp/ccWdciDI.s:5993   .debug_str:0000000000000adb .LASF140
     /tmp/ccWdciDI.s:5745   .debug_str:00000000000002d9 .LASF77
     /tmp/ccWdciDI.s:5679   .debug_str:00000000000000d0 .LASF79
     /tmp/ccWdciDI.s:5827   .debug_str:0000000000000581 .LASF72
     /tmp/ccWdciDI.s:6089   .debug_str:0000000000000e82 .LASF73
     /tmp/ccWdciDI.s:5829   .debug_str:0000000000000590 .LASF74
     /tmp/ccWdciDI.s:5989   .debug_str:0000000000000a95 .LASF75
     /tmp/ccWdciDI.s:5873   .debug_str:000000000000071f .LASF76
     /tmp/ccWdciDI.s:5955   .debug_str:000000000000098a .LASF78
     /tmp/ccWdciDI.s:6105   .debug_str:0000000000000f0d .LASF80
     /tmp/ccWdciDI.s:5881   .debug_str:0000000000000768 .LASF81
     /tmp/ccWdciDI.s:5707   .debug_str:0000000000000197 .LASF82
     /tmp/ccWdciDI.s:5793   .debug_str:0000000000000474 .LASF83
     /tmp/ccWdciDI.s:6053   .debug_str:0000000000000d3d .LASF84
     /tmp/ccWdciDI.s:6097   .debug_str:0000000000000ecc .LASF85
     /tmp/ccWdciDI.s:6023   .debug_str:0000000000000ba0 .LASF86
     /tmp/ccWdciDI.s:5849   .debug_str:0000000000000640 .LASF87
     /tmp/ccWdciDI.s:5667   .debug_str:0000000000000067 .LASF88
     /tmp/ccWdciDI.s:6091   .debug_str:0000000000000ea0 .LASF89
     /tmp/ccWdciDI.s:6037   .debug_str:0000000000000bf0 .LASF90
     /tmp/ccWdciDI.s:6021   .debug_str:0000000000000b93 .LASF91
     /tmp/ccWdciDI.s:5975   .debug_str:0000000000000a30 .LASF92
     /tmp/ccWdciDI.s:6115   .debug_str:0000000000000f63 .LASF93
     /tmp/ccWdciDI.s:5835   .debug_str:00000000000005b1 .LASF94
     /tmp/ccWdciDI.s:6071   .debug_str:0000000000000de9 .LASF95
     /tmp/ccWdciDI.s:5985   .debug_str:0000000000000a80 .LASF96
     /tmp/ccWdciDI.s:5753   .debug_str:0000000000000316 .LASF97
     /tmp/ccWdciDI.s:5763   .debug_str:000000000000038f .LASF98
     /tmp/ccWdciDI.s:5791   .debug_str:000000000000045d .LASF99
     /tmp/ccWdciDI.s:6113   .debug_str:0000000000000f5a .LASF100
     /tmp/ccWdciDI.s:5969   .debug_str:0000000000000a04 .LASF101
     /tmp/ccWdciDI.s:5783   .debug_str:0000000000000424 .LASF102
     /tmp/ccWdciDI.s:5799   .debug_str:00000000000004bb .LASF103
     /tmp/ccWdciDI.s:5739   .debug_str:00000000000002a3 .LASF104
     /tmp/ccWdciDI.s:5951   .debug_str:0000000000000979 .LASF106
     /tmp/ccWdciDI.s:5823   .debug_str:000000000000056e .LASF107
     /tmp/ccWdciDI.s:5947   .debug_str:000000000000094d .LASF108
     /tmp/ccWdciDI.s:5661   .debug_str:0000000000000041 .LASF109
     /tmp/ccWdciDI.s:6129   .debug_str:0000000000000fd1 .LASF110
     /tmp/ccWdciDI.s:6013   .debug_str:0000000000000b61 .LASF111
     /tmp/ccWdciDI.s:5913   .debug_str:000000000000086e .LASF112
     /tmp/ccWdciDI.s:5819   .debug_str:0000000000000555 .LASF113
     /tmp/ccWdciDI.s:6085   .debug_str:0000000000000e68 .LASF114
     /tmp/ccWdciDI.s:5703   .debug_str:0000000000000182 .LASF115
     /tmp/ccWdciDI.s:5883   .debug_str:000000000000076d .LASF116
     /tmp/ccWdciDI.s:5831   .debug_str:000000000000059f .LASF118
     /tmp/ccWdciDI.s:5737   .debug_str:0000000000000290 .LASF120
GAS LISTING /tmp/ccWdciDI.s 			page 38


     /tmp/ccWdciDI.s:5885   .debug_str:0000000000000775 .LASF121
     /tmp/ccWdciDI.s:5751   .debug_str:0000000000000303 .LASF122
     /tmp/ccWdciDI.s:6031   .debug_str:0000000000000bda .LASF123
     /tmp/ccWdciDI.s:5931   .debug_str:00000000000008e4 .LASF124
     /tmp/ccWdciDI.s:5787   .debug_str:0000000000000441 .LASF149
     /tmp/ccWdciDI.s:6093   .debug_str:0000000000000eba .LASF125
     /tmp/ccWdciDI.s:5907   .debug_str:0000000000000846 .LASF126
     /tmp/ccWdciDI.s:5713   .debug_str:00000000000001c2 .LASF127
     /tmp/ccWdciDI.s:5657   .debug_str:000000000000002a .LASF128
     /tmp/ccWdciDI.s:5967   .debug_str:00000000000009d6 .LASF129
     /tmp/ccWdciDI.s:5845   .debug_str:000000000000060b .LASF237
     /tmp/ccWdciDI.s:6061   .debug_str:0000000000000d75 .LASF130
     /tmp/ccWdciDI.s:6065   .debug_str:0000000000000d9e .LASF131
     /tmp/ccWdciDI.s:5887   .debug_str:000000000000077a .LASF132
     /tmp/ccWdciDI.s:5897   .debug_str:00000000000007bc .LASF133
     /tmp/ccWdciDI.s:5933   .debug_str:00000000000008f4 .LASF134
     /tmp/ccWdciDI.s:5905   .debug_str:0000000000000821 .LASF135
     /tmp/ccWdciDI.s:5929   .debug_str:00000000000008d7 .LASF136
     /tmp/ccWdciDI.s:5879   .debug_str:0000000000000743 .LASF137
     /tmp/ccWdciDI.s:5683   .debug_str:00000000000000e9 .LASF138
     /tmp/ccWdciDI.s:6101   .debug_str:0000000000000ef2 .LASF139
     /tmp/ccWdciDI.s:6039   .debug_str:0000000000000bfc .LASF141
     /tmp/ccWdciDI.s:5903   .debug_str:00000000000007f8 .LASF142
     /tmp/ccWdciDI.s:5891   .debug_str:000000000000078e .LASF143
     /tmp/ccWdciDI.s:5991   .debug_str:0000000000000ab3 .LASF144
     /tmp/ccWdciDI.s:6079   .debug_str:0000000000000e43 .LASF145
     /tmp/ccWdciDI.s:6041   .debug_str:0000000000000c0c .LASF146
     /tmp/ccWdciDI.s:5939   .debug_str:0000000000000921 .LASF147
     /tmp/ccWdciDI.s:5755   .debug_str:000000000000032f .LASF148
     /tmp/ccWdciDI.s:6081   .debug_str:0000000000000e55 .LASF150
     /tmp/ccWdciDI.s:5971   .debug_str:0000000000000a11 .LASF151
     /tmp/ccWdciDI.s:5813   .debug_str:000000000000051e .LASF152
     /tmp/ccWdciDI.s:5721   .debug_str:00000000000001fd .LASF168
     /tmp/ccWdciDI.s:6049   .debug_str:0000000000000d17 .LASF175
     /tmp/ccWdciDI.s:5909   .debug_str:000000000000084b .LASF153
     /tmp/ccWdciDI.s:6069   .debug_str:0000000000000dd9 .LASF154
     /tmp/ccWdciDI.s:6135   .debug_str:0000000000001011 .LASF155
     /tmp/ccWdciDI.s:6007   .debug_str:0000000000000b3a .LASF180
     /tmp/ccWdciDI.s:5705   .debug_str:0000000000000188 .LASF182
     /tmp/ccWdciDI.s:5999   .debug_str:0000000000000b19 .LASF156
     /tmp/ccWdciDI.s:5665   .debug_str:0000000000000054 .LASF157
     /tmp/ccWdciDI.s:5925   .debug_str:00000000000008b4 .LASF158
     /tmp/ccWdciDI.s:5681   .debug_str:00000000000000e3 .LASF159
     /tmp/ccWdciDI.s:5915   .debug_str:0000000000000873 .LASF160
     /tmp/ccWdciDI.s:5809   .debug_str:0000000000000504 .LASF161
     /tmp/ccWdciDI.s:6109   .debug_str:0000000000000f37 .LASF238
     /tmp/ccWdciDI.s:5761   .debug_str:0000000000000386 .LASF162
     /tmp/ccWdciDI.s:5781   .debug_str:0000000000000412 .LASF163
     /tmp/ccWdciDI.s:5919   .debug_str:0000000000000896 .LASF164
     /tmp/ccWdciDI.s:6131   .debug_str:0000000000000fe3 .LASF165
     /tmp/ccWdciDI.s:5691   .debug_str:0000000000000127 .LASF166
     /tmp/ccWdciDI.s:5719   .debug_str:00000000000001ee .LASF167
     /tmp/ccWdciDI.s:6067   .debug_str:0000000000000dbf .LASF169
     /tmp/ccWdciDI.s:6073   .debug_str:0000000000000e07 .LASF170
     /tmp/ccWdciDI.s:6025   .debug_str:0000000000000ba7 .LASF171
     /tmp/ccWdciDI.s:5655   .debug_str:0000000000000000 .LASF239
     /tmp/ccWdciDI.s:5917   .debug_str:0000000000000886 .LASF172
GAS LISTING /tmp/ccWdciDI.s 			page 39


     /tmp/ccWdciDI.s:5797   .debug_str:00000000000004a3 .LASF240
     /tmp/ccWdciDI.s:5685   .debug_str:0000000000000102 .LASF173
     /tmp/ccWdciDI.s:6043   .debug_str:0000000000000c36 .LASF174
     /tmp/ccWdciDI.s:6121   .debug_str:0000000000000fa0 .LASF176
     /tmp/ccWdciDI.s:6111   .debug_str:0000000000000f48 .LASF177
     /tmp/ccWdciDI.s:6077   .debug_str:0000000000000e30 .LASF178
     /tmp/ccWdciDI.s:5735   .debug_str:000000000000027e .LASF179
     /tmp/ccWdciDI.s:5957   .debug_str:000000000000099a .LASF181
     /tmp/ccWdciDI.s:5697   .debug_str:0000000000000152 .LASF183
     /tmp/ccWdciDI.s:5717   .debug_str:00000000000001d9 .LASF184
     /tmp/ccWdciDI.s:5673   .debug_str:0000000000000087 .LASF185
     /tmp/ccWdciDI.s:5821   .debug_str:000000000000055e .LASF241
     /tmp/ccWdciDI.s:5785   .debug_str:000000000000043c .LASF186
     /tmp/ccWdciDI.s:5669   .debug_str:0000000000000076 .LASF187
     /tmp/ccWdciDI.s:5733   .debug_str:0000000000000266 .LASF188
     /tmp/ccWdciDI.s:569    .text._ZN14PeriodicThreadD0Ev:0000000000000000 .LFB86
     /tmp/ccWdciDI.s:609    .text._ZN14PeriodicThreadD0Ev:000000000000004c .LFE86
     /tmp/ccWdciDI.s:5120   .debug_loc:0000000000000000 .LLST15
     /tmp/ccWdciDI.s:585    .text._ZN14PeriodicThreadD0Ev:0000000000000018 .LBB9
     /tmp/ccWdciDI.s:593    .text._ZN14PeriodicThreadD0Ev:000000000000002c .LBE9
     /tmp/ccWdciDI.s:5138   .debug_loc:000000000000004c .LLST16
     /tmp/ccWdciDI.s:591    .text._ZN14PeriodicThreadD0Ev:000000000000002c .LVL38
     /tmp/ccWdciDI.s:596    .text._ZN14PeriodicThreadD0Ev:0000000000000038 .LVL39
     /tmp/ccWdciDI.s:5973   .debug_str:0000000000000a18 .LASF189
     /tmp/ccWdciDI.s:127    .text._ZN14PeriodicThreadD2Ev:0000000000000000 .LFB84
     /tmp/ccWdciDI.s:155    .text._ZN14PeriodicThreadD2Ev:0000000000000034 .LFE84
     /tmp/ccWdciDI.s:5149   .debug_loc:0000000000000082 .LLST1
     /tmp/ccWdciDI.s:144    .text._ZN14PeriodicThreadD2Ev:0000000000000024 .LVL7
     /tmp/ccWdciDI.s:1145   .text:000000000000056c .LFB82
     /tmp/ccWdciDI.s:1171   .text:0000000000000594 .LFE82
     /tmp/ccWdciDI.s:5163   .debug_loc:00000000000000bb .LLST32
     /tmp/ccWdciDI.s:1160   .text:0000000000000584 .LVL85
     /tmp/ccWdciDI.s:1114   .text:0000000000000544 .LFB81
     /tmp/ccWdciDI.s:1139   .text:000000000000056c .LFE81
     /tmp/ccWdciDI.s:1128   .text:000000000000055c .LVL83
     /tmp/ccWdciDI.s:6015   .debug_str:0000000000000b66 .LASF190
     /tmp/ccWdciDI.s:1052   .text:00000000000004c8 .LFB79
     /tmp/ccWdciDI.s:1106   .text:0000000000000544 .LFE79
     /tmp/ccWdciDI.s:5177   .debug_loc:00000000000000f4 .LLST30
     /tmp/ccWdciDI.s:5195   .debug_loc:0000000000000140 .LLST31
     /tmp/ccWdciDI.s:1075   .text:00000000000004f4 .LVL79
     /tmp/ccWdciDI.s:1086   .text:0000000000000520 .LVL80
     /tmp/ccWdciDI.s:5723   .debug_str:000000000000020f .LASF191
     /tmp/ccWdciDI.s:5949   .debug_str:000000000000095d .LASF192
     /tmp/ccWdciDI.s:777    .text:0000000000000344 .LFB77
     /tmp/ccWdciDI.s:826    .text:0000000000000398 .LFE77
     /tmp/ccWdciDI.s:5213   .debug_loc:000000000000018c .LLST21
     /tmp/ccWdciDI.s:5953   .debug_str:0000000000000985 .LASF193
     /tmp/ccWdciDI.s:5224   .debug_loc:00000000000001c2 .LLST22
     /tmp/ccWdciDI.s:809    .text:000000000000037c .LVL58
     /tmp/ccWdciDI.s:1020   .text:00000000000004a0 .LFB76
     /tmp/ccWdciDI.s:1046   .text:00000000000004c8 .LFE76
     /tmp/ccWdciDI.s:5235   .debug_loc:00000000000001f8 .LLST29
     /tmp/ccWdciDI.s:1035   .text:00000000000004b8 .LVL76
     /tmp/ccWdciDI.s:949    .text:0000000000000438 .LFB75
     /tmp/ccWdciDI.s:975    .text:0000000000000460 .LFE75
     /tmp/ccWdciDI.s:5981   .debug_str:0000000000000a5d .LASF194
GAS LISTING /tmp/ccWdciDI.s 			page 40


     /tmp/ccWdciDI.s:5249   .debug_loc:0000000000000231 .LLST27
     /tmp/ccWdciDI.s:964    .text:0000000000000450 .LVL70
     /tmp/ccWdciDI.s:915    .text:000000000000040c .LFB74
     /tmp/ccWdciDI.s:943    .text:0000000000000438 .LFE74
     /tmp/ccWdciDI.s:5263   .debug_loc:000000000000026a .LLST26
     /tmp/ccWdciDI.s:932    .text:0000000000000428 .LVL68
     /tmp/ccWdciDI.s:881    .text:00000000000003e0 .LFB73
     /tmp/ccWdciDI.s:909    .text:000000000000040c .LFE73
     /tmp/ccWdciDI.s:5277   .debug_loc:00000000000002a3 .LLST25
     /tmp/ccWdciDI.s:898    .text:00000000000003fc .LVL65
     /tmp/ccWdciDI.s:5871   .debug_str:000000000000070d .LASF195
     /tmp/ccWdciDI.s:981    .text:0000000000000460 .LFB72
     /tmp/ccWdciDI.s:1014   .text:00000000000004a0 .LFE72
     /tmp/ccWdciDI.s:5291   .debug_loc:00000000000002dc .LLST28
     /tmp/ccWdciDI.s:998    .text:0000000000000480 .LVL72
     /tmp/ccWdciDI.s:1001   .text:000000000000048c .LVL73
     /tmp/ccWdciDI.s:5677   .debug_str:00000000000000be .LASF196
     /tmp/ccWdciDI.s:164    .text:0000000000000054 .LFB70
     /tmp/ccWdciDI.s:199    .text:000000000000008c .LFE70
     /tmp/ccWdciDI.s:5309   .debug_loc:0000000000000328 .LLST2
     /tmp/ccWdciDI.s:187    .text:000000000000007c .LVL10
     /tmp/ccWdciDI.s:5687   .debug_str:000000000000010c .LASF197
     /tmp/ccWdciDI.s:5715   .debug_str:00000000000001c7 .LASF198
     /tmp/ccWdciDI.s:832    .text:0000000000000398 .LFB67
     /tmp/ccWdciDI.s:873    .text:00000000000003e0 .LFE67
     /tmp/ccWdciDI.s:5323   .debug_loc:0000000000000361 .LLST23
     /tmp/ccWdciDI.s:5341   .debug_loc:00000000000003ad .LLST24
     /tmp/ccWdciDI.s:856    .text:00000000000003c8 .LVL61
     /tmp/ccWdciDI.s:745    .text:000000000000031c .LFB65
     /tmp/ccWdciDI.s:771    .text:0000000000000344 .LFE65
     /tmp/ccWdciDI.s:5941   .debug_str:0000000000000931 .LASF199
     /tmp/ccWdciDI.s:5355   .debug_loc:00000000000003e6 .LLST20
     /tmp/ccWdciDI.s:760    .text:0000000000000334 .LVL53
     /tmp/ccWdciDI.s:5699   .debug_str:0000000000000164 .LASF200
     /tmp/ccWdciDI.s:5855   .debug_str:000000000000066e .LASF201
     /tmp/ccWdciDI.s:319    .text:0000000000000104 .LFB64
     /tmp/ccWdciDI.s:377    .text:0000000000000168 .LFE64
     /tmp/ccWdciDI.s:5369   .debug_loc:000000000000041f .LLST6
     /tmp/ccWdciDI.s:5777   .debug_str:00000000000003fe .LASF202
     /tmp/ccWdciDI.s:5387   .debug_loc:000000000000046b .LLST7
     /tmp/ccWdciDI.s:362    .text:0000000000000154 .LVL21
     /tmp/ccWdciDI.s:5979   .debug_str:0000000000000a4e .LASF203
     /tmp/ccWdciDI.s:683    .text:00000000000002b0 .LFB62
     /tmp/ccWdciDI.s:737    .text:000000000000031c .LFE62
     /tmp/ccWdciDI.s:5405   .debug_loc:00000000000004b7 .LLST18
     /tmp/ccWdciDI.s:708    .text:00000000000002e0 .LVL47
     /tmp/ccWdciDI.s:721    .text:0000000000000308 .LVL50
     /tmp/ccWdciDI.s:702    .text:00000000000002d4 .LBB12
     /tmp/ccWdciDI.s:722    .text:0000000000000308 .LBE12
     /tmp/ccWdciDI.s:5423   .debug_loc:0000000000000503 .LLST19
     /tmp/ccWdciDI.s:647    .text:0000000000000280 .LFB60
     /tmp/ccWdciDI.s:677    .text:00000000000002b0 .LFE60
     /tmp/ccWdciDI.s:5434   .debug_loc:0000000000000539 .LLST17
     /tmp/ccWdciDI.s:664    .text:000000000000029c .LVL44
     /tmp/ccWdciDI.s:616    .text:0000000000000258 .LFB59
     /tmp/ccWdciDI.s:641    .text:0000000000000280 .LFE59
     /tmp/ccWdciDI.s:630    .text:0000000000000270 .LVL41
GAS LISTING /tmp/ccWdciDI.s 			page 41


     /tmp/ccWdciDI.s:497    .text:00000000000001f0 .LFB58
     /tmp/ccWdciDI.s:523    .text:0000000000000218 .LFE58
     /tmp/ccWdciDI.s:5454   .debug_loc:0000000000000587 .LLST13
     /tmp/ccWdciDI.s:512    .text:0000000000000208 .LVL31
     /tmp/ccWdciDI.s:465    .text:00000000000001c8 .LFB57
     /tmp/ccWdciDI.s:491    .text:00000000000001f0 .LFE57
     /tmp/ccWdciDI.s:5468   .debug_loc:00000000000005c0 .LLST12
     /tmp/ccWdciDI.s:480    .text:00000000000001e0 .LVL29
     /tmp/ccWdciDI.s:5877   .debug_str:0000000000000734 .LASF204
     /tmp/ccWdciDI.s:529    .text:0000000000000218 .LFB56
     /tmp/ccWdciDI.s:562    .text:0000000000000258 .LFE56
     /tmp/ccWdciDI.s:5482   .debug_loc:00000000000005f9 .LLST14
     /tmp/ccWdciDI.s:546    .text:0000000000000238 .LVL33
     /tmp/ccWdciDI.s:549    .text:0000000000000244 .LVL34
     /tmp/ccWdciDI.s:6107   .debug_str:0000000000000f28 .LASF205
     /tmp/ccWdciDI.s:62     .text:0000000000000000 .LFB54
     /tmp/ccWdciDI.s:110    .text:0000000000000054 .LFE54
     /tmp/ccWdciDI.s:5500   .debug_loc:0000000000000645 .LLST0
     /tmp/ccWdciDI.s:92     .text:0000000000000034 .LVL4
     /tmp/ccWdciDI.s:95     .text:0000000000000040 .LVL5
     /tmp/ccWdciDI.s:5837   .debug_str:00000000000005c4 .LASF206
     /tmp/ccWdciDI.s:6055   .debug_str:0000000000000d42 .LASF207
     /tmp/ccWdciDI.s:424    .text:0000000000000190 .LFB51
     /tmp/ccWdciDI.s:457    .text:00000000000001c8 .LFE51
     /tmp/ccWdciDI.s:5514   .debug_loc:000000000000067e .LLST9
     /tmp/ccWdciDI.s:5534   .debug_loc:00000000000006cc .LLST10
     /tmp/ccWdciDI.s:5548   .debug_loc:0000000000000705 .LLST11
     /tmp/ccWdciDI.s:445    .text:00000000000001b8 .LVL27
     /tmp/ccWdciDI.s:5771   .debug_str:00000000000003d1 .LASF208
     /tmp/ccWdciDI.s:5847   .debug_str:0000000000000639 .LASF209
     /tmp/ccWdciDI.s:383    .text:0000000000000168 .LFB49
     /tmp/ccWdciDI.s:411    .text:0000000000000190 .LFE49
     /tmp/ccWdciDI.s:5562   .debug_loc:000000000000073e .LLST8
     /tmp/ccWdciDI.s:400    .text:0000000000000180 .LVL24
     /tmp/ccWdciDI.s:5923   .debug_str:00000000000008ad .LASF210
     /tmp/ccWdciDI.s:278    .text:00000000000000dc .LFB48
     /tmp/ccWdciDI.s:306    .text:0000000000000104 .LFE48
     /tmp/ccWdciDI.s:5576   .debug_loc:0000000000000777 .LLST5
     /tmp/ccWdciDI.s:295    .text:00000000000000f4 .LVL16
     /tmp/ccWdciDI.s:5701   .debug_str:0000000000000172 .LASF211
     /tmp/ccWdciDI.s:6035   .debug_str:0000000000000bea .LASF212
     /tmp/ccWdciDI.s:246    .text:00000000000000b4 .LFB47
     /tmp/ccWdciDI.s:272    .text:00000000000000dc .LFE47
     /tmp/ccWdciDI.s:5590   .debug_loc:00000000000007b0 .LLST4
     /tmp/ccWdciDI.s:261    .text:00000000000000cc .LVL14
     /tmp/ccWdciDI.s:5899   .debug_str:00000000000007dd .LASF213
     /tmp/ccWdciDI.s:214    .text:000000000000008c .LFB46
     /tmp/ccWdciDI.s:240    .text:00000000000000b4 .LFE46
     /tmp/ccWdciDI.s:5604   .debug_loc:00000000000007e9 .LLST3
     /tmp/ccWdciDI.s:229    .text:00000000000000a4 .LVL12
     /tmp/ccWdciDI.s:37     .text._ZN14PeriodicThread18periodicActivationEv:0000000000000000 .LFB17
     /tmp/ccWdciDI.s:55     .text._ZN14PeriodicThread18periodicActivationEv:0000000000000018 .LFE17
     /tmp/ccWdciDI.s:11     .text._ZN6Thread3runEv:0000000000000000 .LFB16
     /tmp/ccWdciDI.s:30     .text._ZN6Thread3runEv:0000000000000018 .LFE16
     /tmp/ccWdciDI.s:6019   .debug_str:0000000000000b8a .LASF214
     /tmp/ccWdciDI.s:6083   .debug_str:0000000000000e5f .LASF215
     /tmp/ccWdciDI.s:5911   .debug_str:000000000000085a .LASF216
GAS LISTING /tmp/ccWdciDI.s 			page 42


     /tmp/ccWdciDI.s:5811   .debug_str:0000000000000513 .LASF217
     /tmp/ccWdciDI.s:5893   .debug_str:000000000000079d .LASF218
     /tmp/ccWdciDI.s:6001   .debug_str:0000000000000b1f .LASF219
     /tmp/ccWdciDI.s:6057   .debug_str:0000000000000d59 .LASF220
     /tmp/ccWdciDI.s:5959   .debug_str:00000000000009a5 .LASF221
     /tmp/ccWdciDI.s:5943   .debug_str:0000000000000936 .LASF222
     /tmp/ccWdciDI.s:5729   .debug_str:0000000000000248 .LASF223
     /tmp/ccWdciDI.s:5863   .debug_str:00000000000006b7 .LASF224
     /tmp/ccWdciDI.s:5727   .debug_str:0000000000000235 .LASF225
     /tmp/ccWdciDI.s:5795   .debug_str:000000000000048c .LASF226
     /tmp/ccWdciDI.s:5937   .debug_str:0000000000000914 .LASF227
     /tmp/ccWdciDI.s:5901   .debug_str:00000000000007e3 .LASF228
     /tmp/ccWdciDI.s:5961   .debug_str:00000000000009af .LASF229
     /tmp/ccWdciDI.s:5965   .debug_str:00000000000009c8 .LASF230
     /tmp/ccWdciDI.s:5801   .debug_str:00000000000004c3 .LASF231
     /tmp/ccWdciDI.s:572    .text._ZN14PeriodicThreadD0Ev:0000000000000000 .LVL36
     /tmp/ccWdciDI.s:604    .text._ZN14PeriodicThreadD0Ev:0000000000000044 .LVL40
     /tmp/ccWdciDI.s:584    .text._ZN14PeriodicThreadD0Ev:0000000000000018 .LVL37
     /tmp/ccWdciDI.s:130    .text._ZN14PeriodicThreadD2Ev:0000000000000000 .LVL6
     /tmp/ccWdciDI.s:1148   .text:000000000000056c .LVL84
     /tmp/ccWdciDI.s:1055   .text:00000000000004c8 .LVL77
     /tmp/ccWdciDI.s:1073   .text:00000000000004ec .LVL78
     /tmp/ccWdciDI.s:1098   .text:0000000000000538 .LVL81
     /tmp/ccWdciDI.s:1101   .text:000000000000053c .LVL82
     /tmp/ccWdciDI.s:780    .text:0000000000000344 .LVL54
     /tmp/ccWdciDI.s:795    .text:0000000000000360 .LVL56
     /tmp/ccWdciDI.s:793    .text:000000000000035c .LVL55
     /tmp/ccWdciDI.s:1023   .text:00000000000004a0 .LVL75
     /tmp/ccWdciDI.s:952    .text:0000000000000438 .LVL69
     /tmp/ccWdciDI.s:918    .text:000000000000040c .LVL66
     /tmp/ccWdciDI.s:930    .text:0000000000000420 .LVL67
     /tmp/ccWdciDI.s:884    .text:00000000000003e0 .LVL63
     /tmp/ccWdciDI.s:896    .text:00000000000003f4 .LVL64
     /tmp/ccWdciDI.s:984    .text:0000000000000460 .LVL71
     /tmp/ccWdciDI.s:1009   .text:0000000000000498 .LVL74
     /tmp/ccWdciDI.s:169    .text:0000000000000054 .LVL8
     /tmp/ccWdciDI.s:185    .text:0000000000000074 .LVL9
     /tmp/ccWdciDI.s:835    .text:0000000000000398 .LVL59
     /tmp/ccWdciDI.s:854    .text:00000000000003c0 .LVL60
     /tmp/ccWdciDI.s:868    .text:00000000000003d8 .LVL62
     /tmp/ccWdciDI.s:748    .text:000000000000031c .LVL52
     /tmp/ccWdciDI.s:322    .text:0000000000000104 .LVL17
     /tmp/ccWdciDI.s:339    .text:0000000000000120 .LVL19
     /tmp/ccWdciDI.s:372    .text:0000000000000160 .LVL22
     /tmp/ccWdciDI.s:335    .text:000000000000011c .LVL18
     /tmp/ccWdciDI.s:686    .text:00000000000002b0 .LVL45
     /tmp/ccWdciDI.s:706    .text:00000000000002d8 .LVL46
     /tmp/ccWdciDI.s:732    .text:0000000000000314 .LVL51
     /tmp/ccWdciDI.s:714    .text:00000000000002f4 .LVL48
     /tmp/ccWdciDI.s:719    .text:0000000000000300 .LVL49
     /tmp/ccWdciDI.s:650    .text:0000000000000280 .LVL42
     /tmp/ccWdciDI.s:662    .text:0000000000000294 .LVL43
     /tmp/ccWdciDI.s:500    .text:00000000000001f0 .LVL30
     /tmp/ccWdciDI.s:468    .text:00000000000001c8 .LVL28
     /tmp/ccWdciDI.s:532    .text:0000000000000218 .LVL32
     /tmp/ccWdciDI.s:557    .text:0000000000000250 .LVL35
     /tmp/ccWdciDI.s:68     .text:0000000000000000 .LVL2
GAS LISTING /tmp/ccWdciDI.s 			page 43


     /tmp/ccWdciDI.s:90     .text:000000000000002c .LVL3
     /tmp/ccWdciDI.s:427    .text:0000000000000190 .LVL25
     /tmp/ccWdciDI.s:443    .text:00000000000001b0 .LVL26
     /tmp/ccWdciDI.s:388    .text:0000000000000168 .LVL23
     /tmp/ccWdciDI.s:283    .text:00000000000000dc .LVL15
     /tmp/ccWdciDI.s:249    .text:00000000000000b4 .LVL13
     /tmp/ccWdciDI.s:217    .text:000000000000008c .LVL11
     /tmp/ccWdciDI.s:1215   .debug_info:0000000000000000 .Ldebug_info0
     /tmp/ccWdciDI.s:5      .text:0000000000000000 .Ltext0
     /tmp/ccWdciDI.s:1207   .text:0000000000000594 .Letext0
     /tmp/ccWdciDI.s:113    .gcc_except_table:0000000000000000 .LLSDA54
     /tmp/ccWdciDI.s:201    .gcc_except_table:0000000000000004 .LLSDA70
     /tmp/ccWdciDI.s:308    .gcc_except_table:0000000000000008 .LLSDA48
     /tmp/ccWdciDI.s:413    .gcc_except_table:000000000000000c .LLSDA49
                           .group:0000000000000000 _ZN14PeriodicThreadD5Ev

UNDEFINED SYMBOLS
_ZN3PCBD1Ev
_ZN3PCBdlEPv
__gxx_personality_v0
_Z9sem_closeP3SCB
_Z9mem_allocm
_Z8mem_freePv
_Z18thread_create_onlyPP3PCBPFvPvES2_
_ZN15MemoryAllocator9mem_allocEm
_ZN15MemoryAllocator8mem_freeEPv
_Z15thread_dispatchv
_Z12thread_startPP3PCB
_Z10time_sleepm
_ZN3SCB15createSemaphoreEi
_Z8sem_waitP3SCB
_Z10sem_signalP3SCB
_Z4getcv
_Z4putcc
