GAS LISTING /tmp/ccXvruhy.s 			page 1


   1              		.file	"syscall_c.cpp"
   2              		.option pic
   3              		.option norelax
   4              		.text
   5              	.Ltext0:
   6              		.align	2
   7              		.globl	_Z13callInterruptm
   9              	_Z13callInterruptm:
  10              	.LFB34:
  11              		.file 1 "src/syscall_c.cpp"
   1:src/syscall_c.cpp **** #include "../h/syscall_c.h"
   2:src/syscall_c.cpp **** #include "../h/MemoryAllocator.h"
   3:src/syscall_c.cpp **** #include "../h/kernel.h"
   4:src/syscall_c.cpp **** #include "../h/PCB.h"
   5:src/syscall_c.cpp **** #include "../h/console.h"
   6:src/syscall_c.cpp **** 
   7:src/syscall_c.cpp **** extern "C" void interrupt(); // u interrupt treba dodati i cuvanje konteksta
   8:src/syscall_c.cpp **** // prelazak u sistemski rezim i prelazak na sistemsku funkciju zadatu u registru stvec(asemblerska 
   9:src/syscall_c.cpp **** void* callInterrupt(size_t volatile code) {
  12              		.loc 1 9 43
  13              		.cfi_startproc
  14              	.LVL0:
  15 0000 130101FE 		addi	sp,sp,-32
  16              		.cfi_def_cfa_offset 32
  17 0004 233C8100 		sd	s0,24(sp)
  18              		.cfi_offset 8, -8
  19 0008 13040102 		addi	s0,sp,32
  20              		.cfi_def_cfa 8, 0
  21 000c 2334A4FE 		sd	a0,-24(s0)
  10:src/syscall_c.cpp ****     void* res;
  22              		.loc 1 10 5
  11:src/syscall_c.cpp ****     asm volatile("ecall");
  23              		.loc 1 11 5
  24              		.loc 1 11 26 is_stmt 0
  25              	#APP
  26              	# 11 "src/syscall_c.cpp" 1
  12              	    asm volatile("mv %0, a0" : "=r" (res));
  27              		ecall
  28              	# 0 "" 2
  29              		.loc 1 12 5 is_stmt 1
  30              		.loc 1 12 43 is_stmt 0
  31              	# 12 "src/syscall_c.cpp" 1
  13              	    return res;
  32              		mv a0, a0
  33              	# 0 "" 2
  34              	.LVL1:
  35              		.loc 1 13 5 is_stmt 1
  14:src/syscall_c.cpp **** }
  36              		.loc 1 14 1 is_stmt 0
  37              	#NO_APP
  38 0018 03348101 		ld	s0,24(sp)
  39              		.cfi_restore 8
  40              		.cfi_def_cfa 2, 32
  41              	.LVL2:
  42 001c 13010102 		addi	sp,sp,32
  43              		.cfi_def_cfa_offset 0
  44              	.LVL3:
GAS LISTING /tmp/ccXvruhy.s 			page 2


  45 0020 67800000 		jr	ra
  46              		.cfi_endproc
  47              	.LFE34:
  49              		.align	2
  50              		.globl	_Z9mem_allocm
  52              	_Z9mem_allocm:
  53              	.LFB35:
  15:src/syscall_c.cpp **** 
  16:src/syscall_c.cpp **** // a0 code a1 size
  17:src/syscall_c.cpp **** void* mem_alloc(size_t size) {
  54              		.loc 1 17 30 is_stmt 1
  55              		.cfi_startproc
  56              	.LVL4:
  57 0024 130101FF 		addi	sp,sp,-16
  58              		.cfi_def_cfa_offset 16
  59 0028 23341100 		sd	ra,8(sp)
  60 002c 23308100 		sd	s0,0(sp)
  61              		.cfi_offset 1, -8
  62              		.cfi_offset 8, -16
  63 0030 13040101 		addi	s0,sp,16
  64              		.cfi_def_cfa 8, 0
  18:src/syscall_c.cpp ****     size_t code = Kernel::sysCallCodes::mem_alloc; // kod sistemskog poziva
  65              		.loc 1 18 5
  66              	.LVL5:
  19:src/syscall_c.cpp ****     // size je dat u bajtovima, a mi treba da ga prebacimo u blokove i onda opet upisemo u a1
  20:src/syscall_c.cpp ****     size = MemoryAllocator::sizeInBlocks(size); // funkcija menja a0
  67              		.loc 1 20 5
  68              	.LBB6:
  69              	.LBB7:
  70              		.file 2 "src/../h/MemoryAllocator.h"
   1:src/../h/MemoryAllocator.h **** #ifndef PROJECT_BASE_MEMORYALLOCATOR_H
   2:src/../h/MemoryAllocator.h **** #define PROJECT_BASE_MEMORYALLOCATOR_H
   3:src/../h/MemoryAllocator.h **** 
   4:src/../h/MemoryAllocator.h **** #include "hw.h"
   5:src/../h/MemoryAllocator.h **** 
   6:src/../h/MemoryAllocator.h **** class MemoryAllocator {
   7:src/../h/MemoryAllocator.h **** public:
   8:src/../h/MemoryAllocator.h ****     /*
   9:src/../h/MemoryAllocator.h ****     Alocira (najmanje) size bajtova memorije, zaokruženo i poravnato na blokove veličine MEM_BLOC
  10:src/../h/MemoryAllocator.h ****     Svaki alocirani segment ima zaglavlje sa velicinom tog segmenta(vraca se adresa nakon tog zagla
  11:src/../h/MemoryAllocator.h **** 
  12:src/../h/MemoryAllocator.h ****     Vraća:
  13:src/../h/MemoryAllocator.h ****     pokazivač na alocirani deo memorije u slučaju uspeha, nullptr u slučaju neuspeha
  14:src/../h/MemoryAllocator.h **** 
  15:src/../h/MemoryAllocator.h ****     Radi se po algoritmu first fit(alociramo prvi segment koji je >= size). Ako je preostao prostor
  16:src/../h/MemoryAllocator.h ****     jednog bloka, taj preostali prostor se pridruzuje ovom koji smo sad alocirali(jer nema poente d
  17:src/../h/MemoryAllocator.h ****     */
  18:src/../h/MemoryAllocator.h ****     static void* mem_alloc(size_t size);
  19:src/../h/MemoryAllocator.h ****     /*
  20:src/../h/MemoryAllocator.h ****     Oslobađa prostor prethodno zauzet pomoću mem_alloc.
  21:src/../h/MemoryAllocator.h ****     Vraća 0 u slučaju uspeha, BAD_POINTER  flag ako je dostavljen los pokazivac.
  22:src/../h/MemoryAllocator.h ****     Ako je moguce, spaja dva susedna slobodna segmenta u jedan veci
  23:src/../h/MemoryAllocator.h ****     */
  24:src/../h/MemoryAllocator.h ****     static int mem_free(void* memSegment);
  25:src/../h/MemoryAllocator.h **** 
  26:src/../h/MemoryAllocator.h ****     enum memFreeFlags {
  27:src/../h/MemoryAllocator.h ****         BAD_POINTER = -1 // nije koriscen pokazviac iz mem_alloc
GAS LISTING /tmp/ccXvruhy.s 			page 3


  28:src/../h/MemoryAllocator.h ****     };
  29:src/../h/MemoryAllocator.h **** 
  30:src/../h/MemoryAllocator.h ****     // Vraca minimalan potreban broj blokova za alokaciju memorije velicine size bajtova
  31:src/../h/MemoryAllocator.h ****     static inline size_t sizeInBlocks(size_t size) {
  32:src/../h/MemoryAllocator.h ****         return (size / MEM_BLOCK_SIZE) + (size % MEM_BLOCK_SIZE > 0);
  71              		.loc 2 32 9
  72              		.loc 2 32 22 is_stmt 0
  73 0034 93576500 		srli	a5,a0,6
  74              		.loc 2 32 48
  75 0038 1375F503 		andi	a0,a0,63
  76              	.LVL6:
  77              		.loc 2 32 65
  78 003c 3335A000 		snez	a0,a0
  79              		.loc 2 32 68
  80 0040 3385A700 		add	a0,a5,a0
  81              	.LVL7:
  82              	.LBE7:
  83              	.LBE6:
  21:src/syscall_c.cpp ****     asm volatile("mv a1, %0" : : "r" (size)); // a1 = size
  84              		.loc 1 21 5 is_stmt 1
  85              		.loc 1 21 45 is_stmt 0
  86              	#APP
  87              	# 21 "src/syscall_c.cpp" 1
  22              	
  23:src/syscall_c.cpp ****     return (void*)callInterrupt(code);
  88              		mv a1, a0
  89              	# 0 "" 2
  90              		.loc 1 23 5 is_stmt 1
  91              		.loc 1 23 32 is_stmt 0
  92              	#NO_APP
  93 0048 13051000 		li	a0,1
  94              	.LVL8:
  95 004c 97000000 		call	_Z13callInterruptm
  95      E7800000 
  96              	.LVL9:
  24:src/syscall_c.cpp **** }
  97              		.loc 1 24 1
  98 0054 83308100 		ld	ra,8(sp)
  99              		.cfi_restore 1
 100 0058 03340100 		ld	s0,0(sp)
 101              		.cfi_restore 8
 102              		.cfi_def_cfa 2, 16
 103 005c 13010101 		addi	sp,sp,16
 104              		.cfi_def_cfa_offset 0
 105 0060 67800000 		jr	ra
 106              		.cfi_endproc
 107              	.LFE35:
 109              		.align	2
 110              		.globl	_Z8mem_freePv
 112              	_Z8mem_freePv:
 113              	.LFB36:
  25:src/syscall_c.cpp **** 
  26:src/syscall_c.cpp **** // a0 code a1 memSegment
  27:src/syscall_c.cpp **** int mem_free (void* memSegment) {
 114              		.loc 1 27 33 is_stmt 1
 115              		.cfi_startproc
 116              	.LVL10:
GAS LISTING /tmp/ccXvruhy.s 			page 4


 117 0064 130101FF 		addi	sp,sp,-16
 118              		.cfi_def_cfa_offset 16
 119 0068 23341100 		sd	ra,8(sp)
 120 006c 23308100 		sd	s0,0(sp)
 121              		.cfi_offset 1, -8
 122              		.cfi_offset 8, -16
 123 0070 13040101 		addi	s0,sp,16
 124              		.cfi_def_cfa 8, 0
  28:src/syscall_c.cpp ****     size_t code = Kernel::sysCallCodes::mem_free; // kod sistemskog poziva
 125              		.loc 1 28 5
 126              	.LVL11:
  29:src/syscall_c.cpp ****     asm volatile("mv a1, a0"); // a1 = memSegment
 127              		.loc 1 29 5
 128              		.loc 1 29 30 is_stmt 0
 129              	#APP
 130              	# 29 "src/syscall_c.cpp" 1
  30              	
  31:src/syscall_c.cpp ****     return (size_t)(callInterrupt(code));
 131              		mv a1, a0
 132              	# 0 "" 2
 133              		.loc 1 31 5 is_stmt 1
 134              		.loc 1 31 34 is_stmt 0
 135              	#NO_APP
 136 0078 13052000 		li	a0,2
 137              	.LVL12:
 138 007c 97000000 		call	_Z13callInterruptm
 138      E7800000 
 139              	.LVL13:
  32:src/syscall_c.cpp **** }
 140              		.loc 1 32 1
 141 0084 1B050500 		sext.w	a0,a0
 142 0088 83308100 		ld	ra,8(sp)
 143              		.cfi_restore 1
 144 008c 03340100 		ld	s0,0(sp)
 145              		.cfi_restore 8
 146              		.cfi_def_cfa 2, 16
 147 0090 13010101 		addi	sp,sp,16
 148              		.cfi_def_cfa_offset 0
 149 0094 67800000 		jr	ra
 150              		.cfi_endproc
 151              	.LFE36:
 153              		.align	2
 154              		.globl	_Z18thread_create_onlyPP3PCBPFvPvES2_
 156              	_Z18thread_create_onlyPP3PCBPFvPvES2_:
 157              	.LFB37:
  33:src/syscall_c.cpp **** 
  34:src/syscall_c.cpp **** // a0 - code a1 - handle a2 - startRoutine a3 - arg a4 - stackSpace, a5 - deleteArgFlag
  35:src/syscall_c.cpp **** int thread_create_only (thread_t* handle, void(*startRoutine)(void*), void* arg) {
 158              		.loc 1 35 82 is_stmt 1
 159              		.cfi_startproc
 160              	.LVL14:
 161 0098 130101FF 		addi	sp,sp,-16
 162              		.cfi_def_cfa_offset 16
 163 009c 23341100 		sd	ra,8(sp)
 164 00a0 23308100 		sd	s0,0(sp)
 165              		.cfi_offset 1, -8
 166              		.cfi_offset 8, -16
GAS LISTING /tmp/ccXvruhy.s 			page 5


 167 00a4 13040101 		addi	s0,sp,16
 168              		.cfi_def_cfa 8, 0
  36:src/syscall_c.cpp ****     size_t code = Kernel::sysCallCodes::thread_create;
 169              		.loc 1 36 5
 170              	.LVL15:
  37:src/syscall_c.cpp ****     asm volatile("mv a3, a2"); // a3 = arg
 171              		.loc 1 37 5
 172              		.loc 1 37 30 is_stmt 0
 173              	#APP
 174              	# 37 "src/syscall_c.cpp" 1
  38              	    asm volatile("mv a2, a1"); // a2 = startRoutine
 175              		mv a3, a2
 176              	# 0 "" 2
 177              		.loc 1 38 5 is_stmt 1
 178              		.loc 1 38 30 is_stmt 0
 179              	# 38 "src/syscall_c.cpp" 1
  39              	    asm volatile("mv a4, a0"); // a4 = handle privremeno cuvamo da bismo posle vratili u a1
 180              		mv a2, a1
 181              	# 0 "" 2
 182              		.loc 1 39 5 is_stmt 1
 183              		.loc 1 39 30 is_stmt 0
 184              	# 39 "src/syscall_c.cpp" 1
  40              	
  41:src/syscall_c.cpp **** 
  42:src/syscall_c.cpp ****     size_t* stack = (size_t*)mem_alloc(sizeof(size_t)*DEFAULT_STACK_SIZE); // pravimo stack procesa
 185              		mv a4, a0
 186              	# 0 "" 2
 187              		.loc 1 42 5 is_stmt 1
 188              		.loc 1 42 39 is_stmt 0
 189              	#NO_APP
 190 00b4 37850000 		li	a0,32768
 191              	.LVL16:
 192 00b8 97000000 		call	_Z9mem_allocm
 192      E7800000 
 193              	.LVL17:
  43:src/syscall_c.cpp ****     if(stack == nullptr) return -1;
 194              		.loc 1 43 5 is_stmt 1
 195 00c0 630A0502 		beqz	a0,.L9
  44:src/syscall_c.cpp **** 
  45:src/syscall_c.cpp ****     asm volatile("mv a1, a4"); // a1 = a5(handle)
 196              		.loc 1 45 5
 197              		.loc 1 45 30 is_stmt 0
 198              	#APP
 199              	# 45 "src/syscall_c.cpp" 1
  46              	    asm volatile("mv a4, %0" : : "r" (stack));
 200              		mv a1, a4
 201              	# 0 "" 2
 202              		.loc 1 46 5 is_stmt 1
 203              		.loc 1 46 46 is_stmt 0
 204              	# 46 "src/syscall_c.cpp" 1
  47              	
  48:src/syscall_c.cpp ****     handle = (thread_t*)(callInterrupt(code)); // vraca se pokazivac na PCB, ili nullptr ako je neu
 205              		mv a4, a0
 206              	# 0 "" 2
 207              		.loc 1 48 5 is_stmt 1
 208              		.loc 1 48 39 is_stmt 0
 209              	#NO_APP
GAS LISTING /tmp/ccXvruhy.s 			page 6


 210 00cc 13051001 		li	a0,17
 211              	.LVL18:
 212 00d0 97000000 		call	_Z13callInterruptm
 212      E7800000 
 213              	.LVL19:
  49:src/syscall_c.cpp ****     if(*handle == nullptr) {
 214              		.loc 1 49 5 is_stmt 1
 215              		.loc 1 49 8 is_stmt 0
 216 00d8 83370500 		ld	a5,0(a0)
 217              		.loc 1 49 5
 218 00dc 63800702 		beqz	a5,.L10
  50:src/syscall_c.cpp ****         return -1;
  51:src/syscall_c.cpp ****     }
  52:src/syscall_c.cpp ****     return 0;
 219              		.loc 1 52 12
 220 00e0 13050000 		li	a0,0
 221              	.LVL20:
 222              	.L8:
  53:src/syscall_c.cpp **** }
 223              		.loc 1 53 1
 224 00e4 83308100 		ld	ra,8(sp)
 225              		.cfi_remember_state
 226              		.cfi_restore 1
 227 00e8 03340100 		ld	s0,0(sp)
 228              		.cfi_restore 8
 229              		.cfi_def_cfa 2, 16
 230 00ec 13010101 		addi	sp,sp,16
 231              		.cfi_def_cfa_offset 0
 232 00f0 67800000 		jr	ra
 233              	.LVL21:
 234              	.L9:
 235              		.cfi_restore_state
  43:src/syscall_c.cpp **** 
 236              		.loc 1 43 34
 237 00f4 1305F0FF 		li	a0,-1
 238              	.LVL22:
 239 00f8 6FF0DFFE 		j	.L8
 240              	.LVL23:
 241              	.L10:
  50:src/syscall_c.cpp ****         return -1;
 242              		.loc 1 50 17
 243 00fc 1305F0FF 		li	a0,-1
 244              	.LVL24:
 245 0100 6FF05FFE 		j	.L8
 246              		.cfi_endproc
 247              	.LFE37:
 249              		.align	2
 250              		.globl	_Z15thread_dispatchv
 252              	_Z15thread_dispatchv:
 253              	.LFB39:
  54:src/syscall_c.cpp **** 
  55:src/syscall_c.cpp **** int thread_create(thread_t* handle, void(*startRoutine)(void*), void* arg) {
  56:src/syscall_c.cpp ****     int res = thread_create_only(handle, startRoutine, arg);
  57:src/syscall_c.cpp ****     thread_start(handle);
  58:src/syscall_c.cpp ****     return res;
  59:src/syscall_c.cpp **** }
  60:src/syscall_c.cpp **** 
GAS LISTING /tmp/ccXvruhy.s 			page 7


  61:src/syscall_c.cpp **** void thread_dispatch () {
 254              		.loc 1 61 25 is_stmt 1
 255              		.cfi_startproc
 256 0104 130101FF 		addi	sp,sp,-16
 257              		.cfi_def_cfa_offset 16
 258 0108 23341100 		sd	ra,8(sp)
 259 010c 23308100 		sd	s0,0(sp)
 260              		.cfi_offset 1, -8
 261              		.cfi_offset 8, -16
 262 0110 13040101 		addi	s0,sp,16
 263              		.cfi_def_cfa 8, 0
  62:src/syscall_c.cpp ****     size_t code = Kernel::sysCallCodes::thread_dispatch;
 264              		.loc 1 62 5
 265              	.LVL25:
  63:src/syscall_c.cpp ****     callInterrupt(code);
 266              		.loc 1 63 5
 267              		.loc 1 63 18 is_stmt 0
 268 0114 13053001 		li	a0,19
 269 0118 97000000 		call	_Z13callInterruptm
 269      E7800000 
 270              	.LVL26:
  64:src/syscall_c.cpp **** }
 271              		.loc 1 64 1
 272 0120 83308100 		ld	ra,8(sp)
 273              		.cfi_restore 1
 274 0124 03340100 		ld	s0,0(sp)
 275              		.cfi_restore 8
 276              		.cfi_def_cfa 2, 16
 277 0128 13010101 		addi	sp,sp,16
 278              		.cfi_def_cfa_offset 0
 279 012c 67800000 		jr	ra
 280              		.cfi_endproc
 281              	.LFE39:
 283              		.align	2
 284              		.globl	_Z11thread_exitv
 286              	_Z11thread_exitv:
 287              	.LFB40:
  65:src/syscall_c.cpp **** 
  66:src/syscall_c.cpp **** int thread_exit () {
 288              		.loc 1 66 20 is_stmt 1
 289              		.cfi_startproc
 290 0130 130101FF 		addi	sp,sp,-16
 291              		.cfi_def_cfa_offset 16
 292 0134 23341100 		sd	ra,8(sp)
 293 0138 23308100 		sd	s0,0(sp)
 294              		.cfi_offset 1, -8
 295              		.cfi_offset 8, -16
 296 013c 13040101 		addi	s0,sp,16
 297              		.cfi_def_cfa 8, 0
  67:src/syscall_c.cpp ****     size_t code = Kernel::sysCallCodes::thread_exit;
 298              		.loc 1 67 5
 299              	.LVL27:
  68:src/syscall_c.cpp ****     return (size_t)(callInterrupt(code));
 300              		.loc 1 68 5
 301              		.loc 1 68 34 is_stmt 0
 302 0140 13052001 		li	a0,18
 303 0144 97000000 		call	_Z13callInterruptm
GAS LISTING /tmp/ccXvruhy.s 			page 8


 303      E7800000 
 304              	.LVL28:
  69:src/syscall_c.cpp **** }
 305              		.loc 1 69 1
 306 014c 1B050500 		sext.w	a0,a0
 307 0150 83308100 		ld	ra,8(sp)
 308              		.cfi_restore 1
 309 0154 03340100 		ld	s0,0(sp)
 310              		.cfi_restore 8
 311              		.cfi_def_cfa 2, 16
 312 0158 13010101 		addi	sp,sp,16
 313              		.cfi_def_cfa_offset 0
 314 015c 67800000 		jr	ra
 315              		.cfi_endproc
 316              	.LFE40:
 318              		.align	2
 319              		.globl	_Z12thread_startPP3PCB
 321              	_Z12thread_startPP3PCB:
 322              	.LFB41:
  70:src/syscall_c.cpp **** 
  71:src/syscall_c.cpp **** void thread_start(thread_t* handle) {
 323              		.loc 1 71 37 is_stmt 1
 324              		.cfi_startproc
 325              	.LVL29:
 326 0160 130101FF 		addi	sp,sp,-16
 327              		.cfi_def_cfa_offset 16
 328 0164 23341100 		sd	ra,8(sp)
 329 0168 23308100 		sd	s0,0(sp)
 330              		.cfi_offset 1, -8
 331              		.cfi_offset 8, -16
 332 016c 13040101 		addi	s0,sp,16
 333              		.cfi_def_cfa 8, 0
  72:src/syscall_c.cpp ****     size_t code = Kernel::sysCallCodes::thread_start;
 334              		.loc 1 72 5
 335              	.LVL30:
  73:src/syscall_c.cpp ****     asm volatile("mv a1, a0"); // a1 = handle
 336              		.loc 1 73 5
 337              		.loc 1 73 30 is_stmt 0
 338              	#APP
 339              	# 73 "src/syscall_c.cpp" 1
  74              	    callInterrupt(code);
 340              		mv a1, a0
 341              	# 0 "" 2
 342              		.loc 1 74 5 is_stmt 1
 343              		.loc 1 74 18 is_stmt 0
 344              	#NO_APP
 345 0174 13054001 		li	a0,20
 346              	.LVL31:
 347 0178 97000000 		call	_Z13callInterruptm
 347      E7800000 
 348              	.LVL32:
  75:src/syscall_c.cpp **** }
 349              		.loc 1 75 1
 350 0180 83308100 		ld	ra,8(sp)
 351              		.cfi_restore 1
 352 0184 03340100 		ld	s0,0(sp)
 353              		.cfi_restore 8
GAS LISTING /tmp/ccXvruhy.s 			page 9


 354              		.cfi_def_cfa 2, 16
 355 0188 13010101 		addi	sp,sp,16
 356              		.cfi_def_cfa_offset 0
 357 018c 67800000 		jr	ra
 358              		.cfi_endproc
 359              	.LFE41:
 361              		.align	2
 362              		.globl	_Z13thread_createPP3PCBPFvPvES2_
 364              	_Z13thread_createPP3PCBPFvPvES2_:
 365              	.LFB38:
  55:src/syscall_c.cpp ****     int res = thread_create_only(handle, startRoutine, arg);
 366              		.loc 1 55 76 is_stmt 1
 367              		.cfi_startproc
 368              	.LVL33:
 369 0190 130101FE 		addi	sp,sp,-32
 370              		.cfi_def_cfa_offset 32
 371 0194 233C1100 		sd	ra,24(sp)
 372 0198 23388100 		sd	s0,16(sp)
 373 019c 23349100 		sd	s1,8(sp)
 374 01a0 23302101 		sd	s2,0(sp)
 375              		.cfi_offset 1, -8
 376              		.cfi_offset 8, -16
 377              		.cfi_offset 9, -24
 378              		.cfi_offset 18, -32
 379 01a4 13040102 		addi	s0,sp,32
 380              		.cfi_def_cfa 8, 0
 381 01a8 13090500 		mv	s2,a0
  56:src/syscall_c.cpp ****     thread_start(handle);
 382              		.loc 1 56 5
  56:src/syscall_c.cpp ****     thread_start(handle);
 383              		.loc 1 56 33 is_stmt 0
 384 01ac 97000000 		call	_Z18thread_create_onlyPP3PCBPFvPvES2_
 384      E7800000 
 385              	.LVL34:
 386 01b4 93040500 		mv	s1,a0
 387              	.LVL35:
  57:src/syscall_c.cpp ****     return res;
 388              		.loc 1 57 5 is_stmt 1
  57:src/syscall_c.cpp ****     return res;
 389              		.loc 1 57 17 is_stmt 0
 390 01b8 13050900 		mv	a0,s2
 391 01bc 97000000 		call	_Z12thread_startPP3PCB
 391      E7800000 
 392              	.LVL36:
  58:src/syscall_c.cpp **** }
 393              		.loc 1 58 5 is_stmt 1
  59:src/syscall_c.cpp **** 
 394              		.loc 1 59 1 is_stmt 0
 395 01c4 13850400 		mv	a0,s1
 396 01c8 83308101 		ld	ra,24(sp)
 397              		.cfi_restore 1
 398 01cc 03340101 		ld	s0,16(sp)
 399              		.cfi_restore 8
 400              		.cfi_def_cfa 2, 32
 401 01d0 83348100 		ld	s1,8(sp)
 402              		.cfi_restore 9
 403              	.LVL37:
GAS LISTING /tmp/ccXvruhy.s 			page 10


 404 01d4 03390100 		ld	s2,0(sp)
 405              		.cfi_restore 18
 406              	.LVL38:
 407 01d8 13010102 		addi	sp,sp,32
 408              		.cfi_def_cfa_offset 0
 409 01dc 67800000 		jr	ra
 410              		.cfi_endproc
 411              	.LFE38:
 413              		.align	2
 414              		.globl	_Z8sem_openPP3SCBj
 416              	_Z8sem_openPP3SCBj:
 417              	.LFB42:
  76:src/syscall_c.cpp **** 
  77:src/syscall_c.cpp **** int sem_open (sem_t* handle, unsigned init) {
 418              		.loc 1 77 45 is_stmt 1
 419              		.cfi_startproc
 420              	.LVL39:
 421 01e0 130101FF 		addi	sp,sp,-16
 422              		.cfi_def_cfa_offset 16
 423 01e4 23341100 		sd	ra,8(sp)
 424 01e8 23308100 		sd	s0,0(sp)
 425              		.cfi_offset 1, -8
 426              		.cfi_offset 8, -16
 427 01ec 13040101 		addi	s0,sp,16
 428              		.cfi_def_cfa 8, 0
  78:src/syscall_c.cpp ****     size_t code = Kernel::sysCallCodes::sem_open;
 429              		.loc 1 78 5
 430              	.LVL40:
  79:src/syscall_c.cpp **** 
  80:src/syscall_c.cpp ****     asm volatile("mv a2, a1"); // a2 = init
 431              		.loc 1 80 5
 432              		.loc 1 80 30 is_stmt 0
 433              	#APP
 434              	# 80 "src/syscall_c.cpp" 1
  81              	    asm volatile("mv a1, a0"); // a1 = handle
 435              		mv a2, a1
 436              	# 0 "" 2
 437              		.loc 1 81 5 is_stmt 1
 438              		.loc 1 81 30 is_stmt 0
 439              	# 81 "src/syscall_c.cpp" 1
  82              	
  83:src/syscall_c.cpp ****     handle = (sem_t*)callInterrupt(code);
 440              		mv a1, a0
 441              	# 0 "" 2
 442              		.loc 1 83 5 is_stmt 1
 443              		.loc 1 83 35 is_stmt 0
 444              	#NO_APP
 445 01f8 13051002 		li	a0,33
 446              	.LVL41:
 447 01fc 97000000 		call	_Z13callInterruptm
 447      E7800000 
 448              	.LVL42:
  84:src/syscall_c.cpp ****     if(*handle == nullptr) {
 449              		.loc 1 84 5 is_stmt 1
 450              		.loc 1 84 8 is_stmt 0
 451 0204 83370500 		ld	a5,0(a0)
 452              		.loc 1 84 5
GAS LISTING /tmp/ccXvruhy.s 			page 11


 453 0208 638C0700 		beqz	a5,.L22
  85:src/syscall_c.cpp ****         return -1;
  86:src/syscall_c.cpp ****     }
  87:src/syscall_c.cpp **** 
  88:src/syscall_c.cpp ****     return 0;
 454              		.loc 1 88 12
 455 020c 13050000 		li	a0,0
 456              	.LVL43:
 457              	.L21:
  89:src/syscall_c.cpp **** }
 458              		.loc 1 89 1
 459 0210 83308100 		ld	ra,8(sp)
 460              		.cfi_remember_state
 461              		.cfi_restore 1
 462 0214 03340100 		ld	s0,0(sp)
 463              		.cfi_restore 8
 464              		.cfi_def_cfa 2, 16
 465 0218 13010101 		addi	sp,sp,16
 466              		.cfi_def_cfa_offset 0
 467 021c 67800000 		jr	ra
 468              	.LVL44:
 469              	.L22:
 470              		.cfi_restore_state
  85:src/syscall_c.cpp ****         return -1;
 471              		.loc 1 85 17
 472 0220 1305F0FF 		li	a0,-1
 473              	.LVL45:
 474 0224 6FF0DFFE 		j	.L21
 475              		.cfi_endproc
 476              	.LFE42:
 478              		.align	2
 479              		.globl	_Z8sem_waitP3SCB
 481              	_Z8sem_waitP3SCB:
 482              	.LFB43:
  90:src/syscall_c.cpp **** 
  91:src/syscall_c.cpp **** int sem_wait (sem_t volatile handle) {
 483              		.loc 1 91 38 is_stmt 1
 484              		.cfi_startproc
 485              	.LVL46:
 486 0228 130101FE 		addi	sp,sp,-32
 487              		.cfi_def_cfa_offset 32
 488 022c 233C1100 		sd	ra,24(sp)
 489 0230 23388100 		sd	s0,16(sp)
 490              		.cfi_offset 1, -8
 491              		.cfi_offset 8, -16
 492 0234 13040102 		addi	s0,sp,32
 493              		.cfi_def_cfa 8, 0
 494 0238 2334A4FE 		sd	a0,-24(s0)
  92:src/syscall_c.cpp ****     size_t code = Kernel::sysCallCodes::sem_wait;
 495              		.loc 1 92 5
 496              	.LVL47:
  93:src/syscall_c.cpp ****     if(handle == nullptr) return -1;
 497              		.loc 1 93 5
 498              		.loc 1 93 8 is_stmt 0
 499 023c 833784FE 		ld	a5,-24(s0)
 500              		.loc 1 93 5
 501 0240 63840704 		beqz	a5,.L27
GAS LISTING /tmp/ccXvruhy.s 			page 12


  94:src/syscall_c.cpp ****     asm volatile("mv a1, a0");
 502              		.loc 1 94 5 is_stmt 1
 503              		.loc 1 94 30 is_stmt 0
 504              	#APP
 505              	# 94 "src/syscall_c.cpp" 1
  95              	
  96:src/syscall_c.cpp ****     if(callInterrupt(code)) {
 506              		mv a1, a0
 507              	# 0 "" 2
 508              		.loc 1 96 5 is_stmt 1
 509              		.loc 1 96 21 is_stmt 0
 510              	#NO_APP
 511 0248 13053002 		li	a0,35
 512              	.LVL48:
 513 024c 97000000 		call	_Z13callInterruptm
 513      E7800000 
 514              	.LVL49:
 515              		.loc 1 96 5
 516 0254 63060500 		beqz	a0,.L26
  97:src/syscall_c.cpp ****         thread_dispatch();
 517              		.loc 1 97 9 is_stmt 1
 518              		.loc 1 97 24 is_stmt 0
 519 0258 97000000 		call	_Z15thread_dispatchv
 519      E7800000 
 520              	.LVL50:
 521              	.L26:
  98:src/syscall_c.cpp ****     }
  99:src/syscall_c.cpp **** 
 100:src/syscall_c.cpp ****     if(PCB::running->isSemaphoreDeleted()) return -2; // semafor je obrisan pre nego sto je proces 
 522              		.loc 1 100 5 is_stmt 1
 523              		.loc 1 100 40 is_stmt 0
 524 0260 97070000 		la	a5,_ZN3PCB7runningE
 524      83B70700 
 525 0268 83B70700 		ld	a5,0(a5)
 526              	.LVL51:
 527              	.LBB8:
 528              	.LBB9:
 529              		.file 3 "src/../h/PCB.h"
   1:src/../h/PCB.h **** #ifndef PCB_H
   2:src/../h/PCB.h **** #define PCB_H
   3:src/../h/PCB.h **** 
   4:src/../h/PCB.h **** #include "hw.h"
   5:src/../h/PCB.h **** 
   6:src/../h/PCB.h **** extern "C" void interruptHandler();
   7:src/../h/PCB.h **** 
   8:src/../h/PCB.h **** class PCB {
   9:src/../h/PCB.h **** friend class Scheduler;
  10:src/../h/PCB.h **** friend void interruptHandler();
  11:src/../h/PCB.h **** friend class Kernel;
  12:src/../h/PCB.h **** public:
  13:src/../h/PCB.h ****     // vraca true ako se proces zavrsio, false ako nije
  14:src/../h/PCB.h ****     bool isFinished() const {
  15:src/../h/PCB.h ****         return finished;
  16:src/../h/PCB.h ****     }
  17:src/../h/PCB.h ****     // vraca true ako je semafor obrisan pre nego sto je proces odblokiran
  18:src/../h/PCB.h ****     bool isSemaphoreDeleted() const {
  19:src/../h/PCB.h ****         return semDeleted;
GAS LISTING /tmp/ccXvruhy.s 			page 13


 530              		.loc 3 19 9 is_stmt 1
 531              		.loc 3 19 16 is_stmt 0
 532 026c 83C7A702 		lbu	a5,42(a5)
 533              	.LVL52:
 534              	.LBE9:
 535              	.LBE8:
 536              		.loc 1 100 5
 537 0270 63900702 		bnez	a5,.L28
 101:src/syscall_c.cpp **** 
 102:src/syscall_c.cpp ****     return 0;
 538              		.loc 1 102 12
 539 0274 13050000 		li	a0,0
 540              	.L25:
 103:src/syscall_c.cpp **** }
 541              		.loc 1 103 1
 542 0278 83308101 		ld	ra,24(sp)
 543              		.cfi_remember_state
 544              		.cfi_restore 1
 545 027c 03340101 		ld	s0,16(sp)
 546              		.cfi_restore 8
 547              		.cfi_def_cfa 2, 32
 548              	.LVL53:
 549 0280 13010102 		addi	sp,sp,32
 550              		.cfi_def_cfa_offset 0
 551              	.LVL54:
 552 0284 67800000 		jr	ra
 553              	.LVL55:
 554              	.L27:
 555              		.cfi_restore_state
  93:src/syscall_c.cpp ****     asm volatile("mv a1, a0");
 556              		.loc 1 93 35
 557 0288 1305F0FF 		li	a0,-1
 558              	.LVL56:
 559 028c 6FF0DFFE 		j	.L25
 560              	.L28:
 100:src/syscall_c.cpp **** 
 561              		.loc 1 100 52
 562 0290 1305E0FF 		li	a0,-2
 563 0294 6FF05FFE 		j	.L25
 564              		.cfi_endproc
 565              	.LFE43:
 567              		.align	2
 568              		.globl	_Z10sem_signalP3SCB
 570              	_Z10sem_signalP3SCB:
 571              	.LFB44:
 104:src/syscall_c.cpp **** 
 105:src/syscall_c.cpp **** int sem_signal (sem_t handle) {
 572              		.loc 1 105 31 is_stmt 1
 573              		.cfi_startproc
 574              	.LVL57:
 106:src/syscall_c.cpp ****     size_t code = Kernel::sysCallCodes::sem_signal;
 575              		.loc 1 106 5
 107:src/syscall_c.cpp ****     if(handle == nullptr) return -1;
 576              		.loc 1 107 5
 577 0298 63060504 		beqz	a0,.L32
 105:src/syscall_c.cpp ****     size_t code = Kernel::sysCallCodes::sem_signal;
 578              		.loc 1 105 31 is_stmt 0
GAS LISTING /tmp/ccXvruhy.s 			page 14


 579 029c 130101FE 		addi	sp,sp,-32
 580              		.cfi_def_cfa_offset 32
 581 02a0 233C1100 		sd	ra,24(sp)
 582 02a4 23388100 		sd	s0,16(sp)
 583              		.cfi_offset 1, -8
 584              		.cfi_offset 8, -16
 585 02a8 13040102 		addi	s0,sp,32
 586              		.cfi_def_cfa 8, 0
 108:src/syscall_c.cpp ****     asm volatile("mv a1, a0");
 587              		.loc 1 108 5 is_stmt 1
 588              		.loc 1 108 30 is_stmt 0
 589              	#APP
 590              	# 108 "src/syscall_c.cpp" 1
 109              	
 110:src/syscall_c.cpp ****     PCB* process = (PCB*)callInterrupt(code);
 591              		mv a1, a0
 592              	# 0 "" 2
 593              		.loc 1 110 5 is_stmt 1
 594              		.loc 1 110 39 is_stmt 0
 595              	#NO_APP
 596 02b0 13054002 		li	a0,36
 597              	.LVL58:
 598 02b4 97000000 		call	_Z13callInterruptm
 598      E7800000 
 599              	.LVL59:
 600              		.loc 1 110 44
 601 02bc 2334A4FE 		sd	a0,-24(s0)
 111:src/syscall_c.cpp ****     if(process) {
 602              		.loc 1 111 5 is_stmt 1
 603 02c0 63060502 		beqz	a0,.L33
 112:src/syscall_c.cpp ****         thread_start(&process);
 604              		.loc 1 112 9
 605              		.loc 1 112 21 is_stmt 0
 606 02c4 130584FE 		addi	a0,s0,-24
 607 02c8 97000000 		call	_Z12thread_startPP3PCB
 607      E7800000 
 608              	.LVL60:
 113:src/syscall_c.cpp ****     }
 114:src/syscall_c.cpp **** 
 115:src/syscall_c.cpp ****     return 0;
 609              		.loc 1 115 12
 610 02d0 13050000 		li	a0,0
 611              	.L31:
 116:src/syscall_c.cpp **** }
 612              		.loc 1 116 1
 613 02d4 83308101 		ld	ra,24(sp)
 614              		.cfi_restore 1
 615 02d8 03340101 		ld	s0,16(sp)
 616              		.cfi_restore 8
 617              		.cfi_def_cfa 2, 32
 618 02dc 13010102 		addi	sp,sp,32
 619              		.cfi_def_cfa_offset 0
 620 02e0 67800000 		jr	ra
 621              	.LVL61:
 622              	.L32:
 107:src/syscall_c.cpp ****     asm volatile("mv a1, a0");
 623              		.loc 1 107 35
GAS LISTING /tmp/ccXvruhy.s 			page 15


 624 02e4 1305F0FF 		li	a0,-1
 625              	.LVL62:
 626              		.loc 1 116 1
 627 02e8 67800000 		ret
 628              	.L33:
 629              		.cfi_def_cfa_register 8
 630              		.cfi_offset 1, -8
 631              		.cfi_offset 8, -16
 115:src/syscall_c.cpp **** }
 632              		.loc 1 115 12
 633 02ec 13050000 		li	a0,0
 634 02f0 6FF05FFE 		j	.L31
 635              		.cfi_endproc
 636              	.LFE44:
 638              		.align	2
 639              		.globl	_Z9sem_closeP3SCB
 641              	_Z9sem_closeP3SCB:
 642              	.LFB45:
 117:src/syscall_c.cpp **** 
 118:src/syscall_c.cpp **** int sem_close (sem_t handle) {
 643              		.loc 1 118 30 is_stmt 1
 644              		.cfi_startproc
 645              	.LVL63:
 119:src/syscall_c.cpp ****     size_t code = Kernel::sysCallCodes::sem_close;
 646              		.loc 1 119 5
 120:src/syscall_c.cpp ****     if(handle == nullptr) return -1;
 647              		.loc 1 120 5
 648 02f4 630C0502 		beqz	a0,.L40
 118:src/syscall_c.cpp ****     size_t code = Kernel::sysCallCodes::sem_close;
 649              		.loc 1 118 30 is_stmt 0
 650 02f8 130101FF 		addi	sp,sp,-16
 651              		.cfi_def_cfa_offset 16
 652 02fc 23341100 		sd	ra,8(sp)
 653 0300 23308100 		sd	s0,0(sp)
 654              		.cfi_offset 1, -8
 655              		.cfi_offset 8, -16
 656 0304 13040101 		addi	s0,sp,16
 657              		.cfi_def_cfa 8, 0
 121:src/syscall_c.cpp **** 
 122:src/syscall_c.cpp ****     asm volatile("mv a1, a0");
 658              		.loc 1 122 5 is_stmt 1
 659              		.loc 1 122 30 is_stmt 0
 660              	#APP
 661              	# 122 "src/syscall_c.cpp" 1
 123              	    callInterrupt(code);
 662              		mv a1, a0
 663              	# 0 "" 2
 664              		.loc 1 123 5 is_stmt 1
 665              		.loc 1 123 18 is_stmt 0
 666              	#NO_APP
 667 030c 13052002 		li	a0,34
 668              	.LVL64:
 669 0310 97000000 		call	_Z13callInterruptm
 669      E7800000 
 670              	.LVL65:
 124:src/syscall_c.cpp ****     return 0;
 671              		.loc 1 124 5 is_stmt 1
GAS LISTING /tmp/ccXvruhy.s 			page 16


 672              		.loc 1 124 12 is_stmt 0
 673 0318 13050000 		li	a0,0
 125:src/syscall_c.cpp **** }
 674              		.loc 1 125 1
 675 031c 83308100 		ld	ra,8(sp)
 676              		.cfi_restore 1
 677 0320 03340100 		ld	s0,0(sp)
 678              		.cfi_restore 8
 679              		.cfi_def_cfa 2, 16
 680 0324 13010101 		addi	sp,sp,16
 681              		.cfi_def_cfa_offset 0
 682 0328 67800000 		jr	ra
 683              	.LVL66:
 684              	.L40:
 120:src/syscall_c.cpp **** 
 685              		.loc 1 120 35
 686 032c 1305F0FF 		li	a0,-1
 687              	.LVL67:
 688              		.loc 1 125 1
 689 0330 67800000 		ret
 690              		.cfi_endproc
 691              	.LFE45:
 693              		.align	2
 694              		.globl	_Z10time_sleepm
 696              	_Z10time_sleepm:
 697              	.LFB46:
 126:src/syscall_c.cpp **** 
 127:src/syscall_c.cpp **** int time_sleep (time_t time) {
 698              		.loc 1 127 30 is_stmt 1
 699              		.cfi_startproc
 700              	.LVL68:
 128:src/syscall_c.cpp ****     size_t code = Kernel::sysCallCodes::time_sleep;
 701              		.loc 1 128 5
 129:src/syscall_c.cpp ****     if(time <= 0) return -1;
 702              		.loc 1 129 5
 703 0334 63000504 		beqz	a0,.L47
 127:src/syscall_c.cpp ****     size_t code = Kernel::sysCallCodes::time_sleep;
 704              		.loc 1 127 30 is_stmt 0
 705 0338 130101FF 		addi	sp,sp,-16
 706              		.cfi_def_cfa_offset 16
 707 033c 23341100 		sd	ra,8(sp)
 708 0340 23308100 		sd	s0,0(sp)
 709              		.cfi_offset 1, -8
 710              		.cfi_offset 8, -16
 711 0344 13040101 		addi	s0,sp,16
 712              		.cfi_def_cfa 8, 0
 130:src/syscall_c.cpp **** 
 131:src/syscall_c.cpp ****     asm volatile("mv a1, a0");
 713              		.loc 1 131 5 is_stmt 1
 714              		.loc 1 131 30 is_stmt 0
 715              	#APP
 716              	# 131 "src/syscall_c.cpp" 1
 132              	    callInterrupt(code);
 717              		mv a1, a0
 718              	# 0 "" 2
 719              		.loc 1 132 5 is_stmt 1
 720              		.loc 1 132 18 is_stmt 0
GAS LISTING /tmp/ccXvruhy.s 			page 17


 721              	#NO_APP
 722 034c 13051003 		li	a0,49
 723              	.LVL69:
 724 0350 97000000 		call	_Z13callInterruptm
 724      E7800000 
 725              	.LVL70:
 133:src/syscall_c.cpp **** 
 134:src/syscall_c.cpp ****     thread_dispatch(); // radimo odmah dispatch da bi zaustavili tekuci proces
 726              		.loc 1 134 5 is_stmt 1
 727              		.loc 1 134 20 is_stmt 0
 728 0358 97000000 		call	_Z15thread_dispatchv
 728      E7800000 
 729              	.LVL71:
 135:src/syscall_c.cpp **** 
 136:src/syscall_c.cpp ****     return 0;
 730              		.loc 1 136 5 is_stmt 1
 731              		.loc 1 136 12 is_stmt 0
 732 0360 13050000 		li	a0,0
 137:src/syscall_c.cpp **** }
 733              		.loc 1 137 1
 734 0364 83308100 		ld	ra,8(sp)
 735              		.cfi_restore 1
 736 0368 03340100 		ld	s0,0(sp)
 737              		.cfi_restore 8
 738              		.cfi_def_cfa 2, 16
 739 036c 13010101 		addi	sp,sp,16
 740              		.cfi_def_cfa_offset 0
 741 0370 67800000 		jr	ra
 742              	.LVL72:
 743              	.L47:
 129:src/syscall_c.cpp **** 
 744              		.loc 1 129 27
 745 0374 1305F0FF 		li	a0,-1
 746              	.LVL73:
 747              		.loc 1 137 1
 748 0378 67800000 		ret
 749              		.cfi_endproc
 750              	.LFE46:
 752              		.align	2
 753              		.globl	_Z4getcv
 755              	_Z4getcv:
 756              	.LFB47:
 138:src/syscall_c.cpp **** 
 139:src/syscall_c.cpp **** char getc () {
 757              		.loc 1 139 14 is_stmt 1
 758              		.cfi_startproc
 759 037c 130101FF 		addi	sp,sp,-16
 760              		.cfi_def_cfa_offset 16
 761 0380 23341100 		sd	ra,8(sp)
 762 0384 23308100 		sd	s0,0(sp)
 763              		.cfi_offset 1, -8
 764              		.cfi_offset 8, -16
 765 0388 13040101 		addi	s0,sp,16
 766              		.cfi_def_cfa 8, 0
 140:src/syscall_c.cpp ****     size_t code = Kernel::sysCallCodes::getc;
 767              		.loc 1 140 5
 768              	.LVL74:
GAS LISTING /tmp/ccXvruhy.s 			page 18


 141:src/syscall_c.cpp ****     return (char)(size_t)callInterrupt(code);
 769              		.loc 1 141 5
 770              		.loc 1 141 39 is_stmt 0
 771 038c 13051004 		li	a0,65
 772 0390 97000000 		call	_Z13callInterruptm
 772      E7800000 
 773              	.LVL75:
 142:src/syscall_c.cpp **** }
 774              		.loc 1 142 1
 775 0398 1375F50F 		andi	a0,a0,0xff
 776 039c 83308100 		ld	ra,8(sp)
 777              		.cfi_restore 1
 778 03a0 03340100 		ld	s0,0(sp)
 779              		.cfi_restore 8
 780              		.cfi_def_cfa 2, 16
 781 03a4 13010101 		addi	sp,sp,16
 782              		.cfi_def_cfa_offset 0
 783 03a8 67800000 		jr	ra
 784              		.cfi_endproc
 785              	.LFE47:
 787              		.align	2
 788              		.globl	_Z4putcc
 790              	_Z4putcc:
 791              	.LFB48:
 143:src/syscall_c.cpp **** 
 144:src/syscall_c.cpp **** void putc(char c) {
 792              		.loc 1 144 19 is_stmt 1
 793              		.cfi_startproc
 794              	.LVL76:
 795 03ac 130101FF 		addi	sp,sp,-16
 796              		.cfi_def_cfa_offset 16
 797 03b0 23341100 		sd	ra,8(sp)
 798 03b4 23308100 		sd	s0,0(sp)
 799              		.cfi_offset 1, -8
 800              		.cfi_offset 8, -16
 801 03b8 13040101 		addi	s0,sp,16
 802              		.cfi_def_cfa 8, 0
 145:src/syscall_c.cpp ****     size_t code = Kernel::sysCallCodes::putc;
 803              		.loc 1 145 5
 804              	.LVL77:
 146:src/syscall_c.cpp ****     asm volatile("mv a1, a0"); // a1 = c
 805              		.loc 1 146 5
 806              		.loc 1 146 30 is_stmt 0
 807              	#APP
 808              	# 146 "src/syscall_c.cpp" 1
 147              	    callInterrupt(code);
 809              		mv a1, a0
 810              	# 0 "" 2
 811              		.loc 1 147 5 is_stmt 1
 812              		.loc 1 147 18 is_stmt 0
 813              	#NO_APP
 814 03c0 13052004 		li	a0,66
 815              	.LVL78:
 816 03c4 97000000 		call	_Z13callInterruptm
 816      E7800000 
 817              	.LVL79:
 148:src/syscall_c.cpp **** }
GAS LISTING /tmp/ccXvruhy.s 			page 19


 818              		.loc 1 148 1
 819 03cc 83308100 		ld	ra,8(sp)
 820              		.cfi_restore 1
 821 03d0 03340100 		ld	s0,0(sp)
 822              		.cfi_restore 8
 823              		.cfi_def_cfa 2, 16
 824 03d4 13010101 		addi	sp,sp,16
 825              		.cfi_def_cfa_offset 0
 826 03d8 67800000 		jr	ra
 827              		.cfi_endproc
 828              	.LFE48:
 830              	.Letext0:
 831              		.file 4 "src/../h/hw.h"
 832              		.file 5 "src/../h/syscall_c.h"
GAS LISTING /tmp/ccXvruhy.s 			page 20


DEFINED SYMBOLS
                            *ABS*:0000000000000000 syscall_c.cpp
     /tmp/ccXvruhy.s:9      .text:0000000000000000 _Z13callInterruptm
     /tmp/ccXvruhy.s:13     .text:0000000000000000 .L0 
     /tmp/ccXvruhy.s:15     .text:0000000000000000 .L0 
     /tmp/ccXvruhy.s:16     .text:0000000000000004 .L0 
     /tmp/ccXvruhy.s:18     .text:0000000000000008 .L0 
     /tmp/ccXvruhy.s:20     .text:000000000000000c .L0 
     /tmp/ccXvruhy.s:23     .text:0000000000000010 .L0 
     /tmp/ccXvruhy.s:24     .text:0000000000000010 .L0 
   src/syscall_c.cpp:11     .text:0000000000000010 .L0 
     /tmp/ccXvruhy.s:30     .text:0000000000000014 .L0 
   src/syscall_c.cpp:12     .text:0000000000000014 .L0 
     /tmp/ccXvruhy.s:36     .text:0000000000000018 .L0 
     /tmp/ccXvruhy.s:38     .text:0000000000000018 .L0 
     /tmp/ccXvruhy.s:39     .text:000000000000001c .L0 
     /tmp/ccXvruhy.s:40     .text:000000000000001c .L0 
     /tmp/ccXvruhy.s:43     .text:0000000000000020 .L0 
     /tmp/ccXvruhy.s:46     .text:0000000000000024 .L0 
     /tmp/ccXvruhy.s:52     .text:0000000000000024 _Z9mem_allocm
     /tmp/ccXvruhy.s:55     .text:0000000000000024 .L0 
     /tmp/ccXvruhy.s:57     .text:0000000000000024 .L0 
     /tmp/ccXvruhy.s:58     .text:0000000000000028 .L0 
     /tmp/ccXvruhy.s:61     .text:0000000000000030 .L0 
     /tmp/ccXvruhy.s:62     .text:0000000000000030 .L0 
     /tmp/ccXvruhy.s:64     .text:0000000000000034 .L0 
     /tmp/ccXvruhy.s:67     .text:0000000000000034 .L0 
     /tmp/ccXvruhy.s:71     .text:0000000000000034 .L0 
     /tmp/ccXvruhy.s:72     .text:0000000000000034 .L0 
     /tmp/ccXvruhy.s:73     .text:0000000000000034 .L0 
     /tmp/ccXvruhy.s:75     .text:0000000000000038 .L0 
     /tmp/ccXvruhy.s:78     .text:000000000000003c .L0 
     /tmp/ccXvruhy.s:80     .text:0000000000000040 .L0 
     /tmp/ccXvruhy.s:85     .text:0000000000000044 .L0 
   src/syscall_c.cpp:21     .text:0000000000000044 .L0 
     /tmp/ccXvruhy.s:91     .text:0000000000000048 .L0 
     /tmp/ccXvruhy.s:93     .text:0000000000000048 .L0 
     /tmp/ccXvruhy.s:98     .text:0000000000000054 .L0 
     /tmp/ccXvruhy.s:99     .text:0000000000000058 .L0 
     /tmp/ccXvruhy.s:101    .text:000000000000005c .L0 
     /tmp/ccXvruhy.s:102    .text:000000000000005c .L0 
     /tmp/ccXvruhy.s:104    .text:0000000000000060 .L0 
     /tmp/ccXvruhy.s:106    .text:0000000000000064 .L0 
     /tmp/ccXvruhy.s:112    .text:0000000000000064 _Z8mem_freePv
     /tmp/ccXvruhy.s:115    .text:0000000000000064 .L0 
     /tmp/ccXvruhy.s:117    .text:0000000000000064 .L0 
     /tmp/ccXvruhy.s:118    .text:0000000000000068 .L0 
     /tmp/ccXvruhy.s:121    .text:0000000000000070 .L0 
     /tmp/ccXvruhy.s:122    .text:0000000000000070 .L0 
     /tmp/ccXvruhy.s:124    .text:0000000000000074 .L0 
     /tmp/ccXvruhy.s:127    .text:0000000000000074 .L0 
     /tmp/ccXvruhy.s:128    .text:0000000000000074 .L0 
   src/syscall_c.cpp:29     .text:0000000000000074 .L0 
     /tmp/ccXvruhy.s:134    .text:0000000000000078 .L0 
     /tmp/ccXvruhy.s:136    .text:0000000000000078 .L0 
     /tmp/ccXvruhy.s:141    .text:0000000000000084 .L0 
     /tmp/ccXvruhy.s:143    .text:000000000000008c .L0 
GAS LISTING /tmp/ccXvruhy.s 			page 21


     /tmp/ccXvruhy.s:145    .text:0000000000000090 .L0 
     /tmp/ccXvruhy.s:146    .text:0000000000000090 .L0 
     /tmp/ccXvruhy.s:148    .text:0000000000000094 .L0 
     /tmp/ccXvruhy.s:150    .text:0000000000000098 .L0 
     /tmp/ccXvruhy.s:156    .text:0000000000000098 _Z18thread_create_onlyPP3PCBPFvPvES2_
     /tmp/ccXvruhy.s:159    .text:0000000000000098 .L0 
     /tmp/ccXvruhy.s:161    .text:0000000000000098 .L0 
     /tmp/ccXvruhy.s:162    .text:000000000000009c .L0 
     /tmp/ccXvruhy.s:165    .text:00000000000000a4 .L0 
     /tmp/ccXvruhy.s:166    .text:00000000000000a4 .L0 
     /tmp/ccXvruhy.s:168    .text:00000000000000a8 .L0 
     /tmp/ccXvruhy.s:171    .text:00000000000000a8 .L0 
     /tmp/ccXvruhy.s:172    .text:00000000000000a8 .L0 
   src/syscall_c.cpp:37     .text:00000000000000a8 .L0 
     /tmp/ccXvruhy.s:178    .text:00000000000000ac .L0 
   src/syscall_c.cpp:38     .text:00000000000000ac .L0 
     /tmp/ccXvruhy.s:183    .text:00000000000000b0 .L0 
   src/syscall_c.cpp:39     .text:00000000000000b0 .L0 
     /tmp/ccXvruhy.s:188    .text:00000000000000b4 .L0 
     /tmp/ccXvruhy.s:190    .text:00000000000000b4 .L0 
     /tmp/ccXvruhy.s:195    .text:00000000000000c0 .L0 
     /tmp/ccXvruhy.s:197    .text:00000000000000c4 .L0 
   src/syscall_c.cpp:45     .text:00000000000000c4 .L0 
     /tmp/ccXvruhy.s:203    .text:00000000000000c8 .L0 
   src/syscall_c.cpp:46     .text:00000000000000c8 .L0 
     /tmp/ccXvruhy.s:208    .text:00000000000000cc .L0 
     /tmp/ccXvruhy.s:210    .text:00000000000000cc .L0 
     /tmp/ccXvruhy.s:215    .text:00000000000000d8 .L0 
     /tmp/ccXvruhy.s:216    .text:00000000000000d8 .L0 
     /tmp/ccXvruhy.s:218    .text:00000000000000dc .L0 
     /tmp/ccXvruhy.s:220    .text:00000000000000e0 .L0 
     /tmp/ccXvruhy.s:224    .text:00000000000000e4 .L0 
     /tmp/ccXvruhy.s:225    .text:00000000000000e8 .L0 
     /tmp/ccXvruhy.s:226    .text:00000000000000e8 .L0 
     /tmp/ccXvruhy.s:228    .text:00000000000000ec .L0 
     /tmp/ccXvruhy.s:229    .text:00000000000000ec .L0 
     /tmp/ccXvruhy.s:231    .text:00000000000000f0 .L0 
     /tmp/ccXvruhy.s:235    .text:00000000000000f4 .L0 
     /tmp/ccXvruhy.s:237    .text:00000000000000f4 .L0 
     /tmp/ccXvruhy.s:243    .text:00000000000000fc .L0 
     /tmp/ccXvruhy.s:246    .text:0000000000000104 .L0 
     /tmp/ccXvruhy.s:252    .text:0000000000000104 _Z15thread_dispatchv
     /tmp/ccXvruhy.s:255    .text:0000000000000104 .L0 
     /tmp/ccXvruhy.s:256    .text:0000000000000104 .L0 
     /tmp/ccXvruhy.s:257    .text:0000000000000108 .L0 
     /tmp/ccXvruhy.s:260    .text:0000000000000110 .L0 
     /tmp/ccXvruhy.s:261    .text:0000000000000110 .L0 
     /tmp/ccXvruhy.s:263    .text:0000000000000114 .L0 
     /tmp/ccXvruhy.s:266    .text:0000000000000114 .L0 
     /tmp/ccXvruhy.s:267    .text:0000000000000114 .L0 
     /tmp/ccXvruhy.s:268    .text:0000000000000114 .L0 
     /tmp/ccXvruhy.s:272    .text:0000000000000120 .L0 
     /tmp/ccXvruhy.s:273    .text:0000000000000124 .L0 
     /tmp/ccXvruhy.s:275    .text:0000000000000128 .L0 
     /tmp/ccXvruhy.s:276    .text:0000000000000128 .L0 
     /tmp/ccXvruhy.s:278    .text:000000000000012c .L0 
     /tmp/ccXvruhy.s:280    .text:0000000000000130 .L0 
GAS LISTING /tmp/ccXvruhy.s 			page 22


     /tmp/ccXvruhy.s:286    .text:0000000000000130 _Z11thread_exitv
     /tmp/ccXvruhy.s:289    .text:0000000000000130 .L0 
     /tmp/ccXvruhy.s:290    .text:0000000000000130 .L0 
     /tmp/ccXvruhy.s:291    .text:0000000000000134 .L0 
     /tmp/ccXvruhy.s:294    .text:000000000000013c .L0 
     /tmp/ccXvruhy.s:295    .text:000000000000013c .L0 
     /tmp/ccXvruhy.s:297    .text:0000000000000140 .L0 
     /tmp/ccXvruhy.s:300    .text:0000000000000140 .L0 
     /tmp/ccXvruhy.s:301    .text:0000000000000140 .L0 
     /tmp/ccXvruhy.s:302    .text:0000000000000140 .L0 
     /tmp/ccXvruhy.s:306    .text:000000000000014c .L0 
     /tmp/ccXvruhy.s:308    .text:0000000000000154 .L0 
     /tmp/ccXvruhy.s:310    .text:0000000000000158 .L0 
     /tmp/ccXvruhy.s:311    .text:0000000000000158 .L0 
     /tmp/ccXvruhy.s:313    .text:000000000000015c .L0 
     /tmp/ccXvruhy.s:315    .text:0000000000000160 .L0 
     /tmp/ccXvruhy.s:321    .text:0000000000000160 _Z12thread_startPP3PCB
     /tmp/ccXvruhy.s:324    .text:0000000000000160 .L0 
     /tmp/ccXvruhy.s:326    .text:0000000000000160 .L0 
     /tmp/ccXvruhy.s:327    .text:0000000000000164 .L0 
     /tmp/ccXvruhy.s:330    .text:000000000000016c .L0 
     /tmp/ccXvruhy.s:331    .text:000000000000016c .L0 
     /tmp/ccXvruhy.s:333    .text:0000000000000170 .L0 
     /tmp/ccXvruhy.s:336    .text:0000000000000170 .L0 
     /tmp/ccXvruhy.s:337    .text:0000000000000170 .L0 
   src/syscall_c.cpp:73     .text:0000000000000170 .L0 
     /tmp/ccXvruhy.s:343    .text:0000000000000174 .L0 
     /tmp/ccXvruhy.s:345    .text:0000000000000174 .L0 
     /tmp/ccXvruhy.s:350    .text:0000000000000180 .L0 
     /tmp/ccXvruhy.s:351    .text:0000000000000184 .L0 
     /tmp/ccXvruhy.s:353    .text:0000000000000188 .L0 
     /tmp/ccXvruhy.s:354    .text:0000000000000188 .L0 
     /tmp/ccXvruhy.s:356    .text:000000000000018c .L0 
     /tmp/ccXvruhy.s:358    .text:0000000000000190 .L0 
     /tmp/ccXvruhy.s:364    .text:0000000000000190 _Z13thread_createPP3PCBPFvPvES2_
     /tmp/ccXvruhy.s:367    .text:0000000000000190 .L0 
     /tmp/ccXvruhy.s:369    .text:0000000000000190 .L0 
     /tmp/ccXvruhy.s:370    .text:0000000000000194 .L0 
     /tmp/ccXvruhy.s:375    .text:00000000000001a4 .L0 
     /tmp/ccXvruhy.s:376    .text:00000000000001a4 .L0 
     /tmp/ccXvruhy.s:377    .text:00000000000001a4 .L0 
     /tmp/ccXvruhy.s:378    .text:00000000000001a4 .L0 
     /tmp/ccXvruhy.s:380    .text:00000000000001a8 .L0 
     /tmp/ccXvruhy.s:383    .text:00000000000001ac .L0 
     /tmp/ccXvruhy.s:384    .text:00000000000001ac .L0 
     /tmp/ccXvruhy.s:389    .text:00000000000001b8 .L0 
     /tmp/ccXvruhy.s:390    .text:00000000000001b8 .L0 
     /tmp/ccXvruhy.s:394    .text:00000000000001c4 .L0 
     /tmp/ccXvruhy.s:395    .text:00000000000001c4 .L0 
     /tmp/ccXvruhy.s:397    .text:00000000000001cc .L0 
     /tmp/ccXvruhy.s:399    .text:00000000000001d0 .L0 
     /tmp/ccXvruhy.s:400    .text:00000000000001d0 .L0 
     /tmp/ccXvruhy.s:402    .text:00000000000001d4 .L0 
     /tmp/ccXvruhy.s:405    .text:00000000000001d8 .L0 
     /tmp/ccXvruhy.s:408    .text:00000000000001dc .L0 
     /tmp/ccXvruhy.s:410    .text:00000000000001e0 .L0 
     /tmp/ccXvruhy.s:416    .text:00000000000001e0 _Z8sem_openPP3SCBj
GAS LISTING /tmp/ccXvruhy.s 			page 23


     /tmp/ccXvruhy.s:419    .text:00000000000001e0 .L0 
     /tmp/ccXvruhy.s:421    .text:00000000000001e0 .L0 
     /tmp/ccXvruhy.s:422    .text:00000000000001e4 .L0 
     /tmp/ccXvruhy.s:425    .text:00000000000001ec .L0 
     /tmp/ccXvruhy.s:426    .text:00000000000001ec .L0 
     /tmp/ccXvruhy.s:428    .text:00000000000001f0 .L0 
     /tmp/ccXvruhy.s:431    .text:00000000000001f0 .L0 
     /tmp/ccXvruhy.s:432    .text:00000000000001f0 .L0 
   src/syscall_c.cpp:80     .text:00000000000001f0 .L0 
     /tmp/ccXvruhy.s:438    .text:00000000000001f4 .L0 
   src/syscall_c.cpp:81     .text:00000000000001f4 .L0 
     /tmp/ccXvruhy.s:443    .text:00000000000001f8 .L0 
     /tmp/ccXvruhy.s:445    .text:00000000000001f8 .L0 
     /tmp/ccXvruhy.s:450    .text:0000000000000204 .L0 
     /tmp/ccXvruhy.s:451    .text:0000000000000204 .L0 
     /tmp/ccXvruhy.s:453    .text:0000000000000208 .L0 
     /tmp/ccXvruhy.s:455    .text:000000000000020c .L0 
     /tmp/ccXvruhy.s:459    .text:0000000000000210 .L0 
     /tmp/ccXvruhy.s:460    .text:0000000000000214 .L0 
     /tmp/ccXvruhy.s:461    .text:0000000000000214 .L0 
     /tmp/ccXvruhy.s:463    .text:0000000000000218 .L0 
     /tmp/ccXvruhy.s:464    .text:0000000000000218 .L0 
     /tmp/ccXvruhy.s:466    .text:000000000000021c .L0 
     /tmp/ccXvruhy.s:470    .text:0000000000000220 .L0 
     /tmp/ccXvruhy.s:472    .text:0000000000000220 .L0 
     /tmp/ccXvruhy.s:475    .text:0000000000000228 .L0 
     /tmp/ccXvruhy.s:481    .text:0000000000000228 _Z8sem_waitP3SCB
     /tmp/ccXvruhy.s:484    .text:0000000000000228 .L0 
     /tmp/ccXvruhy.s:486    .text:0000000000000228 .L0 
     /tmp/ccXvruhy.s:487    .text:000000000000022c .L0 
     /tmp/ccXvruhy.s:490    .text:0000000000000234 .L0 
     /tmp/ccXvruhy.s:491    .text:0000000000000234 .L0 
     /tmp/ccXvruhy.s:493    .text:0000000000000238 .L0 
     /tmp/ccXvruhy.s:497    .text:000000000000023c .L0 
     /tmp/ccXvruhy.s:498    .text:000000000000023c .L0 
     /tmp/ccXvruhy.s:499    .text:000000000000023c .L0 
     /tmp/ccXvruhy.s:501    .text:0000000000000240 .L0 
     /tmp/ccXvruhy.s:503    .text:0000000000000244 .L0 
   src/syscall_c.cpp:94     .text:0000000000000244 .L0 
     /tmp/ccXvruhy.s:509    .text:0000000000000248 .L0 
     /tmp/ccXvruhy.s:511    .text:0000000000000248 .L0 
     /tmp/ccXvruhy.s:516    .text:0000000000000254 .L0 
     /tmp/ccXvruhy.s:518    .text:0000000000000258 .L0 
     /tmp/ccXvruhy.s:519    .text:0000000000000258 .L0 
     /tmp/ccXvruhy.s:523    .text:0000000000000260 .L0 
     /tmp/ccXvruhy.s:524    .text:0000000000000260 .L0 
     /tmp/ccXvruhy.s:531    .text:000000000000026c .L0 
     /tmp/ccXvruhy.s:532    .text:000000000000026c .L0 
     /tmp/ccXvruhy.s:537    .text:0000000000000270 .L0 
     /tmp/ccXvruhy.s:539    .text:0000000000000274 .L0 
     /tmp/ccXvruhy.s:542    .text:0000000000000278 .L0 
     /tmp/ccXvruhy.s:543    .text:000000000000027c .L0 
     /tmp/ccXvruhy.s:544    .text:000000000000027c .L0 
     /tmp/ccXvruhy.s:546    .text:0000000000000280 .L0 
     /tmp/ccXvruhy.s:547    .text:0000000000000280 .L0 
     /tmp/ccXvruhy.s:550    .text:0000000000000284 .L0 
     /tmp/ccXvruhy.s:555    .text:0000000000000288 .L0 
GAS LISTING /tmp/ccXvruhy.s 			page 24


     /tmp/ccXvruhy.s:557    .text:0000000000000288 .L0 
     /tmp/ccXvruhy.s:562    .text:0000000000000290 .L0 
     /tmp/ccXvruhy.s:564    .text:0000000000000298 .L0 
     /tmp/ccXvruhy.s:570    .text:0000000000000298 _Z10sem_signalP3SCB
     /tmp/ccXvruhy.s:573    .text:0000000000000298 .L0 
     /tmp/ccXvruhy.s:575    .text:0000000000000298 .L0 
     /tmp/ccXvruhy.s:576    .text:0000000000000298 .L0 
     /tmp/ccXvruhy.s:577    .text:0000000000000298 .L0 
     /tmp/ccXvruhy.s:579    .text:000000000000029c .L0 
     /tmp/ccXvruhy.s:580    .text:00000000000002a0 .L0 
     /tmp/ccXvruhy.s:583    .text:00000000000002a8 .L0 
     /tmp/ccXvruhy.s:584    .text:00000000000002a8 .L0 
     /tmp/ccXvruhy.s:586    .text:00000000000002ac .L0 
     /tmp/ccXvruhy.s:588    .text:00000000000002ac .L0 
   src/syscall_c.cpp:108    .text:00000000000002ac .L0 
     /tmp/ccXvruhy.s:594    .text:00000000000002b0 .L0 
     /tmp/ccXvruhy.s:596    .text:00000000000002b0 .L0 
     /tmp/ccXvruhy.s:601    .text:00000000000002bc .L0 
     /tmp/ccXvruhy.s:603    .text:00000000000002c0 .L0 
     /tmp/ccXvruhy.s:605    .text:00000000000002c4 .L0 
     /tmp/ccXvruhy.s:606    .text:00000000000002c4 .L0 
     /tmp/ccXvruhy.s:610    .text:00000000000002d0 .L0 
     /tmp/ccXvruhy.s:613    .text:00000000000002d4 .L0 
     /tmp/ccXvruhy.s:614    .text:00000000000002d8 .L0 
     /tmp/ccXvruhy.s:616    .text:00000000000002dc .L0 
     /tmp/ccXvruhy.s:617    .text:00000000000002dc .L0 
     /tmp/ccXvruhy.s:619    .text:00000000000002e0 .L0 
     /tmp/ccXvruhy.s:624    .text:00000000000002e4 .L0 
     /tmp/ccXvruhy.s:627    .text:00000000000002e8 .L0 
     /tmp/ccXvruhy.s:629    .text:00000000000002ec .L0 
     /tmp/ccXvruhy.s:630    .text:00000000000002ec .L0 
     /tmp/ccXvruhy.s:631    .text:00000000000002ec .L0 
     /tmp/ccXvruhy.s:633    .text:00000000000002ec .L0 
     /tmp/ccXvruhy.s:635    .text:00000000000002f4 .L0 
     /tmp/ccXvruhy.s:641    .text:00000000000002f4 _Z9sem_closeP3SCB
     /tmp/ccXvruhy.s:644    .text:00000000000002f4 .L0 
     /tmp/ccXvruhy.s:646    .text:00000000000002f4 .L0 
     /tmp/ccXvruhy.s:647    .text:00000000000002f4 .L0 
     /tmp/ccXvruhy.s:648    .text:00000000000002f4 .L0 
     /tmp/ccXvruhy.s:650    .text:00000000000002f8 .L0 
     /tmp/ccXvruhy.s:651    .text:00000000000002fc .L0 
     /tmp/ccXvruhy.s:654    .text:0000000000000304 .L0 
     /tmp/ccXvruhy.s:655    .text:0000000000000304 .L0 
     /tmp/ccXvruhy.s:657    .text:0000000000000308 .L0 
     /tmp/ccXvruhy.s:659    .text:0000000000000308 .L0 
   src/syscall_c.cpp:122    .text:0000000000000308 .L0 
     /tmp/ccXvruhy.s:665    .text:000000000000030c .L0 
     /tmp/ccXvruhy.s:667    .text:000000000000030c .L0 
     /tmp/ccXvruhy.s:672    .text:0000000000000318 .L0 
     /tmp/ccXvruhy.s:673    .text:0000000000000318 .L0 
     /tmp/ccXvruhy.s:675    .text:000000000000031c .L0 
     /tmp/ccXvruhy.s:676    .text:0000000000000320 .L0 
     /tmp/ccXvruhy.s:678    .text:0000000000000324 .L0 
     /tmp/ccXvruhy.s:679    .text:0000000000000324 .L0 
     /tmp/ccXvruhy.s:681    .text:0000000000000328 .L0 
     /tmp/ccXvruhy.s:686    .text:000000000000032c .L0 
     /tmp/ccXvruhy.s:689    .text:0000000000000330 .L0 
GAS LISTING /tmp/ccXvruhy.s 			page 25


     /tmp/ccXvruhy.s:690    .text:0000000000000334 .L0 
     /tmp/ccXvruhy.s:696    .text:0000000000000334 _Z10time_sleepm
     /tmp/ccXvruhy.s:699    .text:0000000000000334 .L0 
     /tmp/ccXvruhy.s:701    .text:0000000000000334 .L0 
     /tmp/ccXvruhy.s:702    .text:0000000000000334 .L0 
     /tmp/ccXvruhy.s:703    .text:0000000000000334 .L0 
     /tmp/ccXvruhy.s:705    .text:0000000000000338 .L0 
     /tmp/ccXvruhy.s:706    .text:000000000000033c .L0 
     /tmp/ccXvruhy.s:709    .text:0000000000000344 .L0 
     /tmp/ccXvruhy.s:710    .text:0000000000000344 .L0 
     /tmp/ccXvruhy.s:712    .text:0000000000000348 .L0 
     /tmp/ccXvruhy.s:714    .text:0000000000000348 .L0 
   src/syscall_c.cpp:131    .text:0000000000000348 .L0 
     /tmp/ccXvruhy.s:720    .text:000000000000034c .L0 
     /tmp/ccXvruhy.s:722    .text:000000000000034c .L0 
     /tmp/ccXvruhy.s:727    .text:0000000000000358 .L0 
     /tmp/ccXvruhy.s:728    .text:0000000000000358 .L0 
     /tmp/ccXvruhy.s:731    .text:0000000000000360 .L0 
     /tmp/ccXvruhy.s:732    .text:0000000000000360 .L0 
     /tmp/ccXvruhy.s:734    .text:0000000000000364 .L0 
     /tmp/ccXvruhy.s:735    .text:0000000000000368 .L0 
     /tmp/ccXvruhy.s:737    .text:000000000000036c .L0 
     /tmp/ccXvruhy.s:738    .text:000000000000036c .L0 
     /tmp/ccXvruhy.s:740    .text:0000000000000370 .L0 
     /tmp/ccXvruhy.s:745    .text:0000000000000374 .L0 
     /tmp/ccXvruhy.s:748    .text:0000000000000378 .L0 
     /tmp/ccXvruhy.s:749    .text:000000000000037c .L0 
     /tmp/ccXvruhy.s:755    .text:000000000000037c _Z4getcv
     /tmp/ccXvruhy.s:758    .text:000000000000037c .L0 
     /tmp/ccXvruhy.s:759    .text:000000000000037c .L0 
     /tmp/ccXvruhy.s:760    .text:0000000000000380 .L0 
     /tmp/ccXvruhy.s:763    .text:0000000000000388 .L0 
     /tmp/ccXvruhy.s:764    .text:0000000000000388 .L0 
     /tmp/ccXvruhy.s:766    .text:000000000000038c .L0 
     /tmp/ccXvruhy.s:769    .text:000000000000038c .L0 
     /tmp/ccXvruhy.s:770    .text:000000000000038c .L0 
     /tmp/ccXvruhy.s:771    .text:000000000000038c .L0 
     /tmp/ccXvruhy.s:775    .text:0000000000000398 .L0 
     /tmp/ccXvruhy.s:777    .text:00000000000003a0 .L0 
     /tmp/ccXvruhy.s:779    .text:00000000000003a4 .L0 
     /tmp/ccXvruhy.s:780    .text:00000000000003a4 .L0 
     /tmp/ccXvruhy.s:782    .text:00000000000003a8 .L0 
     /tmp/ccXvruhy.s:784    .text:00000000000003ac .L0 
     /tmp/ccXvruhy.s:790    .text:00000000000003ac _Z4putcc
     /tmp/ccXvruhy.s:793    .text:00000000000003ac .L0 
     /tmp/ccXvruhy.s:795    .text:00000000000003ac .L0 
     /tmp/ccXvruhy.s:796    .text:00000000000003b0 .L0 
     /tmp/ccXvruhy.s:799    .text:00000000000003b8 .L0 
     /tmp/ccXvruhy.s:800    .text:00000000000003b8 .L0 
     /tmp/ccXvruhy.s:802    .text:00000000000003bc .L0 
     /tmp/ccXvruhy.s:805    .text:00000000000003bc .L0 
     /tmp/ccXvruhy.s:806    .text:00000000000003bc .L0 
   src/syscall_c.cpp:146    .text:00000000000003bc .L0 
     /tmp/ccXvruhy.s:812    .text:00000000000003c0 .L0 
     /tmp/ccXvruhy.s:814    .text:00000000000003c0 .L0 
     /tmp/ccXvruhy.s:819    .text:00000000000003cc .L0 
     /tmp/ccXvruhy.s:820    .text:00000000000003d0 .L0 
GAS LISTING /tmp/ccXvruhy.s 			page 26


     /tmp/ccXvruhy.s:822    .text:00000000000003d4 .L0 
     /tmp/ccXvruhy.s:823    .text:00000000000003d4 .L0 
     /tmp/ccXvruhy.s:825    .text:00000000000003d8 .L0 
     /tmp/ccXvruhy.s:827    .text:00000000000003dc .L0 
     /tmp/ccXvruhy.s:833    .text:00000000000003dc .L0 
     /tmp/ccXvruhy.s:524    .text:0000000000000260 .L0 
     /tmp/ccXvruhy.s:234    .text:00000000000000f4 .L9
     /tmp/ccXvruhy.s:241    .text:00000000000000fc .L10
     /tmp/ccXvruhy.s:222    .text:00000000000000e4 .L8
     /tmp/ccXvruhy.s:469    .text:0000000000000220 .L22
     /tmp/ccXvruhy.s:457    .text:0000000000000210 .L21
     /tmp/ccXvruhy.s:554    .text:0000000000000288 .L27
     /tmp/ccXvruhy.s:521    .text:0000000000000260 .L26
     /tmp/ccXvruhy.s:560    .text:0000000000000290 .L28
     /tmp/ccXvruhy.s:540    .text:0000000000000278 .L25
     /tmp/ccXvruhy.s:622    .text:00000000000002e4 .L32
     /tmp/ccXvruhy.s:628    .text:00000000000002ec .L33
     /tmp/ccXvruhy.s:611    .text:00000000000002d4 .L31
     /tmp/ccXvruhy.s:684    .text:000000000000032c .L40
     /tmp/ccXvruhy.s:743    .text:0000000000000374 .L47
     /tmp/ccXvruhy.s:2199   .debug_abbrev:0000000000000000 .Ldebug_abbrev0
     /tmp/ccXvruhy.s:3738   .debug_str:00000000000006a4 .LASF124
     /tmp/ccXvruhy.s:3648   .debug_str:00000000000003bd .LASF125
     /tmp/ccXvruhy.s:3708   .debug_str:00000000000005df .LASF126
     /tmp/ccXvruhy.s:5      .text:0000000000000000 .Ltext0
     /tmp/ccXvruhy.s:830    .text:00000000000003dc .Letext0
     /tmp/ccXvruhy.s:3524   .debug_line:0000000000000000 .Ldebug_line0
     /tmp/ccXvruhy.s:3600   .debug_str:0000000000000235 .LASF0
     /tmp/ccXvruhy.s:3624   .debug_str:00000000000002fe .LASF1
     /tmp/ccXvruhy.s:3694   .debug_str:0000000000000557 .LASF2
     /tmp/ccXvruhy.s:3698   .debug_str:0000000000000578 .LASF4
     /tmp/ccXvruhy.s:3610   .debug_str:0000000000000272 .LASF3
     /tmp/ccXvruhy.s:3532   .debug_str:0000000000000022 .LASF5
     /tmp/ccXvruhy.s:3676   .debug_str:00000000000004c6 .LASF6
     /tmp/ccXvruhy.s:3668   .debug_str:0000000000000491 .LASF7
     /tmp/ccXvruhy.s:3618   .debug_str:00000000000002dc .LASF8
     /tmp/ccXvruhy.s:3584   .debug_str:00000000000001c5 .LASF9
     /tmp/ccXvruhy.s:3588   .debug_str:00000000000001ec .LASF10
     /tmp/ccXvruhy.s:3548   .debug_str:00000000000000b5 .LASF11
     /tmp/ccXvruhy.s:3576   .debug_str:000000000000019d .LASF12
     /tmp/ccXvruhy.s:3552   .debug_str:00000000000000c9 .LASF13
     /tmp/ccXvruhy.s:3546   .debug_str:00000000000000a5 .LASF14
     /tmp/ccXvruhy.s:3722   .debug_str:000000000000064c .LASF15
     /tmp/ccXvruhy.s:3568   .debug_str:000000000000014a .LASF16
     /tmp/ccXvruhy.s:3714   .debug_str:0000000000000612 .LASF17
     /tmp/ccXvruhy.s:3758   .debug_str:0000000000000803 .LASF18
     /tmp/ccXvruhy.s:3728   .debug_str:0000000000000671 .LASF19
     /tmp/ccXvruhy.s:3766   .debug_str:000000000000083c .LASF21
     /tmp/ccXvruhy.s:3566   .debug_str:0000000000000137 .LASF20
     /tmp/ccXvruhy.s:3748   .debug_str:00000000000007a7 .LASF22
     /tmp/ccXvruhy.s:3726   .debug_str:0000000000000661 .LASF23
     /tmp/ccXvruhy.s:3612   .debug_str:0000000000000284 .LASF24
     /tmp/ccXvruhy.s:3574   .debug_str:000000000000018d .LASF27
     /tmp/ccXvruhy.s:3796   .debug_str:0000000000000914 .LASF29
     /tmp/ccXvruhy.s:3590   .debug_str:00000000000001fa .LASF25
     /tmp/ccXvruhy.s:3630   .debug_str:000000000000033d .LASF26
     /tmp/ccXvruhy.s:3654   .debug_str:00000000000003ef .LASF28
GAS LISTING /tmp/ccXvruhy.s 			page 27


     /tmp/ccXvruhy.s:3792   .debug_str:00000000000008f2 .LASF30
     /tmp/ccXvruhy.s:3730   .debug_str:000000000000067c .LASF31
     /tmp/ccXvruhy.s:3780   .debug_str:00000000000008a2 .LASF32
     /tmp/ccXvruhy.s:3752   .debug_str:00000000000007e7 .LASF33
     /tmp/ccXvruhy.s:3740   .debug_str:0000000000000768 .LASF34
     /tmp/ccXvruhy.s:3790   .debug_str:00000000000008e3 .LASF35
     /tmp/ccXvruhy.s:3534   .debug_str:0000000000000029 .LASF36
     /tmp/ccXvruhy.s:3710   .debug_str:00000000000005fd .LASF127
     /tmp/ccXvruhy.s:3628   .debug_str:0000000000000337 .LASF128
     /tmp/ccXvruhy.s:3632   .debug_str:0000000000000357 .LASF129
     /tmp/ccXvruhy.s:3736   .debug_str:000000000000069c .LASF79
     /tmp/ccXvruhy.s:3622   .debug_str:00000000000002f9 .LASF37
     /tmp/ccXvruhy.s:3784   .debug_str:00000000000008c5 .LASF38
     /tmp/ccXvruhy.s:3788   .debug_str:00000000000008d6 .LASF39
     /tmp/ccXvruhy.s:3570   .debug_str:0000000000000160 .LASF40
     /tmp/ccXvruhy.s:3528   .debug_str:0000000000000007 .LASF41
     /tmp/ccXvruhy.s:3608   .debug_str:0000000000000265 .LASF77
     /tmp/ccXvruhy.s:3596   .debug_str:0000000000000221 .LASF130
     /tmp/ccXvruhy.s:3544   .debug_str:000000000000008f .LASF131
     /tmp/ccXvruhy.s:3556   .debug_str:00000000000000ec .LASF132
     /tmp/ccXvruhy.s:3530   .debug_str:0000000000000017 .LASF42
     /tmp/ccXvruhy.s:3642   .debug_str:00000000000003a6 .LASF43
     /tmp/ccXvruhy.s:3764   .debug_str:0000000000000833 .LASF44
     /tmp/ccXvruhy.s:3620   .debug_str:00000000000002ef .LASF45
     /tmp/ccXvruhy.s:3786   .debug_str:00000000000008d1 .LASF46
     /tmp/ccXvruhy.s:3712   .debug_str:0000000000000609 .LASF47
     /tmp/ccXvruhy.s:3662   .debug_str:000000000000046c .LASF48
     /tmp/ccXvruhy.s:3636   .debug_str:0000000000000371 .LASF49
     /tmp/ccXvruhy.s:3770   .debug_str:0000000000000861 .LASF50
     /tmp/ccXvruhy.s:3564   .debug_str:0000000000000129 .LASF51
     /tmp/ccXvruhy.s:3744   .debug_str:0000000000000793 .LASF52
     /tmp/ccXvruhy.s:3704   .debug_str:00000000000005c5 .LASF81
     /tmp/ccXvruhy.s:3562   .debug_str:0000000000000120 .LASF58
     /tmp/ccXvruhy.s:3538   .debug_str:000000000000005e .LASF60
     /tmp/ccXvruhy.s:3602   .debug_str:0000000000000242 .LASF53
     /tmp/ccXvruhy.s:3760   .debug_str:000000000000080c .LASF55
     /tmp/ccXvruhy.s:3604   .debug_str:0000000000000251 .LASF54
     /tmp/ccXvruhy.s:3700   .debug_str:000000000000057f .LASF56
     /tmp/ccXvruhy.s:3634   .debug_str:0000000000000367 .LASF57
     /tmp/ccXvruhy.s:3678   .debug_str:00000000000004cd .LASF59
     /tmp/ccXvruhy.s:3772   .debug_str:000000000000086e .LASF61
     /tmp/ccXvruhy.s:3776   .debug_str:000000000000088e .LASF62
     /tmp/ccXvruhy.s:3666   .debug_str:0000000000000481 .LASF63
     /tmp/ccXvruhy.s:3582   .debug_str:00000000000001b9 .LASF133
     /tmp/ccXvruhy.s:3762   .debug_str:000000000000082a .LASF64
     /tmp/ccXvruhy.s:3774   .debug_str:0000000000000889 .LASF65
     /tmp/ccXvruhy.s:3550   .debug_str:00000000000000c4 .LASF66
     /tmp/ccXvruhy.s:3526   .debug_str:0000000000000000 .LASF67
     /tmp/ccXvruhy.s:3690   .debug_str:000000000000051e .LASF68
     /tmp/ccXvruhy.s:3614   .debug_str:00000000000002a0 .LASF134
     /tmp/ccXvruhy.s:3746   .debug_str:000000000000079d .LASF69
     /tmp/ccXvruhy.s:3750   .debug_str:00000000000007c6 .LASF70
     /tmp/ccXvruhy.s:3598   .debug_str:000000000000022c .LASF71
     /tmp/ccXvruhy.s:3656   .debug_str:00000000000003fd .LASF72
     /tmp/ccXvruhy.s:3560   .debug_str:0000000000000113 .LASF73
     /tmp/ccXvruhy.s:3660   .debug_str:0000000000000447 .LASF74
     /tmp/ccXvruhy.s:3664   .debug_str:0000000000000474 .LASF75
GAS LISTING /tmp/ccXvruhy.s 			page 28


     /tmp/ccXvruhy.s:3638   .debug_str:000000000000037c .LASF76
     /tmp/ccXvruhy.s:3540   .debug_str:0000000000000071 .LASF78
     /tmp/ccXvruhy.s:3768   .debug_str:0000000000000853 .LASF80
     /tmp/ccXvruhy.s:3718   .debug_str:0000000000000639 .LASF82
     /tmp/ccXvruhy.s:3734   .debug_str:000000000000068c .LASF83
     /tmp/ccXvruhy.s:3658   .debug_str:000000000000041e .LASF84
     /tmp/ccXvruhy.s:3650   .debug_str:00000000000003cf .LASF85
     /tmp/ccXvruhy.s:3702   .debug_str:000000000000059d .LASF86
     /tmp/ccXvruhy.s:3640   .debug_str:00000000000003a1 .LASF87
     /tmp/ccXvruhy.s:3646   .debug_str:00000000000003b8 .LASF88
     /tmp/ccXvruhy.s:3724   .debug_str:0000000000000658 .LASF89
     /tmp/ccXvruhy.s:791    .text:00000000000003ac .LFB48
     /tmp/ccXvruhy.s:828    .text:00000000000003dc .LFE48
     /tmp/ccXvruhy.s:3112   .debug_loc:0000000000000000 .LLST20
     /tmp/ccXvruhy.s:3754   .debug_str:00000000000007f5 .LASF90
     /tmp/ccXvruhy.s:817    .text:00000000000003cc .LVL79
     /tmp/ccXvruhy.s:3732   .debug_str:0000000000000687 .LASF91
     /tmp/ccXvruhy.s:3606   .debug_str:0000000000000260 .LASF92
     /tmp/ccXvruhy.s:3756   .debug_str:00000000000007fa .LASF94
     /tmp/ccXvruhy.s:756    .text:000000000000037c .LFB47
     /tmp/ccXvruhy.s:785    .text:00000000000003ac .LFE47
     /tmp/ccXvruhy.s:773    .text:0000000000000398 .LVL75
     /tmp/ccXvruhy.s:3692   .debug_str:000000000000054c .LASF93
     /tmp/ccXvruhy.s:3674   .debug_str:00000000000004b6 .LASF95
     /tmp/ccXvruhy.s:697    .text:0000000000000334 .LFB46
     /tmp/ccXvruhy.s:750    .text:000000000000037c .LFE46
     /tmp/ccXvruhy.s:3672   .debug_str:00000000000004b1 .LASF96
     /tmp/ccXvruhy.s:3126   .debug_loc:0000000000000039 .LLST19
     /tmp/ccXvruhy.s:725    .text:0000000000000358 .LVL70
     /tmp/ccXvruhy.s:729    .text:0000000000000360 .LVL71
     /tmp/ccXvruhy.s:3680   .debug_str:00000000000004dd .LASF97
     /tmp/ccXvruhy.s:3742   .debug_str:0000000000000781 .LASF98
     /tmp/ccXvruhy.s:642    .text:00000000000002f4 .LFB45
     /tmp/ccXvruhy.s:691    .text:0000000000000334 .LFE45
     /tmp/ccXvruhy.s:3794   .debug_str:000000000000090d .LASF99
     /tmp/ccXvruhy.s:3151   .debug_loc:000000000000009b .LLST18
     /tmp/ccXvruhy.s:670    .text:0000000000000318 .LVL65
     /tmp/ccXvruhy.s:3594   .debug_str:0000000000000216 .LASF100
     /tmp/ccXvruhy.s:3558   .debug_str:00000000000000ff .LASF101
     /tmp/ccXvruhy.s:571    .text:0000000000000298 .LFB44
     /tmp/ccXvruhy.s:636    .text:00000000000002f4 .LFE44
     /tmp/ccXvruhy.s:3176   .debug_loc:00000000000000fd .LLST17
     /tmp/ccXvruhy.s:3578   .debug_str:00000000000001ac .LASF102
     /tmp/ccXvruhy.s:599    .text:00000000000002bc .LVL59
     /tmp/ccXvruhy.s:608    .text:00000000000002d0 .LVL60
     /tmp/ccXvruhy.s:3706   .debug_str:00000000000005d6 .LASF103
     /tmp/ccXvruhy.s:3652   .debug_str:00000000000003de .LASF104
     /tmp/ccXvruhy.s:482    .text:0000000000000228 .LFB43
     /tmp/ccXvruhy.s:565    .text:0000000000000298 .LFE43
     /tmp/ccXvruhy.s:3201   .debug_loc:000000000000015f .LLST15
     /tmp/ccXvruhy.s:527    .text:000000000000026c .LBB8
     /tmp/ccXvruhy.s:535    .text:0000000000000270 .LBE8
     /tmp/ccXvruhy.s:3232   .debug_loc:00000000000001e5 .LLST16
     /tmp/ccXvruhy.s:514    .text:0000000000000254 .LVL49
     /tmp/ccXvruhy.s:520    .text:0000000000000260 .LVL50
     /tmp/ccXvruhy.s:3688   .debug_str:0000000000000515 .LASF105
     /tmp/ccXvruhy.s:3686   .debug_str:0000000000000502 .LASF106
GAS LISTING /tmp/ccXvruhy.s 			page 29


     /tmp/ccXvruhy.s:417    .text:00000000000001e0 .LFB42
     /tmp/ccXvruhy.s:476    .text:0000000000000228 .LFE42
     /tmp/ccXvruhy.s:3239   .debug_loc:0000000000000208 .LLST13
     /tmp/ccXvruhy.s:3542   .debug_str:000000000000008a .LASF107
     /tmp/ccXvruhy.s:3261   .debug_loc:0000000000000267 .LLST14
     /tmp/ccXvruhy.s:448    .text:0000000000000204 .LVL42
     /tmp/ccXvruhy.s:3670   .debug_str:00000000000004a4 .LASF108
     /tmp/ccXvruhy.s:3586   .debug_str:00000000000001d5 .LASF109
     /tmp/ccXvruhy.s:322    .text:0000000000000160 .LFB41
     /tmp/ccXvruhy.s:359    .text:0000000000000190 .LFE41
     /tmp/ccXvruhy.s:3275   .debug_loc:00000000000002a0 .LLST8
     /tmp/ccXvruhy.s:348    .text:0000000000000180 .LVL32
     /tmp/ccXvruhy.s:3644   .debug_str:00000000000003ac .LASF110
     /tmp/ccXvruhy.s:3716   .debug_str:0000000000000628 .LASF111
     /tmp/ccXvruhy.s:287    .text:0000000000000130 .LFB40
     /tmp/ccXvruhy.s:316    .text:0000000000000160 .LFE40
     /tmp/ccXvruhy.s:304    .text:000000000000014c .LVL28
     /tmp/ccXvruhy.s:3682   .debug_str:00000000000004e7 .LASF112
     /tmp/ccXvruhy.s:3536   .debug_str:0000000000000049 .LASF113
     /tmp/ccXvruhy.s:253    .text:0000000000000104 .LFB39
     /tmp/ccXvruhy.s:281    .text:0000000000000130 .LFE39
     /tmp/ccXvruhy.s:270    .text:0000000000000120 .LVL26
     /tmp/ccXvruhy.s:3720   .debug_str:000000000000063e .LASF114
     /tmp/ccXvruhy.s:3572   .debug_str:000000000000016c .LASF115
     /tmp/ccXvruhy.s:365    .text:0000000000000190 .LFB38
     /tmp/ccXvruhy.s:411    .text:00000000000001e0 .LFE38
     /tmp/ccXvruhy.s:3289   .debug_loc:00000000000002d9 .LLST9
     /tmp/ccXvruhy.s:3782   .debug_str:00000000000008b8 .LASF116
     /tmp/ccXvruhy.s:3307   .debug_loc:0000000000000325 .LLST10
     /tmp/ccXvruhy.s:3321   .debug_loc:000000000000035e .LLST11
     /tmp/ccXvruhy.s:3335   .debug_loc:0000000000000397 .LLST12
     /tmp/ccXvruhy.s:385    .text:00000000000001b4 .LVL34
     /tmp/ccXvruhy.s:392    .text:00000000000001c4 .LVL36
     /tmp/ccXvruhy.s:3554   .debug_str:00000000000000d9 .LASF117
     /tmp/ccXvruhy.s:3626   .debug_str:0000000000000311 .LASF118
     /tmp/ccXvruhy.s:157    .text:0000000000000098 .LFB37
     /tmp/ccXvruhy.s:247    .text:0000000000000104 .LFE37
     /tmp/ccXvruhy.s:3342   .debug_loc:00000000000003ba .LLST4
     /tmp/ccXvruhy.s:3371   .debug_loc:000000000000042f .LLST5
     /tmp/ccXvruhy.s:3385   .debug_loc:0000000000000468 .LLST6
     /tmp/ccXvruhy.s:3399   .debug_loc:00000000000004a1 .LLST7
     /tmp/ccXvruhy.s:193    .text:00000000000000c0 .LVL17
     /tmp/ccXvruhy.s:213    .text:00000000000000d8 .LVL19
     /tmp/ccXvruhy.s:3778   .debug_str:0000000000000894 .LASF119
     /tmp/ccXvruhy.s:113    .text:0000000000000064 .LFB36
     /tmp/ccXvruhy.s:151    .text:0000000000000098 .LFE36
     /tmp/ccXvruhy.s:3684   .debug_str:00000000000004f7 .LASF120
     /tmp/ccXvruhy.s:3410   .debug_loc:00000000000004d7 .LLST3
     /tmp/ccXvruhy.s:139    .text:0000000000000084 .LVL13
     /tmp/ccXvruhy.s:3592   .debug_str:0000000000000208 .LASF121
     /tmp/ccXvruhy.s:53     .text:0000000000000024 .LFB35
     /tmp/ccXvruhy.s:107    .text:0000000000000064 .LFE35
     /tmp/ccXvruhy.s:3424   .debug_loc:0000000000000510 .LLST1
     /tmp/ccXvruhy.s:68     .text:0000000000000034 .LBB6
     /tmp/ccXvruhy.s:83     .text:0000000000000044 .LBE6
     /tmp/ccXvruhy.s:3475   .debug_loc:000000000000059b .LLST2
     /tmp/ccXvruhy.s:96     .text:0000000000000054 .LVL9
GAS LISTING /tmp/ccXvruhy.s 			page 30


     /tmp/ccXvruhy.s:3616   .debug_str:00000000000002ce .LASF122
     /tmp/ccXvruhy.s:3696   .debug_str:0000000000000565 .LASF123
     /tmp/ccXvruhy.s:10     .text:0000000000000000 .LFB34
     /tmp/ccXvruhy.s:47     .text:0000000000000024 .LFE34
     /tmp/ccXvruhy.s:3489   .debug_loc:00000000000005d4 .LLST0
     /tmp/ccXvruhy.s:3580   .debug_str:00000000000001b4 .LASF135
     /tmp/ccXvruhy.s:794    .text:00000000000003ac .LVL76
     /tmp/ccXvruhy.s:815    .text:00000000000003c4 .LVL78
     /tmp/ccXvruhy.s:700    .text:0000000000000334 .LVL68
     /tmp/ccXvruhy.s:723    .text:0000000000000350 .LVL69
     /tmp/ccXvruhy.s:742    .text:0000000000000374 .LVL72
     /tmp/ccXvruhy.s:746    .text:0000000000000378 .LVL73
     /tmp/ccXvruhy.s:645    .text:00000000000002f4 .LVL63
     /tmp/ccXvruhy.s:668    .text:0000000000000310 .LVL64
     /tmp/ccXvruhy.s:683    .text:000000000000032c .LVL66
     /tmp/ccXvruhy.s:687    .text:0000000000000330 .LVL67
     /tmp/ccXvruhy.s:574    .text:0000000000000298 .LVL57
     /tmp/ccXvruhy.s:597    .text:00000000000002b4 .LVL58
     /tmp/ccXvruhy.s:621    .text:00000000000002e4 .LVL61
     /tmp/ccXvruhy.s:625    .text:00000000000002e8 .LVL62
     /tmp/ccXvruhy.s:485    .text:0000000000000228 .LVL46
     /tmp/ccXvruhy.s:512    .text:000000000000024c .LVL48
     /tmp/ccXvruhy.s:548    .text:0000000000000280 .LVL53
     /tmp/ccXvruhy.s:551    .text:0000000000000284 .LVL54
     /tmp/ccXvruhy.s:553    .text:0000000000000288 .LVL55
     /tmp/ccXvruhy.s:558    .text:000000000000028c .LVL56
     /tmp/ccXvruhy.s:526    .text:000000000000026c .LVL51
     /tmp/ccXvruhy.s:533    .text:0000000000000270 .LVL52
     /tmp/ccXvruhy.s:420    .text:00000000000001e0 .LVL39
     /tmp/ccXvruhy.s:446    .text:00000000000001fc .LVL41
     /tmp/ccXvruhy.s:456    .text:0000000000000210 .LVL43
     /tmp/ccXvruhy.s:468    .text:0000000000000220 .LVL44
     /tmp/ccXvruhy.s:473    .text:0000000000000224 .LVL45
     /tmp/ccXvruhy.s:325    .text:0000000000000160 .LVL29
     /tmp/ccXvruhy.s:346    .text:0000000000000178 .LVL31
     /tmp/ccXvruhy.s:368    .text:0000000000000190 .LVL33
     /tmp/ccXvruhy.s:406    .text:00000000000001d8 .LVL38
     /tmp/ccXvruhy.s:387    .text:00000000000001b8 .LVL35
     /tmp/ccXvruhy.s:403    .text:00000000000001d4 .LVL37
     /tmp/ccXvruhy.s:160    .text:0000000000000098 .LVL14
     /tmp/ccXvruhy.s:191    .text:00000000000000b8 .LVL16
     /tmp/ccXvruhy.s:221    .text:00000000000000e4 .LVL20
     /tmp/ccXvruhy.s:233    .text:00000000000000f4 .LVL21
     /tmp/ccXvruhy.s:240    .text:00000000000000fc .LVL23
     /tmp/ccXvruhy.s:244    .text:0000000000000100 .LVL24
     /tmp/ccXvruhy.s:211    .text:00000000000000d0 .LVL18
     /tmp/ccXvruhy.s:238    .text:00000000000000f8 .LVL22
     /tmp/ccXvruhy.s:116    .text:0000000000000064 .LVL10
     /tmp/ccXvruhy.s:137    .text:000000000000007c .LVL12
     /tmp/ccXvruhy.s:56     .text:0000000000000024 .LVL4
     /tmp/ccXvruhy.s:76     .text:000000000000003c .LVL6
     /tmp/ccXvruhy.s:81     .text:0000000000000044 .LVL7
     /tmp/ccXvruhy.s:94     .text:000000000000004c .LVL8
     /tmp/ccXvruhy.s:66     .text:0000000000000034 .LVL5
     /tmp/ccXvruhy.s:14     .text:0000000000000000 .LVL0
     /tmp/ccXvruhy.s:34     .text:0000000000000018 .LVL1
     /tmp/ccXvruhy.s:41     .text:000000000000001c .LVL2
GAS LISTING /tmp/ccXvruhy.s 			page 31


     /tmp/ccXvruhy.s:44     .text:0000000000000020 .LVL3
     /tmp/ccXvruhy.s:834    .debug_info:0000000000000000 .Ldebug_info0

UNDEFINED SYMBOLS
_ZN3PCB7runningE
