GAS LISTING /tmp/ccxq6xuX.s 			page 1


   1              		.file	"syscall_c.cpp"
   2              		.option pic
   3              		.option norelax
   4              		.text
   5              	.Ltext0:
   6              		.align	2
   7              		.globl	_Z13callInterruptm
   9              	_Z13callInterruptm:
  10              	.LFB42:
  11              		.file 1 "src/syscall_c.cpp"
   1:src/syscall_c.cpp **** #include "../h/syscall_c.h"
   2:src/syscall_c.cpp **** #include "../h/MemoryAllocator.h"
   3:src/syscall_c.cpp **** #include "../h/kernel.h"
   4:src/syscall_c.cpp **** #include "../h/PCB.h"
   5:src/syscall_c.cpp **** 
   6:src/syscall_c.cpp **** extern "C" void interrupt(); // u interrupt treba dodati i cuvanje konteksta
   7:src/syscall_c.cpp **** // prelazak u sistemski rezim i prelazak na sistemsku funkciju zadatu u registru stvec(asemblerska 
   8:src/syscall_c.cpp **** void* callInterrupt(size_t volatile code) {
  12              		.loc 1 8 43
  13              		.cfi_startproc
  14              	.LVL0:
  15 0000 130101FE 		addi	sp,sp,-32
  16              		.cfi_def_cfa_offset 32
  17 0004 233C8100 		sd	s0,24(sp)
  18              		.cfi_offset 8, -8
  19 0008 13040102 		addi	s0,sp,32
  20              		.cfi_def_cfa 8, 0
  21 000c 2334A4FE 		sd	a0,-24(s0)
   9:src/syscall_c.cpp ****     void* res;
  22              		.loc 1 9 5
  10:src/syscall_c.cpp ****     asm volatile("ecall");
  23              		.loc 1 10 5
  24              		.loc 1 10 26 is_stmt 0
  25              	#APP
  26              	# 10 "src/syscall_c.cpp" 1
  11              	    asm volatile("mv %0, a0" : "=r" (res));
  27              		ecall
  28              	# 0 "" 2
  29              		.loc 1 11 5 is_stmt 1
  30              		.loc 1 11 43 is_stmt 0
  31              	# 11 "src/syscall_c.cpp" 1
  12              	    return res;
  32              		mv a0, a0
  33              	# 0 "" 2
  34              	.LVL1:
  35              		.loc 1 12 5 is_stmt 1
  13:src/syscall_c.cpp **** }
  36              		.loc 1 13 1 is_stmt 0
  37              	#NO_APP
  38 0018 03348101 		ld	s0,24(sp)
  39              		.cfi_restore 8
  40              		.cfi_def_cfa 2, 32
  41              	.LVL2:
  42 001c 13010102 		addi	sp,sp,32
  43              		.cfi_def_cfa_offset 0
  44              	.LVL3:
  45 0020 67800000 		jr	ra
GAS LISTING /tmp/ccxq6xuX.s 			page 2


  46              		.cfi_endproc
  47              	.LFE42:
  49              		.align	2
  50              		.globl	_Z9mem_allocm
  52              	_Z9mem_allocm:
  53              	.LFB43:
  14:src/syscall_c.cpp **** 
  15:src/syscall_c.cpp **** // a0 code a1 size
  16:src/syscall_c.cpp **** void* mem_alloc(size_t size) {
  54              		.loc 1 16 30 is_stmt 1
  55              		.cfi_startproc
  56              	.LVL4:
  57 0024 130101FF 		addi	sp,sp,-16
  58              		.cfi_def_cfa_offset 16
  59 0028 23341100 		sd	ra,8(sp)
  60 002c 23308100 		sd	s0,0(sp)
  61              		.cfi_offset 1, -8
  62              		.cfi_offset 8, -16
  63 0030 13040101 		addi	s0,sp,16
  64              		.cfi_def_cfa 8, 0
  17:src/syscall_c.cpp ****     size_t code = Kernel::sysCallCodes::mem_alloc; // kod sistemskog poziva
  65              		.loc 1 17 5
  66              	.LVL5:
  18:src/syscall_c.cpp ****     // size je dat u bajtovima, a mi treba da ga prebacimo u blokove i onda opet upisemo u a1
  19:src/syscall_c.cpp ****     size = MemoryAllocator::sizeInBlocks(size); // funkcija menja a0
  67              		.loc 1 19 5
  68              	.LBB4:
  69              	.LBB5:
  70              		.file 2 "src/../h/MemoryAllocator.h"
   1:src/../h/MemoryAllocator.h **** #ifndef PROJECT_BASE_MEMORYALLOCATOR_H
   2:src/../h/MemoryAllocator.h **** #define PROJECT_BASE_MEMORYALLOCATOR_H
   3:src/../h/MemoryAllocator.h **** 
   4:src/../h/MemoryAllocator.h **** #include "hw.h"
   5:src/../h/MemoryAllocator.h **** 
   6:src/../h/MemoryAllocator.h **** class MemoryAllocator {
   7:src/../h/MemoryAllocator.h **** public:
   8:src/../h/MemoryAllocator.h ****     /*
   9:src/../h/MemoryAllocator.h ****     Alocira (najmanje) size bajtova memorije, zaokruženo i poravnato na blokove veličine MEM_BLOC
  10:src/../h/MemoryAllocator.h ****     Svaki alocirani segment ima zaglavlje sa velicinom tog segmenta(vraca se adresa nakon tog zagla
  11:src/../h/MemoryAllocator.h **** 
  12:src/../h/MemoryAllocator.h ****     Vraća:
  13:src/../h/MemoryAllocator.h ****     pokazivač na alocirani deo memorije u slučaju uspeha, nullptr u slučaju neuspeha
  14:src/../h/MemoryAllocator.h **** 
  15:src/../h/MemoryAllocator.h ****     Radi se po algoritmu first fit(alociramo prvi segment koji je >= size). Ako je preostao prostor
  16:src/../h/MemoryAllocator.h ****     jednog bloka, taj preostali prostor se pridruzuje ovom koji smo sad alocirali(jer nema poente d
  17:src/../h/MemoryAllocator.h ****     */
  18:src/../h/MemoryAllocator.h ****     static void* mem_alloc(size_t size);
  19:src/../h/MemoryAllocator.h ****     /*
  20:src/../h/MemoryAllocator.h ****     Oslobađa prostor prethodno zauzet pomoću mem_alloc.
  21:src/../h/MemoryAllocator.h ****     Vraća 0 u slučaju uspeha, BAD_POINTER  flag ako je dostavljen los pokazivac.
  22:src/../h/MemoryAllocator.h ****     Ako je moguce, spaja dva susedna slobodna segmenta u jedan veci
  23:src/../h/MemoryAllocator.h ****     */
  24:src/../h/MemoryAllocator.h ****     static int mem_free(void* memSegment);
  25:src/../h/MemoryAllocator.h **** 
  26:src/../h/MemoryAllocator.h ****     enum memFreeFlags {
  27:src/../h/MemoryAllocator.h ****         BAD_POINTER = -1 // nije koriscen pokazviac iz mem_alloc
  28:src/../h/MemoryAllocator.h ****     };
GAS LISTING /tmp/ccxq6xuX.s 			page 3


  29:src/../h/MemoryAllocator.h **** 
  30:src/../h/MemoryAllocator.h ****     // Vraca minimalan potreban broj blokova za alokaciju memorije velicine size bajtova
  31:src/../h/MemoryAllocator.h ****     static inline size_t sizeInBlocks(size_t size) {
  32:src/../h/MemoryAllocator.h ****         return (size / MEM_BLOCK_SIZE) + (size % MEM_BLOCK_SIZE > 0);
  71              		.loc 2 32 9
  72              		.loc 2 32 22 is_stmt 0
  73 0034 93576500 		srli	a5,a0,6
  74              		.loc 2 32 48
  75 0038 1375F503 		andi	a0,a0,63
  76              	.LVL6:
  77              		.loc 2 32 65
  78 003c 3335A000 		snez	a0,a0
  79              		.loc 2 32 68
  80 0040 3385A700 		add	a0,a5,a0
  81              	.LVL7:
  82              	.LBE5:
  83              	.LBE4:
  20:src/syscall_c.cpp ****     asm volatile("mv a1, %0" : : "r" (size)); // a1 = size
  84              		.loc 1 20 5 is_stmt 1
  85              		.loc 1 20 45 is_stmt 0
  86              	#APP
  87              	# 20 "src/syscall_c.cpp" 1
  21              	
  22:src/syscall_c.cpp ****     return (void*)callInterrupt(code);
  88              		mv a1, a0
  89              	# 0 "" 2
  90              		.loc 1 22 5 is_stmt 1
  91              		.loc 1 22 32 is_stmt 0
  92              	#NO_APP
  93 0048 13051000 		li	a0,1
  94              	.LVL8:
  95 004c 97000000 		call	_Z13callInterruptm
  95      E7800000 
  96              	.LVL9:
  23:src/syscall_c.cpp **** }
  97              		.loc 1 23 1
  98 0054 83308100 		ld	ra,8(sp)
  99              		.cfi_restore 1
 100 0058 03340100 		ld	s0,0(sp)
 101              		.cfi_restore 8
 102              		.cfi_def_cfa 2, 16
 103 005c 13010101 		addi	sp,sp,16
 104              		.cfi_def_cfa_offset 0
 105 0060 67800000 		jr	ra
 106              		.cfi_endproc
 107              	.LFE43:
 109              		.align	2
 110              		.globl	_Z8mem_freePv
 112              	_Z8mem_freePv:
 113              	.LFB44:
  24:src/syscall_c.cpp **** 
  25:src/syscall_c.cpp **** // a0 code a1 memSegment
  26:src/syscall_c.cpp **** int mem_free (void* memSegment) {
 114              		.loc 1 26 33 is_stmt 1
 115              		.cfi_startproc
 116              	.LVL10:
 117 0064 130101FF 		addi	sp,sp,-16
GAS LISTING /tmp/ccxq6xuX.s 			page 4


 118              		.cfi_def_cfa_offset 16
 119 0068 23341100 		sd	ra,8(sp)
 120 006c 23308100 		sd	s0,0(sp)
 121              		.cfi_offset 1, -8
 122              		.cfi_offset 8, -16
 123 0070 13040101 		addi	s0,sp,16
 124              		.cfi_def_cfa 8, 0
  27:src/syscall_c.cpp ****     size_t code = Kernel::sysCallCodes::mem_free; // kod sistemskog poziva
 125              		.loc 1 27 5
 126              	.LVL11:
  28:src/syscall_c.cpp ****     asm volatile("mv a1, a0"); // a1 = memSegment
 127              		.loc 1 28 5
 128              		.loc 1 28 30 is_stmt 0
 129              	#APP
 130              	# 28 "src/syscall_c.cpp" 1
  29              	
  30:src/syscall_c.cpp ****     return (size_t)(callInterrupt(code));
 131              		mv a1, a0
 132              	# 0 "" 2
 133              		.loc 1 30 5 is_stmt 1
 134              		.loc 1 30 34 is_stmt 0
 135              	#NO_APP
 136 0078 13052000 		li	a0,2
 137              	.LVL12:
 138 007c 97000000 		call	_Z13callInterruptm
 138      E7800000 
 139              	.LVL13:
  31:src/syscall_c.cpp **** }
 140              		.loc 1 31 1
 141 0084 1B050500 		sext.w	a0,a0
 142 0088 83308100 		ld	ra,8(sp)
 143              		.cfi_restore 1
 144 008c 03340100 		ld	s0,0(sp)
 145              		.cfi_restore 8
 146              		.cfi_def_cfa 2, 16
 147 0090 13010101 		addi	sp,sp,16
 148              		.cfi_def_cfa_offset 0
 149 0094 67800000 		jr	ra
 150              		.cfi_endproc
 151              	.LFE44:
 153              		.align	2
 154              		.globl	_Z18thread_create_onlyPP3PCBPFvPvES2_
 156              	_Z18thread_create_onlyPP3PCBPFvPvES2_:
 157              	.LFB45:
  32:src/syscall_c.cpp **** 
  33:src/syscall_c.cpp **** // a0 - code a1 - handle a2 - startRoutine a3 - arg a4 - stackSpace, a5 - deleteArgFlag
  34:src/syscall_c.cpp **** int thread_create_only (thread_t* handle, void(*startRoutine)(void*), void* arg) {
 158              		.loc 1 34 82 is_stmt 1
 159              		.cfi_startproc
 160              	.LVL14:
 161 0098 130101FE 		addi	sp,sp,-32
 162              		.cfi_def_cfa_offset 32
 163 009c 233C1100 		sd	ra,24(sp)
 164 00a0 23388100 		sd	s0,16(sp)
 165 00a4 23349100 		sd	s1,8(sp)
 166              		.cfi_offset 1, -8
 167              		.cfi_offset 8, -16
GAS LISTING /tmp/ccxq6xuX.s 			page 5


 168              		.cfi_offset 9, -24
 169 00a8 13040102 		addi	s0,sp,32
 170              		.cfi_def_cfa 8, 0
 171 00ac 93040500 		mv	s1,a0
  35:src/syscall_c.cpp ****     size_t code = Kernel::sysCallCodes::thread_create;
 172              		.loc 1 35 5
 173              	.LVL15:
  36:src/syscall_c.cpp ****     asm volatile("mv a3, a2"); // a3 = arg
 174              		.loc 1 36 5
 175              		.loc 1 36 30 is_stmt 0
 176              	#APP
 177              	# 36 "src/syscall_c.cpp" 1
  37              	    asm volatile("mv a2, a1"); // a2 = startRoutine
 178              		mv a3, a2
 179              	# 0 "" 2
 180              		.loc 1 37 5 is_stmt 1
 181              		.loc 1 37 30 is_stmt 0
 182              	# 37 "src/syscall_c.cpp" 1
  38              	    asm volatile("mv a4, a0"); // a4 = handle privremeno cuvamo da bismo posle vratili u a1
 183              		mv a2, a1
 184              	# 0 "" 2
 185              		.loc 1 38 5 is_stmt 1
 186              		.loc 1 38 30 is_stmt 0
 187              	# 38 "src/syscall_c.cpp" 1
  39              	
  40:src/syscall_c.cpp **** 
  41:src/syscall_c.cpp ****     size_t* stack = (size_t*)mem_alloc(sizeof(size_t)*DEFAULT_STACK_SIZE); // pravimo stack procesa
 188              		mv a4, a0
 189              	# 0 "" 2
 190              		.loc 1 41 5 is_stmt 1
 191              		.loc 1 41 39 is_stmt 0
 192              	#NO_APP
 193 00bc 37850000 		li	a0,32768
 194              	.LVL16:
 195 00c0 97000000 		call	_Z9mem_allocm
 195      E7800000 
 196              	.LVL17:
  42:src/syscall_c.cpp ****     if(stack == nullptr) {
 197              		.loc 1 42 5 is_stmt 1
 198 00c8 630C0502 		beqz	a0,.L12
  43:src/syscall_c.cpp ****         *handle = nullptr;
  44:src/syscall_c.cpp ****         return -1;
  45:src/syscall_c.cpp ****     }
  46:src/syscall_c.cpp **** 
  47:src/syscall_c.cpp ****     asm volatile("mv a1, a4"); // a1 = a5(handle)
 199              		.loc 1 47 5
 200              		.loc 1 47 30 is_stmt 0
 201              	#APP
 202              	# 47 "src/syscall_c.cpp" 1
  48              	    asm volatile("mv a4, %0" : : "r" (stack));
 203              		mv a1, a4
 204              	# 0 "" 2
 205              		.loc 1 48 5 is_stmt 1
 206              		.loc 1 48 46 is_stmt 0
 207              	# 48 "src/syscall_c.cpp" 1
  49              	
  50:src/syscall_c.cpp ****     handle = (thread_t*)(callInterrupt(code)); // vraca se pokazivac na PCB, ili nullptr ako je neu
GAS LISTING /tmp/ccxq6xuX.s 			page 6


 208              		mv a4, a0
 209              	# 0 "" 2
 210              		.loc 1 50 5 is_stmt 1
 211              		.loc 1 50 39 is_stmt 0
 212              	#NO_APP
 213 00d4 13051001 		li	a0,17
 214              	.LVL18:
 215 00d8 97000000 		call	_Z13callInterruptm
 215      E7800000 
 216              	.LVL19:
  51:src/syscall_c.cpp ****     if(*handle == nullptr) {
 217              		.loc 1 51 5 is_stmt 1
 218              		.loc 1 51 8 is_stmt 0
 219 00e0 83370500 		ld	a5,0(a0)
 220              		.loc 1 51 5
 221 00e4 63840702 		beqz	a5,.L10
  52:src/syscall_c.cpp ****         return -1;
  53:src/syscall_c.cpp ****     }
  54:src/syscall_c.cpp ****     return 0;
 222              		.loc 1 54 12
 223 00e8 13050000 		li	a0,0
 224              	.LVL20:
 225              	.L9:
  55:src/syscall_c.cpp **** }
 226              		.loc 1 55 1
 227 00ec 83308101 		ld	ra,24(sp)
 228              		.cfi_remember_state
 229              		.cfi_restore 1
 230 00f0 03340101 		ld	s0,16(sp)
 231              		.cfi_restore 8
 232              		.cfi_def_cfa 2, 32
 233 00f4 83348100 		ld	s1,8(sp)
 234              		.cfi_restore 9
 235 00f8 13010102 		addi	sp,sp,32
 236              		.cfi_def_cfa_offset 0
 237 00fc 67800000 		jr	ra
 238              	.LVL21:
 239              	.L12:
 240              		.cfi_restore_state
  43:src/syscall_c.cpp ****         return -1;
 241              		.loc 1 43 9 is_stmt 1
  43:src/syscall_c.cpp ****         return -1;
 242              		.loc 1 43 17 is_stmt 0
 243 0100 23B00400 		sd	zero,0(s1)
  44:src/syscall_c.cpp ****     }
 244              		.loc 1 44 9 is_stmt 1
  44:src/syscall_c.cpp ****     }
 245              		.loc 1 44 17 is_stmt 0
 246 0104 1305F0FF 		li	a0,-1
 247              	.LVL22:
 248 0108 6FF05FFE 		j	.L9
 249              	.LVL23:
 250              	.L10:
  52:src/syscall_c.cpp ****     }
 251              		.loc 1 52 17
 252 010c 1305F0FF 		li	a0,-1
 253              	.LVL24:
GAS LISTING /tmp/ccxq6xuX.s 			page 7


 254 0110 6FF0DFFD 		j	.L9
 255              		.cfi_endproc
 256              	.LFE45:
 258              		.align	2
 259              		.globl	_Z15thread_dispatchv
 261              	_Z15thread_dispatchv:
 262              	.LFB47:
  56:src/syscall_c.cpp **** 
  57:src/syscall_c.cpp **** int thread_create(thread_t* handle, void(*startRoutine)(void*), void* arg) {
  58:src/syscall_c.cpp ****     int res = thread_create_only(handle, startRoutine, arg);
  59:src/syscall_c.cpp ****     thread_start(handle);
  60:src/syscall_c.cpp ****     return res;
  61:src/syscall_c.cpp **** }
  62:src/syscall_c.cpp **** 
  63:src/syscall_c.cpp **** void thread_dispatch () {
 263              		.loc 1 63 25 is_stmt 1
 264              		.cfi_startproc
 265 0114 130101FF 		addi	sp,sp,-16
 266              		.cfi_def_cfa_offset 16
 267 0118 23341100 		sd	ra,8(sp)
 268 011c 23308100 		sd	s0,0(sp)
 269              		.cfi_offset 1, -8
 270              		.cfi_offset 8, -16
 271 0120 13040101 		addi	s0,sp,16
 272              		.cfi_def_cfa 8, 0
  64:src/syscall_c.cpp ****     size_t code = Kernel::sysCallCodes::thread_dispatch;
 273              		.loc 1 64 5
 274              	.LVL25:
  65:src/syscall_c.cpp ****     callInterrupt(code);
 275              		.loc 1 65 5
 276              		.loc 1 65 18 is_stmt 0
 277 0124 13053001 		li	a0,19
 278 0128 97000000 		call	_Z13callInterruptm
 278      E7800000 
 279              	.LVL26:
  66:src/syscall_c.cpp **** }
 280              		.loc 1 66 1
 281 0130 83308100 		ld	ra,8(sp)
 282              		.cfi_restore 1
 283 0134 03340100 		ld	s0,0(sp)
 284              		.cfi_restore 8
 285              		.cfi_def_cfa 2, 16
 286 0138 13010101 		addi	sp,sp,16
 287              		.cfi_def_cfa_offset 0
 288 013c 67800000 		jr	ra
 289              		.cfi_endproc
 290              	.LFE47:
 292              		.align	2
 293              		.globl	_Z11thread_exitv
 295              	_Z11thread_exitv:
 296              	.LFB48:
  67:src/syscall_c.cpp **** 
  68:src/syscall_c.cpp **** int thread_exit () {
 297              		.loc 1 68 20 is_stmt 1
 298              		.cfi_startproc
 299 0140 130101FF 		addi	sp,sp,-16
 300              		.cfi_def_cfa_offset 16
GAS LISTING /tmp/ccxq6xuX.s 			page 8


 301 0144 23341100 		sd	ra,8(sp)
 302 0148 23308100 		sd	s0,0(sp)
 303              		.cfi_offset 1, -8
 304              		.cfi_offset 8, -16
 305 014c 13040101 		addi	s0,sp,16
 306              		.cfi_def_cfa 8, 0
  69:src/syscall_c.cpp ****     size_t code = Kernel::sysCallCodes::thread_exit;
 307              		.loc 1 69 5
 308              	.LVL27:
  70:src/syscall_c.cpp ****     return (size_t)(callInterrupt(code));
 309              		.loc 1 70 5
 310              		.loc 1 70 34 is_stmt 0
 311 0150 13052001 		li	a0,18
 312 0154 97000000 		call	_Z13callInterruptm
 312      E7800000 
 313              	.LVL28:
  71:src/syscall_c.cpp **** }
 314              		.loc 1 71 1
 315 015c 1B050500 		sext.w	a0,a0
 316 0160 83308100 		ld	ra,8(sp)
 317              		.cfi_restore 1
 318 0164 03340100 		ld	s0,0(sp)
 319              		.cfi_restore 8
 320              		.cfi_def_cfa 2, 16
 321 0168 13010101 		addi	sp,sp,16
 322              		.cfi_def_cfa_offset 0
 323 016c 67800000 		jr	ra
 324              		.cfi_endproc
 325              	.LFE48:
 327              		.align	2
 328              		.globl	_Z12thread_startPP3PCB
 330              	_Z12thread_startPP3PCB:
 331              	.LFB49:
  72:src/syscall_c.cpp **** 
  73:src/syscall_c.cpp **** void thread_start(thread_t* handle) {
 332              		.loc 1 73 37 is_stmt 1
 333              		.cfi_startproc
 334              	.LVL29:
 335 0170 130101FF 		addi	sp,sp,-16
 336              		.cfi_def_cfa_offset 16
 337 0174 23341100 		sd	ra,8(sp)
 338 0178 23308100 		sd	s0,0(sp)
 339              		.cfi_offset 1, -8
 340              		.cfi_offset 8, -16
 341 017c 13040101 		addi	s0,sp,16
 342              		.cfi_def_cfa 8, 0
  74:src/syscall_c.cpp ****     size_t code = Kernel::sysCallCodes::thread_start;
 343              		.loc 1 74 5
 344              	.LVL30:
  75:src/syscall_c.cpp ****     asm volatile("mv a1, a0"); // a1 = handle
 345              		.loc 1 75 5
 346              		.loc 1 75 30 is_stmt 0
 347              	#APP
 348              	# 75 "src/syscall_c.cpp" 1
  76              	    callInterrupt(code);
 349              		mv a1, a0
 350              	# 0 "" 2
GAS LISTING /tmp/ccxq6xuX.s 			page 9


 351              		.loc 1 76 5 is_stmt 1
 352              		.loc 1 76 18 is_stmt 0
 353              	#NO_APP
 354 0184 13054001 		li	a0,20
 355              	.LVL31:
 356 0188 97000000 		call	_Z13callInterruptm
 356      E7800000 
 357              	.LVL32:
  77:src/syscall_c.cpp **** }
 358              		.loc 1 77 1
 359 0190 83308100 		ld	ra,8(sp)
 360              		.cfi_restore 1
 361 0194 03340100 		ld	s0,0(sp)
 362              		.cfi_restore 8
 363              		.cfi_def_cfa 2, 16
 364 0198 13010101 		addi	sp,sp,16
 365              		.cfi_def_cfa_offset 0
 366 019c 67800000 		jr	ra
 367              		.cfi_endproc
 368              	.LFE49:
 370              		.align	2
 371              		.globl	_Z13thread_createPP3PCBPFvPvES2_
 373              	_Z13thread_createPP3PCBPFvPvES2_:
 374              	.LFB46:
  57:src/syscall_c.cpp ****     int res = thread_create_only(handle, startRoutine, arg);
 375              		.loc 1 57 76 is_stmt 1
 376              		.cfi_startproc
 377              	.LVL33:
 378 01a0 130101FE 		addi	sp,sp,-32
 379              		.cfi_def_cfa_offset 32
 380 01a4 233C1100 		sd	ra,24(sp)
 381 01a8 23388100 		sd	s0,16(sp)
 382 01ac 23349100 		sd	s1,8(sp)
 383 01b0 23302101 		sd	s2,0(sp)
 384              		.cfi_offset 1, -8
 385              		.cfi_offset 8, -16
 386              		.cfi_offset 9, -24
 387              		.cfi_offset 18, -32
 388 01b4 13040102 		addi	s0,sp,32
 389              		.cfi_def_cfa 8, 0
 390 01b8 13090500 		mv	s2,a0
  58:src/syscall_c.cpp ****     thread_start(handle);
 391              		.loc 1 58 5
  58:src/syscall_c.cpp ****     thread_start(handle);
 392              		.loc 1 58 33 is_stmt 0
 393 01bc 97000000 		call	_Z18thread_create_onlyPP3PCBPFvPvES2_
 393      E7800000 
 394              	.LVL34:
 395 01c4 93040500 		mv	s1,a0
 396              	.LVL35:
  59:src/syscall_c.cpp ****     return res;
 397              		.loc 1 59 5 is_stmt 1
  59:src/syscall_c.cpp ****     return res;
 398              		.loc 1 59 17 is_stmt 0
 399 01c8 13050900 		mv	a0,s2
 400 01cc 97000000 		call	_Z12thread_startPP3PCB
 400      E7800000 
GAS LISTING /tmp/ccxq6xuX.s 			page 10


 401              	.LVL36:
  60:src/syscall_c.cpp **** }
 402              		.loc 1 60 5 is_stmt 1
  61:src/syscall_c.cpp **** 
 403              		.loc 1 61 1 is_stmt 0
 404 01d4 13850400 		mv	a0,s1
 405 01d8 83308101 		ld	ra,24(sp)
 406              		.cfi_restore 1
 407 01dc 03340101 		ld	s0,16(sp)
 408              		.cfi_restore 8
 409              		.cfi_def_cfa 2, 32
 410 01e0 83348100 		ld	s1,8(sp)
 411              		.cfi_restore 9
 412              	.LVL37:
 413 01e4 03390100 		ld	s2,0(sp)
 414              		.cfi_restore 18
 415              	.LVL38:
 416 01e8 13010102 		addi	sp,sp,32
 417              		.cfi_def_cfa_offset 0
 418 01ec 67800000 		jr	ra
 419              		.cfi_endproc
 420              	.LFE46:
 422              		.align	2
 423              		.globl	_Z8sem_openPP3SCBj
 425              	_Z8sem_openPP3SCBj:
 426              	.LFB50:
  78:src/syscall_c.cpp **** 
  79:src/syscall_c.cpp **** int sem_open (sem_t* handle, unsigned init) {
 427              		.loc 1 79 45 is_stmt 1
 428              		.cfi_startproc
 429              	.LVL39:
 430 01f0 130101FF 		addi	sp,sp,-16
 431              		.cfi_def_cfa_offset 16
 432 01f4 23341100 		sd	ra,8(sp)
 433 01f8 23308100 		sd	s0,0(sp)
 434              		.cfi_offset 1, -8
 435              		.cfi_offset 8, -16
 436 01fc 13040101 		addi	s0,sp,16
 437              		.cfi_def_cfa 8, 0
  80:src/syscall_c.cpp ****     size_t code = Kernel::sysCallCodes::sem_open;
 438              		.loc 1 80 5
 439              	.LVL40:
  81:src/syscall_c.cpp **** 
  82:src/syscall_c.cpp ****     asm volatile("mv a2, a1"); // a2 = init
 440              		.loc 1 82 5
 441              		.loc 1 82 30 is_stmt 0
 442              	#APP
 443              	# 82 "src/syscall_c.cpp" 1
  83              	    asm volatile("mv a1, a0"); // a1 = handle
 444              		mv a2, a1
 445              	# 0 "" 2
 446              		.loc 1 83 5 is_stmt 1
 447              		.loc 1 83 30 is_stmt 0
 448              	# 83 "src/syscall_c.cpp" 1
  84              	
  85:src/syscall_c.cpp ****     handle = (sem_t*)callInterrupt(code);
 449              		mv a1, a0
GAS LISTING /tmp/ccxq6xuX.s 			page 11


 450              	# 0 "" 2
 451              		.loc 1 85 5 is_stmt 1
 452              		.loc 1 85 35 is_stmt 0
 453              	#NO_APP
 454 0208 13051002 		li	a0,33
 455              	.LVL41:
 456 020c 97000000 		call	_Z13callInterruptm
 456      E7800000 
 457              	.LVL42:
  86:src/syscall_c.cpp ****     if(*handle == nullptr) {
 458              		.loc 1 86 5 is_stmt 1
 459              		.loc 1 86 8 is_stmt 0
 460 0214 83370500 		ld	a5,0(a0)
 461              		.loc 1 86 5
 462 0218 638C0700 		beqz	a5,.L23
  87:src/syscall_c.cpp ****         return -1;
  88:src/syscall_c.cpp ****     }
  89:src/syscall_c.cpp **** 
  90:src/syscall_c.cpp ****     return 0;
 463              		.loc 1 90 12
 464 021c 13050000 		li	a0,0
 465              	.LVL43:
 466              	.L22:
  91:src/syscall_c.cpp **** }
 467              		.loc 1 91 1
 468 0220 83308100 		ld	ra,8(sp)
 469              		.cfi_remember_state
 470              		.cfi_restore 1
 471 0224 03340100 		ld	s0,0(sp)
 472              		.cfi_restore 8
 473              		.cfi_def_cfa 2, 16
 474 0228 13010101 		addi	sp,sp,16
 475              		.cfi_def_cfa_offset 0
 476 022c 67800000 		jr	ra
 477              	.LVL44:
 478              	.L23:
 479              		.cfi_restore_state
  87:src/syscall_c.cpp ****         return -1;
 480              		.loc 1 87 17
 481 0230 1305F0FF 		li	a0,-1
 482              	.LVL45:
 483 0234 6FF0DFFE 		j	.L22
 484              		.cfi_endproc
 485              	.LFE50:
 487              		.align	2
 488              		.globl	_Z8sem_waitP3SCB
 490              	_Z8sem_waitP3SCB:
 491              	.LFB51:
  92:src/syscall_c.cpp **** 
  93:src/syscall_c.cpp **** int sem_wait (sem_t volatile handle) {
 492              		.loc 1 93 38 is_stmt 1
 493              		.cfi_startproc
 494              	.LVL46:
 495 0238 130101FE 		addi	sp,sp,-32
 496              		.cfi_def_cfa_offset 32
 497 023c 233C1100 		sd	ra,24(sp)
 498 0240 23388100 		sd	s0,16(sp)
GAS LISTING /tmp/ccxq6xuX.s 			page 12


 499              		.cfi_offset 1, -8
 500              		.cfi_offset 8, -16
 501 0244 13040102 		addi	s0,sp,32
 502              		.cfi_def_cfa 8, 0
 503 0248 2334A4FE 		sd	a0,-24(s0)
  94:src/syscall_c.cpp ****     size_t code = Kernel::sysCallCodes::sem_wait;
 504              		.loc 1 94 5
 505              	.LVL47:
  95:src/syscall_c.cpp ****     if(handle == nullptr) return -1;
 506              		.loc 1 95 5
 507              		.loc 1 95 8 is_stmt 0
 508 024c 833784FE 		ld	a5,-24(s0)
 509              		.loc 1 95 5
 510 0250 63840702 		beqz	a5,.L27
  96:src/syscall_c.cpp ****     asm volatile("mv a1, a0");
 511              		.loc 1 96 5 is_stmt 1
 512              		.loc 1 96 30 is_stmt 0
 513              	#APP
 514              	# 96 "src/syscall_c.cpp" 1
  97              	
  98:src/syscall_c.cpp ****     return (int)(size_t)callInterrupt(code);
 515              		mv a1, a0
 516              	# 0 "" 2
 517              		.loc 1 98 5 is_stmt 1
 518              		.loc 1 98 38 is_stmt 0
 519              	#NO_APP
 520 0258 13053002 		li	a0,35
 521              	.LVL48:
 522 025c 97000000 		call	_Z13callInterruptm
 522      E7800000 
 523              	.LVL49:
 524              		.loc 1 98 43
 525 0264 1B050500 		sext.w	a0,a0
 526              	.L26:
  99:src/syscall_c.cpp **** }
 527              		.loc 1 99 1
 528 0268 83308101 		ld	ra,24(sp)
 529              		.cfi_remember_state
 530              		.cfi_restore 1
 531 026c 03340101 		ld	s0,16(sp)
 532              		.cfi_restore 8
 533              		.cfi_def_cfa 2, 32
 534              	.LVL50:
 535 0270 13010102 		addi	sp,sp,32
 536              		.cfi_def_cfa_offset 0
 537              	.LVL51:
 538 0274 67800000 		jr	ra
 539              	.LVL52:
 540              	.L27:
 541              		.cfi_restore_state
  95:src/syscall_c.cpp ****     asm volatile("mv a1, a0");
 542              		.loc 1 95 35
 543 0278 1305F0FF 		li	a0,-1
 544              	.LVL53:
 545 027c 6FF0DFFE 		j	.L26
 546              		.cfi_endproc
 547              	.LFE51:
GAS LISTING /tmp/ccxq6xuX.s 			page 13


 549              		.align	2
 550              		.globl	_Z10sem_signalP3SCB
 552              	_Z10sem_signalP3SCB:
 553              	.LFB52:
 100:src/syscall_c.cpp **** 
 101:src/syscall_c.cpp **** int sem_signal (sem_t handle) {
 554              		.loc 1 101 31 is_stmt 1
 555              		.cfi_startproc
 556              	.LVL54:
 102:src/syscall_c.cpp ****     size_t code = Kernel::sysCallCodes::sem_signal;
 557              		.loc 1 102 5
 103:src/syscall_c.cpp ****     if(handle == nullptr) return -1;
 558              		.loc 1 103 5
 559 0280 630C0502 		beqz	a0,.L31
 101:src/syscall_c.cpp ****     size_t code = Kernel::sysCallCodes::sem_signal;
 560              		.loc 1 101 31 is_stmt 0
 561 0284 130101FF 		addi	sp,sp,-16
 562              		.cfi_def_cfa_offset 16
 563 0288 23341100 		sd	ra,8(sp)
 564 028c 23308100 		sd	s0,0(sp)
 565              		.cfi_offset 1, -8
 566              		.cfi_offset 8, -16
 567 0290 13040101 		addi	s0,sp,16
 568              		.cfi_def_cfa 8, 0
 104:src/syscall_c.cpp ****     asm volatile("mv a1, a0");
 569              		.loc 1 104 5 is_stmt 1
 570              		.loc 1 104 30 is_stmt 0
 571              	#APP
 572              	# 104 "src/syscall_c.cpp" 1
 105              	
 106:src/syscall_c.cpp ****     callInterrupt(code);
 573              		mv a1, a0
 574              	# 0 "" 2
 575              		.loc 1 106 5 is_stmt 1
 576              		.loc 1 106 18 is_stmt 0
 577              	#NO_APP
 578 0298 13054002 		li	a0,36
 579              	.LVL55:
 580 029c 97000000 		call	_Z13callInterruptm
 580      E7800000 
 581              	.LVL56:
 107:src/syscall_c.cpp **** 
 108:src/syscall_c.cpp ****     return 0;
 582              		.loc 1 108 5 is_stmt 1
 583              		.loc 1 108 12 is_stmt 0
 584 02a4 13050000 		li	a0,0
 109:src/syscall_c.cpp **** }
 585              		.loc 1 109 1
 586 02a8 83308100 		ld	ra,8(sp)
 587              		.cfi_restore 1
 588 02ac 03340100 		ld	s0,0(sp)
 589              		.cfi_restore 8
 590              		.cfi_def_cfa 2, 16
 591 02b0 13010101 		addi	sp,sp,16
 592              		.cfi_def_cfa_offset 0
 593 02b4 67800000 		jr	ra
 594              	.LVL57:
GAS LISTING /tmp/ccxq6xuX.s 			page 14


 595              	.L31:
 103:src/syscall_c.cpp ****     asm volatile("mv a1, a0");
 596              		.loc 1 103 35
 597 02b8 1305F0FF 		li	a0,-1
 598              	.LVL58:
 599              		.loc 1 109 1
 600 02bc 67800000 		ret
 601              		.cfi_endproc
 602              	.LFE52:
 604              		.align	2
 605              		.globl	_Z9sem_closeP3SCB
 607              	_Z9sem_closeP3SCB:
 608              	.LFB53:
 110:src/syscall_c.cpp **** 
 111:src/syscall_c.cpp **** int sem_close (sem_t handle) {
 609              		.loc 1 111 30 is_stmt 1
 610              		.cfi_startproc
 611              	.LVL59:
 112:src/syscall_c.cpp ****     size_t code = Kernel::sysCallCodes::sem_close;
 612              		.loc 1 112 5
 113:src/syscall_c.cpp ****     if(handle == nullptr) return -1;
 613              		.loc 1 113 5
 614 02c0 630C0502 		beqz	a0,.L38
 111:src/syscall_c.cpp ****     size_t code = Kernel::sysCallCodes::sem_close;
 615              		.loc 1 111 30 is_stmt 0
 616 02c4 130101FF 		addi	sp,sp,-16
 617              		.cfi_def_cfa_offset 16
 618 02c8 23341100 		sd	ra,8(sp)
 619 02cc 23308100 		sd	s0,0(sp)
 620              		.cfi_offset 1, -8
 621              		.cfi_offset 8, -16
 622 02d0 13040101 		addi	s0,sp,16
 623              		.cfi_def_cfa 8, 0
 114:src/syscall_c.cpp **** 
 115:src/syscall_c.cpp ****     asm volatile("mv a1, a0");
 624              		.loc 1 115 5 is_stmt 1
 625              		.loc 1 115 30 is_stmt 0
 626              	#APP
 627              	# 115 "src/syscall_c.cpp" 1
 116              	    callInterrupt(code);
 628              		mv a1, a0
 629              	# 0 "" 2
 630              		.loc 1 116 5 is_stmt 1
 631              		.loc 1 116 18 is_stmt 0
 632              	#NO_APP
 633 02d8 13052002 		li	a0,34
 634              	.LVL60:
 635 02dc 97000000 		call	_Z13callInterruptm
 635      E7800000 
 636              	.LVL61:
 117:src/syscall_c.cpp ****     return 0;
 637              		.loc 1 117 5 is_stmt 1
 638              		.loc 1 117 12 is_stmt 0
 639 02e4 13050000 		li	a0,0
 118:src/syscall_c.cpp **** }
 640              		.loc 1 118 1
 641 02e8 83308100 		ld	ra,8(sp)
GAS LISTING /tmp/ccxq6xuX.s 			page 15


 642              		.cfi_restore 1
 643 02ec 03340100 		ld	s0,0(sp)
 644              		.cfi_restore 8
 645              		.cfi_def_cfa 2, 16
 646 02f0 13010101 		addi	sp,sp,16
 647              		.cfi_def_cfa_offset 0
 648 02f4 67800000 		jr	ra
 649              	.LVL62:
 650              	.L38:
 113:src/syscall_c.cpp **** 
 651              		.loc 1 113 35
 652 02f8 1305F0FF 		li	a0,-1
 653              	.LVL63:
 654              		.loc 1 118 1
 655 02fc 67800000 		ret
 656              		.cfi_endproc
 657              	.LFE53:
 659              		.align	2
 660              		.globl	_Z10time_sleepm
 662              	_Z10time_sleepm:
 663              	.LFB54:
 119:src/syscall_c.cpp **** 
 120:src/syscall_c.cpp **** int time_sleep (time_t time) {
 664              		.loc 1 120 30 is_stmt 1
 665              		.cfi_startproc
 666              	.LVL64:
 121:src/syscall_c.cpp ****     size_t code = Kernel::sysCallCodes::time_sleep;
 667              		.loc 1 121 5
 122:src/syscall_c.cpp ****     if(time <= 0) return -1;
 668              		.loc 1 122 5
 669 0300 63000504 		beqz	a0,.L45
 120:src/syscall_c.cpp ****     size_t code = Kernel::sysCallCodes::time_sleep;
 670              		.loc 1 120 30 is_stmt 0
 671 0304 130101FF 		addi	sp,sp,-16
 672              		.cfi_def_cfa_offset 16
 673 0308 23341100 		sd	ra,8(sp)
 674 030c 23308100 		sd	s0,0(sp)
 675              		.cfi_offset 1, -8
 676              		.cfi_offset 8, -16
 677 0310 13040101 		addi	s0,sp,16
 678              		.cfi_def_cfa 8, 0
 123:src/syscall_c.cpp **** 
 124:src/syscall_c.cpp ****     asm volatile("mv a1, a0");
 679              		.loc 1 124 5 is_stmt 1
 680              		.loc 1 124 30 is_stmt 0
 681              	#APP
 682              	# 124 "src/syscall_c.cpp" 1
 125              	    callInterrupt(code);
 683              		mv a1, a0
 684              	# 0 "" 2
 685              		.loc 1 125 5 is_stmt 1
 686              		.loc 1 125 18 is_stmt 0
 687              	#NO_APP
 688 0318 13051003 		li	a0,49
 689              	.LVL65:
 690 031c 97000000 		call	_Z13callInterruptm
 690      E7800000 
GAS LISTING /tmp/ccxq6xuX.s 			page 16


 691              	.LVL66:
 126:src/syscall_c.cpp **** 
 127:src/syscall_c.cpp ****     thread_dispatch(); // radimo odmah dispatch da bi zaustavili tekuci proces
 692              		.loc 1 127 5 is_stmt 1
 693              		.loc 1 127 20 is_stmt 0
 694 0324 97000000 		call	_Z15thread_dispatchv
 694      E7800000 
 695              	.LVL67:
 128:src/syscall_c.cpp **** 
 129:src/syscall_c.cpp ****     return 0;
 696              		.loc 1 129 5 is_stmt 1
 697              		.loc 1 129 12 is_stmt 0
 698 032c 13050000 		li	a0,0
 130:src/syscall_c.cpp **** }
 699              		.loc 1 130 1
 700 0330 83308100 		ld	ra,8(sp)
 701              		.cfi_restore 1
 702 0334 03340100 		ld	s0,0(sp)
 703              		.cfi_restore 8
 704              		.cfi_def_cfa 2, 16
 705 0338 13010101 		addi	sp,sp,16
 706              		.cfi_def_cfa_offset 0
 707 033c 67800000 		jr	ra
 708              	.LVL68:
 709              	.L45:
 122:src/syscall_c.cpp **** 
 710              		.loc 1 122 27
 711 0340 1305F0FF 		li	a0,-1
 712              	.LVL69:
 713              		.loc 1 130 1
 714 0344 67800000 		ret
 715              		.cfi_endproc
 716              	.LFE54:
 718              		.align	2
 719              		.globl	_Z4getcv
 721              	_Z4getcv:
 722              	.LFB55:
 131:src/syscall_c.cpp **** 
 132:src/syscall_c.cpp **** char getc () {
 723              		.loc 1 132 14 is_stmt 1
 724              		.cfi_startproc
 725 0348 130101FF 		addi	sp,sp,-16
 726              		.cfi_def_cfa_offset 16
 727 034c 23341100 		sd	ra,8(sp)
 728 0350 23308100 		sd	s0,0(sp)
 729              		.cfi_offset 1, -8
 730              		.cfi_offset 8, -16
 731 0354 13040101 		addi	s0,sp,16
 732              		.cfi_def_cfa 8, 0
 133:src/syscall_c.cpp ****     size_t code = Kernel::sysCallCodes::getc;
 733              		.loc 1 133 5
 734              	.LVL70:
 134:src/syscall_c.cpp ****     return (char)(size_t)callInterrupt(code);
 735              		.loc 1 134 5
 736              		.loc 1 134 39 is_stmt 0
 737 0358 13051004 		li	a0,65
 738 035c 97000000 		call	_Z13callInterruptm
GAS LISTING /tmp/ccxq6xuX.s 			page 17


 738      E7800000 
 739              	.LVL71:
 135:src/syscall_c.cpp **** }
 740              		.loc 1 135 1
 741 0364 1375F50F 		andi	a0,a0,0xff
 742 0368 83308100 		ld	ra,8(sp)
 743              		.cfi_restore 1
 744 036c 03340100 		ld	s0,0(sp)
 745              		.cfi_restore 8
 746              		.cfi_def_cfa 2, 16
 747 0370 13010101 		addi	sp,sp,16
 748              		.cfi_def_cfa_offset 0
 749 0374 67800000 		jr	ra
 750              		.cfi_endproc
 751              	.LFE55:
 753              		.align	2
 754              		.globl	_Z4putcc
 756              	_Z4putcc:
 757              	.LFB56:
 136:src/syscall_c.cpp **** 
 137:src/syscall_c.cpp **** void putc(char c) {
 758              		.loc 1 137 19 is_stmt 1
 759              		.cfi_startproc
 760              	.LVL72:
 761 0378 130101FF 		addi	sp,sp,-16
 762              		.cfi_def_cfa_offset 16
 763 037c 23341100 		sd	ra,8(sp)
 764 0380 23308100 		sd	s0,0(sp)
 765              		.cfi_offset 1, -8
 766              		.cfi_offset 8, -16
 767 0384 13040101 		addi	s0,sp,16
 768              		.cfi_def_cfa 8, 0
 138:src/syscall_c.cpp ****     size_t code = Kernel::sysCallCodes::putc;
 769              		.loc 1 138 5
 770              	.LVL73:
 139:src/syscall_c.cpp ****     asm volatile("mv a1, a0"); // a1 = c
 771              		.loc 1 139 5
 772              		.loc 1 139 30 is_stmt 0
 773              	#APP
 774              	# 139 "src/syscall_c.cpp" 1
 140              	    callInterrupt(code);
 775              		mv a1, a0
 776              	# 0 "" 2
 777              		.loc 1 140 5 is_stmt 1
 778              		.loc 1 140 18 is_stmt 0
 779              	#NO_APP
 780 038c 13052004 		li	a0,66
 781              	.LVL74:
 782 0390 97000000 		call	_Z13callInterruptm
 782      E7800000 
 783              	.LVL75:
 141:src/syscall_c.cpp **** }
 784              		.loc 1 141 1
 785 0398 83308100 		ld	ra,8(sp)
 786              		.cfi_restore 1
 787 039c 03340100 		ld	s0,0(sp)
 788              		.cfi_restore 8
GAS LISTING /tmp/ccxq6xuX.s 			page 18


 789              		.cfi_def_cfa 2, 16
 790 03a0 13010101 		addi	sp,sp,16
 791              		.cfi_def_cfa_offset 0
 792 03a4 67800000 		jr	ra
 793              		.cfi_endproc
 794              	.LFE56:
 796              	.Letext0:
 797              		.file 3 "src/../h/hw.h"
 798              		.file 4 "src/../h/slab.h"
 799              		.file 5 "src/../h/PCB.h"
 800              		.file 6 "src/../h/SCB.h"
 801              		.file 7 "src/../h/syscall_c.h"
GAS LISTING /tmp/ccxq6xuX.s 			page 19


DEFINED SYMBOLS
                            *ABS*:0000000000000000 syscall_c.cpp
     /tmp/ccxq6xuX.s:9      .text:0000000000000000 _Z13callInterruptm
     /tmp/ccxq6xuX.s:13     .text:0000000000000000 .L0 
     /tmp/ccxq6xuX.s:15     .text:0000000000000000 .L0 
     /tmp/ccxq6xuX.s:16     .text:0000000000000004 .L0 
     /tmp/ccxq6xuX.s:18     .text:0000000000000008 .L0 
     /tmp/ccxq6xuX.s:20     .text:000000000000000c .L0 
     /tmp/ccxq6xuX.s:23     .text:0000000000000010 .L0 
     /tmp/ccxq6xuX.s:24     .text:0000000000000010 .L0 
   src/syscall_c.cpp:10     .text:0000000000000010 .L0 
     /tmp/ccxq6xuX.s:30     .text:0000000000000014 .L0 
   src/syscall_c.cpp:11     .text:0000000000000014 .L0 
     /tmp/ccxq6xuX.s:36     .text:0000000000000018 .L0 
     /tmp/ccxq6xuX.s:38     .text:0000000000000018 .L0 
     /tmp/ccxq6xuX.s:39     .text:000000000000001c .L0 
     /tmp/ccxq6xuX.s:40     .text:000000000000001c .L0 
     /tmp/ccxq6xuX.s:43     .text:0000000000000020 .L0 
     /tmp/ccxq6xuX.s:46     .text:0000000000000024 .L0 
     /tmp/ccxq6xuX.s:52     .text:0000000000000024 _Z9mem_allocm
     /tmp/ccxq6xuX.s:55     .text:0000000000000024 .L0 
     /tmp/ccxq6xuX.s:57     .text:0000000000000024 .L0 
     /tmp/ccxq6xuX.s:58     .text:0000000000000028 .L0 
     /tmp/ccxq6xuX.s:61     .text:0000000000000030 .L0 
     /tmp/ccxq6xuX.s:62     .text:0000000000000030 .L0 
     /tmp/ccxq6xuX.s:64     .text:0000000000000034 .L0 
     /tmp/ccxq6xuX.s:67     .text:0000000000000034 .L0 
     /tmp/ccxq6xuX.s:71     .text:0000000000000034 .L0 
     /tmp/ccxq6xuX.s:72     .text:0000000000000034 .L0 
     /tmp/ccxq6xuX.s:73     .text:0000000000000034 .L0 
     /tmp/ccxq6xuX.s:75     .text:0000000000000038 .L0 
     /tmp/ccxq6xuX.s:78     .text:000000000000003c .L0 
     /tmp/ccxq6xuX.s:80     .text:0000000000000040 .L0 
     /tmp/ccxq6xuX.s:85     .text:0000000000000044 .L0 
   src/syscall_c.cpp:20     .text:0000000000000044 .L0 
     /tmp/ccxq6xuX.s:91     .text:0000000000000048 .L0 
     /tmp/ccxq6xuX.s:93     .text:0000000000000048 .L0 
     /tmp/ccxq6xuX.s:98     .text:0000000000000054 .L0 
     /tmp/ccxq6xuX.s:99     .text:0000000000000058 .L0 
     /tmp/ccxq6xuX.s:101    .text:000000000000005c .L0 
     /tmp/ccxq6xuX.s:102    .text:000000000000005c .L0 
     /tmp/ccxq6xuX.s:104    .text:0000000000000060 .L0 
     /tmp/ccxq6xuX.s:106    .text:0000000000000064 .L0 
     /tmp/ccxq6xuX.s:112    .text:0000000000000064 _Z8mem_freePv
     /tmp/ccxq6xuX.s:115    .text:0000000000000064 .L0 
     /tmp/ccxq6xuX.s:117    .text:0000000000000064 .L0 
     /tmp/ccxq6xuX.s:118    .text:0000000000000068 .L0 
     /tmp/ccxq6xuX.s:121    .text:0000000000000070 .L0 
     /tmp/ccxq6xuX.s:122    .text:0000000000000070 .L0 
     /tmp/ccxq6xuX.s:124    .text:0000000000000074 .L0 
     /tmp/ccxq6xuX.s:127    .text:0000000000000074 .L0 
     /tmp/ccxq6xuX.s:128    .text:0000000000000074 .L0 
   src/syscall_c.cpp:28     .text:0000000000000074 .L0 
     /tmp/ccxq6xuX.s:134    .text:0000000000000078 .L0 
     /tmp/ccxq6xuX.s:136    .text:0000000000000078 .L0 
     /tmp/ccxq6xuX.s:141    .text:0000000000000084 .L0 
     /tmp/ccxq6xuX.s:143    .text:000000000000008c .L0 
GAS LISTING /tmp/ccxq6xuX.s 			page 20


     /tmp/ccxq6xuX.s:145    .text:0000000000000090 .L0 
     /tmp/ccxq6xuX.s:146    .text:0000000000000090 .L0 
     /tmp/ccxq6xuX.s:148    .text:0000000000000094 .L0 
     /tmp/ccxq6xuX.s:150    .text:0000000000000098 .L0 
     /tmp/ccxq6xuX.s:156    .text:0000000000000098 _Z18thread_create_onlyPP3PCBPFvPvES2_
     /tmp/ccxq6xuX.s:159    .text:0000000000000098 .L0 
     /tmp/ccxq6xuX.s:161    .text:0000000000000098 .L0 
     /tmp/ccxq6xuX.s:162    .text:000000000000009c .L0 
     /tmp/ccxq6xuX.s:166    .text:00000000000000a8 .L0 
     /tmp/ccxq6xuX.s:167    .text:00000000000000a8 .L0 
     /tmp/ccxq6xuX.s:168    .text:00000000000000a8 .L0 
     /tmp/ccxq6xuX.s:170    .text:00000000000000ac .L0 
     /tmp/ccxq6xuX.s:174    .text:00000000000000b0 .L0 
     /tmp/ccxq6xuX.s:175    .text:00000000000000b0 .L0 
   src/syscall_c.cpp:36     .text:00000000000000b0 .L0 
     /tmp/ccxq6xuX.s:181    .text:00000000000000b4 .L0 
   src/syscall_c.cpp:37     .text:00000000000000b4 .L0 
     /tmp/ccxq6xuX.s:186    .text:00000000000000b8 .L0 
   src/syscall_c.cpp:38     .text:00000000000000b8 .L0 
     /tmp/ccxq6xuX.s:191    .text:00000000000000bc .L0 
     /tmp/ccxq6xuX.s:193    .text:00000000000000bc .L0 
     /tmp/ccxq6xuX.s:198    .text:00000000000000c8 .L0 
     /tmp/ccxq6xuX.s:200    .text:00000000000000cc .L0 
   src/syscall_c.cpp:47     .text:00000000000000cc .L0 
     /tmp/ccxq6xuX.s:206    .text:00000000000000d0 .L0 
   src/syscall_c.cpp:48     .text:00000000000000d0 .L0 
     /tmp/ccxq6xuX.s:211    .text:00000000000000d4 .L0 
     /tmp/ccxq6xuX.s:213    .text:00000000000000d4 .L0 
     /tmp/ccxq6xuX.s:218    .text:00000000000000e0 .L0 
     /tmp/ccxq6xuX.s:219    .text:00000000000000e0 .L0 
     /tmp/ccxq6xuX.s:221    .text:00000000000000e4 .L0 
     /tmp/ccxq6xuX.s:223    .text:00000000000000e8 .L0 
     /tmp/ccxq6xuX.s:227    .text:00000000000000ec .L0 
     /tmp/ccxq6xuX.s:228    .text:00000000000000f0 .L0 
     /tmp/ccxq6xuX.s:229    .text:00000000000000f0 .L0 
     /tmp/ccxq6xuX.s:231    .text:00000000000000f4 .L0 
     /tmp/ccxq6xuX.s:232    .text:00000000000000f4 .L0 
     /tmp/ccxq6xuX.s:234    .text:00000000000000f8 .L0 
     /tmp/ccxq6xuX.s:236    .text:00000000000000fc .L0 
     /tmp/ccxq6xuX.s:240    .text:0000000000000100 .L0 
     /tmp/ccxq6xuX.s:242    .text:0000000000000100 .L0 
     /tmp/ccxq6xuX.s:243    .text:0000000000000100 .L0 
     /tmp/ccxq6xuX.s:245    .text:0000000000000104 .L0 
     /tmp/ccxq6xuX.s:246    .text:0000000000000104 .L0 
     /tmp/ccxq6xuX.s:252    .text:000000000000010c .L0 
     /tmp/ccxq6xuX.s:255    .text:0000000000000114 .L0 
     /tmp/ccxq6xuX.s:261    .text:0000000000000114 _Z15thread_dispatchv
     /tmp/ccxq6xuX.s:264    .text:0000000000000114 .L0 
     /tmp/ccxq6xuX.s:265    .text:0000000000000114 .L0 
     /tmp/ccxq6xuX.s:266    .text:0000000000000118 .L0 
     /tmp/ccxq6xuX.s:269    .text:0000000000000120 .L0 
     /tmp/ccxq6xuX.s:270    .text:0000000000000120 .L0 
     /tmp/ccxq6xuX.s:272    .text:0000000000000124 .L0 
     /tmp/ccxq6xuX.s:275    .text:0000000000000124 .L0 
     /tmp/ccxq6xuX.s:276    .text:0000000000000124 .L0 
     /tmp/ccxq6xuX.s:277    .text:0000000000000124 .L0 
     /tmp/ccxq6xuX.s:281    .text:0000000000000130 .L0 
GAS LISTING /tmp/ccxq6xuX.s 			page 21


     /tmp/ccxq6xuX.s:282    .text:0000000000000134 .L0 
     /tmp/ccxq6xuX.s:284    .text:0000000000000138 .L0 
     /tmp/ccxq6xuX.s:285    .text:0000000000000138 .L0 
     /tmp/ccxq6xuX.s:287    .text:000000000000013c .L0 
     /tmp/ccxq6xuX.s:289    .text:0000000000000140 .L0 
     /tmp/ccxq6xuX.s:295    .text:0000000000000140 _Z11thread_exitv
     /tmp/ccxq6xuX.s:298    .text:0000000000000140 .L0 
     /tmp/ccxq6xuX.s:299    .text:0000000000000140 .L0 
     /tmp/ccxq6xuX.s:300    .text:0000000000000144 .L0 
     /tmp/ccxq6xuX.s:303    .text:000000000000014c .L0 
     /tmp/ccxq6xuX.s:304    .text:000000000000014c .L0 
     /tmp/ccxq6xuX.s:306    .text:0000000000000150 .L0 
     /tmp/ccxq6xuX.s:309    .text:0000000000000150 .L0 
     /tmp/ccxq6xuX.s:310    .text:0000000000000150 .L0 
     /tmp/ccxq6xuX.s:311    .text:0000000000000150 .L0 
     /tmp/ccxq6xuX.s:315    .text:000000000000015c .L0 
     /tmp/ccxq6xuX.s:317    .text:0000000000000164 .L0 
     /tmp/ccxq6xuX.s:319    .text:0000000000000168 .L0 
     /tmp/ccxq6xuX.s:320    .text:0000000000000168 .L0 
     /tmp/ccxq6xuX.s:322    .text:000000000000016c .L0 
     /tmp/ccxq6xuX.s:324    .text:0000000000000170 .L0 
     /tmp/ccxq6xuX.s:330    .text:0000000000000170 _Z12thread_startPP3PCB
     /tmp/ccxq6xuX.s:333    .text:0000000000000170 .L0 
     /tmp/ccxq6xuX.s:335    .text:0000000000000170 .L0 
     /tmp/ccxq6xuX.s:336    .text:0000000000000174 .L0 
     /tmp/ccxq6xuX.s:339    .text:000000000000017c .L0 
     /tmp/ccxq6xuX.s:340    .text:000000000000017c .L0 
     /tmp/ccxq6xuX.s:342    .text:0000000000000180 .L0 
     /tmp/ccxq6xuX.s:345    .text:0000000000000180 .L0 
     /tmp/ccxq6xuX.s:346    .text:0000000000000180 .L0 
   src/syscall_c.cpp:75     .text:0000000000000180 .L0 
     /tmp/ccxq6xuX.s:352    .text:0000000000000184 .L0 
     /tmp/ccxq6xuX.s:354    .text:0000000000000184 .L0 
     /tmp/ccxq6xuX.s:359    .text:0000000000000190 .L0 
     /tmp/ccxq6xuX.s:360    .text:0000000000000194 .L0 
     /tmp/ccxq6xuX.s:362    .text:0000000000000198 .L0 
     /tmp/ccxq6xuX.s:363    .text:0000000000000198 .L0 
     /tmp/ccxq6xuX.s:365    .text:000000000000019c .L0 
     /tmp/ccxq6xuX.s:367    .text:00000000000001a0 .L0 
     /tmp/ccxq6xuX.s:373    .text:00000000000001a0 _Z13thread_createPP3PCBPFvPvES2_
     /tmp/ccxq6xuX.s:376    .text:00000000000001a0 .L0 
     /tmp/ccxq6xuX.s:378    .text:00000000000001a0 .L0 
     /tmp/ccxq6xuX.s:379    .text:00000000000001a4 .L0 
     /tmp/ccxq6xuX.s:384    .text:00000000000001b4 .L0 
     /tmp/ccxq6xuX.s:385    .text:00000000000001b4 .L0 
     /tmp/ccxq6xuX.s:386    .text:00000000000001b4 .L0 
     /tmp/ccxq6xuX.s:387    .text:00000000000001b4 .L0 
     /tmp/ccxq6xuX.s:389    .text:00000000000001b8 .L0 
     /tmp/ccxq6xuX.s:392    .text:00000000000001bc .L0 
     /tmp/ccxq6xuX.s:393    .text:00000000000001bc .L0 
     /tmp/ccxq6xuX.s:398    .text:00000000000001c8 .L0 
     /tmp/ccxq6xuX.s:399    .text:00000000000001c8 .L0 
     /tmp/ccxq6xuX.s:403    .text:00000000000001d4 .L0 
     /tmp/ccxq6xuX.s:404    .text:00000000000001d4 .L0 
     /tmp/ccxq6xuX.s:406    .text:00000000000001dc .L0 
     /tmp/ccxq6xuX.s:408    .text:00000000000001e0 .L0 
     /tmp/ccxq6xuX.s:409    .text:00000000000001e0 .L0 
GAS LISTING /tmp/ccxq6xuX.s 			page 22


     /tmp/ccxq6xuX.s:411    .text:00000000000001e4 .L0 
     /tmp/ccxq6xuX.s:414    .text:00000000000001e8 .L0 
     /tmp/ccxq6xuX.s:417    .text:00000000000001ec .L0 
     /tmp/ccxq6xuX.s:419    .text:00000000000001f0 .L0 
     /tmp/ccxq6xuX.s:425    .text:00000000000001f0 _Z8sem_openPP3SCBj
     /tmp/ccxq6xuX.s:428    .text:00000000000001f0 .L0 
     /tmp/ccxq6xuX.s:430    .text:00000000000001f0 .L0 
     /tmp/ccxq6xuX.s:431    .text:00000000000001f4 .L0 
     /tmp/ccxq6xuX.s:434    .text:00000000000001fc .L0 
     /tmp/ccxq6xuX.s:435    .text:00000000000001fc .L0 
     /tmp/ccxq6xuX.s:437    .text:0000000000000200 .L0 
     /tmp/ccxq6xuX.s:440    .text:0000000000000200 .L0 
     /tmp/ccxq6xuX.s:441    .text:0000000000000200 .L0 
   src/syscall_c.cpp:82     .text:0000000000000200 .L0 
     /tmp/ccxq6xuX.s:447    .text:0000000000000204 .L0 
   src/syscall_c.cpp:83     .text:0000000000000204 .L0 
     /tmp/ccxq6xuX.s:452    .text:0000000000000208 .L0 
     /tmp/ccxq6xuX.s:454    .text:0000000000000208 .L0 
     /tmp/ccxq6xuX.s:459    .text:0000000000000214 .L0 
     /tmp/ccxq6xuX.s:460    .text:0000000000000214 .L0 
     /tmp/ccxq6xuX.s:462    .text:0000000000000218 .L0 
     /tmp/ccxq6xuX.s:464    .text:000000000000021c .L0 
     /tmp/ccxq6xuX.s:468    .text:0000000000000220 .L0 
     /tmp/ccxq6xuX.s:469    .text:0000000000000224 .L0 
     /tmp/ccxq6xuX.s:470    .text:0000000000000224 .L0 
     /tmp/ccxq6xuX.s:472    .text:0000000000000228 .L0 
     /tmp/ccxq6xuX.s:473    .text:0000000000000228 .L0 
     /tmp/ccxq6xuX.s:475    .text:000000000000022c .L0 
     /tmp/ccxq6xuX.s:479    .text:0000000000000230 .L0 
     /tmp/ccxq6xuX.s:481    .text:0000000000000230 .L0 
     /tmp/ccxq6xuX.s:484    .text:0000000000000238 .L0 
     /tmp/ccxq6xuX.s:490    .text:0000000000000238 _Z8sem_waitP3SCB
     /tmp/ccxq6xuX.s:493    .text:0000000000000238 .L0 
     /tmp/ccxq6xuX.s:495    .text:0000000000000238 .L0 
     /tmp/ccxq6xuX.s:496    .text:000000000000023c .L0 
     /tmp/ccxq6xuX.s:499    .text:0000000000000244 .L0 
     /tmp/ccxq6xuX.s:500    .text:0000000000000244 .L0 
     /tmp/ccxq6xuX.s:502    .text:0000000000000248 .L0 
     /tmp/ccxq6xuX.s:506    .text:000000000000024c .L0 
     /tmp/ccxq6xuX.s:507    .text:000000000000024c .L0 
     /tmp/ccxq6xuX.s:508    .text:000000000000024c .L0 
     /tmp/ccxq6xuX.s:510    .text:0000000000000250 .L0 
     /tmp/ccxq6xuX.s:512    .text:0000000000000254 .L0 
   src/syscall_c.cpp:96     .text:0000000000000254 .L0 
     /tmp/ccxq6xuX.s:518    .text:0000000000000258 .L0 
     /tmp/ccxq6xuX.s:520    .text:0000000000000258 .L0 
     /tmp/ccxq6xuX.s:525    .text:0000000000000264 .L0 
     /tmp/ccxq6xuX.s:528    .text:0000000000000268 .L0 
     /tmp/ccxq6xuX.s:529    .text:000000000000026c .L0 
     /tmp/ccxq6xuX.s:530    .text:000000000000026c .L0 
     /tmp/ccxq6xuX.s:532    .text:0000000000000270 .L0 
     /tmp/ccxq6xuX.s:533    .text:0000000000000270 .L0 
     /tmp/ccxq6xuX.s:536    .text:0000000000000274 .L0 
     /tmp/ccxq6xuX.s:541    .text:0000000000000278 .L0 
     /tmp/ccxq6xuX.s:543    .text:0000000000000278 .L0 
     /tmp/ccxq6xuX.s:546    .text:0000000000000280 .L0 
     /tmp/ccxq6xuX.s:552    .text:0000000000000280 _Z10sem_signalP3SCB
GAS LISTING /tmp/ccxq6xuX.s 			page 23


     /tmp/ccxq6xuX.s:555    .text:0000000000000280 .L0 
     /tmp/ccxq6xuX.s:557    .text:0000000000000280 .L0 
     /tmp/ccxq6xuX.s:558    .text:0000000000000280 .L0 
     /tmp/ccxq6xuX.s:559    .text:0000000000000280 .L0 
     /tmp/ccxq6xuX.s:561    .text:0000000000000284 .L0 
     /tmp/ccxq6xuX.s:562    .text:0000000000000288 .L0 
     /tmp/ccxq6xuX.s:565    .text:0000000000000290 .L0 
     /tmp/ccxq6xuX.s:566    .text:0000000000000290 .L0 
     /tmp/ccxq6xuX.s:568    .text:0000000000000294 .L0 
     /tmp/ccxq6xuX.s:570    .text:0000000000000294 .L0 
   src/syscall_c.cpp:104    .text:0000000000000294 .L0 
     /tmp/ccxq6xuX.s:576    .text:0000000000000298 .L0 
     /tmp/ccxq6xuX.s:578    .text:0000000000000298 .L0 
     /tmp/ccxq6xuX.s:583    .text:00000000000002a4 .L0 
     /tmp/ccxq6xuX.s:584    .text:00000000000002a4 .L0 
     /tmp/ccxq6xuX.s:586    .text:00000000000002a8 .L0 
     /tmp/ccxq6xuX.s:587    .text:00000000000002ac .L0 
     /tmp/ccxq6xuX.s:589    .text:00000000000002b0 .L0 
     /tmp/ccxq6xuX.s:590    .text:00000000000002b0 .L0 
     /tmp/ccxq6xuX.s:592    .text:00000000000002b4 .L0 
     /tmp/ccxq6xuX.s:597    .text:00000000000002b8 .L0 
     /tmp/ccxq6xuX.s:600    .text:00000000000002bc .L0 
     /tmp/ccxq6xuX.s:601    .text:00000000000002c0 .L0 
     /tmp/ccxq6xuX.s:607    .text:00000000000002c0 _Z9sem_closeP3SCB
     /tmp/ccxq6xuX.s:610    .text:00000000000002c0 .L0 
     /tmp/ccxq6xuX.s:612    .text:00000000000002c0 .L0 
     /tmp/ccxq6xuX.s:613    .text:00000000000002c0 .L0 
     /tmp/ccxq6xuX.s:614    .text:00000000000002c0 .L0 
     /tmp/ccxq6xuX.s:616    .text:00000000000002c4 .L0 
     /tmp/ccxq6xuX.s:617    .text:00000000000002c8 .L0 
     /tmp/ccxq6xuX.s:620    .text:00000000000002d0 .L0 
     /tmp/ccxq6xuX.s:621    .text:00000000000002d0 .L0 
     /tmp/ccxq6xuX.s:623    .text:00000000000002d4 .L0 
     /tmp/ccxq6xuX.s:625    .text:00000000000002d4 .L0 
   src/syscall_c.cpp:115    .text:00000000000002d4 .L0 
     /tmp/ccxq6xuX.s:631    .text:00000000000002d8 .L0 
     /tmp/ccxq6xuX.s:633    .text:00000000000002d8 .L0 
     /tmp/ccxq6xuX.s:638    .text:00000000000002e4 .L0 
     /tmp/ccxq6xuX.s:639    .text:00000000000002e4 .L0 
     /tmp/ccxq6xuX.s:641    .text:00000000000002e8 .L0 
     /tmp/ccxq6xuX.s:642    .text:00000000000002ec .L0 
     /tmp/ccxq6xuX.s:644    .text:00000000000002f0 .L0 
     /tmp/ccxq6xuX.s:645    .text:00000000000002f0 .L0 
     /tmp/ccxq6xuX.s:647    .text:00000000000002f4 .L0 
     /tmp/ccxq6xuX.s:652    .text:00000000000002f8 .L0 
     /tmp/ccxq6xuX.s:655    .text:00000000000002fc .L0 
     /tmp/ccxq6xuX.s:656    .text:0000000000000300 .L0 
     /tmp/ccxq6xuX.s:662    .text:0000000000000300 _Z10time_sleepm
     /tmp/ccxq6xuX.s:665    .text:0000000000000300 .L0 
     /tmp/ccxq6xuX.s:667    .text:0000000000000300 .L0 
     /tmp/ccxq6xuX.s:668    .text:0000000000000300 .L0 
     /tmp/ccxq6xuX.s:669    .text:0000000000000300 .L0 
     /tmp/ccxq6xuX.s:671    .text:0000000000000304 .L0 
     /tmp/ccxq6xuX.s:672    .text:0000000000000308 .L0 
     /tmp/ccxq6xuX.s:675    .text:0000000000000310 .L0 
     /tmp/ccxq6xuX.s:676    .text:0000000000000310 .L0 
     /tmp/ccxq6xuX.s:678    .text:0000000000000314 .L0 
GAS LISTING /tmp/ccxq6xuX.s 			page 24


     /tmp/ccxq6xuX.s:680    .text:0000000000000314 .L0 
   src/syscall_c.cpp:124    .text:0000000000000314 .L0 
     /tmp/ccxq6xuX.s:686    .text:0000000000000318 .L0 
     /tmp/ccxq6xuX.s:688    .text:0000000000000318 .L0 
     /tmp/ccxq6xuX.s:693    .text:0000000000000324 .L0 
     /tmp/ccxq6xuX.s:694    .text:0000000000000324 .L0 
     /tmp/ccxq6xuX.s:697    .text:000000000000032c .L0 
     /tmp/ccxq6xuX.s:698    .text:000000000000032c .L0 
     /tmp/ccxq6xuX.s:700    .text:0000000000000330 .L0 
     /tmp/ccxq6xuX.s:701    .text:0000000000000334 .L0 
     /tmp/ccxq6xuX.s:703    .text:0000000000000338 .L0 
     /tmp/ccxq6xuX.s:704    .text:0000000000000338 .L0 
     /tmp/ccxq6xuX.s:706    .text:000000000000033c .L0 
     /tmp/ccxq6xuX.s:711    .text:0000000000000340 .L0 
     /tmp/ccxq6xuX.s:714    .text:0000000000000344 .L0 
     /tmp/ccxq6xuX.s:715    .text:0000000000000348 .L0 
     /tmp/ccxq6xuX.s:721    .text:0000000000000348 _Z4getcv
     /tmp/ccxq6xuX.s:724    .text:0000000000000348 .L0 
     /tmp/ccxq6xuX.s:725    .text:0000000000000348 .L0 
     /tmp/ccxq6xuX.s:726    .text:000000000000034c .L0 
     /tmp/ccxq6xuX.s:729    .text:0000000000000354 .L0 
     /tmp/ccxq6xuX.s:730    .text:0000000000000354 .L0 
     /tmp/ccxq6xuX.s:732    .text:0000000000000358 .L0 
     /tmp/ccxq6xuX.s:735    .text:0000000000000358 .L0 
     /tmp/ccxq6xuX.s:736    .text:0000000000000358 .L0 
     /tmp/ccxq6xuX.s:737    .text:0000000000000358 .L0 
     /tmp/ccxq6xuX.s:741    .text:0000000000000364 .L0 
     /tmp/ccxq6xuX.s:743    .text:000000000000036c .L0 
     /tmp/ccxq6xuX.s:745    .text:0000000000000370 .L0 
     /tmp/ccxq6xuX.s:746    .text:0000000000000370 .L0 
     /tmp/ccxq6xuX.s:748    .text:0000000000000374 .L0 
     /tmp/ccxq6xuX.s:750    .text:0000000000000378 .L0 
     /tmp/ccxq6xuX.s:756    .text:0000000000000378 _Z4putcc
     /tmp/ccxq6xuX.s:759    .text:0000000000000378 .L0 
     /tmp/ccxq6xuX.s:761    .text:0000000000000378 .L0 
     /tmp/ccxq6xuX.s:762    .text:000000000000037c .L0 
     /tmp/ccxq6xuX.s:765    .text:0000000000000384 .L0 
     /tmp/ccxq6xuX.s:766    .text:0000000000000384 .L0 
     /tmp/ccxq6xuX.s:768    .text:0000000000000388 .L0 
     /tmp/ccxq6xuX.s:771    .text:0000000000000388 .L0 
     /tmp/ccxq6xuX.s:772    .text:0000000000000388 .L0 
   src/syscall_c.cpp:139    .text:0000000000000388 .L0 
     /tmp/ccxq6xuX.s:778    .text:000000000000038c .L0 
     /tmp/ccxq6xuX.s:780    .text:000000000000038c .L0 
     /tmp/ccxq6xuX.s:785    .text:0000000000000398 .L0 
     /tmp/ccxq6xuX.s:786    .text:000000000000039c .L0 
     /tmp/ccxq6xuX.s:788    .text:00000000000003a0 .L0 
     /tmp/ccxq6xuX.s:789    .text:00000000000003a0 .L0 
     /tmp/ccxq6xuX.s:791    .text:00000000000003a4 .L0 
     /tmp/ccxq6xuX.s:793    .text:00000000000003a8 .L0 
     /tmp/ccxq6xuX.s:802    .text:00000000000003a8 .L0 
     /tmp/ccxq6xuX.s:239    .text:0000000000000100 .L12
     /tmp/ccxq6xuX.s:250    .text:000000000000010c .L10
     /tmp/ccxq6xuX.s:225    .text:00000000000000ec .L9
     /tmp/ccxq6xuX.s:478    .text:0000000000000230 .L23
     /tmp/ccxq6xuX.s:466    .text:0000000000000220 .L22
     /tmp/ccxq6xuX.s:540    .text:0000000000000278 .L27
GAS LISTING /tmp/ccxq6xuX.s 			page 25


     /tmp/ccxq6xuX.s:526    .text:0000000000000268 .L26
     /tmp/ccxq6xuX.s:595    .text:00000000000002b8 .L31
     /tmp/ccxq6xuX.s:650    .text:00000000000002f8 .L38
     /tmp/ccxq6xuX.s:709    .text:0000000000000340 .L45
     /tmp/ccxq6xuX.s:2466   .debug_abbrev:0000000000000000 .Ldebug_abbrev0
     /tmp/ccxq6xuX.s:3782   .debug_str:0000000000000088 .LASF176
     /tmp/ccxq6xuX.s:3938   .debug_str:0000000000000686 .LASF177
     /tmp/ccxq6xuX.s:3878   .debug_str:000000000000047d .LASF178
     /tmp/ccxq6xuX.s:5      .text:0000000000000000 .Ltext0
     /tmp/ccxq6xuX.s:796    .text:00000000000003a8 .Letext0
     /tmp/ccxq6xuX.s:3762   .debug_line:0000000000000000 .Ldebug_line0
     /tmp/ccxq6xuX.s:3884   .debug_str:00000000000004b1 .LASF0
     /tmp/ccxq6xuX.s:3916   .debug_str:00000000000005cd .LASF1
     /tmp/ccxq6xuX.s:4000   .debug_str:0000000000000876 .LASF2
     /tmp/ccxq6xuX.s:4010   .debug_str:00000000000008c8 .LASF4
     /tmp/ccxq6xuX.s:3898   .debug_str:0000000000000513 .LASF3
     /tmp/ccxq6xuX.s:3774   .debug_str:0000000000000039 .LASF5
     /tmp/ccxq6xuX.s:3976   .debug_str:00000000000007b9 .LASF6
     /tmp/ccxq6xuX.s:3966   .debug_str:0000000000000774 .LASF7
     /tmp/ccxq6xuX.s:3908   .debug_str:000000000000058e .LASF8
     /tmp/ccxq6xuX.s:3856   .debug_str:00000000000003c8 .LASF9
     /tmp/ccxq6xuX.s:3866   .debug_str:0000000000000426 .LASF10
     /tmp/ccxq6xuX.s:3800   .debug_str:00000000000001d2 .LASF11
     /tmp/ccxq6xuX.s:3850   .debug_str:0000000000000395 .LASF12
     /tmp/ccxq6xuX.s:3804   .debug_str:00000000000001e6 .LASF13
     /tmp/ccxq6xuX.s:3798   .debug_str:00000000000001c2 .LASF14
     /tmp/ccxq6xuX.s:4038   .debug_str:00000000000009b1 .LASF15
     /tmp/ccxq6xuX.s:3834   .debug_str:0000000000000302 .LASF16
     /tmp/ccxq6xuX.s:4030   .debug_str:0000000000000977 .LASF17
     /tmp/ccxq6xuX.s:3848   .debug_str:0000000000000388 .LASF18
     /tmp/ccxq6xuX.s:3846   .debug_str:000000000000037b .LASF179
     /tmp/ccxq6xuX.s:4048   .debug_str:00000000000009ea .LASF19
     /tmp/ccxq6xuX.s:4100   .debug_str:0000000000000b95 .LASF21
     /tmp/ccxq6xuX.s:3826   .debug_str:0000000000000295 .LASF20
     /tmp/ccxq6xuX.s:4074   .debug_str:0000000000000aa0 .LASF22
     /tmp/ccxq6xuX.s:4046   .debug_str:00000000000009da .LASF23
     /tmp/ccxq6xuX.s:3900   .debug_str:0000000000000525 .LASF24
     /tmp/ccxq6xuX.s:3844   .debug_str:000000000000036b .LASF27
     /tmp/ccxq6xuX.s:4132   .debug_str:0000000000000c98 .LASF29
     /tmp/ccxq6xuX.s:3868   .debug_str:0000000000000434 .LASF25
     /tmp/ccxq6xuX.s:3922   .debug_str:000000000000060c .LASF26
     /tmp/ccxq6xuX.s:3946   .debug_str:00000000000006bb .LASF28
     /tmp/ccxq6xuX.s:4128   .debug_str:0000000000000c76 .LASF30
     /tmp/ccxq6xuX.s:4052   .debug_str:00000000000009fa .LASF31
     /tmp/ccxq6xuX.s:4114   .debug_str:0000000000000c14 .LASF32
     /tmp/ccxq6xuX.s:4080   .debug_str:0000000000000afe .LASF33
     /tmp/ccxq6xuX.s:4064   .debug_str:0000000000000a5c .LASF34
     /tmp/ccxq6xuX.s:3820   .debug_str:0000000000000271 .LASF35
     /tmp/ccxq6xuX.s:4006   .debug_str:00000000000008a2 .LASF36
     /tmp/ccxq6xuX.s:3790   .debug_str:000000000000018c .LASF37
     /tmp/ccxq6xuX.s:3870   .debug_str:0000000000000442 .LASF38
     /tmp/ccxq6xuX.s:4124   .debug_str:0000000000000c55 .LASF39
     /tmp/ccxq6xuX.s:3776   .debug_str:0000000000000040 .LASF40
     /tmp/ccxq6xuX.s:4026   .debug_str:0000000000000962 .LASF180
     /tmp/ccxq6xuX.s:4088   .debug_str:0000000000000b2b .LASF41
     /tmp/ccxq6xuX.s:4018   .debug_str:0000000000000926 .LASF42
     /tmp/ccxq6xuX.s:3920   .debug_str:0000000000000606 .LASF47
GAS LISTING /tmp/ccxq6xuX.s 			page 26


     /tmp/ccxq6xuX.s:3924   .debug_str:0000000000000626 .LASF49
     /tmp/ccxq6xuX.s:4060   .debug_str:0000000000000a4b .LASF51
     /tmp/ccxq6xuX.s:3914   .debug_str:00000000000005c8 .LASF43
     /tmp/ccxq6xuX.s:4118   .debug_str:0000000000000c37 .LASF44
     /tmp/ccxq6xuX.s:4122   .debug_str:0000000000000c48 .LASF45
     /tmp/ccxq6xuX.s:3838   .debug_str:0000000000000331 .LASF46
     /tmp/ccxq6xuX.s:3766   .debug_str:0000000000000007 .LASF53
     /tmp/ccxq6xuX.s:3892   .debug_str:00000000000004e1 .LASF59
     /tmp/ccxq6xuX.s:3876   .debug_str:0000000000000472 .LASF181
     /tmp/ccxq6xuX.s:3788   .debug_str:0000000000000176 .LASF182
     /tmp/ccxq6xuX.s:3960   .debug_str:000000000000074a .LASF48
     /tmp/ccxq6xuX.s:3792   .debug_str:0000000000000198 .LASF50
     /tmp/ccxq6xuX.s:3988   .debug_str:0000000000000806 .LASF52
     /tmp/ccxq6xuX.s:3810   .debug_str:0000000000000214 .LASF105
     /tmp/ccxq6xuX.s:3842   .debug_str:000000000000035e .LASF54
     /tmp/ccxq6xuX.s:3832   .debug_str:00000000000002e9 .LASF56
     /tmp/ccxq6xuX.s:3942   .debug_str:00000000000006a1 .LASF55
     /tmp/ccxq6xuX.s:3818   .debug_str:000000000000025a .LASF57
     /tmp/ccxq6xuX.s:4020   .debug_str:0000000000000948 .LASF58
     /tmp/ccxq6xuX.s:3912   .debug_str:00000000000005ab .LASF60
     /tmp/ccxq6xuX.s:3770   .debug_str:000000000000001f .LASF61
     /tmp/ccxq6xuX.s:4024   .debug_str:000000000000095c .LASF62
     /tmp/ccxq6xuX.s:4096   .debug_str:0000000000000b7d .LASF63
     /tmp/ccxq6xuX.s:3910   .debug_str:00000000000005a1 .LASF64
     /tmp/ccxq6xuX.s:4120   .debug_str:0000000000000c43 .LASF65
     /tmp/ccxq6xuX.s:4028   .debug_str:000000000000096e .LASF66
     /tmp/ccxq6xuX.s:3958   .debug_str:0000000000000742 .LASF67
     /tmp/ccxq6xuX.s:3928   .debug_str:0000000000000640 .LASF68
     /tmp/ccxq6xuX.s:4104   .debug_str:0000000000000bba .LASF69
     /tmp/ccxq6xuX.s:3824   .debug_str:0000000000000287 .LASF70
     /tmp/ccxq6xuX.s:4070   .debug_str:0000000000000a8c .LASF71
     /tmp/ccxq6xuX.s:4016   .debug_str:0000000000000915 .LASF132
     /tmp/ccxq6xuX.s:3822   .debug_str:000000000000027e .LASF77
     /tmp/ccxq6xuX.s:3780   .debug_str:0000000000000075 .LASF79
     /tmp/ccxq6xuX.s:3886   .debug_str:00000000000004be .LASF72
     /tmp/ccxq6xuX.s:4090   .debug_str:0000000000000b3c .LASF73
     /tmp/ccxq6xuX.s:3888   .debug_str:00000000000004cd .LASF74
     /tmp/ccxq6xuX.s:4012   .debug_str:00000000000008cf .LASF75
     /tmp/ccxq6xuX.s:3926   .debug_str:0000000000000636 .LASF76
     /tmp/ccxq6xuX.s:3982   .debug_str:00000000000007dc .LASF78
     /tmp/ccxq6xuX.s:4106   .debug_str:0000000000000bc7 .LASF80
     /tmp/ccxq6xuX.s:3932   .debug_str:0000000000000670 .LASF81
     /tmp/ccxq6xuX.s:3796   .debug_str:00000000000001b6 .LASF82
     /tmp/ccxq6xuX.s:3860   .debug_str:00000000000003ef .LASF83
     /tmp/ccxq6xuX.s:4066   .debug_str:0000000000000a75 .LASF84
     /tmp/ccxq6xuX.s:4098   .debug_str:0000000000000b86 .LASF85
     /tmp/ccxq6xuX.s:4044   .debug_str:00000000000009d3 .LASF86
     /tmp/ccxq6xuX.s:3904   .debug_str:000000000000056f .LASF87
     /tmp/ccxq6xuX.s:3772   .debug_str:000000000000002a .LASF88
     /tmp/ccxq6xuX.s:4092   .debug_str:0000000000000b5a .LASF89
     /tmp/ccxq6xuX.s:4054   .debug_str:0000000000000a05 .LASF90
     /tmp/ccxq6xuX.s:4042   .debug_str:00000000000009c6 .LASF91
     /tmp/ccxq6xuX.s:3998   .debug_str:0000000000000866 .LASF92
     /tmp/ccxq6xuX.s:4110   .debug_str:0000000000000beb .LASF93
     /tmp/ccxq6xuX.s:3894   .debug_str:00000000000004ee .LASF94
     /tmp/ccxq6xuX.s:4078   .debug_str:0000000000000ae0 .LASF95
     /tmp/ccxq6xuX.s:4008   .debug_str:00000000000008ba .LASF96
GAS LISTING /tmp/ccxq6xuX.s 			page 27


     /tmp/ccxq6xuX.s:3828   .debug_str:00000000000002a8 .LASF97
     /tmp/ccxq6xuX.s:3836   .debug_str:0000000000000318 .LASF98
     /tmp/ccxq6xuX.s:3858   .debug_str:00000000000003d8 .LASF99
     /tmp/ccxq6xuX.s:4108   .debug_str:0000000000000be2 .LASF100
     /tmp/ccxq6xuX.s:3996   .debug_str:0000000000000859 .LASF101
     /tmp/ccxq6xuX.s:3852   .debug_str:00000000000003a4 .LASF102
     /tmp/ccxq6xuX.s:3864   .debug_str:000000000000041e .LASF103
     /tmp/ccxq6xuX.s:3816   .debug_str:0000000000000248 .LASF104
     /tmp/ccxq6xuX.s:3980   .debug_str:00000000000007d0 .LASF106
     /tmp/ccxq6xuX.s:3882   .debug_str:00000000000004ab .LASF107
     /tmp/ccxq6xuX.s:3978   .debug_str:00000000000007c0 .LASF108
     /tmp/ccxq6xuX.s:3768   .debug_str:0000000000000017 .LASF109
     /tmp/ccxq6xuX.s:4126   .debug_str:0000000000000c64 .LASF110
     /tmp/ccxq6xuX.s:4034   .debug_str:000000000000099e .LASF111
     /tmp/ccxq6xuX.s:3956   .debug_str:000000000000073d .LASF112
     /tmp/ccxq6xuX.s:3880   .debug_str:00000000000004a2 .LASF113
     /tmp/ccxq6xuX.s:4062   .debug_str:0000000000000a53 .LASF114
     /tmp/ccxq6xuX.s:3794   .debug_str:00000000000001b0 .LASF115
     /tmp/ccxq6xuX.s:3964   .debug_str:0000000000000764 .LASF116
     /tmp/ccxq6xuX.s:3854   .debug_str:00000000000003bc .LASF183
     /tmp/ccxq6xuX.s:4094   .debug_str:0000000000000b74 .LASF117
     /tmp/ccxq6xuX.s:3954   .debug_str:0000000000000738 .LASF118
     /tmp/ccxq6xuX.s:3802   .debug_str:00000000000001e1 .LASF119
     /tmp/ccxq6xuX.s:3764   .debug_str:0000000000000000 .LASF120
     /tmp/ccxq6xuX.s:3994   .debug_str:000000000000082b .LASF121
     /tmp/ccxq6xuX.s:3902   .debug_str:0000000000000541 .LASF184
     /tmp/ccxq6xuX.s:4072   .debug_str:0000000000000a96 .LASF122
     /tmp/ccxq6xuX.s:4076   .debug_str:0000000000000abf .LASF123
     /tmp/ccxq6xuX.s:3940   .debug_str:0000000000000698 .LASF124
     /tmp/ccxq6xuX.s:3948   .debug_str:00000000000006c9 .LASF125
     /tmp/ccxq6xuX.s:3814   .debug_str:000000000000023b .LASF126
     /tmp/ccxq6xuX.s:3952   .debug_str:0000000000000713 .LASF127
     /tmp/ccxq6xuX.s:3962   .debug_str:0000000000000757 .LASF128
     /tmp/ccxq6xuX.s:3930   .debug_str:000000000000064b .LASF129
     /tmp/ccxq6xuX.s:3784   .debug_str:0000000000000158 .LASF130
     /tmp/ccxq6xuX.s:4102   .debug_str:0000000000000bac .LASF131
     /tmp/ccxq6xuX.s:4056   .debug_str:0000000000000a11 .LASF133
     /tmp/ccxq6xuX.s:3950   .debug_str:00000000000006ea .LASF134
     /tmp/ccxq6xuX.s:3944   .debug_str:00000000000006ac .LASF135
     /tmp/ccxq6xuX.s:4014   .debug_str:00000000000008ed .LASF136
     /tmp/ccxq6xuX.s:3896   .debug_str:0000000000000501 .LASF137
     /tmp/ccxq6xuX.s:4058   .debug_str:0000000000000a21 .LASF138
     /tmp/ccxq6xuX.s:3970   .debug_str:0000000000000794 .LASF139
     /tmp/ccxq6xuX.s:3830   .debug_str:00000000000002c1 .LASF140
     /tmp/ccxq6xuX.s:3936   .debug_str:0000000000000681 .LASF141
     /tmp/ccxq6xuX.s:4040   .debug_str:00000000000009bd .LASF142
     /tmp/ccxq6xuX.s:757    .text:0000000000000378 .LFB56
     /tmp/ccxq6xuX.s:794    .text:00000000000003a8 .LFE56
     /tmp/ccxq6xuX.s:3363   .debug_loc:0000000000000000 .LLST19
     /tmp/ccxq6xuX.s:4082   .debug_str:0000000000000b0c .LASF143
     /tmp/ccxq6xuX.s:783    .text:0000000000000398 .LVL75
     /tmp/ccxq6xuX.s:4050   .debug_str:00000000000009f5 .LASF144
     /tmp/ccxq6xuX.s:3890   .debug_str:00000000000004dc .LASF145
     /tmp/ccxq6xuX.s:4084   .debug_str:0000000000000b11 .LASF147
     /tmp/ccxq6xuX.s:722    .text:0000000000000348 .LFB55
     /tmp/ccxq6xuX.s:751    .text:0000000000000378 .LFE55
     /tmp/ccxq6xuX.s:739    .text:0000000000000364 .LVL71
GAS LISTING /tmp/ccxq6xuX.s 			page 28


     /tmp/ccxq6xuX.s:3808   .debug_str:0000000000000209 .LASF146
     /tmp/ccxq6xuX.s:3974   .debug_str:00000000000007a9 .LASF148
     /tmp/ccxq6xuX.s:663    .text:0000000000000300 .LFB54
     /tmp/ccxq6xuX.s:716    .text:0000000000000348 .LFE54
     /tmp/ccxq6xuX.s:3972   .debug_str:00000000000007a4 .LASF149
     /tmp/ccxq6xuX.s:3377   .debug_loc:0000000000000039 .LLST18
     /tmp/ccxq6xuX.s:691    .text:0000000000000324 .LVL66
     /tmp/ccxq6xuX.s:695    .text:000000000000032c .LVL67
     /tmp/ccxq6xuX.s:3984   .debug_str:00000000000007ec .LASF150
     /tmp/ccxq6xuX.s:4068   .debug_str:0000000000000a7a .LASF151
     /tmp/ccxq6xuX.s:608    .text:00000000000002c0 .LFB53
     /tmp/ccxq6xuX.s:657    .text:0000000000000300 .LFE53
     /tmp/ccxq6xuX.s:4130   .debug_str:0000000000000c91 .LASF152
     /tmp/ccxq6xuX.s:3402   .debug_loc:000000000000009b .LLST17
     /tmp/ccxq6xuX.s:636    .text:00000000000002e4 .LVL61
     /tmp/ccxq6xuX.s:3874   .debug_str:0000000000000467 .LASF153
     /tmp/ccxq6xuX.s:3812   .debug_str:0000000000000227 .LASF154
     /tmp/ccxq6xuX.s:553    .text:0000000000000280 .LFB52
     /tmp/ccxq6xuX.s:602    .text:00000000000002c0 .LFE52
     /tmp/ccxq6xuX.s:3427   .debug_loc:00000000000000fd .LLST16
     /tmp/ccxq6xuX.s:581    .text:00000000000002a4 .LVL56
     /tmp/ccxq6xuX.s:4022   .debug_str:0000000000000953 .LASF155
     /tmp/ccxq6xuX.s:4086   .debug_str:0000000000000b1a .LASF156
     /tmp/ccxq6xuX.s:491    .text:0000000000000238 .LFB51
     /tmp/ccxq6xuX.s:547    .text:0000000000000280 .LFE51
     /tmp/ccxq6xuX.s:3452   .debug_loc:000000000000015f .LLST15
     /tmp/ccxq6xuX.s:523    .text:0000000000000264 .LVL49
     /tmp/ccxq6xuX.s:3992   .debug_str:0000000000000822 .LASF157
     /tmp/ccxq6xuX.s:3990   .debug_str:000000000000080f .LASF158
     /tmp/ccxq6xuX.s:426    .text:00000000000001f0 .LFB50
     /tmp/ccxq6xuX.s:485    .text:0000000000000238 .LFE50
     /tmp/ccxq6xuX.s:3483   .debug_loc:00000000000001e5 .LLST13
     /tmp/ccxq6xuX.s:3786   .debug_str:0000000000000171 .LASF159
     /tmp/ccxq6xuX.s:3505   .debug_loc:0000000000000244 .LLST14
     /tmp/ccxq6xuX.s:457    .text:0000000000000214 .LVL42
     /tmp/ccxq6xuX.s:3968   .debug_str:0000000000000787 .LASF160
     /tmp/ccxq6xuX.s:3862   .debug_str:0000000000000407 .LASF161
     /tmp/ccxq6xuX.s:331    .text:0000000000000170 .LFB49
     /tmp/ccxq6xuX.s:368    .text:00000000000001a0 .LFE49
     /tmp/ccxq6xuX.s:3519   .debug_loc:000000000000027d .LLST8
     /tmp/ccxq6xuX.s:357    .text:0000000000000190 .LVL32
     /tmp/ccxq6xuX.s:3934   .debug_str:0000000000000675 .LASF162
     /tmp/ccxq6xuX.s:4032   .debug_str:000000000000098d .LASF163
     /tmp/ccxq6xuX.s:296    .text:0000000000000140 .LFB48
     /tmp/ccxq6xuX.s:325    .text:0000000000000170 .LFE48
     /tmp/ccxq6xuX.s:313    .text:000000000000015c .LVL28
     /tmp/ccxq6xuX.s:3986   .debug_str:00000000000007f6 .LASF164
     /tmp/ccxq6xuX.s:3778   .debug_str:0000000000000060 .LASF165
     /tmp/ccxq6xuX.s:262    .text:0000000000000114 .LFB47
     /tmp/ccxq6xuX.s:290    .text:0000000000000140 .LFE47
     /tmp/ccxq6xuX.s:279    .text:0000000000000130 .LVL26
     /tmp/ccxq6xuX.s:4036   .debug_str:00000000000009a3 .LASF166
     /tmp/ccxq6xuX.s:3840   .debug_str:000000000000033d .LASF167
     /tmp/ccxq6xuX.s:374    .text:00000000000001a0 .LFB46
     /tmp/ccxq6xuX.s:420    .text:00000000000001f0 .LFE46
     /tmp/ccxq6xuX.s:3533   .debug_loc:00000000000002b6 .LLST9
     /tmp/ccxq6xuX.s:4116   .debug_str:0000000000000c2a .LASF168
GAS LISTING /tmp/ccxq6xuX.s 			page 29


     /tmp/ccxq6xuX.s:3551   .debug_loc:0000000000000302 .LLST10
     /tmp/ccxq6xuX.s:3565   .debug_loc:000000000000033b .LLST11
     /tmp/ccxq6xuX.s:3579   .debug_loc:0000000000000374 .LLST12
     /tmp/ccxq6xuX.s:394    .text:00000000000001c4 .LVL34
     /tmp/ccxq6xuX.s:401    .text:00000000000001d4 .LVL36
     /tmp/ccxq6xuX.s:3806   .debug_str:00000000000001f6 .LASF169
     /tmp/ccxq6xuX.s:3918   .debug_str:00000000000005e0 .LASF170
     /tmp/ccxq6xuX.s:157    .text:0000000000000098 .LFB45
     /tmp/ccxq6xuX.s:256    .text:0000000000000114 .LFE45
     /tmp/ccxq6xuX.s:3586   .debug_loc:0000000000000397 .LLST4
     /tmp/ccxq6xuX.s:3609   .debug_loc:0000000000000406 .LLST5
     /tmp/ccxq6xuX.s:3623   .debug_loc:000000000000043f .LLST6
     /tmp/ccxq6xuX.s:3637   .debug_loc:0000000000000478 .LLST7
     /tmp/ccxq6xuX.s:196    .text:00000000000000c8 .LVL17
     /tmp/ccxq6xuX.s:216    .text:00000000000000e0 .LVL19
     /tmp/ccxq6xuX.s:4112   .debug_str:0000000000000c06 .LASF171
     /tmp/ccxq6xuX.s:113    .text:0000000000000064 .LFB44
     /tmp/ccxq6xuX.s:151    .text:0000000000000098 .LFE44
     /tmp/ccxq6xuX.s:4002   .debug_str:0000000000000884 .LASF172
     /tmp/ccxq6xuX.s:3648   .debug_loc:00000000000004ae .LLST3
     /tmp/ccxq6xuX.s:139    .text:0000000000000084 .LVL13
     /tmp/ccxq6xuX.s:3872   .debug_str:0000000000000459 .LASF173
     /tmp/ccxq6xuX.s:53     .text:0000000000000024 .LFB43
     /tmp/ccxq6xuX.s:107    .text:0000000000000064 .LFE43
     /tmp/ccxq6xuX.s:3662   .debug_loc:00000000000004e7 .LLST1
     /tmp/ccxq6xuX.s:68     .text:0000000000000034 .LBB4
     /tmp/ccxq6xuX.s:83     .text:0000000000000044 .LBE4
     /tmp/ccxq6xuX.s:3713   .debug_loc:0000000000000572 .LLST2
     /tmp/ccxq6xuX.s:96     .text:0000000000000054 .LVL9
     /tmp/ccxq6xuX.s:3906   .debug_str:0000000000000580 .LASF174
     /tmp/ccxq6xuX.s:4004   .debug_str:000000000000088f .LASF175
     /tmp/ccxq6xuX.s:10     .text:0000000000000000 .LFB42
     /tmp/ccxq6xuX.s:47     .text:0000000000000024 .LFE42
     /tmp/ccxq6xuX.s:3727   .debug_loc:00000000000005ab .LLST0
     /tmp/ccxq6xuX.s:760    .text:0000000000000378 .LVL72
     /tmp/ccxq6xuX.s:781    .text:0000000000000390 .LVL74
     /tmp/ccxq6xuX.s:666    .text:0000000000000300 .LVL64
     /tmp/ccxq6xuX.s:689    .text:000000000000031c .LVL65
     /tmp/ccxq6xuX.s:708    .text:0000000000000340 .LVL68
     /tmp/ccxq6xuX.s:712    .text:0000000000000344 .LVL69
     /tmp/ccxq6xuX.s:611    .text:00000000000002c0 .LVL59
     /tmp/ccxq6xuX.s:634    .text:00000000000002dc .LVL60
     /tmp/ccxq6xuX.s:649    .text:00000000000002f8 .LVL62
     /tmp/ccxq6xuX.s:653    .text:00000000000002fc .LVL63
     /tmp/ccxq6xuX.s:556    .text:0000000000000280 .LVL54
     /tmp/ccxq6xuX.s:579    .text:000000000000029c .LVL55
     /tmp/ccxq6xuX.s:594    .text:00000000000002b8 .LVL57
     /tmp/ccxq6xuX.s:598    .text:00000000000002bc .LVL58
     /tmp/ccxq6xuX.s:494    .text:0000000000000238 .LVL46
     /tmp/ccxq6xuX.s:521    .text:000000000000025c .LVL48
     /tmp/ccxq6xuX.s:534    .text:0000000000000270 .LVL50
     /tmp/ccxq6xuX.s:537    .text:0000000000000274 .LVL51
     /tmp/ccxq6xuX.s:539    .text:0000000000000278 .LVL52
     /tmp/ccxq6xuX.s:544    .text:000000000000027c .LVL53
     /tmp/ccxq6xuX.s:429    .text:00000000000001f0 .LVL39
     /tmp/ccxq6xuX.s:455    .text:000000000000020c .LVL41
     /tmp/ccxq6xuX.s:465    .text:0000000000000220 .LVL43
GAS LISTING /tmp/ccxq6xuX.s 			page 30


     /tmp/ccxq6xuX.s:477    .text:0000000000000230 .LVL44
     /tmp/ccxq6xuX.s:482    .text:0000000000000234 .LVL45
     /tmp/ccxq6xuX.s:334    .text:0000000000000170 .LVL29
     /tmp/ccxq6xuX.s:355    .text:0000000000000188 .LVL31
     /tmp/ccxq6xuX.s:377    .text:00000000000001a0 .LVL33
     /tmp/ccxq6xuX.s:415    .text:00000000000001e8 .LVL38
     /tmp/ccxq6xuX.s:396    .text:00000000000001c8 .LVL35
     /tmp/ccxq6xuX.s:412    .text:00000000000001e4 .LVL37
     /tmp/ccxq6xuX.s:160    .text:0000000000000098 .LVL14
     /tmp/ccxq6xuX.s:194    .text:00000000000000c0 .LVL16
     /tmp/ccxq6xuX.s:224    .text:00000000000000ec .LVL20
     /tmp/ccxq6xuX.s:238    .text:0000000000000100 .LVL21
     /tmp/ccxq6xuX.s:249    .text:000000000000010c .LVL23
     /tmp/ccxq6xuX.s:253    .text:0000000000000110 .LVL24
     /tmp/ccxq6xuX.s:214    .text:00000000000000d8 .LVL18
     /tmp/ccxq6xuX.s:247    .text:0000000000000108 .LVL22
     /tmp/ccxq6xuX.s:116    .text:0000000000000064 .LVL10
     /tmp/ccxq6xuX.s:137    .text:000000000000007c .LVL12
     /tmp/ccxq6xuX.s:56     .text:0000000000000024 .LVL4
     /tmp/ccxq6xuX.s:76     .text:000000000000003c .LVL6
     /tmp/ccxq6xuX.s:81     .text:0000000000000044 .LVL7
     /tmp/ccxq6xuX.s:94     .text:000000000000004c .LVL8
     /tmp/ccxq6xuX.s:66     .text:0000000000000034 .LVL5
     /tmp/ccxq6xuX.s:14     .text:0000000000000000 .LVL0
     /tmp/ccxq6xuX.s:34     .text:0000000000000018 .LVL1
     /tmp/ccxq6xuX.s:41     .text:000000000000001c .LVL2
     /tmp/ccxq6xuX.s:44     .text:0000000000000020 .LVL3
     /tmp/ccxq6xuX.s:803    .debug_info:0000000000000000 .Ldebug_info0

NO UNDEFINED SYMBOLS
