GAS LISTING /tmp/ccsjNwek.s 			page 1


   1              		.file	"syscall_cpp.cpp"
   2              		.option pic
   3              		.option norelax
   4              		.text
   5              	.Ltext0:
   6              		.section	.text._ZN6Thread3runEv,"axG",@progbits,_ZN6Thread3runEv,comdat
   7              		.align	2
   8              		.weak	_ZN6Thread3runEv
  10              	_ZN6Thread3runEv:
  11              	.LFB0:
  12              		.file 1 "src/../h/syscall_cpp.h"
   1:src/../h/syscall_cpp.h **** #ifndef SYSCALL_CPP_H
   2:src/../h/syscall_cpp.h **** #define SYSCALL_CPP_H
   3:src/../h/syscall_cpp.h **** 
   4:src/../h/syscall_cpp.h **** #include "syscall_c.h"
   5:src/../h/syscall_cpp.h **** // Poziva funkciju mem_alloc koja alocira prostora odgovarajuce velicine size
   6:src/../h/syscall_cpp.h **** void* operator new (size_t size);
   7:src/../h/syscall_cpp.h **** void* operator new[] (size_t size);
   8:src/../h/syscall_cpp.h **** // Poziva funkciju mem_free koja oslobadja zauzeti segment memSegment, prethodno alociran preko mem
   9:src/../h/syscall_cpp.h **** void operator delete (void* memSegment) noexcept;
  10:src/../h/syscall_cpp.h **** void operator delete[] (void* memSegment) noexcept;
  11:src/../h/syscall_cpp.h **** 
  12:src/../h/syscall_cpp.h **** class Thread {
  13:src/../h/syscall_cpp.h ****     friend void threadWrapper(void* thread);
  14:src/../h/syscall_cpp.h **** public:
  15:src/../h/syscall_cpp.h ****     void* operator new(size_t size);
  16:src/../h/syscall_cpp.h ****     void operator delete(void* memSegment);
  17:src/../h/syscall_cpp.h ****     Thread (void (*body)(void*), void* arg);
  18:src/../h/syscall_cpp.h ****     virtual ~Thread ();
  19:src/../h/syscall_cpp.h ****     int start ();
  20:src/../h/syscall_cpp.h ****     static void dispatch ();
  21:src/../h/syscall_cpp.h ****     static int sleep (time_t);
  22:src/../h/syscall_cpp.h **** protected:
  23:src/../h/syscall_cpp.h ****     Thread ();
  24:src/../h/syscall_cpp.h ****     virtual void run () {}
  13              		.loc 1 24 18
  14              		.cfi_startproc
  15              	.LVL0:
  16 0000 130101FF 		addi	sp,sp,-16
  17              		.cfi_def_cfa_offset 16
  18 0004 23348100 		sd	s0,8(sp)
  19              		.cfi_offset 8, -8
  20 0008 13040101 		addi	s0,sp,16
  21              		.cfi_def_cfa 8, 0
  22              		.loc 1 24 26 is_stmt 0
  23 000c 03348100 		ld	s0,8(sp)
  24              		.cfi_restore 8
  25              		.cfi_def_cfa 2, 16
  26 0010 13010101 		addi	sp,sp,16
  27              		.cfi_def_cfa_offset 0
  28 0014 67800000 		jr	ra
  29              		.cfi_endproc
  30              	.LFE0:
  32              		.text
  33              		.align	2
  34              		.globl	_Z13threadWrapperPv
  36              	_Z13threadWrapperPv:
GAS LISTING /tmp/ccsjNwek.s 			page 2


  37              	.LFB30:
  38              		.file 2 "src/syscall_cpp.cpp"
   1:src/syscall_cpp.cpp **** #include "../h/syscall_cpp.h"
   2:src/syscall_cpp.cpp **** #include "../h/MemoryAllocator.h"
   3:src/syscall_cpp.cpp **** #include "../h/PCB.h"
   4:src/syscall_cpp.cpp **** 
   5:src/syscall_cpp.cpp **** void* operator new (size_t size) {
   6:src/syscall_cpp.cpp ****     return mem_alloc(size);
   7:src/syscall_cpp.cpp **** }
   8:src/syscall_cpp.cpp **** void* operator new [](size_t size) {
   9:src/syscall_cpp.cpp ****     return mem_alloc(size);
  10:src/syscall_cpp.cpp **** }
  11:src/syscall_cpp.cpp **** void operator delete (void* memSegment) noexcept {
  12:src/syscall_cpp.cpp ****     mem_free(memSegment);
  13:src/syscall_cpp.cpp **** }
  14:src/syscall_cpp.cpp **** void operator delete [](void* memSegment) noexcept {
  15:src/syscall_cpp.cpp ****     mem_free(memSegment);
  16:src/syscall_cpp.cpp **** }
  17:src/syscall_cpp.cpp **** 
  18:src/syscall_cpp.cpp **** Thread::Thread(void (*body)(void *), void *arg) {
  19:src/syscall_cpp.cpp ****     thread_create_only(&myHandle, body, arg);
  20:src/syscall_cpp.cpp **** }
  21:src/syscall_cpp.cpp **** 
  22:src/syscall_cpp.cpp **** Thread::~Thread() {
  23:src/syscall_cpp.cpp ****     delete myHandle;
  24:src/syscall_cpp.cpp **** }
  25:src/syscall_cpp.cpp **** 
  26:src/syscall_cpp.cpp **** void *Thread::operator new(size_t size) {
  27:src/syscall_cpp.cpp ****     return MemoryAllocator::mem_alloc(size);
  28:src/syscall_cpp.cpp **** }
  29:src/syscall_cpp.cpp **** 
  30:src/syscall_cpp.cpp **** void Thread::operator delete(void *memSegment) {
  31:src/syscall_cpp.cpp ****     MemoryAllocator::mem_free(memSegment);
  32:src/syscall_cpp.cpp **** }
  33:src/syscall_cpp.cpp **** 
  34:src/syscall_cpp.cpp **** void Thread::dispatch() {
  35:src/syscall_cpp.cpp ****     thread_dispatch();
  36:src/syscall_cpp.cpp **** }
  37:src/syscall_cpp.cpp **** 
  38:src/syscall_cpp.cpp **** int Thread::start() {
  39:src/syscall_cpp.cpp ****     thread_start(&myHandle);
  40:src/syscall_cpp.cpp ****     return 0;
  41:src/syscall_cpp.cpp **** }
  42:src/syscall_cpp.cpp **** 
  43:src/syscall_cpp.cpp **** void threadWrapper(void* thread);
  44:src/syscall_cpp.cpp **** Thread::Thread() {
  45:src/syscall_cpp.cpp ****     thread_create_only(&myHandle, threadWrapper, this);
  46:src/syscall_cpp.cpp **** }
  47:src/syscall_cpp.cpp **** 
  48:src/syscall_cpp.cpp **** void threadWrapper(void* thread) {
  39              		.loc 2 48 34 is_stmt 1
  40              		.cfi_startproc
  41              	.LVL1:
  42 0000 130101FF 		addi	sp,sp,-16
  43              		.cfi_def_cfa_offset 16
  44 0004 23341100 		sd	ra,8(sp)
  45 0008 23308100 		sd	s0,0(sp)
GAS LISTING /tmp/ccsjNwek.s 			page 3


  46              		.cfi_offset 1, -8
  47              		.cfi_offset 8, -16
  48 000c 13040101 		addi	s0,sp,16
  49              		.cfi_def_cfa 8, 0
  49:src/syscall_cpp.cpp ****     ((Thread*)thread)->run();
  50              		.loc 2 49 5
  51              		.loc 2 49 28 is_stmt 0
  52 0010 83370500 		ld	a5,0(a0)
  53 0014 83B70701 		ld	a5,16(a5)
  54              		.loc 2 49 27
  55 0018 E7800700 		jalr	a5
  56              	.LVL2:
  50:src/syscall_cpp.cpp **** }
  57              		.loc 2 50 1
  58 001c 83308100 		ld	ra,8(sp)
  59              		.cfi_restore 1
  60 0020 03340100 		ld	s0,0(sp)
  61              		.cfi_restore 8
  62              		.cfi_def_cfa 2, 16
  63 0024 13010101 		addi	sp,sp,16
  64              		.cfi_def_cfa_offset 0
  65 0028 67800000 		jr	ra
  66              		.cfi_endproc
  67              	.LFE30:
  69              		.align	2
  70              		.globl	_ZN6ThreadD2Ev
  72              	_ZN6ThreadD2Ev:
  73              	.LFB20:
  22:src/syscall_cpp.cpp ****     delete myHandle;
  74              		.loc 2 22 1 is_stmt 1
  75              		.cfi_startproc
  76              		.cfi_personality 0x9b,DW.ref.__gxx_personality_v0
  77              		.cfi_lsda 0x1b,.LLSDA20
  78              	.LVL3:
  79 002c 130101FE 		addi	sp,sp,-32
  80              		.cfi_def_cfa_offset 32
  81 0030 233C1100 		sd	ra,24(sp)
  82 0034 23388100 		sd	s0,16(sp)
  83 0038 23349100 		sd	s1,8(sp)
  84              		.cfi_offset 1, -8
  85              		.cfi_offset 8, -16
  86              		.cfi_offset 9, -24
  87 003c 13040102 		addi	s0,sp,32
  88              		.cfi_def_cfa 8, 0
  89              	.LBB2:
  22:src/syscall_cpp.cpp ****     delete myHandle;
  90              		.loc 2 22 17 is_stmt 0
  91 0040 97070000 		lla	a5,_ZTV6Thread+16
  91      93870700 
  92 0048 2330F500 		sd	a5,0(a0)
  23:src/syscall_cpp.cpp **** }
  93              		.loc 2 23 5 is_stmt 1
  23:src/syscall_cpp.cpp **** }
  94              		.loc 2 23 12 is_stmt 0
  95 004c 83348500 		ld	s1,8(a0)
  23:src/syscall_cpp.cpp **** }
  96              		.loc 2 23 20
GAS LISTING /tmp/ccsjNwek.s 			page 4


  97 0050 638E0400 		beqz	s1,.L5
  23:src/syscall_cpp.cpp **** }
  98              		.loc 2 23 12 discriminator 1
  99 0054 13850400 		mv	a0,s1
 100              	.LVL4:
 101 0058 97000000 		call	_ZN3PCBD1Ev@plt
 101      E7800000 
 102              	.LVL5:
 103 0060 13850400 		mv	a0,s1
 104 0064 97000000 		call	_ZN3PCBdlEPv@plt
 104      E7800000 
 105              	.LVL6:
 106              	.L5:
 107              	.LBE2:
  24:src/syscall_cpp.cpp **** 
 108              		.loc 2 24 1
 109 006c 83308101 		ld	ra,24(sp)
 110              		.cfi_restore 1
 111 0070 03340101 		ld	s0,16(sp)
 112              		.cfi_restore 8
 113              		.cfi_def_cfa 2, 32
 114 0074 83348100 		ld	s1,8(sp)
 115              		.cfi_restore 9
 116 0078 13010102 		addi	sp,sp,32
 117              		.cfi_def_cfa_offset 0
 118 007c 67800000 		jr	ra
 119              		.cfi_endproc
 120              	.LFE20:
 121              		.globl	__gxx_personality_v0
 122              		.section	.gcc_except_table,"a",@progbits
 123              	.LLSDA20:
 124 0000 FF       		.byte	0xff
 125 0001 FF       		.byte	0xff
 126 0002 03       		.byte	0x3
 127 0003 00       		.byte	0
 128              		.text
 130              		.globl	_ZN6ThreadD1Ev
 131              		.set	_ZN6ThreadD1Ev,_ZN6ThreadD2Ev
 132              		.align	2
 133              		.globl	_Znwm
 135              	_Znwm:
 136              	.LFB12:
   5:src/syscall_cpp.cpp ****     return mem_alloc(size);
 137              		.loc 2 5 34 is_stmt 1
 138              		.cfi_startproc
 139              	.LVL7:
 140 0080 130101FF 		addi	sp,sp,-16
 141              		.cfi_def_cfa_offset 16
 142 0084 23341100 		sd	ra,8(sp)
 143 0088 23308100 		sd	s0,0(sp)
 144              		.cfi_offset 1, -8
 145              		.cfi_offset 8, -16
 146 008c 13040101 		addi	s0,sp,16
 147              		.cfi_def_cfa 8, 0
   6:src/syscall_cpp.cpp **** }
 148              		.loc 2 6 5
   6:src/syscall_cpp.cpp **** }
GAS LISTING /tmp/ccsjNwek.s 			page 5


 149              		.loc 2 6 21 is_stmt 0
 150 0090 97000000 		call	_Z9mem_allocm@plt
 150      E7800000 
 151              	.LVL8:
   7:src/syscall_cpp.cpp **** void* operator new [](size_t size) {
 152              		.loc 2 7 1
 153 0098 83308100 		ld	ra,8(sp)
 154              		.cfi_restore 1
 155 009c 03340100 		ld	s0,0(sp)
 156              		.cfi_restore 8
 157              		.cfi_def_cfa 2, 16
 158 00a0 13010101 		addi	sp,sp,16
 159              		.cfi_def_cfa_offset 0
 160 00a4 67800000 		jr	ra
 161              		.cfi_endproc
 162              	.LFE12:
 164              		.align	2
 165              		.globl	_Znam
 167              	_Znam:
 168              	.LFB13:
   8:src/syscall_cpp.cpp ****     return mem_alloc(size);
 169              		.loc 2 8 36 is_stmt 1
 170              		.cfi_startproc
 171              	.LVL9:
 172 00a8 130101FF 		addi	sp,sp,-16
 173              		.cfi_def_cfa_offset 16
 174 00ac 23341100 		sd	ra,8(sp)
 175 00b0 23308100 		sd	s0,0(sp)
 176              		.cfi_offset 1, -8
 177              		.cfi_offset 8, -16
 178 00b4 13040101 		addi	s0,sp,16
 179              		.cfi_def_cfa 8, 0
   9:src/syscall_cpp.cpp **** }
 180              		.loc 2 9 5
   9:src/syscall_cpp.cpp **** }
 181              		.loc 2 9 21 is_stmt 0
 182 00b8 97000000 		call	_Z9mem_allocm@plt
 182      E7800000 
 183              	.LVL10:
  10:src/syscall_cpp.cpp **** void operator delete (void* memSegment) noexcept {
 184              		.loc 2 10 1
 185 00c0 83308100 		ld	ra,8(sp)
 186              		.cfi_restore 1
 187 00c4 03340100 		ld	s0,0(sp)
 188              		.cfi_restore 8
 189              		.cfi_def_cfa 2, 16
 190 00c8 13010101 		addi	sp,sp,16
 191              		.cfi_def_cfa_offset 0
 192 00cc 67800000 		jr	ra
 193              		.cfi_endproc
 194              	.LFE13:
 196              		.align	2
 197              		.globl	_ZdlPv
 199              	_ZdlPv:
 200              	.LFB14:
  11:src/syscall_cpp.cpp ****     mem_free(memSegment);
 201              		.loc 2 11 50 is_stmt 1
GAS LISTING /tmp/ccsjNwek.s 			page 6


 202              		.cfi_startproc
 203              		.cfi_personality 0x9b,DW.ref.__gxx_personality_v0
 204              		.cfi_lsda 0x1b,.LLSDA14
 205              	.LVL11:
 206 00d0 130101FF 		addi	sp,sp,-16
 207              		.cfi_def_cfa_offset 16
 208 00d4 23341100 		sd	ra,8(sp)
 209 00d8 23308100 		sd	s0,0(sp)
 210              		.cfi_offset 1, -8
 211              		.cfi_offset 8, -16
 212 00dc 13040101 		addi	s0,sp,16
 213              		.cfi_def_cfa 8, 0
  12:src/syscall_cpp.cpp **** }
 214              		.loc 2 12 5
  12:src/syscall_cpp.cpp **** }
 215              		.loc 2 12 13 is_stmt 0
 216 00e0 97000000 		call	_Z8mem_freePv@plt
 216      E7800000 
 217              	.LVL12:
  13:src/syscall_cpp.cpp **** void operator delete [](void* memSegment) noexcept {
 218              		.loc 2 13 1
 219 00e8 83308100 		ld	ra,8(sp)
 220              		.cfi_restore 1
 221 00ec 03340100 		ld	s0,0(sp)
 222              		.cfi_restore 8
 223              		.cfi_def_cfa 2, 16
 224 00f0 13010101 		addi	sp,sp,16
 225              		.cfi_def_cfa_offset 0
 226 00f4 67800000 		jr	ra
 227              		.cfi_endproc
 228              	.LFE14:
 229              		.section	.gcc_except_table
 230              	.LLSDA14:
 231 0004 FF       		.byte	0xff
 232 0005 FF       		.byte	0xff
 233 0006 03       		.byte	0x3
 234 0007 00       		.byte	0
 235              		.text
 237              		.align	2
 238              		.globl	_ZdaPv
 240              	_ZdaPv:
 241              	.LFB15:
  14:src/syscall_cpp.cpp ****     mem_free(memSegment);
 242              		.loc 2 14 52 is_stmt 1
 243              		.cfi_startproc
 244              		.cfi_personality 0x9b,DW.ref.__gxx_personality_v0
 245              		.cfi_lsda 0x1b,.LLSDA15
 246              	.LVL13:
 247 00f8 130101FF 		addi	sp,sp,-16
 248              		.cfi_def_cfa_offset 16
 249 00fc 23341100 		sd	ra,8(sp)
 250 0100 23308100 		sd	s0,0(sp)
 251              		.cfi_offset 1, -8
 252              		.cfi_offset 8, -16
 253 0104 13040101 		addi	s0,sp,16
 254              		.cfi_def_cfa 8, 0
  15:src/syscall_cpp.cpp **** }
GAS LISTING /tmp/ccsjNwek.s 			page 7


 255              		.loc 2 15 5
  15:src/syscall_cpp.cpp **** }
 256              		.loc 2 15 13 is_stmt 0
 257 0108 97000000 		call	_Z8mem_freePv@plt
 257      E7800000 
 258              	.LVL14:
  16:src/syscall_cpp.cpp **** 
 259              		.loc 2 16 1
 260 0110 83308100 		ld	ra,8(sp)
 261              		.cfi_restore 1
 262 0114 03340100 		ld	s0,0(sp)
 263              		.cfi_restore 8
 264              		.cfi_def_cfa 2, 16
 265 0118 13010101 		addi	sp,sp,16
 266              		.cfi_def_cfa_offset 0
 267 011c 67800000 		jr	ra
 268              		.cfi_endproc
 269              	.LFE15:
 270              		.section	.gcc_except_table
 271              	.LLSDA15:
 272 0008 FF       		.byte	0xff
 273 0009 FF       		.byte	0xff
 274 000a 03       		.byte	0x3
 275 000b 00       		.byte	0
 276              		.text
 278              		.align	2
 279              		.globl	_ZN6ThreadC2EPFvPvES0_
 281              	_ZN6ThreadC2EPFvPvES0_:
 282              	.LFB17:
  18:src/syscall_cpp.cpp ****     thread_create_only(&myHandle, body, arg);
 283              		.loc 2 18 1 is_stmt 1
 284              		.cfi_startproc
 285              	.LVL15:
 286 0120 130101FF 		addi	sp,sp,-16
 287              		.cfi_def_cfa_offset 16
 288 0124 23341100 		sd	ra,8(sp)
 289 0128 23308100 		sd	s0,0(sp)
 290              		.cfi_offset 1, -8
 291              		.cfi_offset 8, -16
 292 012c 13040101 		addi	s0,sp,16
 293              		.cfi_def_cfa 8, 0
 294              	.LBB3:
  18:src/syscall_cpp.cpp ****     thread_create_only(&myHandle, body, arg);
 295              		.loc 2 18 47 is_stmt 0
 296 0130 97070000 		lla	a5,_ZTV6Thread+16
 296      93870700 
 297 0138 2330F500 		sd	a5,0(a0)
  19:src/syscall_cpp.cpp **** }
 298              		.loc 2 19 5 is_stmt 1
  19:src/syscall_cpp.cpp **** }
 299              		.loc 2 19 23 is_stmt 0
 300 013c 13058500 		addi	a0,a0,8
 301              	.LVL16:
 302 0140 97000000 		call	_Z18thread_create_onlyPP3PCBPFvPvES2_@plt
 302      E7800000 
 303              	.LVL17:
 304              	.LBE3:
GAS LISTING /tmp/ccsjNwek.s 			page 8


  20:src/syscall_cpp.cpp **** 
 305              		.loc 2 20 1
 306 0148 83308100 		ld	ra,8(sp)
 307              		.cfi_restore 1
 308 014c 03340100 		ld	s0,0(sp)
 309              		.cfi_restore 8
 310              		.cfi_def_cfa 2, 16
 311 0150 13010101 		addi	sp,sp,16
 312              		.cfi_def_cfa_offset 0
 313 0154 67800000 		jr	ra
 314              		.cfi_endproc
 315              	.LFE17:
 317              		.globl	_ZN6ThreadC1EPFvPvES0_
 318              		.set	_ZN6ThreadC1EPFvPvES0_,_ZN6ThreadC2EPFvPvES0_
 319              		.align	2
 320              		.globl	_ZN6ThreadnwEm
 322              	_ZN6ThreadnwEm:
 323              	.LFB23:
  26:src/syscall_cpp.cpp ****     return MemoryAllocator::mem_alloc(size);
 324              		.loc 2 26 41 is_stmt 1
 325              		.cfi_startproc
 326              	.LVL18:
 327 0158 130101FF 		addi	sp,sp,-16
 328              		.cfi_def_cfa_offset 16
 329 015c 23341100 		sd	ra,8(sp)
 330 0160 23308100 		sd	s0,0(sp)
 331              		.cfi_offset 1, -8
 332              		.cfi_offset 8, -16
 333 0164 13040101 		addi	s0,sp,16
 334              		.cfi_def_cfa 8, 0
  27:src/syscall_cpp.cpp **** }
 335              		.loc 2 27 5
  27:src/syscall_cpp.cpp **** }
 336              		.loc 2 27 38 is_stmt 0
 337 0168 97000000 		call	_ZN15MemoryAllocator9mem_allocEm@plt
 337      E7800000 
 338              	.LVL19:
  28:src/syscall_cpp.cpp **** 
 339              		.loc 2 28 1
 340 0170 83308100 		ld	ra,8(sp)
 341              		.cfi_restore 1
 342 0174 03340100 		ld	s0,0(sp)
 343              		.cfi_restore 8
 344              		.cfi_def_cfa 2, 16
 345 0178 13010101 		addi	sp,sp,16
 346              		.cfi_def_cfa_offset 0
 347 017c 67800000 		jr	ra
 348              		.cfi_endproc
 349              	.LFE23:
 351              		.align	2
 352              		.globl	_ZN6ThreaddlEPv
 354              	_ZN6ThreaddlEPv:
 355              	.LFB24:
  30:src/syscall_cpp.cpp ****     MemoryAllocator::mem_free(memSegment);
 356              		.loc 2 30 48 is_stmt 1
 357              		.cfi_startproc
 358              	.LVL20:
GAS LISTING /tmp/ccsjNwek.s 			page 9


 359 0180 130101FF 		addi	sp,sp,-16
 360              		.cfi_def_cfa_offset 16
 361 0184 23341100 		sd	ra,8(sp)
 362 0188 23308100 		sd	s0,0(sp)
 363              		.cfi_offset 1, -8
 364              		.cfi_offset 8, -16
 365 018c 13040101 		addi	s0,sp,16
 366              		.cfi_def_cfa 8, 0
  31:src/syscall_cpp.cpp **** }
 367              		.loc 2 31 5
  31:src/syscall_cpp.cpp **** }
 368              		.loc 2 31 30 is_stmt 0
 369 0190 97000000 		call	_ZN15MemoryAllocator8mem_freeEPv@plt
 369      E7800000 
 370              	.LVL21:
  32:src/syscall_cpp.cpp **** 
 371              		.loc 2 32 1
 372 0198 83308100 		ld	ra,8(sp)
 373              		.cfi_restore 1
 374 019c 03340100 		ld	s0,0(sp)
 375              		.cfi_restore 8
 376              		.cfi_def_cfa 2, 16
 377 01a0 13010101 		addi	sp,sp,16
 378              		.cfi_def_cfa_offset 0
 379 01a4 67800000 		jr	ra
 380              		.cfi_endproc
 381              	.LFE24:
 383              		.align	2
 384              		.globl	_ZN6ThreadD0Ev
 386              	_ZN6ThreadD0Ev:
 387              	.LFB22:
  22:src/syscall_cpp.cpp ****     delete myHandle;
 388              		.loc 2 22 1 is_stmt 1
 389              		.cfi_startproc
 390              	.LVL22:
 391 01a8 130101FE 		addi	sp,sp,-32
 392              		.cfi_def_cfa_offset 32
 393 01ac 233C1100 		sd	ra,24(sp)
 394 01b0 23388100 		sd	s0,16(sp)
 395 01b4 23349100 		sd	s1,8(sp)
 396              		.cfi_offset 1, -8
 397              		.cfi_offset 8, -16
 398              		.cfi_offset 9, -24
 399 01b8 13040102 		addi	s0,sp,32
 400              		.cfi_def_cfa 8, 0
 401 01bc 93040500 		mv	s1,a0
  24:src/syscall_cpp.cpp **** 
 402              		.loc 2 24 1 is_stmt 0
 403 01c0 97000000 		call	_ZN6ThreadD1Ev
 403      E7800000 
 404              	.LVL23:
 405 01c8 13850400 		mv	a0,s1
 406 01cc 97000000 		call	_ZN6ThreaddlEPv
 406      E7800000 
 407              	.LVL24:
 408 01d4 83308101 		ld	ra,24(sp)
 409              		.cfi_restore 1
GAS LISTING /tmp/ccsjNwek.s 			page 10


 410 01d8 03340101 		ld	s0,16(sp)
 411              		.cfi_restore 8
 412              		.cfi_def_cfa 2, 32
 413 01dc 83348100 		ld	s1,8(sp)
 414              		.cfi_restore 9
 415              	.LVL25:
 416 01e0 13010102 		addi	sp,sp,32
 417              		.cfi_def_cfa_offset 0
 418 01e4 67800000 		jr	ra
 419              		.cfi_endproc
 420              	.LFE22:
 422              		.align	2
 423              		.globl	_ZN6Thread8dispatchEv
 425              	_ZN6Thread8dispatchEv:
 426              	.LFB25:
  34:src/syscall_cpp.cpp ****     thread_dispatch();
 427              		.loc 2 34 25 is_stmt 1
 428              		.cfi_startproc
 429 01e8 130101FF 		addi	sp,sp,-16
 430              		.cfi_def_cfa_offset 16
 431 01ec 23341100 		sd	ra,8(sp)
 432 01f0 23308100 		sd	s0,0(sp)
 433              		.cfi_offset 1, -8
 434              		.cfi_offset 8, -16
 435 01f4 13040101 		addi	s0,sp,16
 436              		.cfi_def_cfa 8, 0
  35:src/syscall_cpp.cpp **** }
 437              		.loc 2 35 5
  35:src/syscall_cpp.cpp **** }
 438              		.loc 2 35 20 is_stmt 0
 439 01f8 97000000 		call	_Z15thread_dispatchv@plt
 439      E7800000 
 440              	.LVL26:
  36:src/syscall_cpp.cpp **** 
 441              		.loc 2 36 1
 442 0200 83308100 		ld	ra,8(sp)
 443              		.cfi_restore 1
 444 0204 03340100 		ld	s0,0(sp)
 445              		.cfi_restore 8
 446              		.cfi_def_cfa 2, 16
 447 0208 13010101 		addi	sp,sp,16
 448              		.cfi_def_cfa_offset 0
 449 020c 67800000 		jr	ra
 450              		.cfi_endproc
 451              	.LFE25:
 453              		.align	2
 454              		.globl	_ZN6Thread5startEv
 456              	_ZN6Thread5startEv:
 457              	.LFB26:
  38:src/syscall_cpp.cpp ****     thread_start(&myHandle);
 458              		.loc 2 38 21 is_stmt 1
 459              		.cfi_startproc
 460              	.LVL27:
 461 0210 130101FF 		addi	sp,sp,-16
 462              		.cfi_def_cfa_offset 16
 463 0214 23341100 		sd	ra,8(sp)
 464 0218 23308100 		sd	s0,0(sp)
GAS LISTING /tmp/ccsjNwek.s 			page 11


 465              		.cfi_offset 1, -8
 466              		.cfi_offset 8, -16
 467 021c 13040101 		addi	s0,sp,16
 468              		.cfi_def_cfa 8, 0
  39:src/syscall_cpp.cpp ****     return 0;
 469              		.loc 2 39 5
  39:src/syscall_cpp.cpp ****     return 0;
 470              		.loc 2 39 17 is_stmt 0
 471 0220 13058500 		addi	a0,a0,8
 472              	.LVL28:
 473 0224 97000000 		call	_Z12thread_startPP3PCB@plt
 473      E7800000 
 474              	.LVL29:
  40:src/syscall_cpp.cpp **** }
 475              		.loc 2 40 5 is_stmt 1
  41:src/syscall_cpp.cpp **** 
 476              		.loc 2 41 1 is_stmt 0
 477 022c 13050000 		li	a0,0
 478 0230 83308100 		ld	ra,8(sp)
 479              		.cfi_restore 1
 480 0234 03340100 		ld	s0,0(sp)
 481              		.cfi_restore 8
 482              		.cfi_def_cfa 2, 16
 483 0238 13010101 		addi	sp,sp,16
 484              		.cfi_def_cfa_offset 0
 485 023c 67800000 		jr	ra
 486              		.cfi_endproc
 487              	.LFE26:
 489              		.align	2
 490              		.globl	_ZN6ThreadC2Ev
 492              	_ZN6ThreadC2Ev:
 493              	.LFB28:
  44:src/syscall_cpp.cpp ****     thread_create_only(&myHandle, threadWrapper, this);
 494              		.loc 2 44 1 is_stmt 1
 495              		.cfi_startproc
 496              	.LVL30:
 497 0240 130101FF 		addi	sp,sp,-16
 498              		.cfi_def_cfa_offset 16
 499 0244 23341100 		sd	ra,8(sp)
 500 0248 23308100 		sd	s0,0(sp)
 501              		.cfi_offset 1, -8
 502              		.cfi_offset 8, -16
 503 024c 13040101 		addi	s0,sp,16
 504              		.cfi_def_cfa 8, 0
 505              	.LBB4:
  44:src/syscall_cpp.cpp ****     thread_create_only(&myHandle, threadWrapper, this);
 506              		.loc 2 44 16 is_stmt 0
 507 0250 97070000 		lla	a5,_ZTV6Thread+16
 507      93870700 
 508 0258 2330F500 		sd	a5,0(a0)
  45:src/syscall_cpp.cpp **** }
 509              		.loc 2 45 5 is_stmt 1
  45:src/syscall_cpp.cpp **** }
 510              		.loc 2 45 23 is_stmt 0
 511 025c 13060500 		mv	a2,a0
 512 0260 97050000 		lla	a1,_Z13threadWrapperPv
 512      93850500 
GAS LISTING /tmp/ccsjNwek.s 			page 12


 513 0268 13058500 		addi	a0,a0,8
 514              	.LVL31:
 515 026c 97000000 		call	_Z18thread_create_onlyPP3PCBPFvPvES2_@plt
 515      E7800000 
 516              	.LVL32:
 517              	.LBE4:
  46:src/syscall_cpp.cpp **** 
 518              		.loc 2 46 1
 519 0274 83308100 		ld	ra,8(sp)
 520              		.cfi_restore 1
 521 0278 03340100 		ld	s0,0(sp)
 522              		.cfi_restore 8
 523              		.cfi_def_cfa 2, 16
 524 027c 13010101 		addi	sp,sp,16
 525              		.cfi_def_cfa_offset 0
 526 0280 67800000 		jr	ra
 527              		.cfi_endproc
 528              	.LFE28:
 530              		.globl	_ZN6ThreadC1Ev
 531              		.set	_ZN6ThreadC1Ev,_ZN6ThreadC2Ev
 532              		.weak	_ZTV6Thread
 533              		.section	.data.rel.ro.local._ZTV6Thread,"awG",@progbits,_ZTV6Thread,comdat
 534              		.align	3
 537              	_ZTV6Thread:
 538 0000 00000000 		.dword	0
 538      00000000 
 539 0008 00000000 		.dword	0
 539      00000000 
 540 0010 00000000 		.dword	_ZN6ThreadD1Ev
 540      00000000 
 541 0018 00000000 		.dword	_ZN6ThreadD0Ev
 541      00000000 
 542 0020 00000000 		.dword	_ZN6Thread3runEv
 542      00000000 
 543              		.text
 544              	.Letext0:
 545              		.file 3 "src/../h/hw.h"
 546              		.file 4 "src/../h/syscall_c.h"
 547              		.file 5 "src/../h/PCB.h"
 548              		.file 6 "src/../h/MemoryAllocator.h"
 3330              		.align	3
 3333              	DW.ref.__gxx_personality_v0:
 3334 0000 00000000 		.dword	__gxx_personality_v0
 3334      00000000 
 3335              		.ident	"GCC: (Ubuntu 9.4.0-1ubuntu1~20.04) 9.4.0"
 3336              		.section	.note.GNU-stack,"",@progbits
GAS LISTING /tmp/ccsjNwek.s 			page 13


DEFINED SYMBOLS
                            *ABS*:0000000000000000 syscall_cpp.cpp
     /tmp/ccsjNwek.s:10     .text._ZN6Thread3runEv:0000000000000000 _ZN6Thread3runEv
     /tmp/ccsjNwek.s:14     .text._ZN6Thread3runEv:0000000000000000 .L0 
     /tmp/ccsjNwek.s:16     .text._ZN6Thread3runEv:0000000000000000 .L0 
     /tmp/ccsjNwek.s:17     .text._ZN6Thread3runEv:0000000000000004 .L0 
     /tmp/ccsjNwek.s:19     .text._ZN6Thread3runEv:0000000000000008 .L0 
     /tmp/ccsjNwek.s:21     .text._ZN6Thread3runEv:000000000000000c .L0 
     /tmp/ccsjNwek.s:23     .text._ZN6Thread3runEv:000000000000000c .L0 
     /tmp/ccsjNwek.s:24     .text._ZN6Thread3runEv:0000000000000010 .L0 
     /tmp/ccsjNwek.s:25     .text._ZN6Thread3runEv:0000000000000010 .L0 
     /tmp/ccsjNwek.s:27     .text._ZN6Thread3runEv:0000000000000014 .L0 
     /tmp/ccsjNwek.s:29     .text._ZN6Thread3runEv:0000000000000018 .L0 
     /tmp/ccsjNwek.s:36     .text:0000000000000000 _Z13threadWrapperPv
     /tmp/ccsjNwek.s:40     .text:0000000000000000 .L0 
     /tmp/ccsjNwek.s:42     .text:0000000000000000 .L0 
     /tmp/ccsjNwek.s:43     .text:0000000000000004 .L0 
     /tmp/ccsjNwek.s:46     .text:000000000000000c .L0 
     /tmp/ccsjNwek.s:47     .text:000000000000000c .L0 
     /tmp/ccsjNwek.s:49     .text:0000000000000010 .L0 
     /tmp/ccsjNwek.s:51     .text:0000000000000010 .L0 
     /tmp/ccsjNwek.s:52     .text:0000000000000010 .L0 
     /tmp/ccsjNwek.s:55     .text:0000000000000018 .L0 
     /tmp/ccsjNwek.s:58     .text:000000000000001c .L0 
     /tmp/ccsjNwek.s:59     .text:0000000000000020 .L0 
     /tmp/ccsjNwek.s:61     .text:0000000000000024 .L0 
     /tmp/ccsjNwek.s:62     .text:0000000000000024 .L0 
     /tmp/ccsjNwek.s:64     .text:0000000000000028 .L0 
     /tmp/ccsjNwek.s:66     .text:000000000000002c .L0 
     /tmp/ccsjNwek.s:72     .text:000000000000002c _ZN6ThreadD2Ev
     /tmp/ccsjNwek.s:75     .text:000000000000002c .L0 
     /tmp/ccsjNwek.s:3333   .data.rel.local.DW.ref.__gxx_personality_v0:0000000000000000 DW.ref.__gxx_personality_v0
     /tmp/ccsjNwek.s:79     .text:000000000000002c .L0 
     /tmp/ccsjNwek.s:80     .text:0000000000000030 .L0 
     /tmp/ccsjNwek.s:84     .text:000000000000003c .L0 
     /tmp/ccsjNwek.s:85     .text:000000000000003c .L0 
     /tmp/ccsjNwek.s:86     .text:000000000000003c .L0 
     /tmp/ccsjNwek.s:88     .text:0000000000000040 .L0 
     /tmp/ccsjNwek.s:537    .data.rel.ro.local._ZTV6Thread:0000000000000000 _ZTV6Thread
     /tmp/ccsjNwek.s:91     .text:0000000000000040 .L0 
     /tmp/ccsjNwek.s:94     .text:000000000000004c .L0 
     /tmp/ccsjNwek.s:95     .text:000000000000004c .L0 
     /tmp/ccsjNwek.s:97     .text:0000000000000050 .L0 
     /tmp/ccsjNwek.s:99     .text:0000000000000054 .L0 
     /tmp/ccsjNwek.s:109    .text:000000000000006c .L0 
     /tmp/ccsjNwek.s:110    .text:0000000000000070 .L0 
     /tmp/ccsjNwek.s:112    .text:0000000000000074 .L0 
     /tmp/ccsjNwek.s:113    .text:0000000000000074 .L0 
     /tmp/ccsjNwek.s:115    .text:0000000000000078 .L0 
     /tmp/ccsjNwek.s:117    .text:000000000000007c .L0 
     /tmp/ccsjNwek.s:119    .text:0000000000000080 .L0 
     /tmp/ccsjNwek.s:72     .text:000000000000002c _ZN6ThreadD1Ev
     /tmp/ccsjNwek.s:135    .text:0000000000000080 _Znwm
     /tmp/ccsjNwek.s:138    .text:0000000000000080 .L0 
     /tmp/ccsjNwek.s:140    .text:0000000000000080 .L0 
     /tmp/ccsjNwek.s:141    .text:0000000000000084 .L0 
     /tmp/ccsjNwek.s:144    .text:000000000000008c .L0 
GAS LISTING /tmp/ccsjNwek.s 			page 14


     /tmp/ccsjNwek.s:145    .text:000000000000008c .L0 
     /tmp/ccsjNwek.s:147    .text:0000000000000090 .L0 
     /tmp/ccsjNwek.s:149    .text:0000000000000090 .L0 
     /tmp/ccsjNwek.s:150    .text:0000000000000090 .L0 
     /tmp/ccsjNwek.s:153    .text:0000000000000098 .L0 
     /tmp/ccsjNwek.s:154    .text:000000000000009c .L0 
     /tmp/ccsjNwek.s:156    .text:00000000000000a0 .L0 
     /tmp/ccsjNwek.s:157    .text:00000000000000a0 .L0 
     /tmp/ccsjNwek.s:159    .text:00000000000000a4 .L0 
     /tmp/ccsjNwek.s:161    .text:00000000000000a8 .L0 
     /tmp/ccsjNwek.s:167    .text:00000000000000a8 _Znam
     /tmp/ccsjNwek.s:170    .text:00000000000000a8 .L0 
     /tmp/ccsjNwek.s:172    .text:00000000000000a8 .L0 
     /tmp/ccsjNwek.s:173    .text:00000000000000ac .L0 
     /tmp/ccsjNwek.s:176    .text:00000000000000b4 .L0 
     /tmp/ccsjNwek.s:177    .text:00000000000000b4 .L0 
     /tmp/ccsjNwek.s:179    .text:00000000000000b8 .L0 
     /tmp/ccsjNwek.s:181    .text:00000000000000b8 .L0 
     /tmp/ccsjNwek.s:182    .text:00000000000000b8 .L0 
     /tmp/ccsjNwek.s:185    .text:00000000000000c0 .L0 
     /tmp/ccsjNwek.s:186    .text:00000000000000c4 .L0 
     /tmp/ccsjNwek.s:188    .text:00000000000000c8 .L0 
     /tmp/ccsjNwek.s:189    .text:00000000000000c8 .L0 
     /tmp/ccsjNwek.s:191    .text:00000000000000cc .L0 
     /tmp/ccsjNwek.s:193    .text:00000000000000d0 .L0 
     /tmp/ccsjNwek.s:199    .text:00000000000000d0 _ZdlPv
     /tmp/ccsjNwek.s:202    .text:00000000000000d0 .L0 
     /tmp/ccsjNwek.s:206    .text:00000000000000d0 .L0 
     /tmp/ccsjNwek.s:207    .text:00000000000000d4 .L0 
     /tmp/ccsjNwek.s:210    .text:00000000000000dc .L0 
     /tmp/ccsjNwek.s:211    .text:00000000000000dc .L0 
     /tmp/ccsjNwek.s:213    .text:00000000000000e0 .L0 
     /tmp/ccsjNwek.s:215    .text:00000000000000e0 .L0 
     /tmp/ccsjNwek.s:216    .text:00000000000000e0 .L0 
     /tmp/ccsjNwek.s:219    .text:00000000000000e8 .L0 
     /tmp/ccsjNwek.s:220    .text:00000000000000ec .L0 
     /tmp/ccsjNwek.s:222    .text:00000000000000f0 .L0 
     /tmp/ccsjNwek.s:223    .text:00000000000000f0 .L0 
     /tmp/ccsjNwek.s:225    .text:00000000000000f4 .L0 
     /tmp/ccsjNwek.s:227    .text:00000000000000f8 .L0 
     /tmp/ccsjNwek.s:240    .text:00000000000000f8 _ZdaPv
     /tmp/ccsjNwek.s:243    .text:00000000000000f8 .L0 
     /tmp/ccsjNwek.s:247    .text:00000000000000f8 .L0 
     /tmp/ccsjNwek.s:248    .text:00000000000000fc .L0 
     /tmp/ccsjNwek.s:251    .text:0000000000000104 .L0 
     /tmp/ccsjNwek.s:252    .text:0000000000000104 .L0 
     /tmp/ccsjNwek.s:254    .text:0000000000000108 .L0 
     /tmp/ccsjNwek.s:256    .text:0000000000000108 .L0 
     /tmp/ccsjNwek.s:257    .text:0000000000000108 .L0 
     /tmp/ccsjNwek.s:260    .text:0000000000000110 .L0 
     /tmp/ccsjNwek.s:261    .text:0000000000000114 .L0 
     /tmp/ccsjNwek.s:263    .text:0000000000000118 .L0 
     /tmp/ccsjNwek.s:264    .text:0000000000000118 .L0 
     /tmp/ccsjNwek.s:266    .text:000000000000011c .L0 
     /tmp/ccsjNwek.s:268    .text:0000000000000120 .L0 
     /tmp/ccsjNwek.s:281    .text:0000000000000120 _ZN6ThreadC2EPFvPvES0_
     /tmp/ccsjNwek.s:284    .text:0000000000000120 .L0 
GAS LISTING /tmp/ccsjNwek.s 			page 15


     /tmp/ccsjNwek.s:286    .text:0000000000000120 .L0 
     /tmp/ccsjNwek.s:287    .text:0000000000000124 .L0 
     /tmp/ccsjNwek.s:290    .text:000000000000012c .L0 
     /tmp/ccsjNwek.s:291    .text:000000000000012c .L0 
     /tmp/ccsjNwek.s:293    .text:0000000000000130 .L0 
     /tmp/ccsjNwek.s:296    .text:0000000000000130 .L0 
     /tmp/ccsjNwek.s:299    .text:000000000000013c .L0 
     /tmp/ccsjNwek.s:300    .text:000000000000013c .L0 
     /tmp/ccsjNwek.s:306    .text:0000000000000148 .L0 
     /tmp/ccsjNwek.s:307    .text:000000000000014c .L0 
     /tmp/ccsjNwek.s:309    .text:0000000000000150 .L0 
     /tmp/ccsjNwek.s:310    .text:0000000000000150 .L0 
     /tmp/ccsjNwek.s:312    .text:0000000000000154 .L0 
     /tmp/ccsjNwek.s:314    .text:0000000000000158 .L0 
     /tmp/ccsjNwek.s:281    .text:0000000000000120 _ZN6ThreadC1EPFvPvES0_
     /tmp/ccsjNwek.s:322    .text:0000000000000158 _ZN6ThreadnwEm
     /tmp/ccsjNwek.s:325    .text:0000000000000158 .L0 
     /tmp/ccsjNwek.s:327    .text:0000000000000158 .L0 
     /tmp/ccsjNwek.s:328    .text:000000000000015c .L0 
     /tmp/ccsjNwek.s:331    .text:0000000000000164 .L0 
     /tmp/ccsjNwek.s:332    .text:0000000000000164 .L0 
     /tmp/ccsjNwek.s:334    .text:0000000000000168 .L0 
     /tmp/ccsjNwek.s:336    .text:0000000000000168 .L0 
     /tmp/ccsjNwek.s:337    .text:0000000000000168 .L0 
     /tmp/ccsjNwek.s:340    .text:0000000000000170 .L0 
     /tmp/ccsjNwek.s:341    .text:0000000000000174 .L0 
     /tmp/ccsjNwek.s:343    .text:0000000000000178 .L0 
     /tmp/ccsjNwek.s:344    .text:0000000000000178 .L0 
     /tmp/ccsjNwek.s:346    .text:000000000000017c .L0 
     /tmp/ccsjNwek.s:348    .text:0000000000000180 .L0 
     /tmp/ccsjNwek.s:354    .text:0000000000000180 _ZN6ThreaddlEPv
     /tmp/ccsjNwek.s:357    .text:0000000000000180 .L0 
     /tmp/ccsjNwek.s:359    .text:0000000000000180 .L0 
     /tmp/ccsjNwek.s:360    .text:0000000000000184 .L0 
     /tmp/ccsjNwek.s:363    .text:000000000000018c .L0 
     /tmp/ccsjNwek.s:364    .text:000000000000018c .L0 
     /tmp/ccsjNwek.s:366    .text:0000000000000190 .L0 
     /tmp/ccsjNwek.s:368    .text:0000000000000190 .L0 
     /tmp/ccsjNwek.s:369    .text:0000000000000190 .L0 
     /tmp/ccsjNwek.s:372    .text:0000000000000198 .L0 
     /tmp/ccsjNwek.s:373    .text:000000000000019c .L0 
     /tmp/ccsjNwek.s:375    .text:00000000000001a0 .L0 
     /tmp/ccsjNwek.s:376    .text:00000000000001a0 .L0 
     /tmp/ccsjNwek.s:378    .text:00000000000001a4 .L0 
     /tmp/ccsjNwek.s:380    .text:00000000000001a8 .L0 
     /tmp/ccsjNwek.s:386    .text:00000000000001a8 _ZN6ThreadD0Ev
     /tmp/ccsjNwek.s:389    .text:00000000000001a8 .L0 
     /tmp/ccsjNwek.s:391    .text:00000000000001a8 .L0 
     /tmp/ccsjNwek.s:392    .text:00000000000001ac .L0 
     /tmp/ccsjNwek.s:396    .text:00000000000001b8 .L0 
     /tmp/ccsjNwek.s:397    .text:00000000000001b8 .L0 
     /tmp/ccsjNwek.s:398    .text:00000000000001b8 .L0 
     /tmp/ccsjNwek.s:400    .text:00000000000001bc .L0 
     /tmp/ccsjNwek.s:403    .text:00000000000001c0 .L0 
     /tmp/ccsjNwek.s:409    .text:00000000000001d8 .L0 
     /tmp/ccsjNwek.s:411    .text:00000000000001dc .L0 
     /tmp/ccsjNwek.s:412    .text:00000000000001dc .L0 
GAS LISTING /tmp/ccsjNwek.s 			page 16


     /tmp/ccsjNwek.s:414    .text:00000000000001e0 .L0 
     /tmp/ccsjNwek.s:417    .text:00000000000001e4 .L0 
     /tmp/ccsjNwek.s:419    .text:00000000000001e8 .L0 
     /tmp/ccsjNwek.s:425    .text:00000000000001e8 _ZN6Thread8dispatchEv
     /tmp/ccsjNwek.s:428    .text:00000000000001e8 .L0 
     /tmp/ccsjNwek.s:429    .text:00000000000001e8 .L0 
     /tmp/ccsjNwek.s:430    .text:00000000000001ec .L0 
     /tmp/ccsjNwek.s:433    .text:00000000000001f4 .L0 
     /tmp/ccsjNwek.s:434    .text:00000000000001f4 .L0 
     /tmp/ccsjNwek.s:436    .text:00000000000001f8 .L0 
     /tmp/ccsjNwek.s:438    .text:00000000000001f8 .L0 
     /tmp/ccsjNwek.s:439    .text:00000000000001f8 .L0 
     /tmp/ccsjNwek.s:442    .text:0000000000000200 .L0 
     /tmp/ccsjNwek.s:443    .text:0000000000000204 .L0 
     /tmp/ccsjNwek.s:445    .text:0000000000000208 .L0 
     /tmp/ccsjNwek.s:446    .text:0000000000000208 .L0 
     /tmp/ccsjNwek.s:448    .text:000000000000020c .L0 
     /tmp/ccsjNwek.s:450    .text:0000000000000210 .L0 
     /tmp/ccsjNwek.s:456    .text:0000000000000210 _ZN6Thread5startEv
     /tmp/ccsjNwek.s:459    .text:0000000000000210 .L0 
     /tmp/ccsjNwek.s:461    .text:0000000000000210 .L0 
     /tmp/ccsjNwek.s:462    .text:0000000000000214 .L0 
     /tmp/ccsjNwek.s:465    .text:000000000000021c .L0 
     /tmp/ccsjNwek.s:466    .text:000000000000021c .L0 
     /tmp/ccsjNwek.s:468    .text:0000000000000220 .L0 
     /tmp/ccsjNwek.s:470    .text:0000000000000220 .L0 
     /tmp/ccsjNwek.s:471    .text:0000000000000220 .L0 
     /tmp/ccsjNwek.s:476    .text:000000000000022c .L0 
     /tmp/ccsjNwek.s:477    .text:000000000000022c .L0 
     /tmp/ccsjNwek.s:479    .text:0000000000000234 .L0 
     /tmp/ccsjNwek.s:481    .text:0000000000000238 .L0 
     /tmp/ccsjNwek.s:482    .text:0000000000000238 .L0 
     /tmp/ccsjNwek.s:484    .text:000000000000023c .L0 
     /tmp/ccsjNwek.s:486    .text:0000000000000240 .L0 
     /tmp/ccsjNwek.s:492    .text:0000000000000240 _ZN6ThreadC2Ev
     /tmp/ccsjNwek.s:495    .text:0000000000000240 .L0 
     /tmp/ccsjNwek.s:497    .text:0000000000000240 .L0 
     /tmp/ccsjNwek.s:498    .text:0000000000000244 .L0 
     /tmp/ccsjNwek.s:501    .text:000000000000024c .L0 
     /tmp/ccsjNwek.s:502    .text:000000000000024c .L0 
     /tmp/ccsjNwek.s:504    .text:0000000000000250 .L0 
     /tmp/ccsjNwek.s:507    .text:0000000000000250 .L0 
     /tmp/ccsjNwek.s:510    .text:000000000000025c .L0 
     /tmp/ccsjNwek.s:511    .text:000000000000025c .L0 
     /tmp/ccsjNwek.s:519    .text:0000000000000274 .L0 
     /tmp/ccsjNwek.s:520    .text:0000000000000278 .L0 
     /tmp/ccsjNwek.s:522    .text:000000000000027c .L0 
     /tmp/ccsjNwek.s:523    .text:000000000000027c .L0 
     /tmp/ccsjNwek.s:525    .text:0000000000000280 .L0 
     /tmp/ccsjNwek.s:527    .text:0000000000000284 .L0 
     /tmp/ccsjNwek.s:492    .text:0000000000000240 _ZN6ThreadC1Ev
     /tmp/ccsjNwek.s:32     .text._ZN6Thread3runEv:0000000000000018 .L0 
     /tmp/ccsjNwek.s:549    .text:0000000000000284 .L0 
     /tmp/ccsjNwek.s:91     .text:0000000000000040 .L0 
     /tmp/ccsjNwek.s:296    .text:0000000000000130 .L0 
     /tmp/ccsjNwek.s:507    .text:0000000000000250 .L0 
     /tmp/ccsjNwek.s:512    .text:0000000000000260 .L0 
GAS LISTING /tmp/ccsjNwek.s 			page 17


     /tmp/ccsjNwek.s:106    .text:000000000000006c .L5
     /tmp/ccsjNwek.s:1775   .debug_abbrev:0000000000000000 .Ldebug_abbrev0
     /tmp/ccsjNwek.s:3285   .debug_str:0000000000000679 .LASF114
     /tmp/ccsjNwek.s:3261   .debug_str:00000000000005e6 .LASF115
     /tmp/ccsjNwek.s:3311   .debug_str:000000000000081b .LASF116
     /tmp/ccsjNwek.s:3063   .debug_ranges:0000000000000000 .Ldebug_ranges0
     /tmp/ccsjNwek.s:3071   .debug_line:0000000000000000 .Ldebug_line0
     /tmp/ccsjNwek.s:3213   .debug_str:00000000000004aa .LASF0
     /tmp/ccsjNwek.s:3225   .debug_str:0000000000000504 .LASF1
     /tmp/ccsjNwek.s:3197   .debug_str:0000000000000402 .LASF2
     /tmp/ccsjNwek.s:3171   .debug_str:000000000000030a .LASF4
     /tmp/ccsjNwek.s:3271   .debug_str:0000000000000623 .LASF3
     /tmp/ccsjNwek.s:3093   .debug_str:000000000000009a .LASF5
     /tmp/ccsjNwek.s:3125   .debug_str:0000000000000183 .LASF6
     /tmp/ccsjNwek.s:3229   .debug_str:0000000000000529 .LASF7
     /tmp/ccsjNwek.s:3211   .debug_str:0000000000000497 .LASF8
     /tmp/ccsjNwek.s:3295   .debug_str:000000000000077b .LASF9
     /tmp/ccsjNwek.s:3157   .debug_str:000000000000029d .LASF10
     /tmp/ccsjNwek.s:3243   .debug_str:000000000000057c .LASF11
     /tmp/ccsjNwek.s:3287   .debug_str:000000000000073d .LASF12
     /tmp/ccsjNwek.s:3095   .debug_str:00000000000000a1 .LASF13
     /tmp/ccsjNwek.s:3079   .debug_str:0000000000000039 .LASF14
     /tmp/ccsjNwek.s:3103   .debug_str:00000000000000d8 .LASF15
     /tmp/ccsjNwek.s:3265   .debug_str:0000000000000600 .LASF16
     /tmp/ccsjNwek.s:3115   .debug_str:0000000000000127 .LASF17
     /tmp/ccsjNwek.s:3073   .debug_str:0000000000000000 .LASF18
     /tmp/ccsjNwek.s:3231   .debug_str:000000000000053c .LASF19
     /tmp/ccsjNwek.s:3235   .debug_str:000000000000054e .LASF21
     /tmp/ccsjNwek.s:3255   .debug_str:00000000000005c9 .LASF20
     /tmp/ccsjNwek.s:3137   .debug_str:00000000000001e5 .LASF22
     /tmp/ccsjNwek.s:3149   .debug_str:000000000000024a .LASF23
     /tmp/ccsjNwek.s:3315   .debug_str:0000000000000848 .LASF25
     /tmp/ccsjNwek.s:3241   .debug_str:0000000000000570 .LASF117
     /tmp/ccsjNwek.s:3263   .debug_str:00000000000005fa .LASF80
     /tmp/ccsjNwek.s:3299   .debug_str:000000000000079b .LASF81
     /tmp/ccsjNwek.s:3139   .debug_str:0000000000000204 .LASF65
     /tmp/ccsjNwek.s:3257   .debug_str:00000000000005dc .LASF24
     /tmp/ccsjNwek.s:3207   .debug_str:0000000000000465 .LASF26
     /tmp/ccsjNwek.s:3309   .debug_str:000000000000080e .LASF27
     /tmp/ccsjNwek.s:3173   .debug_str:0000000000000311 .LASF28
     /tmp/ccsjNwek.s:3279   .debug_str:0000000000000657 .LASF29
     /tmp/ccsjNwek.s:3281   .debug_str:0000000000000667 .LASF63
     /tmp/ccsjNwek.s:3101   .debug_str:00000000000000cd .LASF118
     /tmp/ccsjNwek.s:3129   .debug_str:0000000000000198 .LASF119
     /tmp/ccsjNwek.s:3087   .debug_str:0000000000000070 .LASF120
     /tmp/ccsjNwek.s:3199   .debug_str:0000000000000410 .LASF30
     /tmp/ccsjNwek.s:3217   .debug_str:00000000000004c0 .LASF31
     /tmp/ccsjNwek.s:3289   .debug_str:000000000000074c .LASF32
     /tmp/ccsjNwek.s:3107   .debug_str:00000000000000f4 .LASF33
     /tmp/ccsjNwek.s:3237   .debug_str:0000000000000565 .LASF34
     /tmp/ccsjNwek.s:3177   .debug_str:0000000000000330 .LASF35
     /tmp/ccsjNwek.s:3075   .debug_str:0000000000000009 .LASF36
     /tmp/ccsjNwek.s:3113   .debug_str:000000000000011c .LASF37
     /tmp/ccsjNwek.s:3131   .debug_str:00000000000001ae .LASF38
     /tmp/ccsjNwek.s:3219   .debug_str:00000000000004c6 .LASF39
     /tmp/ccsjNwek.s:3273   .debug_str:0000000000000635 .LASF67
     /tmp/ccsjNwek.s:3215   .debug_str:00000000000004b7 .LASF45
GAS LISTING /tmp/ccsjNwek.s 			page 18


     /tmp/ccsjNwek.s:3167   .debug_str:00000000000002e0 .LASF47
     /tmp/ccsjNwek.s:3091   .debug_str:000000000000008b .LASF40
     /tmp/ccsjNwek.s:3307   .debug_str:00000000000007f0 .LASF42
     /tmp/ccsjNwek.s:3099   .debug_str:00000000000000be .LASF41
     /tmp/ccsjNwek.s:3191   .debug_str:00000000000003c7 .LASF43
     /tmp/ccsjNwek.s:3203   .debug_str:0000000000000440 .LASF44
     /tmp/ccsjNwek.s:3109   .debug_str:00000000000000fe .LASF46
     /tmp/ccsjNwek.s:3205   .debug_str:000000000000044a .LASF48
     /tmp/ccsjNwek.s:3193   .debug_str:00000000000003e5 .LASF49
     /tmp/ccsjNwek.s:3163   .debug_str:00000000000002c5 .LASF121
     /tmp/ccsjNwek.s:3083   .debug_str:0000000000000058 .LASF50
     /tmp/ccsjNwek.s:3283   .debug_str:0000000000000674 .LASF51
     /tmp/ccsjNwek.s:3321   .debug_str:0000000000000884 .LASF52
     /tmp/ccsjNwek.s:3277   .debug_str:0000000000000650 .LASF53
     /tmp/ccsjNwek.s:3179   .debug_str:0000000000000339 .LASF54
     /tmp/ccsjNwek.s:3221   .debug_str:00000000000004d0 .LASF122
     /tmp/ccsjNwek.s:3275   .debug_str:0000000000000646 .LASF55
     /tmp/ccsjNwek.s:3303   .debug_str:00000000000007bf .LASF56
     /tmp/ccsjNwek.s:3249   .debug_str:00000000000005ac .LASF57
     /tmp/ccsjNwek.s:3155   .debug_str:000000000000027c .LASF58
     /tmp/ccsjNwek.s:3119   .debug_str:0000000000000142 .LASF59
     /tmp/ccsjNwek.s:3201   .debug_str:000000000000041b .LASF60
     /tmp/ccsjNwek.s:3183   .debug_str:0000000000000390 .LASF61
     /tmp/ccsjNwek.s:3121   .debug_str:000000000000014f .LASF62
     /tmp/ccsjNwek.s:3133   .debug_str:00000000000001bc .LASF64
     /tmp/ccsjNwek.s:3127   .debug_str:000000000000018a .LASF66
     /tmp/ccsjNwek.s:3117   .debug_str:000000000000013d .LASF68
     /tmp/ccsjNwek.s:3135   .debug_str:00000000000001d5 .LASF69
     /tmp/ccsjNwek.s:3181   .debug_str:0000000000000367 .LASF70
     /tmp/ccsjNwek.s:3165   .debug_str:00000000000002d1 .LASF71
     /tmp/ccsjNwek.s:3077   .debug_str:0000000000000011 .LASF72
     /tmp/ccsjNwek.s:3141   .debug_str:000000000000020c .LASF73
     /tmp/ccsjNwek.s:3161   .debug_str:00000000000002be .LASF74
     /tmp/ccsjNwek.s:3227   .debug_str:0000000000000517 .LASF123
     /tmp/ccsjNwek.s:3195   .debug_str:00000000000003f5 .LASF124
     /tmp/ccsjNwek.s:3251   .debug_str:00000000000005b5 .LASF75
     /tmp/ccsjNwek.s:3305   .debug_str:00000000000007e0 .LASF76
     /tmp/ccsjNwek.s:3247   .debug_str:0000000000000595 .LASF77
     /tmp/ccsjNwek.s:3089   .debug_str:0000000000000083 .LASF101
     /tmp/ccsjNwek.s:3313   .debug_str:0000000000000839 .LASF103
     /tmp/ccsjNwek.s:3223   .debug_str:00000000000004fe .LASF78
     /tmp/ccsjNwek.s:3153   .debug_str:0000000000000269 .LASF79
     /tmp/ccsjNwek.s:3147   .debug_str:0000000000000234 .LASF82
     /tmp/ccsjNwek.s:3323   .debug_str:0000000000000889 .LASF83
     /tmp/ccsjNwek.s:3159   .debug_str:00000000000002ab .LASF84
     /tmp/ccsjNwek.s:3293   .debug_str:000000000000076c .LASF85
     /tmp/ccsjNwek.s:3189   .debug_str:00000000000003b6 .LASF125
     /tmp/ccsjNwek.s:3319   .debug_str:000000000000087b .LASF86
     /tmp/ccsjNwek.s:3297   .debug_str:000000000000078b .LASF126
     /tmp/ccsjNwek.s:3185   .debug_str:000000000000039d .LASF87
     /tmp/ccsjNwek.s:3301   .debug_str:00000000000007ab .LASF88
     /tmp/ccsjNwek.s:37     .text:0000000000000000 .LFB30
     /tmp/ccsjNwek.s:67     .text:000000000000002c .LFE30
     /tmp/ccsjNwek.s:3233   .debug_str:0000000000000547 .LASF89
     /tmp/ccsjNwek.s:2832   .debug_loc:0000000000000000 .LLST0
     /tmp/ccsjNwek.s:56     .text:000000000000001c .LVL2
     /tmp/ccsjNwek.s:3253   .debug_str:00000000000005c4 .LASF91
GAS LISTING /tmp/ccsjNwek.s 			page 19


     /tmp/ccsjNwek.s:3123   .debug_str:0000000000000174 .LASF93
     /tmp/ccsjNwek.s:493    .text:0000000000000240 .LFB28
     /tmp/ccsjNwek.s:528    .text:0000000000000284 .LFE28
     /tmp/ccsjNwek.s:2846   .debug_loc:0000000000000039 .LLST13
     /tmp/ccsjNwek.s:516    .text:0000000000000274 .LVL32
     /tmp/ccsjNwek.s:457    .text:0000000000000210 .LFB26
     /tmp/ccsjNwek.s:487    .text:0000000000000240 .LFE26
     /tmp/ccsjNwek.s:2864   .debug_loc:0000000000000085 .LLST12
     /tmp/ccsjNwek.s:474    .text:000000000000022c .LVL29
     /tmp/ccsjNwek.s:426    .text:00000000000001e8 .LFB25
     /tmp/ccsjNwek.s:451    .text:0000000000000210 .LFE25
     /tmp/ccsjNwek.s:440    .text:0000000000000200 .LVL26
     /tmp/ccsjNwek.s:355    .text:0000000000000180 .LFB24
     /tmp/ccsjNwek.s:381    .text:00000000000001a8 .LFE24
     /tmp/ccsjNwek.s:3187   .debug_str:00000000000003ab .LASF90
     /tmp/ccsjNwek.s:2884   .debug_loc:00000000000000d3 .LLST10
     /tmp/ccsjNwek.s:370    .text:0000000000000198 .LVL21
     /tmp/ccsjNwek.s:323    .text:0000000000000158 .LFB23
     /tmp/ccsjNwek.s:349    .text:0000000000000180 .LFE23
     /tmp/ccsjNwek.s:2898   .debug_loc:000000000000010c .LLST9
     /tmp/ccsjNwek.s:338    .text:0000000000000170 .LVL19
     /tmp/ccsjNwek.s:3245   .debug_str:000000000000058b .LASF92
     /tmp/ccsjNwek.s:3085   .debug_str:0000000000000061 .LASF94
     /tmp/ccsjNwek.s:387    .text:00000000000001a8 .LFB22
     /tmp/ccsjNwek.s:420    .text:00000000000001e8 .LFE22
     /tmp/ccsjNwek.s:2912   .debug_loc:0000000000000145 .LLST11
     /tmp/ccsjNwek.s:404    .text:00000000000001c8 .LVL23
     /tmp/ccsjNwek.s:407    .text:00000000000001d4 .LVL24
     /tmp/ccsjNwek.s:3081   .debug_str:0000000000000049 .LASF95
     /tmp/ccsjNwek.s:73     .text:000000000000002c .LFB20
     /tmp/ccsjNwek.s:120    .text:0000000000000080 .LFE20
     /tmp/ccsjNwek.s:2930   .debug_loc:0000000000000191 .LLST1
     /tmp/ccsjNwek.s:102    .text:0000000000000060 .LVL5
     /tmp/ccsjNwek.s:105    .text:000000000000006c .LVL6
     /tmp/ccsjNwek.s:3259   .debug_str:00000000000005e1 .LASF96
     /tmp/ccsjNwek.s:3169   .debug_str:00000000000002f3 .LASF97
     /tmp/ccsjNwek.s:282    .text:0000000000000120 .LFB17
     /tmp/ccsjNwek.s:315    .text:0000000000000158 .LFE17
     /tmp/ccsjNwek.s:2944   .debug_loc:00000000000001ca .LLST6
     /tmp/ccsjNwek.s:2964   .debug_loc:0000000000000218 .LLST7
     /tmp/ccsjNwek.s:2978   .debug_loc:0000000000000251 .LLST8
     /tmp/ccsjNwek.s:303    .text:0000000000000148 .LVL17
     /tmp/ccsjNwek.s:3175   .debug_str:000000000000031d .LASF98
     /tmp/ccsjNwek.s:3269   .debug_str:000000000000061c .LASF99
     /tmp/ccsjNwek.s:241    .text:00000000000000f8 .LFB15
     /tmp/ccsjNwek.s:269    .text:0000000000000120 .LFE15
     /tmp/ccsjNwek.s:2992   .debug_loc:000000000000028a .LLST5
     /tmp/ccsjNwek.s:258    .text:0000000000000110 .LVL14
     /tmp/ccsjNwek.s:3325   .debug_str:000000000000088f .LASF100
     /tmp/ccsjNwek.s:200    .text:00000000000000d0 .LFB14
     /tmp/ccsjNwek.s:228    .text:00000000000000f8 .LFE14
     /tmp/ccsjNwek.s:3006   .debug_loc:00000000000002c3 .LLST4
     /tmp/ccsjNwek.s:217    .text:00000000000000e8 .LVL12
     /tmp/ccsjNwek.s:3151   .debug_str:0000000000000259 .LASF102
     /tmp/ccsjNwek.s:3239   .debug_str:000000000000056a .LASF104
     /tmp/ccsjNwek.s:168    .text:00000000000000a8 .LFB13
     /tmp/ccsjNwek.s:194    .text:00000000000000d0 .LFE13
GAS LISTING /tmp/ccsjNwek.s 			page 20


     /tmp/ccsjNwek.s:3020   .debug_loc:00000000000002fc .LLST3
     /tmp/ccsjNwek.s:183    .text:00000000000000c0 .LVL10
     /tmp/ccsjNwek.s:3267   .debug_str:0000000000000616 .LASF105
     /tmp/ccsjNwek.s:136    .text:0000000000000080 .LFB12
     /tmp/ccsjNwek.s:162    .text:00000000000000a8 .LFE12
     /tmp/ccsjNwek.s:3034   .debug_loc:0000000000000335 .LLST2
     /tmp/ccsjNwek.s:151    .text:0000000000000098 .LVL8
     /tmp/ccsjNwek.s:11     .text._ZN6Thread3runEv:0000000000000000 .LFB0
     /tmp/ccsjNwek.s:30     .text._ZN6Thread3runEv:0000000000000018 .LFE0
     /tmp/ccsjNwek.s:3209   .debug_str:0000000000000471 .LASF106
     /tmp/ccsjNwek.s:3317   .debug_str:0000000000000868 .LASF108
     /tmp/ccsjNwek.s:3291   .debug_str:0000000000000755 .LASF107
     /tmp/ccsjNwek.s:3097   .debug_str:00000000000000b1 .LASF109
     /tmp/ccsjNwek.s:3143   .debug_str:0000000000000211 .LASF110
     /tmp/ccsjNwek.s:3105   .debug_str:00000000000000e4 .LASF111
     /tmp/ccsjNwek.s:3145   .debug_str:0000000000000226 .LASF112
     /tmp/ccsjNwek.s:3111   .debug_str:000000000000010e .LASF113
     /tmp/ccsjNwek.s:41     .text:0000000000000000 .LVL1
     /tmp/ccsjNwek.s:496    .text:0000000000000240 .LVL30
     /tmp/ccsjNwek.s:514    .text:000000000000026c .LVL31
     /tmp/ccsjNwek.s:460    .text:0000000000000210 .LVL27
     /tmp/ccsjNwek.s:472    .text:0000000000000224 .LVL28
     /tmp/ccsjNwek.s:358    .text:0000000000000180 .LVL20
     /tmp/ccsjNwek.s:326    .text:0000000000000158 .LVL18
     /tmp/ccsjNwek.s:390    .text:00000000000001a8 .LVL22
     /tmp/ccsjNwek.s:415    .text:00000000000001e0 .LVL25
     /tmp/ccsjNwek.s:78     .text:000000000000002c .LVL3
     /tmp/ccsjNwek.s:100    .text:0000000000000058 .LVL4
     /tmp/ccsjNwek.s:285    .text:0000000000000120 .LVL15
     /tmp/ccsjNwek.s:301    .text:0000000000000140 .LVL16
     /tmp/ccsjNwek.s:246    .text:00000000000000f8 .LVL13
     /tmp/ccsjNwek.s:205    .text:00000000000000d0 .LVL11
     /tmp/ccsjNwek.s:171    .text:00000000000000a8 .LVL9
     /tmp/ccsjNwek.s:139    .text:0000000000000080 .LVL7
     /tmp/ccsjNwek.s:550    .debug_info:0000000000000000 .Ldebug_info0
     /tmp/ccsjNwek.s:5      .text:0000000000000000 .Ltext0
     /tmp/ccsjNwek.s:544    .text:0000000000000284 .Letext0
     /tmp/ccsjNwek.s:123    .gcc_except_table:0000000000000000 .LLSDA20
     /tmp/ccsjNwek.s:230    .gcc_except_table:0000000000000004 .LLSDA14
     /tmp/ccsjNwek.s:271    .gcc_except_table:0000000000000008 .LLSDA15

UNDEFINED SYMBOLS
_ZN3PCBD1Ev
_ZN3PCBdlEPv
__gxx_personality_v0
_Z9mem_allocm
_Z8mem_freePv
_Z18thread_create_onlyPP3PCBPFvPvES2_
_ZN15MemoryAllocator9mem_allocEm
_ZN15MemoryAllocator8mem_freeEPv
_Z15thread_dispatchv
_Z12thread_startPP3PCB
