GAS LISTING /tmp/ccNgl2x3.s 			page 1


   1              		.file	"syscall_c.cpp"
   2              		.option pic
   3              		.option norelax
   4              		.text
   5              	.Ltext0:
   6              		.align	2
   7              		.globl	_Z13callInterruptm
   9              	_Z13callInterruptm:
  10              	.LFB44:
  11              		.file 1 "src/syscall_c.cpp"
   1:src/syscall_c.cpp **** #include "../h/syscall_c.h"
   2:src/syscall_c.cpp **** #include "../h/MemoryAllocator.h"
   3:src/syscall_c.cpp **** #include "../h/kernel.h"
   4:src/syscall_c.cpp **** #include "../h/PCB.h"
   5:src/syscall_c.cpp **** 
   6:src/syscall_c.cpp **** extern "C" void interrupt(); // u interrupt treba dodati i cuvanje konteksta
   7:src/syscall_c.cpp **** // prelazak u sistemski rezim i prelazak na sistemsku funkciju zadatu u registru stvec(asemblerska 
   8:src/syscall_c.cpp **** void* callInterrupt(size_t volatile code) {
  12              		.loc 1 8 43
  13              		.cfi_startproc
  14              	.LVL0:
  15 0000 130101FE 		addi	sp,sp,-32
  16              		.cfi_def_cfa_offset 32
  17 0004 233C8100 		sd	s0,24(sp)
  18              		.cfi_offset 8, -8
  19 0008 13040102 		addi	s0,sp,32
  20              		.cfi_def_cfa 8, 0
  21 000c 2334A4FE 		sd	a0,-24(s0)
   9:src/syscall_c.cpp ****     void* res;
  22              		.loc 1 9 5
  10:src/syscall_c.cpp ****     asm volatile("ecall");
  23              		.loc 1 10 5
  24              		.loc 1 10 26 is_stmt 0
  25              	#APP
  26              	# 10 "src/syscall_c.cpp" 1
  11              	    asm volatile("mv %0, a0" : "=r" (res));
  27              		ecall
  28              	# 0 "" 2
  29              		.loc 1 11 5 is_stmt 1
  30              		.loc 1 11 43 is_stmt 0
  31              	# 11 "src/syscall_c.cpp" 1
  12              	    return res;
  32              		mv a0, a0
  33              	# 0 "" 2
  34              	.LVL1:
  35              		.loc 1 12 5 is_stmt 1
  13:src/syscall_c.cpp **** }
  36              		.loc 1 13 1 is_stmt 0
  37              	#NO_APP
  38 0018 03348101 		ld	s0,24(sp)
  39              		.cfi_restore 8
  40              		.cfi_def_cfa 2, 32
  41              	.LVL2:
  42 001c 13010102 		addi	sp,sp,32
  43              		.cfi_def_cfa_offset 0
  44              	.LVL3:
  45 0020 67800000 		jr	ra
GAS LISTING /tmp/ccNgl2x3.s 			page 2


  46              		.cfi_endproc
  47              	.LFE44:
  49              		.align	2
  50              		.globl	_Z9mem_allocm
  52              	_Z9mem_allocm:
  53              	.LFB45:
  14:src/syscall_c.cpp **** 
  15:src/syscall_c.cpp **** // a0 code a1 size
  16:src/syscall_c.cpp **** void* mem_alloc(size_t size) {
  54              		.loc 1 16 30 is_stmt 1
  55              		.cfi_startproc
  56              	.LVL4:
  57 0024 130101FF 		addi	sp,sp,-16
  58              		.cfi_def_cfa_offset 16
  59 0028 23341100 		sd	ra,8(sp)
  60 002c 23308100 		sd	s0,0(sp)
  61              		.cfi_offset 1, -8
  62              		.cfi_offset 8, -16
  63 0030 13040101 		addi	s0,sp,16
  64              		.cfi_def_cfa 8, 0
  17:src/syscall_c.cpp ****     size_t code = Kernel::sysCallCodes::mem_alloc; // kod sistemskog poziva
  65              		.loc 1 17 5
  66              	.LVL5:
  18:src/syscall_c.cpp ****     // size je dat u bajtovima, a mi treba da ga prebacimo u blokove i onda opet upisemo u a1
  19:src/syscall_c.cpp ****     size = MemoryAllocator::sizeInBlocks(size); // funkcija menja a0
  67              		.loc 1 19 5
  68              	.LBB4:
  69              	.LBB5:
  70              		.file 2 "src/../h/MemoryAllocator.h"
   1:src/../h/MemoryAllocator.h **** #ifndef PROJECT_BASE_MEMORYALLOCATOR_H
   2:src/../h/MemoryAllocator.h **** #define PROJECT_BASE_MEMORYALLOCATOR_H
   3:src/../h/MemoryAllocator.h **** 
   4:src/../h/MemoryAllocator.h **** #include "hw.h"
   5:src/../h/MemoryAllocator.h **** 
   6:src/../h/MemoryAllocator.h **** class MemoryAllocator {
   7:src/../h/MemoryAllocator.h **** public:
   8:src/../h/MemoryAllocator.h ****     /*
   9:src/../h/MemoryAllocator.h ****     Alocira (najmanje) size bajtova memorije, zaokruženo i poravnato na blokove veličine MEM_BLOC
  10:src/../h/MemoryAllocator.h ****     Svaki alocirani segment ima zaglavlje sa velicinom tog segmenta(vraca se adresa nakon tog zagla
  11:src/../h/MemoryAllocator.h **** 
  12:src/../h/MemoryAllocator.h ****     Vraća:
  13:src/../h/MemoryAllocator.h ****     pokazivač na alocirani deo memorije u slučaju uspeha, nullptr u slučaju neuspeha
  14:src/../h/MemoryAllocator.h **** 
  15:src/../h/MemoryAllocator.h ****     Radi se po algoritmu first fit(alociramo prvi segment koji je >= size). Ako je preostao prostor
  16:src/../h/MemoryAllocator.h ****     jednog bloka, taj preostali prostor se pridruzuje ovom koji smo sad alocirali(jer nema poente d
  17:src/../h/MemoryAllocator.h ****     */
  18:src/../h/MemoryAllocator.h ****     static void* mem_alloc(size_t size);
  19:src/../h/MemoryAllocator.h ****     /*
  20:src/../h/MemoryAllocator.h ****     Oslobađa prostor prethodno zauzet pomoću mem_alloc.
  21:src/../h/MemoryAllocator.h ****     Vraća 0 u slučaju uspeha, BAD_POINTER  flag ako je dostavljen los pokazivac.
  22:src/../h/MemoryAllocator.h ****     Ako je moguce, spaja dva susedna slobodna segmenta u jedan veci
  23:src/../h/MemoryAllocator.h ****     */
  24:src/../h/MemoryAllocator.h ****     static int mem_free(void* memSegment);
  25:src/../h/MemoryAllocator.h **** 
  26:src/../h/MemoryAllocator.h ****     enum memFreeFlags {
  27:src/../h/MemoryAllocator.h ****         BAD_POINTER = -1 // nije koriscen pokazviac iz mem_alloc
  28:src/../h/MemoryAllocator.h ****     };
GAS LISTING /tmp/ccNgl2x3.s 			page 3


  29:src/../h/MemoryAllocator.h **** 
  30:src/../h/MemoryAllocator.h ****     // Vraca minimalan potreban broj blokova za alokaciju memorije velicine size bajtova
  31:src/../h/MemoryAllocator.h ****     static inline size_t sizeInBlocks(size_t size) {
  32:src/../h/MemoryAllocator.h ****         return (size / MEM_BLOCK_SIZE) + (size % MEM_BLOCK_SIZE > 0);
  71              		.loc 2 32 9
  72              		.loc 2 32 22 is_stmt 0
  73 0034 93576500 		srli	a5,a0,6
  74              		.loc 2 32 48
  75 0038 1375F503 		andi	a0,a0,63
  76              	.LVL6:
  77              		.loc 2 32 65
  78 003c 3335A000 		snez	a0,a0
  79              		.loc 2 32 68
  80 0040 3385A700 		add	a0,a5,a0
  81              	.LVL7:
  82              	.LBE5:
  83              	.LBE4:
  20:src/syscall_c.cpp ****     asm volatile("mv a1, %0" : : "r" (size)); // a1 = size
  84              		.loc 1 20 5 is_stmt 1
  85              		.loc 1 20 45 is_stmt 0
  86              	#APP
  87              	# 20 "src/syscall_c.cpp" 1
  21              	
  22:src/syscall_c.cpp ****     return (void*)callInterrupt(code);
  88              		mv a1, a0
  89              	# 0 "" 2
  90              		.loc 1 22 5 is_stmt 1
  91              		.loc 1 22 32 is_stmt 0
  92              	#NO_APP
  93 0048 13051000 		li	a0,1
  94              	.LVL8:
  95 004c 97000000 		call	_Z13callInterruptm
  95      E7800000 
  96              	.LVL9:
  23:src/syscall_c.cpp **** }
  97              		.loc 1 23 1
  98 0054 83308100 		ld	ra,8(sp)
  99              		.cfi_restore 1
 100 0058 03340100 		ld	s0,0(sp)
 101              		.cfi_restore 8
 102              		.cfi_def_cfa 2, 16
 103 005c 13010101 		addi	sp,sp,16
 104              		.cfi_def_cfa_offset 0
 105 0060 67800000 		jr	ra
 106              		.cfi_endproc
 107              	.LFE45:
 109              		.align	2
 110              		.globl	_Z8mem_freePv
 112              	_Z8mem_freePv:
 113              	.LFB46:
  24:src/syscall_c.cpp **** 
  25:src/syscall_c.cpp **** // a0 code a1 memSegment
  26:src/syscall_c.cpp **** int mem_free (void* memSegment) {
 114              		.loc 1 26 33 is_stmt 1
 115              		.cfi_startproc
 116              	.LVL10:
 117 0064 130101FF 		addi	sp,sp,-16
GAS LISTING /tmp/ccNgl2x3.s 			page 4


 118              		.cfi_def_cfa_offset 16
 119 0068 23341100 		sd	ra,8(sp)
 120 006c 23308100 		sd	s0,0(sp)
 121              		.cfi_offset 1, -8
 122              		.cfi_offset 8, -16
 123 0070 13040101 		addi	s0,sp,16
 124              		.cfi_def_cfa 8, 0
  27:src/syscall_c.cpp ****     size_t code = Kernel::sysCallCodes::mem_free; // kod sistemskog poziva
 125              		.loc 1 27 5
 126              	.LVL11:
  28:src/syscall_c.cpp ****     asm volatile("mv a1, a0"); // a1 = memSegment
 127              		.loc 1 28 5
 128              		.loc 1 28 30 is_stmt 0
 129              	#APP
 130              	# 28 "src/syscall_c.cpp" 1
  29              	
  30:src/syscall_c.cpp ****     return (size_t)(callInterrupt(code));
 131              		mv a1, a0
 132              	# 0 "" 2
 133              		.loc 1 30 5 is_stmt 1
 134              		.loc 1 30 34 is_stmt 0
 135              	#NO_APP
 136 0078 13052000 		li	a0,2
 137              	.LVL12:
 138 007c 97000000 		call	_Z13callInterruptm
 138      E7800000 
 139              	.LVL13:
  31:src/syscall_c.cpp **** }
 140              		.loc 1 31 1
 141 0084 1B050500 		sext.w	a0,a0
 142 0088 83308100 		ld	ra,8(sp)
 143              		.cfi_restore 1
 144 008c 03340100 		ld	s0,0(sp)
 145              		.cfi_restore 8
 146              		.cfi_def_cfa 2, 16
 147 0090 13010101 		addi	sp,sp,16
 148              		.cfi_def_cfa_offset 0
 149 0094 67800000 		jr	ra
 150              		.cfi_endproc
 151              	.LFE46:
 153              		.align	2
 154              		.globl	_Z18thread_create_onlyPP3PCBPFvPvES2_
 156              	_Z18thread_create_onlyPP3PCBPFvPvES2_:
 157              	.LFB47:
  32:src/syscall_c.cpp **** 
  33:src/syscall_c.cpp **** // a0 - code a1 - handle a2 - startRoutine a3 - arg a4 - stackSpace, a5 - deleteArgFlag
  34:src/syscall_c.cpp **** int thread_create_only (thread_t* handle, void(*startRoutine)(void*), void* arg) {
 158              		.loc 1 34 82 is_stmt 1
 159              		.cfi_startproc
 160              	.LVL14:
 161 0098 130101FF 		addi	sp,sp,-16
 162              		.cfi_def_cfa_offset 16
 163 009c 23341100 		sd	ra,8(sp)
 164 00a0 23308100 		sd	s0,0(sp)
 165              		.cfi_offset 1, -8
 166              		.cfi_offset 8, -16
 167 00a4 13040101 		addi	s0,sp,16
GAS LISTING /tmp/ccNgl2x3.s 			page 5


 168              		.cfi_def_cfa 8, 0
  35:src/syscall_c.cpp ****     size_t code = Kernel::sysCallCodes::thread_create;
 169              		.loc 1 35 5
 170              	.LVL15:
  36:src/syscall_c.cpp ****     asm volatile("mv a3, a2"); // a3 = arg
 171              		.loc 1 36 5
 172              		.loc 1 36 30 is_stmt 0
 173              	#APP
 174              	# 36 "src/syscall_c.cpp" 1
  37              	    asm volatile("mv a2, a1"); // a2 = startRoutine
 175              		mv a3, a2
 176              	# 0 "" 2
 177              		.loc 1 37 5 is_stmt 1
 178              		.loc 1 37 30 is_stmt 0
 179              	# 37 "src/syscall_c.cpp" 1
  38              	    asm volatile("mv a4, a0"); // a4 = handle privremeno cuvamo da bismo posle vratili u a1
 180              		mv a2, a1
 181              	# 0 "" 2
 182              		.loc 1 38 5 is_stmt 1
 183              		.loc 1 38 30 is_stmt 0
 184              	# 38 "src/syscall_c.cpp" 1
  39              	
  40:src/syscall_c.cpp **** 
  41:src/syscall_c.cpp ****     size_t* stack = (size_t*)mem_alloc(sizeof(size_t)*DEFAULT_STACK_SIZE); // pravimo stack procesa
 185              		mv a4, a0
 186              	# 0 "" 2
 187              		.loc 1 41 5 is_stmt 1
 188              		.loc 1 41 39 is_stmt 0
 189              	#NO_APP
 190 00b4 37850000 		li	a0,32768
 191              	.LVL16:
 192 00b8 97000000 		call	_Z9mem_allocm
 192      E7800000 
 193              	.LVL17:
  42:src/syscall_c.cpp ****     if(stack == nullptr) return -1;
 194              		.loc 1 42 5 is_stmt 1
 195 00c0 630A0502 		beqz	a0,.L9
  43:src/syscall_c.cpp **** 
  44:src/syscall_c.cpp ****     asm volatile("mv a1, a4"); // a1 = a5(handle)
 196              		.loc 1 44 5
 197              		.loc 1 44 30 is_stmt 0
 198              	#APP
 199              	# 44 "src/syscall_c.cpp" 1
  45              	    asm volatile("mv a4, %0" : : "r" (stack));
 200              		mv a1, a4
 201              	# 0 "" 2
 202              		.loc 1 45 5 is_stmt 1
 203              		.loc 1 45 46 is_stmt 0
 204              	# 45 "src/syscall_c.cpp" 1
  46              	
  47:src/syscall_c.cpp ****     handle = (thread_t*)(callInterrupt(code)); // vraca se pokazivac na PCB, ili nullptr ako je neu
 205              		mv a4, a0
 206              	# 0 "" 2
 207              		.loc 1 47 5 is_stmt 1
 208              		.loc 1 47 39 is_stmt 0
 209              	#NO_APP
 210 00cc 13051001 		li	a0,17
GAS LISTING /tmp/ccNgl2x3.s 			page 6


 211              	.LVL18:
 212 00d0 97000000 		call	_Z13callInterruptm
 212      E7800000 
 213              	.LVL19:
  48:src/syscall_c.cpp ****     if(*handle == nullptr) {
 214              		.loc 1 48 5 is_stmt 1
 215              		.loc 1 48 8 is_stmt 0
 216 00d8 83370500 		ld	a5,0(a0)
 217              		.loc 1 48 5
 218 00dc 63800702 		beqz	a5,.L10
  49:src/syscall_c.cpp ****         return -1;
  50:src/syscall_c.cpp ****     }
  51:src/syscall_c.cpp ****     return 0;
 219              		.loc 1 51 12
 220 00e0 13050000 		li	a0,0
 221              	.LVL20:
 222              	.L8:
  52:src/syscall_c.cpp **** }
 223              		.loc 1 52 1
 224 00e4 83308100 		ld	ra,8(sp)
 225              		.cfi_remember_state
 226              		.cfi_restore 1
 227 00e8 03340100 		ld	s0,0(sp)
 228              		.cfi_restore 8
 229              		.cfi_def_cfa 2, 16
 230 00ec 13010101 		addi	sp,sp,16
 231              		.cfi_def_cfa_offset 0
 232 00f0 67800000 		jr	ra
 233              	.LVL21:
 234              	.L9:
 235              		.cfi_restore_state
  42:src/syscall_c.cpp **** 
 236              		.loc 1 42 34
 237 00f4 1305F0FF 		li	a0,-1
 238              	.LVL22:
 239 00f8 6FF0DFFE 		j	.L8
 240              	.LVL23:
 241              	.L10:
  49:src/syscall_c.cpp ****         return -1;
 242              		.loc 1 49 17
 243 00fc 1305F0FF 		li	a0,-1
 244              	.LVL24:
 245 0100 6FF05FFE 		j	.L8
 246              		.cfi_endproc
 247              	.LFE47:
 249              		.align	2
 250              		.globl	_Z15thread_dispatchv
 252              	_Z15thread_dispatchv:
 253              	.LFB49:
  53:src/syscall_c.cpp **** 
  54:src/syscall_c.cpp **** int thread_create(thread_t* handle, void(*startRoutine)(void*), void* arg) {
  55:src/syscall_c.cpp ****     int res = thread_create_only(handle, startRoutine, arg);
  56:src/syscall_c.cpp ****     thread_start(handle);
  57:src/syscall_c.cpp ****     return res;
  58:src/syscall_c.cpp **** }
  59:src/syscall_c.cpp **** 
  60:src/syscall_c.cpp **** void thread_dispatch () {
GAS LISTING /tmp/ccNgl2x3.s 			page 7


 254              		.loc 1 60 25 is_stmt 1
 255              		.cfi_startproc
 256 0104 130101FF 		addi	sp,sp,-16
 257              		.cfi_def_cfa_offset 16
 258 0108 23341100 		sd	ra,8(sp)
 259 010c 23308100 		sd	s0,0(sp)
 260              		.cfi_offset 1, -8
 261              		.cfi_offset 8, -16
 262 0110 13040101 		addi	s0,sp,16
 263              		.cfi_def_cfa 8, 0
  61:src/syscall_c.cpp ****     size_t code = Kernel::sysCallCodes::thread_dispatch;
 264              		.loc 1 61 5
 265              	.LVL25:
  62:src/syscall_c.cpp ****     callInterrupt(code);
 266              		.loc 1 62 5
 267              		.loc 1 62 18 is_stmt 0
 268 0114 13053001 		li	a0,19
 269 0118 97000000 		call	_Z13callInterruptm
 269      E7800000 
 270              	.LVL26:
  63:src/syscall_c.cpp **** }
 271              		.loc 1 63 1
 272 0120 83308100 		ld	ra,8(sp)
 273              		.cfi_restore 1
 274 0124 03340100 		ld	s0,0(sp)
 275              		.cfi_restore 8
 276              		.cfi_def_cfa 2, 16
 277 0128 13010101 		addi	sp,sp,16
 278              		.cfi_def_cfa_offset 0
 279 012c 67800000 		jr	ra
 280              		.cfi_endproc
 281              	.LFE49:
 283              		.align	2
 284              		.globl	_Z11thread_exitv
 286              	_Z11thread_exitv:
 287              	.LFB50:
  64:src/syscall_c.cpp **** 
  65:src/syscall_c.cpp **** int thread_exit () {
 288              		.loc 1 65 20 is_stmt 1
 289              		.cfi_startproc
 290 0130 130101FF 		addi	sp,sp,-16
 291              		.cfi_def_cfa_offset 16
 292 0134 23341100 		sd	ra,8(sp)
 293 0138 23308100 		sd	s0,0(sp)
 294              		.cfi_offset 1, -8
 295              		.cfi_offset 8, -16
 296 013c 13040101 		addi	s0,sp,16
 297              		.cfi_def_cfa 8, 0
  66:src/syscall_c.cpp ****     size_t code = Kernel::sysCallCodes::thread_exit;
 298              		.loc 1 66 5
 299              	.LVL27:
  67:src/syscall_c.cpp ****     return (size_t)(callInterrupt(code));
 300              		.loc 1 67 5
 301              		.loc 1 67 34 is_stmt 0
 302 0140 13052001 		li	a0,18
 303 0144 97000000 		call	_Z13callInterruptm
 303      E7800000 
GAS LISTING /tmp/ccNgl2x3.s 			page 8


 304              	.LVL28:
  68:src/syscall_c.cpp **** }
 305              		.loc 1 68 1
 306 014c 1B050500 		sext.w	a0,a0
 307 0150 83308100 		ld	ra,8(sp)
 308              		.cfi_restore 1
 309 0154 03340100 		ld	s0,0(sp)
 310              		.cfi_restore 8
 311              		.cfi_def_cfa 2, 16
 312 0158 13010101 		addi	sp,sp,16
 313              		.cfi_def_cfa_offset 0
 314 015c 67800000 		jr	ra
 315              		.cfi_endproc
 316              	.LFE50:
 318              		.align	2
 319              		.globl	_Z12thread_startPP3PCB
 321              	_Z12thread_startPP3PCB:
 322              	.LFB51:
  69:src/syscall_c.cpp **** 
  70:src/syscall_c.cpp **** void thread_start(thread_t* handle) {
 323              		.loc 1 70 37 is_stmt 1
 324              		.cfi_startproc
 325              	.LVL29:
 326 0160 130101FF 		addi	sp,sp,-16
 327              		.cfi_def_cfa_offset 16
 328 0164 23341100 		sd	ra,8(sp)
 329 0168 23308100 		sd	s0,0(sp)
 330              		.cfi_offset 1, -8
 331              		.cfi_offset 8, -16
 332 016c 13040101 		addi	s0,sp,16
 333              		.cfi_def_cfa 8, 0
  71:src/syscall_c.cpp ****     size_t code = Kernel::sysCallCodes::thread_start;
 334              		.loc 1 71 5
 335              	.LVL30:
  72:src/syscall_c.cpp ****     asm volatile("mv a1, a0"); // a1 = handle
 336              		.loc 1 72 5
 337              		.loc 1 72 30 is_stmt 0
 338              	#APP
 339              	# 72 "src/syscall_c.cpp" 1
  73              	    callInterrupt(code);
 340              		mv a1, a0
 341              	# 0 "" 2
 342              		.loc 1 73 5 is_stmt 1
 343              		.loc 1 73 18 is_stmt 0
 344              	#NO_APP
 345 0174 13054001 		li	a0,20
 346              	.LVL31:
 347 0178 97000000 		call	_Z13callInterruptm
 347      E7800000 
 348              	.LVL32:
  74:src/syscall_c.cpp **** }
 349              		.loc 1 74 1
 350 0180 83308100 		ld	ra,8(sp)
 351              		.cfi_restore 1
 352 0184 03340100 		ld	s0,0(sp)
 353              		.cfi_restore 8
 354              		.cfi_def_cfa 2, 16
GAS LISTING /tmp/ccNgl2x3.s 			page 9


 355 0188 13010101 		addi	sp,sp,16
 356              		.cfi_def_cfa_offset 0
 357 018c 67800000 		jr	ra
 358              		.cfi_endproc
 359              	.LFE51:
 361              		.align	2
 362              		.globl	_Z13thread_createPP3PCBPFvPvES2_
 364              	_Z13thread_createPP3PCBPFvPvES2_:
 365              	.LFB48:
  54:src/syscall_c.cpp ****     int res = thread_create_only(handle, startRoutine, arg);
 366              		.loc 1 54 76 is_stmt 1
 367              		.cfi_startproc
 368              	.LVL33:
 369 0190 130101FE 		addi	sp,sp,-32
 370              		.cfi_def_cfa_offset 32
 371 0194 233C1100 		sd	ra,24(sp)
 372 0198 23388100 		sd	s0,16(sp)
 373 019c 23349100 		sd	s1,8(sp)
 374 01a0 23302101 		sd	s2,0(sp)
 375              		.cfi_offset 1, -8
 376              		.cfi_offset 8, -16
 377              		.cfi_offset 9, -24
 378              		.cfi_offset 18, -32
 379 01a4 13040102 		addi	s0,sp,32
 380              		.cfi_def_cfa 8, 0
 381 01a8 13090500 		mv	s2,a0
  55:src/syscall_c.cpp ****     thread_start(handle);
 382              		.loc 1 55 5
  55:src/syscall_c.cpp ****     thread_start(handle);
 383              		.loc 1 55 33 is_stmt 0
 384 01ac 97000000 		call	_Z18thread_create_onlyPP3PCBPFvPvES2_
 384      E7800000 
 385              	.LVL34:
 386 01b4 93040500 		mv	s1,a0
 387              	.LVL35:
  56:src/syscall_c.cpp ****     return res;
 388              		.loc 1 56 5 is_stmt 1
  56:src/syscall_c.cpp ****     return res;
 389              		.loc 1 56 17 is_stmt 0
 390 01b8 13050900 		mv	a0,s2
 391 01bc 97000000 		call	_Z12thread_startPP3PCB
 391      E7800000 
 392              	.LVL36:
  57:src/syscall_c.cpp **** }
 393              		.loc 1 57 5 is_stmt 1
  58:src/syscall_c.cpp **** 
 394              		.loc 1 58 1 is_stmt 0
 395 01c4 13850400 		mv	a0,s1
 396 01c8 83308101 		ld	ra,24(sp)
 397              		.cfi_restore 1
 398 01cc 03340101 		ld	s0,16(sp)
 399              		.cfi_restore 8
 400              		.cfi_def_cfa 2, 32
 401 01d0 83348100 		ld	s1,8(sp)
 402              		.cfi_restore 9
 403              	.LVL37:
 404 01d4 03390100 		ld	s2,0(sp)
GAS LISTING /tmp/ccNgl2x3.s 			page 10


 405              		.cfi_restore 18
 406              	.LVL38:
 407 01d8 13010102 		addi	sp,sp,32
 408              		.cfi_def_cfa_offset 0
 409 01dc 67800000 		jr	ra
 410              		.cfi_endproc
 411              	.LFE48:
 413              		.align	2
 414              		.globl	_Z8sem_openPP3SCBj
 416              	_Z8sem_openPP3SCBj:
 417              	.LFB52:
  75:src/syscall_c.cpp **** 
  76:src/syscall_c.cpp **** int sem_open (sem_t* handle, unsigned init) {
 418              		.loc 1 76 45 is_stmt 1
 419              		.cfi_startproc
 420              	.LVL39:
 421 01e0 130101FF 		addi	sp,sp,-16
 422              		.cfi_def_cfa_offset 16
 423 01e4 23341100 		sd	ra,8(sp)
 424 01e8 23308100 		sd	s0,0(sp)
 425              		.cfi_offset 1, -8
 426              		.cfi_offset 8, -16
 427 01ec 13040101 		addi	s0,sp,16
 428              		.cfi_def_cfa 8, 0
  77:src/syscall_c.cpp ****     size_t code = Kernel::sysCallCodes::sem_open;
 429              		.loc 1 77 5
 430              	.LVL40:
  78:src/syscall_c.cpp **** 
  79:src/syscall_c.cpp ****     asm volatile("mv a2, a1"); // a2 = init
 431              		.loc 1 79 5
 432              		.loc 1 79 30 is_stmt 0
 433              	#APP
 434              	# 79 "src/syscall_c.cpp" 1
  80              	    asm volatile("mv a1, a0"); // a1 = handle
 435              		mv a2, a1
 436              	# 0 "" 2
 437              		.loc 1 80 5 is_stmt 1
 438              		.loc 1 80 30 is_stmt 0
 439              	# 80 "src/syscall_c.cpp" 1
  81              	
  82:src/syscall_c.cpp ****     handle = (sem_t*)callInterrupt(code);
 440              		mv a1, a0
 441              	# 0 "" 2
 442              		.loc 1 82 5 is_stmt 1
 443              		.loc 1 82 35 is_stmt 0
 444              	#NO_APP
 445 01f8 13051002 		li	a0,33
 446              	.LVL41:
 447 01fc 97000000 		call	_Z13callInterruptm
 447      E7800000 
 448              	.LVL42:
  83:src/syscall_c.cpp ****     if(*handle == nullptr) {
 449              		.loc 1 83 5 is_stmt 1
 450              		.loc 1 83 8 is_stmt 0
 451 0204 83370500 		ld	a5,0(a0)
 452              		.loc 1 83 5
 453 0208 638C0700 		beqz	a5,.L22
GAS LISTING /tmp/ccNgl2x3.s 			page 11


  84:src/syscall_c.cpp ****         return -1;
  85:src/syscall_c.cpp ****     }
  86:src/syscall_c.cpp **** 
  87:src/syscall_c.cpp ****     return 0;
 454              		.loc 1 87 12
 455 020c 13050000 		li	a0,0
 456              	.LVL43:
 457              	.L21:
  88:src/syscall_c.cpp **** }
 458              		.loc 1 88 1
 459 0210 83308100 		ld	ra,8(sp)
 460              		.cfi_remember_state
 461              		.cfi_restore 1
 462 0214 03340100 		ld	s0,0(sp)
 463              		.cfi_restore 8
 464              		.cfi_def_cfa 2, 16
 465 0218 13010101 		addi	sp,sp,16
 466              		.cfi_def_cfa_offset 0
 467 021c 67800000 		jr	ra
 468              	.LVL44:
 469              	.L22:
 470              		.cfi_restore_state
  84:src/syscall_c.cpp ****         return -1;
 471              		.loc 1 84 17
 472 0220 1305F0FF 		li	a0,-1
 473              	.LVL45:
 474 0224 6FF0DFFE 		j	.L21
 475              		.cfi_endproc
 476              	.LFE52:
 478              		.align	2
 479              		.globl	_Z8sem_waitP3SCB
 481              	_Z8sem_waitP3SCB:
 482              	.LFB53:
  89:src/syscall_c.cpp **** 
  90:src/syscall_c.cpp **** int sem_wait (sem_t volatile handle) {
 483              		.loc 1 90 38 is_stmt 1
 484              		.cfi_startproc
 485              	.LVL46:
 486 0228 130101FE 		addi	sp,sp,-32
 487              		.cfi_def_cfa_offset 32
 488 022c 233C1100 		sd	ra,24(sp)
 489 0230 23388100 		sd	s0,16(sp)
 490              		.cfi_offset 1, -8
 491              		.cfi_offset 8, -16
 492 0234 13040102 		addi	s0,sp,32
 493              		.cfi_def_cfa 8, 0
 494 0238 2334A4FE 		sd	a0,-24(s0)
  91:src/syscall_c.cpp ****     size_t code = Kernel::sysCallCodes::sem_wait;
 495              		.loc 1 91 5
 496              	.LVL47:
  92:src/syscall_c.cpp ****     if(handle == nullptr) return -1;
 497              		.loc 1 92 5
 498              		.loc 1 92 8 is_stmt 0
 499 023c 833784FE 		ld	a5,-24(s0)
 500              		.loc 1 92 5
 501 0240 63840702 		beqz	a5,.L26
  93:src/syscall_c.cpp ****     asm volatile("mv a1, a0");
GAS LISTING /tmp/ccNgl2x3.s 			page 12


 502              		.loc 1 93 5 is_stmt 1
 503              		.loc 1 93 30 is_stmt 0
 504              	#APP
 505              	# 93 "src/syscall_c.cpp" 1
  94              	
  95:src/syscall_c.cpp ****     return (int)(size_t)callInterrupt(code);
 506              		mv a1, a0
 507              	# 0 "" 2
 508              		.loc 1 95 5 is_stmt 1
 509              		.loc 1 95 38 is_stmt 0
 510              	#NO_APP
 511 0248 13053002 		li	a0,35
 512              	.LVL48:
 513 024c 97000000 		call	_Z13callInterruptm
 513      E7800000 
 514              	.LVL49:
 515              		.loc 1 95 43
 516 0254 1B050500 		sext.w	a0,a0
 517              	.L25:
  96:src/syscall_c.cpp **** }
 518              		.loc 1 96 1
 519 0258 83308101 		ld	ra,24(sp)
 520              		.cfi_remember_state
 521              		.cfi_restore 1
 522 025c 03340101 		ld	s0,16(sp)
 523              		.cfi_restore 8
 524              		.cfi_def_cfa 2, 32
 525              	.LVL50:
 526 0260 13010102 		addi	sp,sp,32
 527              		.cfi_def_cfa_offset 0
 528              	.LVL51:
 529 0264 67800000 		jr	ra
 530              	.LVL52:
 531              	.L26:
 532              		.cfi_restore_state
  92:src/syscall_c.cpp ****     asm volatile("mv a1, a0");
 533              		.loc 1 92 35
 534 0268 1305F0FF 		li	a0,-1
 535              	.LVL53:
 536 026c 6FF0DFFE 		j	.L25
 537              		.cfi_endproc
 538              	.LFE53:
 540              		.align	2
 541              		.globl	_Z10sem_signalP3SCB
 543              	_Z10sem_signalP3SCB:
 544              	.LFB54:
  97:src/syscall_c.cpp **** 
  98:src/syscall_c.cpp **** int sem_signal (sem_t handle) {
 545              		.loc 1 98 31 is_stmt 1
 546              		.cfi_startproc
 547              	.LVL54:
  99:src/syscall_c.cpp ****     size_t code = Kernel::sysCallCodes::sem_signal;
 548              		.loc 1 99 5
 100:src/syscall_c.cpp ****     if(handle == nullptr) return -1;
 549              		.loc 1 100 5
 550 0270 630C0502 		beqz	a0,.L30
  98:src/syscall_c.cpp ****     size_t code = Kernel::sysCallCodes::sem_signal;
GAS LISTING /tmp/ccNgl2x3.s 			page 13


 551              		.loc 1 98 31 is_stmt 0
 552 0274 130101FF 		addi	sp,sp,-16
 553              		.cfi_def_cfa_offset 16
 554 0278 23341100 		sd	ra,8(sp)
 555 027c 23308100 		sd	s0,0(sp)
 556              		.cfi_offset 1, -8
 557              		.cfi_offset 8, -16
 558 0280 13040101 		addi	s0,sp,16
 559              		.cfi_def_cfa 8, 0
 101:src/syscall_c.cpp ****     asm volatile("mv a1, a0");
 560              		.loc 1 101 5 is_stmt 1
 561              		.loc 1 101 30 is_stmt 0
 562              	#APP
 563              	# 101 "src/syscall_c.cpp" 1
 102              	
 103:src/syscall_c.cpp ****     callInterrupt(code);
 564              		mv a1, a0
 565              	# 0 "" 2
 566              		.loc 1 103 5 is_stmt 1
 567              		.loc 1 103 18 is_stmt 0
 568              	#NO_APP
 569 0288 13054002 		li	a0,36
 570              	.LVL55:
 571 028c 97000000 		call	_Z13callInterruptm
 571      E7800000 
 572              	.LVL56:
 104:src/syscall_c.cpp **** 
 105:src/syscall_c.cpp ****     return 0;
 573              		.loc 1 105 5 is_stmt 1
 574              		.loc 1 105 12 is_stmt 0
 575 0294 13050000 		li	a0,0
 106:src/syscall_c.cpp **** }
 576              		.loc 1 106 1
 577 0298 83308100 		ld	ra,8(sp)
 578              		.cfi_restore 1
 579 029c 03340100 		ld	s0,0(sp)
 580              		.cfi_restore 8
 581              		.cfi_def_cfa 2, 16
 582 02a0 13010101 		addi	sp,sp,16
 583              		.cfi_def_cfa_offset 0
 584 02a4 67800000 		jr	ra
 585              	.LVL57:
 586              	.L30:
 100:src/syscall_c.cpp ****     asm volatile("mv a1, a0");
 587              		.loc 1 100 35
 588 02a8 1305F0FF 		li	a0,-1
 589              	.LVL58:
 590              		.loc 1 106 1
 591 02ac 67800000 		ret
 592              		.cfi_endproc
 593              	.LFE54:
 595              		.align	2
 596              		.globl	_Z9sem_closeP3SCB
 598              	_Z9sem_closeP3SCB:
 599              	.LFB55:
 107:src/syscall_c.cpp **** 
 108:src/syscall_c.cpp **** int sem_close (sem_t handle) {
GAS LISTING /tmp/ccNgl2x3.s 			page 14


 600              		.loc 1 108 30 is_stmt 1
 601              		.cfi_startproc
 602              	.LVL59:
 109:src/syscall_c.cpp ****     size_t code = Kernel::sysCallCodes::sem_close;
 603              		.loc 1 109 5
 110:src/syscall_c.cpp ****     if(handle == nullptr) return -1;
 604              		.loc 1 110 5
 605 02b0 630C0502 		beqz	a0,.L37
 108:src/syscall_c.cpp ****     size_t code = Kernel::sysCallCodes::sem_close;
 606              		.loc 1 108 30 is_stmt 0
 607 02b4 130101FF 		addi	sp,sp,-16
 608              		.cfi_def_cfa_offset 16
 609 02b8 23341100 		sd	ra,8(sp)
 610 02bc 23308100 		sd	s0,0(sp)
 611              		.cfi_offset 1, -8
 612              		.cfi_offset 8, -16
 613 02c0 13040101 		addi	s0,sp,16
 614              		.cfi_def_cfa 8, 0
 111:src/syscall_c.cpp **** 
 112:src/syscall_c.cpp ****     asm volatile("mv a1, a0");
 615              		.loc 1 112 5 is_stmt 1
 616              		.loc 1 112 30 is_stmt 0
 617              	#APP
 618              	# 112 "src/syscall_c.cpp" 1
 113              	    callInterrupt(code);
 619              		mv a1, a0
 620              	# 0 "" 2
 621              		.loc 1 113 5 is_stmt 1
 622              		.loc 1 113 18 is_stmt 0
 623              	#NO_APP
 624 02c8 13052002 		li	a0,34
 625              	.LVL60:
 626 02cc 97000000 		call	_Z13callInterruptm
 626      E7800000 
 627              	.LVL61:
 114:src/syscall_c.cpp ****     return 0;
 628              		.loc 1 114 5 is_stmt 1
 629              		.loc 1 114 12 is_stmt 0
 630 02d4 13050000 		li	a0,0
 115:src/syscall_c.cpp **** }
 631              		.loc 1 115 1
 632 02d8 83308100 		ld	ra,8(sp)
 633              		.cfi_restore 1
 634 02dc 03340100 		ld	s0,0(sp)
 635              		.cfi_restore 8
 636              		.cfi_def_cfa 2, 16
 637 02e0 13010101 		addi	sp,sp,16
 638              		.cfi_def_cfa_offset 0
 639 02e4 67800000 		jr	ra
 640              	.LVL62:
 641              	.L37:
 110:src/syscall_c.cpp **** 
 642              		.loc 1 110 35
 643 02e8 1305F0FF 		li	a0,-1
 644              	.LVL63:
 645              		.loc 1 115 1
 646 02ec 67800000 		ret
GAS LISTING /tmp/ccNgl2x3.s 			page 15


 647              		.cfi_endproc
 648              	.LFE55:
 650              		.align	2
 651              		.globl	_Z10time_sleepm
 653              	_Z10time_sleepm:
 654              	.LFB56:
 116:src/syscall_c.cpp **** 
 117:src/syscall_c.cpp **** int time_sleep (time_t time) {
 655              		.loc 1 117 30 is_stmt 1
 656              		.cfi_startproc
 657              	.LVL64:
 118:src/syscall_c.cpp ****     size_t code = Kernel::sysCallCodes::time_sleep;
 658              		.loc 1 118 5
 119:src/syscall_c.cpp ****     if(time <= 0) return -1;
 659              		.loc 1 119 5
 660 02f0 63000504 		beqz	a0,.L44
 117:src/syscall_c.cpp ****     size_t code = Kernel::sysCallCodes::time_sleep;
 661              		.loc 1 117 30 is_stmt 0
 662 02f4 130101FF 		addi	sp,sp,-16
 663              		.cfi_def_cfa_offset 16
 664 02f8 23341100 		sd	ra,8(sp)
 665 02fc 23308100 		sd	s0,0(sp)
 666              		.cfi_offset 1, -8
 667              		.cfi_offset 8, -16
 668 0300 13040101 		addi	s0,sp,16
 669              		.cfi_def_cfa 8, 0
 120:src/syscall_c.cpp **** 
 121:src/syscall_c.cpp ****     asm volatile("mv a1, a0");
 670              		.loc 1 121 5 is_stmt 1
 671              		.loc 1 121 30 is_stmt 0
 672              	#APP
 673              	# 121 "src/syscall_c.cpp" 1
 122              	    callInterrupt(code);
 674              		mv a1, a0
 675              	# 0 "" 2
 676              		.loc 1 122 5 is_stmt 1
 677              		.loc 1 122 18 is_stmt 0
 678              	#NO_APP
 679 0308 13051003 		li	a0,49
 680              	.LVL65:
 681 030c 97000000 		call	_Z13callInterruptm
 681      E7800000 
 682              	.LVL66:
 123:src/syscall_c.cpp **** 
 124:src/syscall_c.cpp ****     thread_dispatch(); // radimo odmah dispatch da bi zaustavili tekuci proces
 683              		.loc 1 124 5 is_stmt 1
 684              		.loc 1 124 20 is_stmt 0
 685 0314 97000000 		call	_Z15thread_dispatchv
 685      E7800000 
 686              	.LVL67:
 125:src/syscall_c.cpp **** 
 126:src/syscall_c.cpp ****     return 0;
 687              		.loc 1 126 5 is_stmt 1
 688              		.loc 1 126 12 is_stmt 0
 689 031c 13050000 		li	a0,0
 127:src/syscall_c.cpp **** }
 690              		.loc 1 127 1
GAS LISTING /tmp/ccNgl2x3.s 			page 16


 691 0320 83308100 		ld	ra,8(sp)
 692              		.cfi_restore 1
 693 0324 03340100 		ld	s0,0(sp)
 694              		.cfi_restore 8
 695              		.cfi_def_cfa 2, 16
 696 0328 13010101 		addi	sp,sp,16
 697              		.cfi_def_cfa_offset 0
 698 032c 67800000 		jr	ra
 699              	.LVL68:
 700              	.L44:
 119:src/syscall_c.cpp **** 
 701              		.loc 1 119 27
 702 0330 1305F0FF 		li	a0,-1
 703              	.LVL69:
 704              		.loc 1 127 1
 705 0334 67800000 		ret
 706              		.cfi_endproc
 707              	.LFE56:
 709              		.align	2
 710              		.globl	_Z4getcv
 712              	_Z4getcv:
 713              	.LFB57:
 128:src/syscall_c.cpp **** 
 129:src/syscall_c.cpp **** char getc () {
 714              		.loc 1 129 14 is_stmt 1
 715              		.cfi_startproc
 716 0338 130101FF 		addi	sp,sp,-16
 717              		.cfi_def_cfa_offset 16
 718 033c 23341100 		sd	ra,8(sp)
 719 0340 23308100 		sd	s0,0(sp)
 720              		.cfi_offset 1, -8
 721              		.cfi_offset 8, -16
 722 0344 13040101 		addi	s0,sp,16
 723              		.cfi_def_cfa 8, 0
 130:src/syscall_c.cpp ****     size_t code = Kernel::sysCallCodes::getc;
 724              		.loc 1 130 5
 725              	.LVL70:
 131:src/syscall_c.cpp ****     return (char)(size_t)callInterrupt(code);
 726              		.loc 1 131 5
 727              		.loc 1 131 39 is_stmt 0
 728 0348 13051004 		li	a0,65
 729 034c 97000000 		call	_Z13callInterruptm
 729      E7800000 
 730              	.LVL71:
 132:src/syscall_c.cpp **** }
 731              		.loc 1 132 1
 732 0354 1375F50F 		andi	a0,a0,0xff
 733 0358 83308100 		ld	ra,8(sp)
 734              		.cfi_restore 1
 735 035c 03340100 		ld	s0,0(sp)
 736              		.cfi_restore 8
 737              		.cfi_def_cfa 2, 16
 738 0360 13010101 		addi	sp,sp,16
 739              		.cfi_def_cfa_offset 0
 740 0364 67800000 		jr	ra
 741              		.cfi_endproc
 742              	.LFE57:
GAS LISTING /tmp/ccNgl2x3.s 			page 17


 744              		.align	2
 745              		.globl	_Z4putcc
 747              	_Z4putcc:
 748              	.LFB58:
 133:src/syscall_c.cpp **** 
 134:src/syscall_c.cpp **** void putc(char c) {
 749              		.loc 1 134 19 is_stmt 1
 750              		.cfi_startproc
 751              	.LVL72:
 752 0368 130101FF 		addi	sp,sp,-16
 753              		.cfi_def_cfa_offset 16
 754 036c 23341100 		sd	ra,8(sp)
 755 0370 23308100 		sd	s0,0(sp)
 756              		.cfi_offset 1, -8
 757              		.cfi_offset 8, -16
 758 0374 13040101 		addi	s0,sp,16
 759              		.cfi_def_cfa 8, 0
 135:src/syscall_c.cpp ****     size_t code = Kernel::sysCallCodes::putc;
 760              		.loc 1 135 5
 761              	.LVL73:
 136:src/syscall_c.cpp ****     asm volatile("mv a1, a0"); // a1 = c
 762              		.loc 1 136 5
 763              		.loc 1 136 30 is_stmt 0
 764              	#APP
 765              	# 136 "src/syscall_c.cpp" 1
 137              	    callInterrupt(code);
 766              		mv a1, a0
 767              	# 0 "" 2
 768              		.loc 1 137 5 is_stmt 1
 769              		.loc 1 137 18 is_stmt 0
 770              	#NO_APP
 771 037c 13052004 		li	a0,66
 772              	.LVL74:
 773 0380 97000000 		call	_Z13callInterruptm
 773      E7800000 
 774              	.LVL75:
 138:src/syscall_c.cpp **** }
 775              		.loc 1 138 1
 776 0388 83308100 		ld	ra,8(sp)
 777              		.cfi_restore 1
 778 038c 03340100 		ld	s0,0(sp)
 779              		.cfi_restore 8
 780              		.cfi_def_cfa 2, 16
 781 0390 13010101 		addi	sp,sp,16
 782              		.cfi_def_cfa_offset 0
 783 0394 67800000 		jr	ra
 784              		.cfi_endproc
 785              	.LFE58:
 787              	.Letext0:
 788              		.file 3 "src/../h/hw.h"
 789              		.file 4 "src/../h/slab.h"
 790              		.file 5 "src/../h/PCB.h"
 791              		.file 6 "src/../h/SCB.h"
 792              		.file 7 "src/../h/syscall_c.h"
GAS LISTING /tmp/ccNgl2x3.s 			page 18


DEFINED SYMBOLS
                            *ABS*:0000000000000000 syscall_c.cpp
     /tmp/ccNgl2x3.s:9      .text:0000000000000000 _Z13callInterruptm
     /tmp/ccNgl2x3.s:13     .text:0000000000000000 .L0 
     /tmp/ccNgl2x3.s:15     .text:0000000000000000 .L0 
     /tmp/ccNgl2x3.s:16     .text:0000000000000004 .L0 
     /tmp/ccNgl2x3.s:18     .text:0000000000000008 .L0 
     /tmp/ccNgl2x3.s:20     .text:000000000000000c .L0 
     /tmp/ccNgl2x3.s:23     .text:0000000000000010 .L0 
     /tmp/ccNgl2x3.s:24     .text:0000000000000010 .L0 
   src/syscall_c.cpp:10     .text:0000000000000010 .L0 
     /tmp/ccNgl2x3.s:30     .text:0000000000000014 .L0 
   src/syscall_c.cpp:11     .text:0000000000000014 .L0 
     /tmp/ccNgl2x3.s:36     .text:0000000000000018 .L0 
     /tmp/ccNgl2x3.s:38     .text:0000000000000018 .L0 
     /tmp/ccNgl2x3.s:39     .text:000000000000001c .L0 
     /tmp/ccNgl2x3.s:40     .text:000000000000001c .L0 
     /tmp/ccNgl2x3.s:43     .text:0000000000000020 .L0 
     /tmp/ccNgl2x3.s:46     .text:0000000000000024 .L0 
     /tmp/ccNgl2x3.s:52     .text:0000000000000024 _Z9mem_allocm
     /tmp/ccNgl2x3.s:55     .text:0000000000000024 .L0 
     /tmp/ccNgl2x3.s:57     .text:0000000000000024 .L0 
     /tmp/ccNgl2x3.s:58     .text:0000000000000028 .L0 
     /tmp/ccNgl2x3.s:61     .text:0000000000000030 .L0 
     /tmp/ccNgl2x3.s:62     .text:0000000000000030 .L0 
     /tmp/ccNgl2x3.s:64     .text:0000000000000034 .L0 
     /tmp/ccNgl2x3.s:67     .text:0000000000000034 .L0 
     /tmp/ccNgl2x3.s:71     .text:0000000000000034 .L0 
     /tmp/ccNgl2x3.s:72     .text:0000000000000034 .L0 
     /tmp/ccNgl2x3.s:73     .text:0000000000000034 .L0 
     /tmp/ccNgl2x3.s:75     .text:0000000000000038 .L0 
     /tmp/ccNgl2x3.s:78     .text:000000000000003c .L0 
     /tmp/ccNgl2x3.s:80     .text:0000000000000040 .L0 
     /tmp/ccNgl2x3.s:85     .text:0000000000000044 .L0 
   src/syscall_c.cpp:20     .text:0000000000000044 .L0 
     /tmp/ccNgl2x3.s:91     .text:0000000000000048 .L0 
     /tmp/ccNgl2x3.s:93     .text:0000000000000048 .L0 
     /tmp/ccNgl2x3.s:98     .text:0000000000000054 .L0 
     /tmp/ccNgl2x3.s:99     .text:0000000000000058 .L0 
     /tmp/ccNgl2x3.s:101    .text:000000000000005c .L0 
     /tmp/ccNgl2x3.s:102    .text:000000000000005c .L0 
     /tmp/ccNgl2x3.s:104    .text:0000000000000060 .L0 
     /tmp/ccNgl2x3.s:106    .text:0000000000000064 .L0 
     /tmp/ccNgl2x3.s:112    .text:0000000000000064 _Z8mem_freePv
     /tmp/ccNgl2x3.s:115    .text:0000000000000064 .L0 
     /tmp/ccNgl2x3.s:117    .text:0000000000000064 .L0 
     /tmp/ccNgl2x3.s:118    .text:0000000000000068 .L0 
     /tmp/ccNgl2x3.s:121    .text:0000000000000070 .L0 
     /tmp/ccNgl2x3.s:122    .text:0000000000000070 .L0 
     /tmp/ccNgl2x3.s:124    .text:0000000000000074 .L0 
     /tmp/ccNgl2x3.s:127    .text:0000000000000074 .L0 
     /tmp/ccNgl2x3.s:128    .text:0000000000000074 .L0 
   src/syscall_c.cpp:28     .text:0000000000000074 .L0 
     /tmp/ccNgl2x3.s:134    .text:0000000000000078 .L0 
     /tmp/ccNgl2x3.s:136    .text:0000000000000078 .L0 
     /tmp/ccNgl2x3.s:141    .text:0000000000000084 .L0 
     /tmp/ccNgl2x3.s:143    .text:000000000000008c .L0 
GAS LISTING /tmp/ccNgl2x3.s 			page 19


     /tmp/ccNgl2x3.s:145    .text:0000000000000090 .L0 
     /tmp/ccNgl2x3.s:146    .text:0000000000000090 .L0 
     /tmp/ccNgl2x3.s:148    .text:0000000000000094 .L0 
     /tmp/ccNgl2x3.s:150    .text:0000000000000098 .L0 
     /tmp/ccNgl2x3.s:156    .text:0000000000000098 _Z18thread_create_onlyPP3PCBPFvPvES2_
     /tmp/ccNgl2x3.s:159    .text:0000000000000098 .L0 
     /tmp/ccNgl2x3.s:161    .text:0000000000000098 .L0 
     /tmp/ccNgl2x3.s:162    .text:000000000000009c .L0 
     /tmp/ccNgl2x3.s:165    .text:00000000000000a4 .L0 
     /tmp/ccNgl2x3.s:166    .text:00000000000000a4 .L0 
     /tmp/ccNgl2x3.s:168    .text:00000000000000a8 .L0 
     /tmp/ccNgl2x3.s:171    .text:00000000000000a8 .L0 
     /tmp/ccNgl2x3.s:172    .text:00000000000000a8 .L0 
   src/syscall_c.cpp:36     .text:00000000000000a8 .L0 
     /tmp/ccNgl2x3.s:178    .text:00000000000000ac .L0 
   src/syscall_c.cpp:37     .text:00000000000000ac .L0 
     /tmp/ccNgl2x3.s:183    .text:00000000000000b0 .L0 
   src/syscall_c.cpp:38     .text:00000000000000b0 .L0 
     /tmp/ccNgl2x3.s:188    .text:00000000000000b4 .L0 
     /tmp/ccNgl2x3.s:190    .text:00000000000000b4 .L0 
     /tmp/ccNgl2x3.s:195    .text:00000000000000c0 .L0 
     /tmp/ccNgl2x3.s:197    .text:00000000000000c4 .L0 
   src/syscall_c.cpp:44     .text:00000000000000c4 .L0 
     /tmp/ccNgl2x3.s:203    .text:00000000000000c8 .L0 
   src/syscall_c.cpp:45     .text:00000000000000c8 .L0 
     /tmp/ccNgl2x3.s:208    .text:00000000000000cc .L0 
     /tmp/ccNgl2x3.s:210    .text:00000000000000cc .L0 
     /tmp/ccNgl2x3.s:215    .text:00000000000000d8 .L0 
     /tmp/ccNgl2x3.s:216    .text:00000000000000d8 .L0 
     /tmp/ccNgl2x3.s:218    .text:00000000000000dc .L0 
     /tmp/ccNgl2x3.s:220    .text:00000000000000e0 .L0 
     /tmp/ccNgl2x3.s:224    .text:00000000000000e4 .L0 
     /tmp/ccNgl2x3.s:225    .text:00000000000000e8 .L0 
     /tmp/ccNgl2x3.s:226    .text:00000000000000e8 .L0 
     /tmp/ccNgl2x3.s:228    .text:00000000000000ec .L0 
     /tmp/ccNgl2x3.s:229    .text:00000000000000ec .L0 
     /tmp/ccNgl2x3.s:231    .text:00000000000000f0 .L0 
     /tmp/ccNgl2x3.s:235    .text:00000000000000f4 .L0 
     /tmp/ccNgl2x3.s:237    .text:00000000000000f4 .L0 
     /tmp/ccNgl2x3.s:243    .text:00000000000000fc .L0 
     /tmp/ccNgl2x3.s:246    .text:0000000000000104 .L0 
     /tmp/ccNgl2x3.s:252    .text:0000000000000104 _Z15thread_dispatchv
     /tmp/ccNgl2x3.s:255    .text:0000000000000104 .L0 
     /tmp/ccNgl2x3.s:256    .text:0000000000000104 .L0 
     /tmp/ccNgl2x3.s:257    .text:0000000000000108 .L0 
     /tmp/ccNgl2x3.s:260    .text:0000000000000110 .L0 
     /tmp/ccNgl2x3.s:261    .text:0000000000000110 .L0 
     /tmp/ccNgl2x3.s:263    .text:0000000000000114 .L0 
     /tmp/ccNgl2x3.s:266    .text:0000000000000114 .L0 
     /tmp/ccNgl2x3.s:267    .text:0000000000000114 .L0 
     /tmp/ccNgl2x3.s:268    .text:0000000000000114 .L0 
     /tmp/ccNgl2x3.s:272    .text:0000000000000120 .L0 
     /tmp/ccNgl2x3.s:273    .text:0000000000000124 .L0 
     /tmp/ccNgl2x3.s:275    .text:0000000000000128 .L0 
     /tmp/ccNgl2x3.s:276    .text:0000000000000128 .L0 
     /tmp/ccNgl2x3.s:278    .text:000000000000012c .L0 
     /tmp/ccNgl2x3.s:280    .text:0000000000000130 .L0 
GAS LISTING /tmp/ccNgl2x3.s 			page 20


     /tmp/ccNgl2x3.s:286    .text:0000000000000130 _Z11thread_exitv
     /tmp/ccNgl2x3.s:289    .text:0000000000000130 .L0 
     /tmp/ccNgl2x3.s:290    .text:0000000000000130 .L0 
     /tmp/ccNgl2x3.s:291    .text:0000000000000134 .L0 
     /tmp/ccNgl2x3.s:294    .text:000000000000013c .L0 
     /tmp/ccNgl2x3.s:295    .text:000000000000013c .L0 
     /tmp/ccNgl2x3.s:297    .text:0000000000000140 .L0 
     /tmp/ccNgl2x3.s:300    .text:0000000000000140 .L0 
     /tmp/ccNgl2x3.s:301    .text:0000000000000140 .L0 
     /tmp/ccNgl2x3.s:302    .text:0000000000000140 .L0 
     /tmp/ccNgl2x3.s:306    .text:000000000000014c .L0 
     /tmp/ccNgl2x3.s:308    .text:0000000000000154 .L0 
     /tmp/ccNgl2x3.s:310    .text:0000000000000158 .L0 
     /tmp/ccNgl2x3.s:311    .text:0000000000000158 .L0 
     /tmp/ccNgl2x3.s:313    .text:000000000000015c .L0 
     /tmp/ccNgl2x3.s:315    .text:0000000000000160 .L0 
     /tmp/ccNgl2x3.s:321    .text:0000000000000160 _Z12thread_startPP3PCB
     /tmp/ccNgl2x3.s:324    .text:0000000000000160 .L0 
     /tmp/ccNgl2x3.s:326    .text:0000000000000160 .L0 
     /tmp/ccNgl2x3.s:327    .text:0000000000000164 .L0 
     /tmp/ccNgl2x3.s:330    .text:000000000000016c .L0 
     /tmp/ccNgl2x3.s:331    .text:000000000000016c .L0 
     /tmp/ccNgl2x3.s:333    .text:0000000000000170 .L0 
     /tmp/ccNgl2x3.s:336    .text:0000000000000170 .L0 
     /tmp/ccNgl2x3.s:337    .text:0000000000000170 .L0 
   src/syscall_c.cpp:72     .text:0000000000000170 .L0 
     /tmp/ccNgl2x3.s:343    .text:0000000000000174 .L0 
     /tmp/ccNgl2x3.s:345    .text:0000000000000174 .L0 
     /tmp/ccNgl2x3.s:350    .text:0000000000000180 .L0 
     /tmp/ccNgl2x3.s:351    .text:0000000000000184 .L0 
     /tmp/ccNgl2x3.s:353    .text:0000000000000188 .L0 
     /tmp/ccNgl2x3.s:354    .text:0000000000000188 .L0 
     /tmp/ccNgl2x3.s:356    .text:000000000000018c .L0 
     /tmp/ccNgl2x3.s:358    .text:0000000000000190 .L0 
     /tmp/ccNgl2x3.s:364    .text:0000000000000190 _Z13thread_createPP3PCBPFvPvES2_
     /tmp/ccNgl2x3.s:367    .text:0000000000000190 .L0 
     /tmp/ccNgl2x3.s:369    .text:0000000000000190 .L0 
     /tmp/ccNgl2x3.s:370    .text:0000000000000194 .L0 
     /tmp/ccNgl2x3.s:375    .text:00000000000001a4 .L0 
     /tmp/ccNgl2x3.s:376    .text:00000000000001a4 .L0 
     /tmp/ccNgl2x3.s:377    .text:00000000000001a4 .L0 
     /tmp/ccNgl2x3.s:378    .text:00000000000001a4 .L0 
     /tmp/ccNgl2x3.s:380    .text:00000000000001a8 .L0 
     /tmp/ccNgl2x3.s:383    .text:00000000000001ac .L0 
     /tmp/ccNgl2x3.s:384    .text:00000000000001ac .L0 
     /tmp/ccNgl2x3.s:389    .text:00000000000001b8 .L0 
     /tmp/ccNgl2x3.s:390    .text:00000000000001b8 .L0 
     /tmp/ccNgl2x3.s:394    .text:00000000000001c4 .L0 
     /tmp/ccNgl2x3.s:395    .text:00000000000001c4 .L0 
     /tmp/ccNgl2x3.s:397    .text:00000000000001cc .L0 
     /tmp/ccNgl2x3.s:399    .text:00000000000001d0 .L0 
     /tmp/ccNgl2x3.s:400    .text:00000000000001d0 .L0 
     /tmp/ccNgl2x3.s:402    .text:00000000000001d4 .L0 
     /tmp/ccNgl2x3.s:405    .text:00000000000001d8 .L0 
     /tmp/ccNgl2x3.s:408    .text:00000000000001dc .L0 
     /tmp/ccNgl2x3.s:410    .text:00000000000001e0 .L0 
     /tmp/ccNgl2x3.s:416    .text:00000000000001e0 _Z8sem_openPP3SCBj
GAS LISTING /tmp/ccNgl2x3.s 			page 21


     /tmp/ccNgl2x3.s:419    .text:00000000000001e0 .L0 
     /tmp/ccNgl2x3.s:421    .text:00000000000001e0 .L0 
     /tmp/ccNgl2x3.s:422    .text:00000000000001e4 .L0 
     /tmp/ccNgl2x3.s:425    .text:00000000000001ec .L0 
     /tmp/ccNgl2x3.s:426    .text:00000000000001ec .L0 
     /tmp/ccNgl2x3.s:428    .text:00000000000001f0 .L0 
     /tmp/ccNgl2x3.s:431    .text:00000000000001f0 .L0 
     /tmp/ccNgl2x3.s:432    .text:00000000000001f0 .L0 
   src/syscall_c.cpp:79     .text:00000000000001f0 .L0 
     /tmp/ccNgl2x3.s:438    .text:00000000000001f4 .L0 
   src/syscall_c.cpp:80     .text:00000000000001f4 .L0 
     /tmp/ccNgl2x3.s:443    .text:00000000000001f8 .L0 
     /tmp/ccNgl2x3.s:445    .text:00000000000001f8 .L0 
     /tmp/ccNgl2x3.s:450    .text:0000000000000204 .L0 
     /tmp/ccNgl2x3.s:451    .text:0000000000000204 .L0 
     /tmp/ccNgl2x3.s:453    .text:0000000000000208 .L0 
     /tmp/ccNgl2x3.s:455    .text:000000000000020c .L0 
     /tmp/ccNgl2x3.s:459    .text:0000000000000210 .L0 
     /tmp/ccNgl2x3.s:460    .text:0000000000000214 .L0 
     /tmp/ccNgl2x3.s:461    .text:0000000000000214 .L0 
     /tmp/ccNgl2x3.s:463    .text:0000000000000218 .L0 
     /tmp/ccNgl2x3.s:464    .text:0000000000000218 .L0 
     /tmp/ccNgl2x3.s:466    .text:000000000000021c .L0 
     /tmp/ccNgl2x3.s:470    .text:0000000000000220 .L0 
     /tmp/ccNgl2x3.s:472    .text:0000000000000220 .L0 
     /tmp/ccNgl2x3.s:475    .text:0000000000000228 .L0 
     /tmp/ccNgl2x3.s:481    .text:0000000000000228 _Z8sem_waitP3SCB
     /tmp/ccNgl2x3.s:484    .text:0000000000000228 .L0 
     /tmp/ccNgl2x3.s:486    .text:0000000000000228 .L0 
     /tmp/ccNgl2x3.s:487    .text:000000000000022c .L0 
     /tmp/ccNgl2x3.s:490    .text:0000000000000234 .L0 
     /tmp/ccNgl2x3.s:491    .text:0000000000000234 .L0 
     /tmp/ccNgl2x3.s:493    .text:0000000000000238 .L0 
     /tmp/ccNgl2x3.s:497    .text:000000000000023c .L0 
     /tmp/ccNgl2x3.s:498    .text:000000000000023c .L0 
     /tmp/ccNgl2x3.s:499    .text:000000000000023c .L0 
     /tmp/ccNgl2x3.s:501    .text:0000000000000240 .L0 
     /tmp/ccNgl2x3.s:503    .text:0000000000000244 .L0 
   src/syscall_c.cpp:93     .text:0000000000000244 .L0 
     /tmp/ccNgl2x3.s:509    .text:0000000000000248 .L0 
     /tmp/ccNgl2x3.s:511    .text:0000000000000248 .L0 
     /tmp/ccNgl2x3.s:516    .text:0000000000000254 .L0 
     /tmp/ccNgl2x3.s:519    .text:0000000000000258 .L0 
     /tmp/ccNgl2x3.s:520    .text:000000000000025c .L0 
     /tmp/ccNgl2x3.s:521    .text:000000000000025c .L0 
     /tmp/ccNgl2x3.s:523    .text:0000000000000260 .L0 
     /tmp/ccNgl2x3.s:524    .text:0000000000000260 .L0 
     /tmp/ccNgl2x3.s:527    .text:0000000000000264 .L0 
     /tmp/ccNgl2x3.s:532    .text:0000000000000268 .L0 
     /tmp/ccNgl2x3.s:534    .text:0000000000000268 .L0 
     /tmp/ccNgl2x3.s:537    .text:0000000000000270 .L0 
     /tmp/ccNgl2x3.s:543    .text:0000000000000270 _Z10sem_signalP3SCB
     /tmp/ccNgl2x3.s:546    .text:0000000000000270 .L0 
     /tmp/ccNgl2x3.s:548    .text:0000000000000270 .L0 
     /tmp/ccNgl2x3.s:549    .text:0000000000000270 .L0 
     /tmp/ccNgl2x3.s:550    .text:0000000000000270 .L0 
     /tmp/ccNgl2x3.s:552    .text:0000000000000274 .L0 
GAS LISTING /tmp/ccNgl2x3.s 			page 22


     /tmp/ccNgl2x3.s:553    .text:0000000000000278 .L0 
     /tmp/ccNgl2x3.s:556    .text:0000000000000280 .L0 
     /tmp/ccNgl2x3.s:557    .text:0000000000000280 .L0 
     /tmp/ccNgl2x3.s:559    .text:0000000000000284 .L0 
     /tmp/ccNgl2x3.s:561    .text:0000000000000284 .L0 
   src/syscall_c.cpp:101    .text:0000000000000284 .L0 
     /tmp/ccNgl2x3.s:567    .text:0000000000000288 .L0 
     /tmp/ccNgl2x3.s:569    .text:0000000000000288 .L0 
     /tmp/ccNgl2x3.s:574    .text:0000000000000294 .L0 
     /tmp/ccNgl2x3.s:575    .text:0000000000000294 .L0 
     /tmp/ccNgl2x3.s:577    .text:0000000000000298 .L0 
     /tmp/ccNgl2x3.s:578    .text:000000000000029c .L0 
     /tmp/ccNgl2x3.s:580    .text:00000000000002a0 .L0 
     /tmp/ccNgl2x3.s:581    .text:00000000000002a0 .L0 
     /tmp/ccNgl2x3.s:583    .text:00000000000002a4 .L0 
     /tmp/ccNgl2x3.s:588    .text:00000000000002a8 .L0 
     /tmp/ccNgl2x3.s:591    .text:00000000000002ac .L0 
     /tmp/ccNgl2x3.s:592    .text:00000000000002b0 .L0 
     /tmp/ccNgl2x3.s:598    .text:00000000000002b0 _Z9sem_closeP3SCB
     /tmp/ccNgl2x3.s:601    .text:00000000000002b0 .L0 
     /tmp/ccNgl2x3.s:603    .text:00000000000002b0 .L0 
     /tmp/ccNgl2x3.s:604    .text:00000000000002b0 .L0 
     /tmp/ccNgl2x3.s:605    .text:00000000000002b0 .L0 
     /tmp/ccNgl2x3.s:607    .text:00000000000002b4 .L0 
     /tmp/ccNgl2x3.s:608    .text:00000000000002b8 .L0 
     /tmp/ccNgl2x3.s:611    .text:00000000000002c0 .L0 
     /tmp/ccNgl2x3.s:612    .text:00000000000002c0 .L0 
     /tmp/ccNgl2x3.s:614    .text:00000000000002c4 .L0 
     /tmp/ccNgl2x3.s:616    .text:00000000000002c4 .L0 
   src/syscall_c.cpp:112    .text:00000000000002c4 .L0 
     /tmp/ccNgl2x3.s:622    .text:00000000000002c8 .L0 
     /tmp/ccNgl2x3.s:624    .text:00000000000002c8 .L0 
     /tmp/ccNgl2x3.s:629    .text:00000000000002d4 .L0 
     /tmp/ccNgl2x3.s:630    .text:00000000000002d4 .L0 
     /tmp/ccNgl2x3.s:632    .text:00000000000002d8 .L0 
     /tmp/ccNgl2x3.s:633    .text:00000000000002dc .L0 
     /tmp/ccNgl2x3.s:635    .text:00000000000002e0 .L0 
     /tmp/ccNgl2x3.s:636    .text:00000000000002e0 .L0 
     /tmp/ccNgl2x3.s:638    .text:00000000000002e4 .L0 
     /tmp/ccNgl2x3.s:643    .text:00000000000002e8 .L0 
     /tmp/ccNgl2x3.s:646    .text:00000000000002ec .L0 
     /tmp/ccNgl2x3.s:647    .text:00000000000002f0 .L0 
     /tmp/ccNgl2x3.s:653    .text:00000000000002f0 _Z10time_sleepm
     /tmp/ccNgl2x3.s:656    .text:00000000000002f0 .L0 
     /tmp/ccNgl2x3.s:658    .text:00000000000002f0 .L0 
     /tmp/ccNgl2x3.s:659    .text:00000000000002f0 .L0 
     /tmp/ccNgl2x3.s:660    .text:00000000000002f0 .L0 
     /tmp/ccNgl2x3.s:662    .text:00000000000002f4 .L0 
     /tmp/ccNgl2x3.s:663    .text:00000000000002f8 .L0 
     /tmp/ccNgl2x3.s:666    .text:0000000000000300 .L0 
     /tmp/ccNgl2x3.s:667    .text:0000000000000300 .L0 
     /tmp/ccNgl2x3.s:669    .text:0000000000000304 .L0 
     /tmp/ccNgl2x3.s:671    .text:0000000000000304 .L0 
   src/syscall_c.cpp:121    .text:0000000000000304 .L0 
     /tmp/ccNgl2x3.s:677    .text:0000000000000308 .L0 
     /tmp/ccNgl2x3.s:679    .text:0000000000000308 .L0 
     /tmp/ccNgl2x3.s:684    .text:0000000000000314 .L0 
GAS LISTING /tmp/ccNgl2x3.s 			page 23


     /tmp/ccNgl2x3.s:685    .text:0000000000000314 .L0 
     /tmp/ccNgl2x3.s:688    .text:000000000000031c .L0 
     /tmp/ccNgl2x3.s:689    .text:000000000000031c .L0 
     /tmp/ccNgl2x3.s:691    .text:0000000000000320 .L0 
     /tmp/ccNgl2x3.s:692    .text:0000000000000324 .L0 
     /tmp/ccNgl2x3.s:694    .text:0000000000000328 .L0 
     /tmp/ccNgl2x3.s:695    .text:0000000000000328 .L0 
     /tmp/ccNgl2x3.s:697    .text:000000000000032c .L0 
     /tmp/ccNgl2x3.s:702    .text:0000000000000330 .L0 
     /tmp/ccNgl2x3.s:705    .text:0000000000000334 .L0 
     /tmp/ccNgl2x3.s:706    .text:0000000000000338 .L0 
     /tmp/ccNgl2x3.s:712    .text:0000000000000338 _Z4getcv
     /tmp/ccNgl2x3.s:715    .text:0000000000000338 .L0 
     /tmp/ccNgl2x3.s:716    .text:0000000000000338 .L0 
     /tmp/ccNgl2x3.s:717    .text:000000000000033c .L0 
     /tmp/ccNgl2x3.s:720    .text:0000000000000344 .L0 
     /tmp/ccNgl2x3.s:721    .text:0000000000000344 .L0 
     /tmp/ccNgl2x3.s:723    .text:0000000000000348 .L0 
     /tmp/ccNgl2x3.s:726    .text:0000000000000348 .L0 
     /tmp/ccNgl2x3.s:727    .text:0000000000000348 .L0 
     /tmp/ccNgl2x3.s:728    .text:0000000000000348 .L0 
     /tmp/ccNgl2x3.s:732    .text:0000000000000354 .L0 
     /tmp/ccNgl2x3.s:734    .text:000000000000035c .L0 
     /tmp/ccNgl2x3.s:736    .text:0000000000000360 .L0 
     /tmp/ccNgl2x3.s:737    .text:0000000000000360 .L0 
     /tmp/ccNgl2x3.s:739    .text:0000000000000364 .L0 
     /tmp/ccNgl2x3.s:741    .text:0000000000000368 .L0 
     /tmp/ccNgl2x3.s:747    .text:0000000000000368 _Z4putcc
     /tmp/ccNgl2x3.s:750    .text:0000000000000368 .L0 
     /tmp/ccNgl2x3.s:752    .text:0000000000000368 .L0 
     /tmp/ccNgl2x3.s:753    .text:000000000000036c .L0 
     /tmp/ccNgl2x3.s:756    .text:0000000000000374 .L0 
     /tmp/ccNgl2x3.s:757    .text:0000000000000374 .L0 
     /tmp/ccNgl2x3.s:759    .text:0000000000000378 .L0 
     /tmp/ccNgl2x3.s:762    .text:0000000000000378 .L0 
     /tmp/ccNgl2x3.s:763    .text:0000000000000378 .L0 
   src/syscall_c.cpp:136    .text:0000000000000378 .L0 
     /tmp/ccNgl2x3.s:769    .text:000000000000037c .L0 
     /tmp/ccNgl2x3.s:771    .text:000000000000037c .L0 
     /tmp/ccNgl2x3.s:776    .text:0000000000000388 .L0 
     /tmp/ccNgl2x3.s:777    .text:000000000000038c .L0 
     /tmp/ccNgl2x3.s:779    .text:0000000000000390 .L0 
     /tmp/ccNgl2x3.s:780    .text:0000000000000390 .L0 
     /tmp/ccNgl2x3.s:782    .text:0000000000000394 .L0 
     /tmp/ccNgl2x3.s:784    .text:0000000000000398 .L0 
     /tmp/ccNgl2x3.s:793    .text:0000000000000398 .L0 
     /tmp/ccNgl2x3.s:234    .text:00000000000000f4 .L9
     /tmp/ccNgl2x3.s:241    .text:00000000000000fc .L10
     /tmp/ccNgl2x3.s:222    .text:00000000000000e4 .L8
     /tmp/ccNgl2x3.s:469    .text:0000000000000220 .L22
     /tmp/ccNgl2x3.s:457    .text:0000000000000210 .L21
     /tmp/ccNgl2x3.s:531    .text:0000000000000268 .L26
     /tmp/ccNgl2x3.s:517    .text:0000000000000258 .L25
     /tmp/ccNgl2x3.s:586    .text:00000000000002a8 .L30
     /tmp/ccNgl2x3.s:641    .text:00000000000002e8 .L37
     /tmp/ccNgl2x3.s:700    .text:0000000000000330 .L44
     /tmp/ccNgl2x3.s:2457   .debug_abbrev:0000000000000000 .Ldebug_abbrev0
GAS LISTING /tmp/ccNgl2x3.s 			page 24


     /tmp/ccNgl2x3.s:4059   .debug_str:0000000000000994 .LASF176
     /tmp/ccNgl2x3.s:3933   .debug_str:00000000000005b6 .LASF177
     /tmp/ccNgl2x3.s:3873   .debug_str:00000000000003ad .LASF178
     /tmp/ccNgl2x3.s:5      .text:0000000000000000 .Ltext0
     /tmp/ccNgl2x3.s:787    .text:0000000000000398 .Letext0
     /tmp/ccNgl2x3.s:3759   .debug_line:0000000000000000 .Ldebug_line0
     /tmp/ccNgl2x3.s:3879   .debug_str:00000000000003e1 .LASF0
     /tmp/ccNgl2x3.s:3911   .debug_str:00000000000004fd .LASF1
     /tmp/ccNgl2x3.s:3997   .debug_str:00000000000007b7 .LASF2
     /tmp/ccNgl2x3.s:4007   .debug_str:0000000000000809 .LASF4
     /tmp/ccNgl2x3.s:3893   .debug_str:0000000000000443 .LASF3
     /tmp/ccNgl2x3.s:3771   .debug_str:0000000000000039 .LASF5
     /tmp/ccNgl2x3.s:3973   .debug_str:00000000000006fa .LASF6
     /tmp/ccNgl2x3.s:3963   .debug_str:00000000000006b5 .LASF7
     /tmp/ccNgl2x3.s:3903   .debug_str:00000000000004be .LASF8
     /tmp/ccNgl2x3.s:3851   .debug_str:00000000000002f8 .LASF9
     /tmp/ccNgl2x3.s:3861   .debug_str:0000000000000356 .LASF10
     /tmp/ccNgl2x3.s:3795   .debug_str:0000000000000102 .LASF11
     /tmp/ccNgl2x3.s:3845   .debug_str:00000000000002c5 .LASF12
     /tmp/ccNgl2x3.s:3799   .debug_str:0000000000000116 .LASF13
     /tmp/ccNgl2x3.s:3793   .debug_str:00000000000000f2 .LASF14
     /tmp/ccNgl2x3.s:4035   .debug_str:00000000000008f2 .LASF15
     /tmp/ccNgl2x3.s:3829   .debug_str:0000000000000232 .LASF16
     /tmp/ccNgl2x3.s:4027   .debug_str:00000000000008b8 .LASF17
     /tmp/ccNgl2x3.s:3843   .debug_str:00000000000002b8 .LASF18
     /tmp/ccNgl2x3.s:3841   .debug_str:00000000000002ab .LASF179
     /tmp/ccNgl2x3.s:4045   .debug_str:000000000000092b .LASF19
     /tmp/ccNgl2x3.s:4097   .debug_str:0000000000000b89 .LASF21
     /tmp/ccNgl2x3.s:3821   .debug_str:00000000000001c5 .LASF20
     /tmp/ccNgl2x3.s:4071   .debug_str:0000000000000a9c .LASF22
     /tmp/ccNgl2x3.s:4043   .debug_str:000000000000091b .LASF23
     /tmp/ccNgl2x3.s:3895   .debug_str:0000000000000455 .LASF24
     /tmp/ccNgl2x3.s:3839   .debug_str:000000000000029b .LASF27
     /tmp/ccNgl2x3.s:4129   .debug_str:0000000000000c8c .LASF29
     /tmp/ccNgl2x3.s:3863   .debug_str:0000000000000364 .LASF25
     /tmp/ccNgl2x3.s:3917   .debug_str:000000000000053c .LASF26
     /tmp/ccNgl2x3.s:3943   .debug_str:00000000000005fc .LASF28
     /tmp/ccNgl2x3.s:4125   .debug_str:0000000000000c6a .LASF30
     /tmp/ccNgl2x3.s:4049   .debug_str:000000000000093b .LASF31
     /tmp/ccNgl2x3.s:4111   .debug_str:0000000000000c08 .LASF32
     /tmp/ccNgl2x3.s:4077   .debug_str:0000000000000afa .LASF33
     /tmp/ccNgl2x3.s:4061   .debug_str:0000000000000a58 .LASF34
     /tmp/ccNgl2x3.s:3815   .debug_str:00000000000001a1 .LASF35
     /tmp/ccNgl2x3.s:4003   .debug_str:00000000000007e3 .LASF36
     /tmp/ccNgl2x3.s:3785   .debug_str:00000000000000bc .LASF37
     /tmp/ccNgl2x3.s:3865   .debug_str:0000000000000372 .LASF38
     /tmp/ccNgl2x3.s:4121   .debug_str:0000000000000c49 .LASF39
     /tmp/ccNgl2x3.s:3773   .debug_str:0000000000000040 .LASF40
     /tmp/ccNgl2x3.s:4023   .debug_str:00000000000008a3 .LASF180
     /tmp/ccNgl2x3.s:4085   .debug_str:0000000000000b1f .LASF41
     /tmp/ccNgl2x3.s:4015   .debug_str:0000000000000867 .LASF42
     /tmp/ccNgl2x3.s:3915   .debug_str:0000000000000536 .LASF47
     /tmp/ccNgl2x3.s:3919   .debug_str:0000000000000556 .LASF49
     /tmp/ccNgl2x3.s:4057   .debug_str:000000000000098c .LASF51
     /tmp/ccNgl2x3.s:3909   .debug_str:00000000000004f8 .LASF43
     /tmp/ccNgl2x3.s:4115   .debug_str:0000000000000c2b .LASF44
     /tmp/ccNgl2x3.s:4119   .debug_str:0000000000000c3c .LASF45
GAS LISTING /tmp/ccNgl2x3.s 			page 25


     /tmp/ccNgl2x3.s:3833   .debug_str:0000000000000261 .LASF46
     /tmp/ccNgl2x3.s:3763   .debug_str:0000000000000007 .LASF53
     /tmp/ccNgl2x3.s:3887   .debug_str:0000000000000411 .LASF59
     /tmp/ccNgl2x3.s:3871   .debug_str:00000000000003a2 .LASF181
     /tmp/ccNgl2x3.s:3783   .debug_str:00000000000000a6 .LASF182
     /tmp/ccNgl2x3.s:3957   .debug_str:000000000000068b .LASF48
     /tmp/ccNgl2x3.s:3787   .debug_str:00000000000000c8 .LASF50
     /tmp/ccNgl2x3.s:3985   .debug_str:0000000000000747 .LASF52
     /tmp/ccNgl2x3.s:3805   .debug_str:0000000000000144 .LASF105
     /tmp/ccNgl2x3.s:3837   .debug_str:000000000000028e .LASF54
     /tmp/ccNgl2x3.s:3827   .debug_str:0000000000000219 .LASF56
     /tmp/ccNgl2x3.s:3937   .debug_str:00000000000005d1 .LASF55
     /tmp/ccNgl2x3.s:3813   .debug_str:000000000000018a .LASF57
     /tmp/ccNgl2x3.s:4017   .debug_str:0000000000000889 .LASF58
     /tmp/ccNgl2x3.s:3907   .debug_str:00000000000004db .LASF60
     /tmp/ccNgl2x3.s:3767   .debug_str:000000000000001f .LASF61
     /tmp/ccNgl2x3.s:4021   .debug_str:000000000000089d .LASF62
     /tmp/ccNgl2x3.s:4093   .debug_str:0000000000000b71 .LASF63
     /tmp/ccNgl2x3.s:3905   .debug_str:00000000000004d1 .LASF64
     /tmp/ccNgl2x3.s:4117   .debug_str:0000000000000c37 .LASF65
     /tmp/ccNgl2x3.s:4025   .debug_str:00000000000008af .LASF66
     /tmp/ccNgl2x3.s:3955   .debug_str:0000000000000683 .LASF67
     /tmp/ccNgl2x3.s:3923   .debug_str:0000000000000570 .LASF68
     /tmp/ccNgl2x3.s:4101   .debug_str:0000000000000bae .LASF69
     /tmp/ccNgl2x3.s:3819   .debug_str:00000000000001b7 .LASF70
     /tmp/ccNgl2x3.s:4067   .debug_str:0000000000000a88 .LASF71
     /tmp/ccNgl2x3.s:4013   .debug_str:0000000000000856 .LASF132
     /tmp/ccNgl2x3.s:3817   .debug_str:00000000000001ae .LASF77
     /tmp/ccNgl2x3.s:3777   .debug_str:0000000000000075 .LASF79
     /tmp/ccNgl2x3.s:3881   .debug_str:00000000000003ee .LASF72
     /tmp/ccNgl2x3.s:4087   .debug_str:0000000000000b30 .LASF73
     /tmp/ccNgl2x3.s:3883   .debug_str:00000000000003fd .LASF74
     /tmp/ccNgl2x3.s:4009   .debug_str:0000000000000810 .LASF75
     /tmp/ccNgl2x3.s:3921   .debug_str:0000000000000566 .LASF76
     /tmp/ccNgl2x3.s:3979   .debug_str:000000000000071d .LASF78
     /tmp/ccNgl2x3.s:4103   .debug_str:0000000000000bbb .LASF80
     /tmp/ccNgl2x3.s:3927   .debug_str:00000000000005a0 .LASF81
     /tmp/ccNgl2x3.s:3791   .debug_str:00000000000000e6 .LASF82
     /tmp/ccNgl2x3.s:3855   .debug_str:000000000000031f .LASF83
     /tmp/ccNgl2x3.s:4063   .debug_str:0000000000000a71 .LASF84
     /tmp/ccNgl2x3.s:4095   .debug_str:0000000000000b7a .LASF85
     /tmp/ccNgl2x3.s:4041   .debug_str:0000000000000914 .LASF86
     /tmp/ccNgl2x3.s:3899   .debug_str:000000000000049f .LASF87
     /tmp/ccNgl2x3.s:3769   .debug_str:000000000000002a .LASF88
     /tmp/ccNgl2x3.s:4089   .debug_str:0000000000000b4e .LASF89
     /tmp/ccNgl2x3.s:4051   .debug_str:0000000000000946 .LASF90
     /tmp/ccNgl2x3.s:4039   .debug_str:0000000000000907 .LASF91
     /tmp/ccNgl2x3.s:3995   .debug_str:00000000000007a7 .LASF92
     /tmp/ccNgl2x3.s:4107   .debug_str:0000000000000bdf .LASF93
     /tmp/ccNgl2x3.s:3889   .debug_str:000000000000041e .LASF94
     /tmp/ccNgl2x3.s:4075   .debug_str:0000000000000adc .LASF95
     /tmp/ccNgl2x3.s:4005   .debug_str:00000000000007fb .LASF96
     /tmp/ccNgl2x3.s:3823   .debug_str:00000000000001d8 .LASF97
     /tmp/ccNgl2x3.s:3831   .debug_str:0000000000000248 .LASF98
     /tmp/ccNgl2x3.s:3853   .debug_str:0000000000000308 .LASF99
     /tmp/ccNgl2x3.s:4105   .debug_str:0000000000000bd6 .LASF100
     /tmp/ccNgl2x3.s:3993   .debug_str:000000000000079a .LASF101
GAS LISTING /tmp/ccNgl2x3.s 			page 26


     /tmp/ccNgl2x3.s:3847   .debug_str:00000000000002d4 .LASF102
     /tmp/ccNgl2x3.s:3859   .debug_str:000000000000034e .LASF103
     /tmp/ccNgl2x3.s:3811   .debug_str:0000000000000178 .LASF104
     /tmp/ccNgl2x3.s:3977   .debug_str:0000000000000711 .LASF106
     /tmp/ccNgl2x3.s:3877   .debug_str:00000000000003db .LASF107
     /tmp/ccNgl2x3.s:3975   .debug_str:0000000000000701 .LASF108
     /tmp/ccNgl2x3.s:3765   .debug_str:0000000000000017 .LASF109
     /tmp/ccNgl2x3.s:4123   .debug_str:0000000000000c58 .LASF110
     /tmp/ccNgl2x3.s:4031   .debug_str:00000000000008df .LASF111
     /tmp/ccNgl2x3.s:3953   .debug_str:000000000000067e .LASF112
     /tmp/ccNgl2x3.s:3875   .debug_str:00000000000003d2 .LASF113
     /tmp/ccNgl2x3.s:4083   .debug_str:0000000000000b16 .LASF114
     /tmp/ccNgl2x3.s:3789   .debug_str:00000000000000e0 .LASF115
     /tmp/ccNgl2x3.s:3961   .debug_str:00000000000006a5 .LASF116
     /tmp/ccNgl2x3.s:3849   .debug_str:00000000000002ec .LASF183
     /tmp/ccNgl2x3.s:4091   .debug_str:0000000000000b68 .LASF117
     /tmp/ccNgl2x3.s:3951   .debug_str:0000000000000679 .LASF118
     /tmp/ccNgl2x3.s:3797   .debug_str:0000000000000111 .LASF119
     /tmp/ccNgl2x3.s:3761   .debug_str:0000000000000000 .LASF120
     /tmp/ccNgl2x3.s:3991   .debug_str:000000000000076c .LASF121
     /tmp/ccNgl2x3.s:3897   .debug_str:0000000000000471 .LASF184
     /tmp/ccNgl2x3.s:4069   .debug_str:0000000000000a92 .LASF122
     /tmp/ccNgl2x3.s:4073   .debug_str:0000000000000abb .LASF123
     /tmp/ccNgl2x3.s:3935   .debug_str:00000000000005c8 .LASF124
     /tmp/ccNgl2x3.s:3945   .debug_str:000000000000060a .LASF125
     /tmp/ccNgl2x3.s:3809   .debug_str:000000000000016b .LASF126
     /tmp/ccNgl2x3.s:3949   .debug_str:0000000000000654 .LASF127
     /tmp/ccNgl2x3.s:3959   .debug_str:0000000000000698 .LASF128
     /tmp/ccNgl2x3.s:3925   .debug_str:000000000000057b .LASF129
     /tmp/ccNgl2x3.s:3779   .debug_str:0000000000000088 .LASF130
     /tmp/ccNgl2x3.s:4099   .debug_str:0000000000000ba0 .LASF131
     /tmp/ccNgl2x3.s:4053   .debug_str:0000000000000952 .LASF133
     /tmp/ccNgl2x3.s:3947   .debug_str:000000000000062b .LASF134
     /tmp/ccNgl2x3.s:3939   .debug_str:00000000000005dc .LASF135
     /tmp/ccNgl2x3.s:4011   .debug_str:000000000000082e .LASF136
     /tmp/ccNgl2x3.s:3891   .debug_str:0000000000000431 .LASF137
     /tmp/ccNgl2x3.s:4055   .debug_str:0000000000000962 .LASF138
     /tmp/ccNgl2x3.s:3967   .debug_str:00000000000006d5 .LASF139
     /tmp/ccNgl2x3.s:3825   .debug_str:00000000000001f1 .LASF140
     /tmp/ccNgl2x3.s:3931   .debug_str:00000000000005b1 .LASF141
     /tmp/ccNgl2x3.s:4037   .debug_str:00000000000008fe .LASF142
     /tmp/ccNgl2x3.s:748    .text:0000000000000368 .LFB58
     /tmp/ccNgl2x3.s:785    .text:0000000000000398 .LFE58
     /tmp/ccNgl2x3.s:3354   .debug_loc:0000000000000000 .LLST19
     /tmp/ccNgl2x3.s:4079   .debug_str:0000000000000b08 .LASF143
     /tmp/ccNgl2x3.s:774    .text:0000000000000388 .LVL75
     /tmp/ccNgl2x3.s:4047   .debug_str:0000000000000936 .LASF144
     /tmp/ccNgl2x3.s:3885   .debug_str:000000000000040c .LASF145
     /tmp/ccNgl2x3.s:4081   .debug_str:0000000000000b0d .LASF147
     /tmp/ccNgl2x3.s:713    .text:0000000000000338 .LFB57
     /tmp/ccNgl2x3.s:742    .text:0000000000000368 .LFE57
     /tmp/ccNgl2x3.s:730    .text:0000000000000354 .LVL71
     /tmp/ccNgl2x3.s:3803   .debug_str:0000000000000139 .LASF146
     /tmp/ccNgl2x3.s:3971   .debug_str:00000000000006ea .LASF148
     /tmp/ccNgl2x3.s:654    .text:00000000000002f0 .LFB56
     /tmp/ccNgl2x3.s:707    .text:0000000000000338 .LFE56
     /tmp/ccNgl2x3.s:3969   .debug_str:00000000000006e5 .LASF149
GAS LISTING /tmp/ccNgl2x3.s 			page 27


     /tmp/ccNgl2x3.s:3368   .debug_loc:0000000000000039 .LLST18
     /tmp/ccNgl2x3.s:682    .text:0000000000000314 .LVL66
     /tmp/ccNgl2x3.s:686    .text:000000000000031c .LVL67
     /tmp/ccNgl2x3.s:3981   .debug_str:000000000000072d .LASF150
     /tmp/ccNgl2x3.s:4065   .debug_str:0000000000000a76 .LASF151
     /tmp/ccNgl2x3.s:599    .text:00000000000002b0 .LFB55
     /tmp/ccNgl2x3.s:648    .text:00000000000002f0 .LFE55
     /tmp/ccNgl2x3.s:4127   .debug_str:0000000000000c85 .LASF152
     /tmp/ccNgl2x3.s:3393   .debug_loc:000000000000009b .LLST17
     /tmp/ccNgl2x3.s:627    .text:00000000000002d4 .LVL61
     /tmp/ccNgl2x3.s:3869   .debug_str:0000000000000397 .LASF153
     /tmp/ccNgl2x3.s:3807   .debug_str:0000000000000157 .LASF154
     /tmp/ccNgl2x3.s:544    .text:0000000000000270 .LFB54
     /tmp/ccNgl2x3.s:593    .text:00000000000002b0 .LFE54
     /tmp/ccNgl2x3.s:3418   .debug_loc:00000000000000fd .LLST16
     /tmp/ccNgl2x3.s:572    .text:0000000000000294 .LVL56
     /tmp/ccNgl2x3.s:4019   .debug_str:0000000000000894 .LASF155
     /tmp/ccNgl2x3.s:3941   .debug_str:00000000000005eb .LASF156
     /tmp/ccNgl2x3.s:482    .text:0000000000000228 .LFB53
     /tmp/ccNgl2x3.s:538    .text:0000000000000270 .LFE53
     /tmp/ccNgl2x3.s:3443   .debug_loc:000000000000015f .LLST15
     /tmp/ccNgl2x3.s:514    .text:0000000000000254 .LVL49
     /tmp/ccNgl2x3.s:3989   .debug_str:0000000000000763 .LASF157
     /tmp/ccNgl2x3.s:3987   .debug_str:0000000000000750 .LASF158
     /tmp/ccNgl2x3.s:417    .text:00000000000001e0 .LFB52
     /tmp/ccNgl2x3.s:476    .text:0000000000000228 .LFE52
     /tmp/ccNgl2x3.s:3474   .debug_loc:00000000000001e5 .LLST13
     /tmp/ccNgl2x3.s:3781   .debug_str:00000000000000a1 .LASF159
     /tmp/ccNgl2x3.s:3496   .debug_loc:0000000000000244 .LLST14
     /tmp/ccNgl2x3.s:448    .text:0000000000000204 .LVL42
     /tmp/ccNgl2x3.s:3965   .debug_str:00000000000006c8 .LASF160
     /tmp/ccNgl2x3.s:3857   .debug_str:0000000000000337 .LASF161
     /tmp/ccNgl2x3.s:322    .text:0000000000000160 .LFB51
     /tmp/ccNgl2x3.s:359    .text:0000000000000190 .LFE51
     /tmp/ccNgl2x3.s:3510   .debug_loc:000000000000027d .LLST8
     /tmp/ccNgl2x3.s:348    .text:0000000000000180 .LVL32
     /tmp/ccNgl2x3.s:3929   .debug_str:00000000000005a5 .LASF162
     /tmp/ccNgl2x3.s:4029   .debug_str:00000000000008ce .LASF163
     /tmp/ccNgl2x3.s:287    .text:0000000000000130 .LFB50
     /tmp/ccNgl2x3.s:316    .text:0000000000000160 .LFE50
     /tmp/ccNgl2x3.s:304    .text:000000000000014c .LVL28
     /tmp/ccNgl2x3.s:3983   .debug_str:0000000000000737 .LASF164
     /tmp/ccNgl2x3.s:3775   .debug_str:0000000000000060 .LASF165
     /tmp/ccNgl2x3.s:253    .text:0000000000000104 .LFB49
     /tmp/ccNgl2x3.s:281    .text:0000000000000130 .LFE49
     /tmp/ccNgl2x3.s:270    .text:0000000000000120 .LVL26
     /tmp/ccNgl2x3.s:4033   .debug_str:00000000000008e4 .LASF166
     /tmp/ccNgl2x3.s:3835   .debug_str:000000000000026d .LASF167
     /tmp/ccNgl2x3.s:365    .text:0000000000000190 .LFB48
     /tmp/ccNgl2x3.s:411    .text:00000000000001e0 .LFE48
     /tmp/ccNgl2x3.s:3524   .debug_loc:00000000000002b6 .LLST9
     /tmp/ccNgl2x3.s:4113   .debug_str:0000000000000c1e .LASF168
     /tmp/ccNgl2x3.s:3542   .debug_loc:0000000000000302 .LLST10
     /tmp/ccNgl2x3.s:3556   .debug_loc:000000000000033b .LLST11
     /tmp/ccNgl2x3.s:3570   .debug_loc:0000000000000374 .LLST12
     /tmp/ccNgl2x3.s:385    .text:00000000000001b4 .LVL34
     /tmp/ccNgl2x3.s:392    .text:00000000000001c4 .LVL36
GAS LISTING /tmp/ccNgl2x3.s 			page 28


     /tmp/ccNgl2x3.s:3801   .debug_str:0000000000000126 .LASF169
     /tmp/ccNgl2x3.s:3913   .debug_str:0000000000000510 .LASF170
     /tmp/ccNgl2x3.s:157    .text:0000000000000098 .LFB47
     /tmp/ccNgl2x3.s:247    .text:0000000000000104 .LFE47
     /tmp/ccNgl2x3.s:3577   .debug_loc:0000000000000397 .LLST4
     /tmp/ccNgl2x3.s:3606   .debug_loc:000000000000040c .LLST5
     /tmp/ccNgl2x3.s:3620   .debug_loc:0000000000000445 .LLST6
     /tmp/ccNgl2x3.s:3634   .debug_loc:000000000000047e .LLST7
     /tmp/ccNgl2x3.s:193    .text:00000000000000c0 .LVL17
     /tmp/ccNgl2x3.s:213    .text:00000000000000d8 .LVL19
     /tmp/ccNgl2x3.s:4109   .debug_str:0000000000000bfa .LASF171
     /tmp/ccNgl2x3.s:113    .text:0000000000000064 .LFB46
     /tmp/ccNgl2x3.s:151    .text:0000000000000098 .LFE46
     /tmp/ccNgl2x3.s:3999   .debug_str:00000000000007c5 .LASF172
     /tmp/ccNgl2x3.s:3645   .debug_loc:00000000000004b4 .LLST3
     /tmp/ccNgl2x3.s:139    .text:0000000000000084 .LVL13
     /tmp/ccNgl2x3.s:3867   .debug_str:0000000000000389 .LASF173
     /tmp/ccNgl2x3.s:53     .text:0000000000000024 .LFB45
     /tmp/ccNgl2x3.s:107    .text:0000000000000064 .LFE45
     /tmp/ccNgl2x3.s:3659   .debug_loc:00000000000004ed .LLST1
     /tmp/ccNgl2x3.s:68     .text:0000000000000034 .LBB4
     /tmp/ccNgl2x3.s:83     .text:0000000000000044 .LBE4
     /tmp/ccNgl2x3.s:3710   .debug_loc:0000000000000578 .LLST2
     /tmp/ccNgl2x3.s:96     .text:0000000000000054 .LVL9
     /tmp/ccNgl2x3.s:3901   .debug_str:00000000000004b0 .LASF174
     /tmp/ccNgl2x3.s:4001   .debug_str:00000000000007d0 .LASF175
     /tmp/ccNgl2x3.s:10     .text:0000000000000000 .LFB44
     /tmp/ccNgl2x3.s:47     .text:0000000000000024 .LFE44
     /tmp/ccNgl2x3.s:3724   .debug_loc:00000000000005b1 .LLST0
     /tmp/ccNgl2x3.s:751    .text:0000000000000368 .LVL72
     /tmp/ccNgl2x3.s:772    .text:0000000000000380 .LVL74
     /tmp/ccNgl2x3.s:657    .text:00000000000002f0 .LVL64
     /tmp/ccNgl2x3.s:680    .text:000000000000030c .LVL65
     /tmp/ccNgl2x3.s:699    .text:0000000000000330 .LVL68
     /tmp/ccNgl2x3.s:703    .text:0000000000000334 .LVL69
     /tmp/ccNgl2x3.s:602    .text:00000000000002b0 .LVL59
     /tmp/ccNgl2x3.s:625    .text:00000000000002cc .LVL60
     /tmp/ccNgl2x3.s:640    .text:00000000000002e8 .LVL62
     /tmp/ccNgl2x3.s:644    .text:00000000000002ec .LVL63
     /tmp/ccNgl2x3.s:547    .text:0000000000000270 .LVL54
     /tmp/ccNgl2x3.s:570    .text:000000000000028c .LVL55
     /tmp/ccNgl2x3.s:585    .text:00000000000002a8 .LVL57
     /tmp/ccNgl2x3.s:589    .text:00000000000002ac .LVL58
     /tmp/ccNgl2x3.s:485    .text:0000000000000228 .LVL46
     /tmp/ccNgl2x3.s:512    .text:000000000000024c .LVL48
     /tmp/ccNgl2x3.s:525    .text:0000000000000260 .LVL50
     /tmp/ccNgl2x3.s:528    .text:0000000000000264 .LVL51
     /tmp/ccNgl2x3.s:530    .text:0000000000000268 .LVL52
     /tmp/ccNgl2x3.s:535    .text:000000000000026c .LVL53
     /tmp/ccNgl2x3.s:420    .text:00000000000001e0 .LVL39
     /tmp/ccNgl2x3.s:446    .text:00000000000001fc .LVL41
     /tmp/ccNgl2x3.s:456    .text:0000000000000210 .LVL43
     /tmp/ccNgl2x3.s:468    .text:0000000000000220 .LVL44
     /tmp/ccNgl2x3.s:473    .text:0000000000000224 .LVL45
     /tmp/ccNgl2x3.s:325    .text:0000000000000160 .LVL29
     /tmp/ccNgl2x3.s:346    .text:0000000000000178 .LVL31
     /tmp/ccNgl2x3.s:368    .text:0000000000000190 .LVL33
GAS LISTING /tmp/ccNgl2x3.s 			page 29


     /tmp/ccNgl2x3.s:406    .text:00000000000001d8 .LVL38
     /tmp/ccNgl2x3.s:387    .text:00000000000001b8 .LVL35
     /tmp/ccNgl2x3.s:403    .text:00000000000001d4 .LVL37
     /tmp/ccNgl2x3.s:160    .text:0000000000000098 .LVL14
     /tmp/ccNgl2x3.s:191    .text:00000000000000b8 .LVL16
     /tmp/ccNgl2x3.s:221    .text:00000000000000e4 .LVL20
     /tmp/ccNgl2x3.s:233    .text:00000000000000f4 .LVL21
     /tmp/ccNgl2x3.s:240    .text:00000000000000fc .LVL23
     /tmp/ccNgl2x3.s:244    .text:0000000000000100 .LVL24
     /tmp/ccNgl2x3.s:211    .text:00000000000000d0 .LVL18
     /tmp/ccNgl2x3.s:238    .text:00000000000000f8 .LVL22
     /tmp/ccNgl2x3.s:116    .text:0000000000000064 .LVL10
     /tmp/ccNgl2x3.s:137    .text:000000000000007c .LVL12
     /tmp/ccNgl2x3.s:56     .text:0000000000000024 .LVL4
     /tmp/ccNgl2x3.s:76     .text:000000000000003c .LVL6
     /tmp/ccNgl2x3.s:81     .text:0000000000000044 .LVL7
     /tmp/ccNgl2x3.s:94     .text:000000000000004c .LVL8
     /tmp/ccNgl2x3.s:66     .text:0000000000000034 .LVL5
     /tmp/ccNgl2x3.s:14     .text:0000000000000000 .LVL0
     /tmp/ccNgl2x3.s:34     .text:0000000000000018 .LVL1
     /tmp/ccNgl2x3.s:41     .text:000000000000001c .LVL2
     /tmp/ccNgl2x3.s:44     .text:0000000000000020 .LVL3
     /tmp/ccNgl2x3.s:794    .debug_info:0000000000000000 .Ldebug_info0

NO UNDEFINED SYMBOLS
