GAS LISTING /tmp/ccdAszcp.s 			page 1


   1              		.file	"userMain.cpp"
   2              		.option pic
   3              		.option norelax
   4              		.text
   5              	.Ltext0:
   6              		.align	2
   7              		.globl	_Z8userMainv
   9              	_Z8userMainv:
  10              	.LFB8:
  11              		.file 1 "src/userMain.cpp"
   1:src/userMain.cpp **** #include "../h/hw.h"
   2:src/userMain.cpp **** #include "../h/print.h"
   3:src/userMain.cpp **** #include "../h/console.h"
   4:src/userMain.cpp **** #include "../h/syscall_c.h"
   5:src/userMain.cpp **** #include "../h/PCB.h"
   6:src/userMain.cpp **** 
   7:src/userMain.cpp **** /*void nitA(void* x) {
   8:src/userMain.cpp ****     printString("nit A\n");
   9:src/userMain.cpp ****     thread_dispatch();
  10:src/userMain.cpp ****     for(int i = 0; i < 30000; i++) {
  11:src/userMain.cpp ****         for(int j = 0; j < 10000; j++) {
  12:src/userMain.cpp ****             // uposleno cekanje
  13:src/userMain.cpp ****         }
  14:src/userMain.cpp ****     }
  15:src/userMain.cpp **** 
  16:src/userMain.cpp ****     printInt(*(int*)x);
  17:src/userMain.cpp ****     printString("\nKraj niti A\n");
  18:src/userMain.cpp **** }
  19:src/userMain.cpp **** 
  20:src/userMain.cpp **** void nitB(void* c) {
  21:src/userMain.cpp ****     printString("nit B\n");
  22:src/userMain.cpp ****     __putc(*(char*)c);
  23:src/userMain.cpp ****     __putc('\n');
  24:src/userMain.cpp **** }*/
  25:src/userMain.cpp **** 
  26:src/userMain.cpp **** 
  27:src/userMain.cpp **** 
  28:src/userMain.cpp **** void userMain() {
  12              		.loc 1 28 17
  13              		.cfi_startproc
  14 0000 130101FF 		addi	sp,sp,-16
  15              		.cfi_def_cfa_offset 16
  16 0004 23348100 		sd	s0,8(sp)
  17              		.cfi_offset 8, -8
  18 0008 13040101 		addi	s0,sp,16
  19              		.cfi_def_cfa 8, 0
  29:src/userMain.cpp ****     return;
  20              		.loc 1 29 5
  30:src/userMain.cpp **** }
  21              		.loc 1 30 1 is_stmt 0
  22 000c 03348100 		ld	s0,8(sp)
  23              		.cfi_restore 8
  24              		.cfi_def_cfa 2, 16
  25 0010 13010101 		addi	sp,sp,16
  26              		.cfi_def_cfa_offset 0
  27 0014 67800000 		jr	ra
  28              		.cfi_endproc
GAS LISTING /tmp/ccdAszcp.s 			page 2


  29              	.LFE8:
  31              	.Letext0:
  32              		.file 2 "src/../h/hw.h"
  33              		.file 3 "src/../h/syscall_c.h"
GAS LISTING /tmp/ccdAszcp.s 			page 3

