GAS LISTING /tmp/ccyITIK0.s 			page 1


   1              		.file	"userMain.cpp"
   2              		.option pic
   3              		.option norelax
   4              		.text
   5              	.Ltext0:
   6              		.section	.text._ZN19ConsumerProducerCPP8Consumer3runEv,"axG",@progbits,_ZN19ConsumerProducerCPP8Co
   7              		.align	2
   8              		.weak	_ZN19ConsumerProducerCPP8Consumer3runEv
  10              	_ZN19ConsumerProducerCPP8Consumer3runEv:
  11              	.LFB22:
  12              		.file 1 "src/../test/ConsumerProducer_CPP_API_test.hpp"
   1:src/../test/ConsumerProducer_CPP_API_test.hpp **** //
   2:src/../test/ConsumerProducer_CPP_API_test.hpp **** // Created by os on 4/17/22.
   3:src/../test/ConsumerProducer_CPP_API_test.hpp **** //
   4:src/../test/ConsumerProducer_CPP_API_test.hpp **** 
   5:src/../test/ConsumerProducer_CPP_API_test.hpp **** #ifndef XV6_CONSUMERPRODUCER_CPP_API_TEST_HPP
   6:src/../test/ConsumerProducer_CPP_API_test.hpp **** #define XV6_CONSUMERPRODUCER_CPP_API_TEST_HPP
   7:src/../test/ConsumerProducer_CPP_API_test.hpp **** 
   8:src/../test/ConsumerProducer_CPP_API_test.hpp **** #include "../h/syscall_cpp.h"
   9:src/../test/ConsumerProducer_CPP_API_test.hpp **** 
  10:src/../test/ConsumerProducer_CPP_API_test.hpp **** #include "buffer_CPP_API.hpp"
  11:src/../test/ConsumerProducer_CPP_API_test.hpp **** #include "../h/print.h"
  12:src/../test/ConsumerProducer_CPP_API_test.hpp **** 
  13:src/../test/ConsumerProducer_CPP_API_test.hpp **** namespace ConsumerProducerCPP {
  14:src/../test/ConsumerProducer_CPP_API_test.hpp **** 
  15:src/../test/ConsumerProducer_CPP_API_test.hpp ****     Semaphore *waitForAll;
  16:src/../test/ConsumerProducer_CPP_API_test.hpp **** 
  17:src/../test/ConsumerProducer_CPP_API_test.hpp ****     struct thread_data {
  18:src/../test/ConsumerProducer_CPP_API_test.hpp ****         int id;
  19:src/../test/ConsumerProducer_CPP_API_test.hpp ****         BufferCPP *buffer;
  20:src/../test/ConsumerProducer_CPP_API_test.hpp ****         Semaphore *sem;
  21:src/../test/ConsumerProducer_CPP_API_test.hpp ****     };
  22:src/../test/ConsumerProducer_CPP_API_test.hpp **** 
  23:src/../test/ConsumerProducer_CPP_API_test.hpp ****     volatile int threadEnd = 0;
  24:src/../test/ConsumerProducer_CPP_API_test.hpp **** 
  25:src/../test/ConsumerProducer_CPP_API_test.hpp ****     class ProducerKeyborad : public Thread {
  26:src/../test/ConsumerProducer_CPP_API_test.hpp ****         thread_data *td;
  27:src/../test/ConsumerProducer_CPP_API_test.hpp ****     public:
  28:src/../test/ConsumerProducer_CPP_API_test.hpp ****         ProducerKeyborad(thread_data *_td) : Thread(), td(_td) {}
  29:src/../test/ConsumerProducer_CPP_API_test.hpp **** 
  30:src/../test/ConsumerProducer_CPP_API_test.hpp ****         void run() override {
  31:src/../test/ConsumerProducer_CPP_API_test.hpp ****             int key;
  32:src/../test/ConsumerProducer_CPP_API_test.hpp ****             int i = 0;
  33:src/../test/ConsumerProducer_CPP_API_test.hpp ****             while ((key = getc()) != 0x1b) {
  34:src/../test/ConsumerProducer_CPP_API_test.hpp ****                 td->buffer->put(key);
  35:src/../test/ConsumerProducer_CPP_API_test.hpp ****                 i++;
  36:src/../test/ConsumerProducer_CPP_API_test.hpp ****             }
  37:src/../test/ConsumerProducer_CPP_API_test.hpp **** 
  38:src/../test/ConsumerProducer_CPP_API_test.hpp ****             threadEnd = 1;
  39:src/../test/ConsumerProducer_CPP_API_test.hpp **** 
  40:src/../test/ConsumerProducer_CPP_API_test.hpp ****             delete td->buffer;
  41:src/../test/ConsumerProducer_CPP_API_test.hpp **** 
  42:src/../test/ConsumerProducer_CPP_API_test.hpp ****             td->sem->signal();
  43:src/../test/ConsumerProducer_CPP_API_test.hpp ****         }
  44:src/../test/ConsumerProducer_CPP_API_test.hpp ****     };
  45:src/../test/ConsumerProducer_CPP_API_test.hpp **** 
  46:src/../test/ConsumerProducer_CPP_API_test.hpp ****     class Producer : public Thread {
GAS LISTING /tmp/ccyITIK0.s 			page 2


  47:src/../test/ConsumerProducer_CPP_API_test.hpp ****         thread_data *td;
  48:src/../test/ConsumerProducer_CPP_API_test.hpp ****     public:
  49:src/../test/ConsumerProducer_CPP_API_test.hpp ****         Producer(thread_data *_td) : Thread(), td(_td) {}
  50:src/../test/ConsumerProducer_CPP_API_test.hpp **** 
  51:src/../test/ConsumerProducer_CPP_API_test.hpp ****         void run() override {
  52:src/../test/ConsumerProducer_CPP_API_test.hpp ****             int i = 0;
  53:src/../test/ConsumerProducer_CPP_API_test.hpp ****             while (!threadEnd) {
  54:src/../test/ConsumerProducer_CPP_API_test.hpp ****                 td->buffer->put(td->id + '0');
  55:src/../test/ConsumerProducer_CPP_API_test.hpp ****                 i++;
  56:src/../test/ConsumerProducer_CPP_API_test.hpp ****                 Thread::sleep((i+td->id)%5);
  57:src/../test/ConsumerProducer_CPP_API_test.hpp ****             }
  58:src/../test/ConsumerProducer_CPP_API_test.hpp **** 
  59:src/../test/ConsumerProducer_CPP_API_test.hpp ****             td->sem->signal();
  60:src/../test/ConsumerProducer_CPP_API_test.hpp ****         }
  61:src/../test/ConsumerProducer_CPP_API_test.hpp ****     };
  62:src/../test/ConsumerProducer_CPP_API_test.hpp **** 
  63:src/../test/ConsumerProducer_CPP_API_test.hpp ****     class Consumer : public Thread {
  64:src/../test/ConsumerProducer_CPP_API_test.hpp ****         thread_data *td;
  65:src/../test/ConsumerProducer_CPP_API_test.hpp ****     public:
  66:src/../test/ConsumerProducer_CPP_API_test.hpp ****         Consumer(thread_data *_td) : Thread(), td(_td) {}
  67:src/../test/ConsumerProducer_CPP_API_test.hpp **** 
  68:src/../test/ConsumerProducer_CPP_API_test.hpp ****         void run() override {
  13              		.loc 1 68 14
  14              		.cfi_startproc
  15              	.LVL0:
  16 0000 130101FD 		addi	sp,sp,-48
  17              		.cfi_def_cfa_offset 48
  18 0004 23341102 		sd	ra,40(sp)
  19 0008 23308102 		sd	s0,32(sp)
  20 000c 233C9100 		sd	s1,24(sp)
  21 0010 23382101 		sd	s2,16(sp)
  22 0014 23343101 		sd	s3,8(sp)
  23              		.cfi_offset 1, -8
  24              		.cfi_offset 8, -16
  25              		.cfi_offset 9, -24
  26              		.cfi_offset 18, -32
  27              		.cfi_offset 19, -40
  28 0018 13040103 		addi	s0,sp,48
  29              		.cfi_def_cfa 8, 0
  30 001c 93090500 		mv	s3,a0
  69:src/../test/ConsumerProducer_CPP_API_test.hpp ****             int i = 0;
  31              		.loc 1 69 13
  32              	.LVL1:
  33              		.loc 1 69 17 is_stmt 0
  34 0020 13090000 		li	s2,0
  35 0024 6F000001 		j	.L2
  36              	.LVL2:
  37              	.L6:
  38              	.LBB23:
  70:src/../test/ConsumerProducer_CPP_API_test.hpp ****             while (!threadEnd) {
  71:src/../test/ConsumerProducer_CPP_API_test.hpp ****                 int key = td->buffer->get();
  72:src/../test/ConsumerProducer_CPP_API_test.hpp ****                 i++;
  73:src/../test/ConsumerProducer_CPP_API_test.hpp **** 
  74:src/../test/ConsumerProducer_CPP_API_test.hpp ****                 Console::putc(key);
  75:src/../test/ConsumerProducer_CPP_API_test.hpp **** 
  76:src/../test/ConsumerProducer_CPP_API_test.hpp ****                 if (i % 80 == 0) {
  77:src/../test/ConsumerProducer_CPP_API_test.hpp ****                     Console::putc('\n');
GAS LISTING /tmp/ccyITIK0.s 			page 3


  39              		.loc 1 77 21 is_stmt 1
  40              		.loc 1 77 34 is_stmt 0
  41 0028 1305A000 		li	a0,10
  42 002c 97000000 		call	_ZN7Console4putcEc@plt
  42      E7800000 
  43              	.LVL3:
  44              	.L2:
  45              	.LBE23:
  70:src/../test/ConsumerProducer_CPP_API_test.hpp ****             while (!threadEnd) {
  46              		.loc 1 70 13 is_stmt 1
  70:src/../test/ConsumerProducer_CPP_API_test.hpp ****             while (!threadEnd) {
  47              		.loc 1 70 20
  48 0034 97070000 		lw	a5,.LANCHOR0
  48      83A70700 
  49 003c 639C0702 		bnez	a5,.L3
  50              	.LBB24:
  71:src/../test/ConsumerProducer_CPP_API_test.hpp ****                 i++;
  51              		.loc 1 71 17
  71:src/../test/ConsumerProducer_CPP_API_test.hpp ****                 i++;
  52              		.loc 1 71 27 is_stmt 0
  53 0040 83B70901 		ld	a5,16(s3)
  71:src/../test/ConsumerProducer_CPP_API_test.hpp ****                 i++;
  54              		.loc 1 71 42
  55 0044 03B58700 		ld	a0,8(a5)
  56 0048 97000000 		call	_ZN9BufferCPP3getEv@plt
  56      E7800000 
  57              	.LVL4:
  72:src/../test/ConsumerProducer_CPP_API_test.hpp **** 
  58              		.loc 1 72 17 is_stmt 1
  72:src/../test/ConsumerProducer_CPP_API_test.hpp **** 
  59              		.loc 1 72 18 is_stmt 0
  60 0050 9B041900 		addiw	s1,s2,1
  61 0054 1B890400 		sext.w	s2,s1
  62              	.LVL5:
  74:src/../test/ConsumerProducer_CPP_API_test.hpp **** 
  63              		.loc 1 74 17 is_stmt 1
  74:src/../test/ConsumerProducer_CPP_API_test.hpp **** 
  64              		.loc 1 74 30 is_stmt 0
  65 0058 1375F50F 		andi	a0,a0,0xff
  66              	.LVL6:
  67 005c 97000000 		call	_ZN7Console4putcEc@plt
  67      E7800000 
  68              	.LVL7:
  76:src/../test/ConsumerProducer_CPP_API_test.hpp ****                     Console::putc('\n');
  69              		.loc 1 76 17 is_stmt 1
  76:src/../test/ConsumerProducer_CPP_API_test.hpp ****                     Console::putc('\n');
  70              		.loc 1 76 23 is_stmt 0
  71 0064 93070005 		li	a5,80
  72 0068 BBE4F402 		remw	s1,s1,a5
  73              	.LVL8:
  76:src/../test/ConsumerProducer_CPP_API_test.hpp ****                     Console::putc('\n');
  74              		.loc 1 76 17
  75 006c E39404FC 		bnez	s1,.L2
  76 0070 6FF09FFB 		j	.L6
  77              	.L3:
  78              	.LBE24:
  78:src/../test/ConsumerProducer_CPP_API_test.hpp ****                 }
GAS LISTING /tmp/ccyITIK0.s 			page 4


  79:src/../test/ConsumerProducer_CPP_API_test.hpp ****             }
  80:src/../test/ConsumerProducer_CPP_API_test.hpp **** 
  81:src/../test/ConsumerProducer_CPP_API_test.hpp ****             td->sem->signal();
  79              		.loc 1 81 13 is_stmt 1
  80 0074 83B70901 		ld	a5,16(s3)
  81              		.loc 1 81 28 is_stmt 0
  82 0078 03B50701 		ld	a0,16(a5)
  83 007c 97000000 		call	_ZN9Semaphore6signalEv@plt
  83      E7800000 
  84              	.LVL9:
  82:src/../test/ConsumerProducer_CPP_API_test.hpp ****         }
  85              		.loc 1 82 9
  86 0084 83308102 		ld	ra,40(sp)
  87              		.cfi_restore 1
  88 0088 03340102 		ld	s0,32(sp)
  89              		.cfi_restore 8
  90              		.cfi_def_cfa 2, 48
  91 008c 83348101 		ld	s1,24(sp)
  92              		.cfi_restore 9
  93 0090 03390101 		ld	s2,16(sp)
  94              		.cfi_restore 18
  95              	.LVL10:
  96 0094 83398100 		ld	s3,8(sp)
  97              		.cfi_restore 19
  98              	.LVL11:
  99 0098 13010103 		addi	sp,sp,48
 100              		.cfi_def_cfa_offset 0
 101 009c 67800000 		jr	ra
 102              		.cfi_endproc
 103              	.LFE22:
 105              		.section	.text._ZN19ConsumerProducerCPP8ConsumerD2Ev,"axG",@progbits,_ZN19ConsumerProducerCPP8Cons
 106              		.align	2
 107              		.weak	_ZN19ConsumerProducerCPP8ConsumerD2Ev
 109              	_ZN19ConsumerProducerCPP8ConsumerD2Ev:
 110              	.LFB26:
  63:src/../test/ConsumerProducer_CPP_API_test.hpp ****         thread_data *td;
 111              		.loc 1 63 11 is_stmt 1
 112              		.cfi_startproc
 113              	.LVL12:
 114 0000 130101FF 		addi	sp,sp,-16
 115              		.cfi_def_cfa_offset 16
 116 0004 23341100 		sd	ra,8(sp)
 117 0008 23308100 		sd	s0,0(sp)
 118              		.cfi_offset 1, -8
 119              		.cfi_offset 8, -16
 120 000c 13040101 		addi	s0,sp,16
 121              		.cfi_def_cfa 8, 0
 122              	.LBB25:
  63:src/../test/ConsumerProducer_CPP_API_test.hpp ****         thread_data *td;
 123              		.loc 1 63 11 is_stmt 0
 124 0010 97070000 		lla	a5,_ZTVN19ConsumerProducerCPP8ConsumerE+16
 124      93870700 
 125 0018 2330F500 		sd	a5,0(a0)
 126 001c 97000000 		call	_ZN6ThreadD2Ev@plt
 126      E7800000 
 127              	.LVL13:
 128              	.LBE25:
GAS LISTING /tmp/ccyITIK0.s 			page 5


 129 0024 83308100 		ld	ra,8(sp)
 130              		.cfi_restore 1
 131 0028 03340100 		ld	s0,0(sp)
 132              		.cfi_restore 8
 133              		.cfi_def_cfa 2, 16
 134 002c 13010101 		addi	sp,sp,16
 135              		.cfi_def_cfa_offset 0
 136 0030 67800000 		jr	ra
 137              		.cfi_endproc
 138              	.LFE26:
 140              		.weak	_ZN19ConsumerProducerCPP8ConsumerD1Ev
 141              		.set	_ZN19ConsumerProducerCPP8ConsumerD1Ev,_ZN19ConsumerProducerCPP8ConsumerD2Ev
 142              		.section	.text._ZN19ConsumerProducerCPP8ConsumerD0Ev,"axG",@progbits,_ZN19ConsumerProducerCPP8Cons
 143              		.align	2
 144              		.weak	_ZN19ConsumerProducerCPP8ConsumerD0Ev
 146              	_ZN19ConsumerProducerCPP8ConsumerD0Ev:
 147              	.LFB28:
  63:src/../test/ConsumerProducer_CPP_API_test.hpp ****         thread_data *td;
 148              		.loc 1 63 11 is_stmt 1
 149              		.cfi_startproc
 150              	.LVL14:
 151 0000 130101FE 		addi	sp,sp,-32
 152              		.cfi_def_cfa_offset 32
 153 0004 233C1100 		sd	ra,24(sp)
 154 0008 23388100 		sd	s0,16(sp)
 155 000c 23349100 		sd	s1,8(sp)
 156              		.cfi_offset 1, -8
 157              		.cfi_offset 8, -16
 158              		.cfi_offset 9, -24
 159 0010 13040102 		addi	s0,sp,32
 160              		.cfi_def_cfa 8, 0
 161 0014 93040500 		mv	s1,a0
 162              	.LVL15:
 163              	.LBB26:
 164              	.LBB27:
  63:src/../test/ConsumerProducer_CPP_API_test.hpp ****         thread_data *td;
 165              		.loc 1 63 11 is_stmt 0
 166 0018 97070000 		lla	a5,_ZTVN19ConsumerProducerCPP8ConsumerE+16
 166      93870700 
 167 0020 2330F500 		sd	a5,0(a0)
 168 0024 97000000 		call	_ZN6ThreadD2Ev@plt
 168      E7800000 
 169              	.LVL16:
 170              	.LBE27:
 171              	.LBE26:
 172 002c 13850400 		mv	a0,s1
 173 0030 97000000 		call	_ZN6ThreaddlEPv@plt
 173      E7800000 
 174              	.LVL17:
 175 0038 83308101 		ld	ra,24(sp)
 176              		.cfi_restore 1
 177 003c 03340101 		ld	s0,16(sp)
 178              		.cfi_restore 8
 179              		.cfi_def_cfa 2, 32
 180 0040 83348100 		ld	s1,8(sp)
 181              		.cfi_restore 9
 182              	.LVL18:
GAS LISTING /tmp/ccyITIK0.s 			page 6


 183 0044 13010102 		addi	sp,sp,32
 184              		.cfi_def_cfa_offset 0
 185 0048 67800000 		jr	ra
 186              		.cfi_endproc
 187              	.LFE28:
 189              		.section	.text._ZN19ConsumerProducerCPP16ProducerKeyboradD2Ev,"axG",@progbits,_ZN19ConsumerProduce
 190              		.align	2
 191              		.weak	_ZN19ConsumerProducerCPP16ProducerKeyboradD2Ev
 193              	_ZN19ConsumerProducerCPP16ProducerKeyboradD2Ev:
 194              	.LFB34:
  25:src/../test/ConsumerProducer_CPP_API_test.hpp ****         thread_data *td;
 195              		.loc 1 25 11 is_stmt 1
 196              		.cfi_startproc
 197              	.LVL19:
 198 0000 130101FF 		addi	sp,sp,-16
 199              		.cfi_def_cfa_offset 16
 200 0004 23341100 		sd	ra,8(sp)
 201 0008 23308100 		sd	s0,0(sp)
 202              		.cfi_offset 1, -8
 203              		.cfi_offset 8, -16
 204 000c 13040101 		addi	s0,sp,16
 205              		.cfi_def_cfa 8, 0
 206              	.LBB28:
  25:src/../test/ConsumerProducer_CPP_API_test.hpp ****         thread_data *td;
 207              		.loc 1 25 11 is_stmt 0
 208 0010 97070000 		lla	a5,_ZTVN19ConsumerProducerCPP16ProducerKeyboradE+16
 208      93870700 
 209 0018 2330F500 		sd	a5,0(a0)
 210 001c 97000000 		call	_ZN6ThreadD2Ev@plt
 210      E7800000 
 211              	.LVL20:
 212              	.LBE28:
 213 0024 83308100 		ld	ra,8(sp)
 214              		.cfi_restore 1
 215 0028 03340100 		ld	s0,0(sp)
 216              		.cfi_restore 8
 217              		.cfi_def_cfa 2, 16
 218 002c 13010101 		addi	sp,sp,16
 219              		.cfi_def_cfa_offset 0
 220 0030 67800000 		jr	ra
 221              		.cfi_endproc
 222              	.LFE34:
 224              		.weak	_ZN19ConsumerProducerCPP16ProducerKeyboradD1Ev
 225              		.set	_ZN19ConsumerProducerCPP16ProducerKeyboradD1Ev,_ZN19ConsumerProducerCPP16ProducerKeyboradD2Ev
 226              		.section	.text._ZN19ConsumerProducerCPP16ProducerKeyboradD0Ev,"axG",@progbits,_ZN19ConsumerProduce
 227              		.align	2
 228              		.weak	_ZN19ConsumerProducerCPP16ProducerKeyboradD0Ev
 230              	_ZN19ConsumerProducerCPP16ProducerKeyboradD0Ev:
 231              	.LFB36:
  25:src/../test/ConsumerProducer_CPP_API_test.hpp ****         thread_data *td;
 232              		.loc 1 25 11 is_stmt 1
 233              		.cfi_startproc
 234              	.LVL21:
 235 0000 130101FE 		addi	sp,sp,-32
 236              		.cfi_def_cfa_offset 32
 237 0004 233C1100 		sd	ra,24(sp)
 238 0008 23388100 		sd	s0,16(sp)
GAS LISTING /tmp/ccyITIK0.s 			page 7


 239 000c 23349100 		sd	s1,8(sp)
 240              		.cfi_offset 1, -8
 241              		.cfi_offset 8, -16
 242              		.cfi_offset 9, -24
 243 0010 13040102 		addi	s0,sp,32
 244              		.cfi_def_cfa 8, 0
 245 0014 93040500 		mv	s1,a0
 246              	.LVL22:
 247              	.LBB29:
 248              	.LBB30:
  25:src/../test/ConsumerProducer_CPP_API_test.hpp ****         thread_data *td;
 249              		.loc 1 25 11 is_stmt 0
 250 0018 97070000 		lla	a5,_ZTVN19ConsumerProducerCPP16ProducerKeyboradE+16
 250      93870700 
 251 0020 2330F500 		sd	a5,0(a0)
 252 0024 97000000 		call	_ZN6ThreadD2Ev@plt
 252      E7800000 
 253              	.LVL23:
 254              	.LBE30:
 255              	.LBE29:
 256 002c 13850400 		mv	a0,s1
 257 0030 97000000 		call	_ZN6ThreaddlEPv@plt
 257      E7800000 
 258              	.LVL24:
 259 0038 83308101 		ld	ra,24(sp)
 260              		.cfi_restore 1
 261 003c 03340101 		ld	s0,16(sp)
 262              		.cfi_restore 8
 263              		.cfi_def_cfa 2, 32
 264 0040 83348100 		ld	s1,8(sp)
 265              		.cfi_restore 9
 266              	.LVL25:
 267 0044 13010102 		addi	sp,sp,32
 268              		.cfi_def_cfa_offset 0
 269 0048 67800000 		jr	ra
 270              		.cfi_endproc
 271              	.LFE36:
 273              		.section	.text._ZN19ConsumerProducerCPP8ProducerD2Ev,"axG",@progbits,_ZN19ConsumerProducerCPP8Prod
 274              		.align	2
 275              		.weak	_ZN19ConsumerProducerCPP8ProducerD2Ev
 277              	_ZN19ConsumerProducerCPP8ProducerD2Ev:
 278              	.LFB30:
  46:src/../test/ConsumerProducer_CPP_API_test.hpp ****         thread_data *td;
 279              		.loc 1 46 11 is_stmt 1
 280              		.cfi_startproc
 281              	.LVL26:
 282 0000 130101FF 		addi	sp,sp,-16
 283              		.cfi_def_cfa_offset 16
 284 0004 23341100 		sd	ra,8(sp)
 285 0008 23308100 		sd	s0,0(sp)
 286              		.cfi_offset 1, -8
 287              		.cfi_offset 8, -16
 288 000c 13040101 		addi	s0,sp,16
 289              		.cfi_def_cfa 8, 0
 290              	.LBB31:
  46:src/../test/ConsumerProducer_CPP_API_test.hpp ****         thread_data *td;
 291              		.loc 1 46 11 is_stmt 0
GAS LISTING /tmp/ccyITIK0.s 			page 8


 292 0010 97070000 		lla	a5,_ZTVN19ConsumerProducerCPP8ProducerE+16
 292      93870700 
 293 0018 2330F500 		sd	a5,0(a0)
 294 001c 97000000 		call	_ZN6ThreadD2Ev@plt
 294      E7800000 
 295              	.LVL27:
 296              	.LBE31:
 297 0024 83308100 		ld	ra,8(sp)
 298              		.cfi_restore 1
 299 0028 03340100 		ld	s0,0(sp)
 300              		.cfi_restore 8
 301              		.cfi_def_cfa 2, 16
 302 002c 13010101 		addi	sp,sp,16
 303              		.cfi_def_cfa_offset 0
 304 0030 67800000 		jr	ra
 305              		.cfi_endproc
 306              	.LFE30:
 308              		.weak	_ZN19ConsumerProducerCPP8ProducerD1Ev
 309              		.set	_ZN19ConsumerProducerCPP8ProducerD1Ev,_ZN19ConsumerProducerCPP8ProducerD2Ev
 310              		.section	.text._ZN19ConsumerProducerCPP8ProducerD0Ev,"axG",@progbits,_ZN19ConsumerProducerCPP8Prod
 311              		.align	2
 312              		.weak	_ZN19ConsumerProducerCPP8ProducerD0Ev
 314              	_ZN19ConsumerProducerCPP8ProducerD0Ev:
 315              	.LFB32:
  46:src/../test/ConsumerProducer_CPP_API_test.hpp ****         thread_data *td;
 316              		.loc 1 46 11 is_stmt 1
 317              		.cfi_startproc
 318              	.LVL28:
 319 0000 130101FE 		addi	sp,sp,-32
 320              		.cfi_def_cfa_offset 32
 321 0004 233C1100 		sd	ra,24(sp)
 322 0008 23388100 		sd	s0,16(sp)
 323 000c 23349100 		sd	s1,8(sp)
 324              		.cfi_offset 1, -8
 325              		.cfi_offset 8, -16
 326              		.cfi_offset 9, -24
 327 0010 13040102 		addi	s0,sp,32
 328              		.cfi_def_cfa 8, 0
 329 0014 93040500 		mv	s1,a0
 330              	.LVL29:
 331              	.LBB32:
 332              	.LBB33:
  46:src/../test/ConsumerProducer_CPP_API_test.hpp ****         thread_data *td;
 333              		.loc 1 46 11 is_stmt 0
 334 0018 97070000 		lla	a5,_ZTVN19ConsumerProducerCPP8ProducerE+16
 334      93870700 
 335 0020 2330F500 		sd	a5,0(a0)
 336 0024 97000000 		call	_ZN6ThreadD2Ev@plt
 336      E7800000 
 337              	.LVL30:
 338              	.LBE33:
 339              	.LBE32:
 340 002c 13850400 		mv	a0,s1
 341 0030 97000000 		call	_ZN6ThreaddlEPv@plt
 341      E7800000 
 342              	.LVL31:
 343 0038 83308101 		ld	ra,24(sp)
GAS LISTING /tmp/ccyITIK0.s 			page 9


 344              		.cfi_restore 1
 345 003c 03340101 		ld	s0,16(sp)
 346              		.cfi_restore 8
 347              		.cfi_def_cfa 2, 32
 348 0040 83348100 		ld	s1,8(sp)
 349              		.cfi_restore 9
 350              	.LVL32:
 351 0044 13010102 		addi	sp,sp,32
 352              		.cfi_def_cfa_offset 0
 353 0048 67800000 		jr	ra
 354              		.cfi_endproc
 355              	.LFE32:
 357              		.section	.text._ZN19ConsumerProducerCPP16ProducerKeyborad3runEv,"axG",@progbits,_ZN19ConsumerProdu
 358              		.align	2
 359              		.weak	_ZN19ConsumerProducerCPP16ProducerKeyborad3runEv
 361              	_ZN19ConsumerProducerCPP16ProducerKeyborad3runEv:
 362              	.LFB14:
  30:src/../test/ConsumerProducer_CPP_API_test.hpp ****             int key;
 363              		.loc 1 30 14 is_stmt 1
 364              		.cfi_startproc
 365              	.LVL33:
 366 0000 130101FE 		addi	sp,sp,-32
 367              		.cfi_def_cfa_offset 32
 368 0004 233C1100 		sd	ra,24(sp)
 369 0008 23388100 		sd	s0,16(sp)
 370 000c 23349100 		sd	s1,8(sp)
 371 0010 23302101 		sd	s2,0(sp)
 372              		.cfi_offset 1, -8
 373              		.cfi_offset 8, -16
 374              		.cfi_offset 9, -24
 375              		.cfi_offset 18, -32
 376 0014 13040102 		addi	s0,sp,32
 377              		.cfi_def_cfa 8, 0
 378 0018 93040500 		mv	s1,a0
  31:src/../test/ConsumerProducer_CPP_API_test.hpp ****             int i = 0;
 379              		.loc 1 31 13
  32:src/../test/ConsumerProducer_CPP_API_test.hpp ****             while ((key = getc()) != 0x1b) {
 380              		.loc 1 32 13
 381              	.LVL34:
 382              	.L21:
  33:src/../test/ConsumerProducer_CPP_API_test.hpp ****                 td->buffer->put(key);
 383              		.loc 1 33 13
  33:src/../test/ConsumerProducer_CPP_API_test.hpp ****                 td->buffer->put(key);
 384              		.loc 1 33 35
  33:src/../test/ConsumerProducer_CPP_API_test.hpp ****                 td->buffer->put(key);
 385              		.loc 1 33 31 is_stmt 0
 386 001c 97000000 		call	_Z4getcv@plt
 386      E7800000 
 387              	.LVL35:
  33:src/../test/ConsumerProducer_CPP_API_test.hpp ****                 td->buffer->put(key);
 388              		.loc 1 33 25
 389 0024 9B050500 		sext.w	a1,a0
 390              	.LVL36:
  33:src/../test/ConsumerProducer_CPP_API_test.hpp ****                 td->buffer->put(key);
 391              		.loc 1 33 35
 392 0028 9307B001 		li	a5,27
 393 002c 638CF500 		beq	a1,a5,.L20
GAS LISTING /tmp/ccyITIK0.s 			page 10


  34:src/../test/ConsumerProducer_CPP_API_test.hpp ****                 i++;
 394              		.loc 1 34 17 is_stmt 1
 395 0030 83B70401 		ld	a5,16(s1)
  34:src/../test/ConsumerProducer_CPP_API_test.hpp ****                 i++;
 396              		.loc 1 34 32 is_stmt 0
 397 0034 03B58700 		ld	a0,8(a5)
 398 0038 97000000 		call	_ZN9BufferCPP3putEi@plt
 398      E7800000 
 399              	.LVL37:
  35:src/../test/ConsumerProducer_CPP_API_test.hpp ****             }
 400              		.loc 1 35 17 is_stmt 1
  33:src/../test/ConsumerProducer_CPP_API_test.hpp ****                 td->buffer->put(key);
 401              		.loc 1 33 13 is_stmt 0
 402 0040 6FF0DFFD 		j	.L21
 403              	.LVL38:
 404              	.L20:
  38:src/../test/ConsumerProducer_CPP_API_test.hpp **** 
 405              		.loc 1 38 13 is_stmt 1
  38:src/../test/ConsumerProducer_CPP_API_test.hpp **** 
 406              		.loc 1 38 23 is_stmt 0
 407 0044 93071000 		li	a5,1
 408 0048 17070000 		sw	a5,.LANCHOR0,a4
 408      2320F700 
  40:src/../test/ConsumerProducer_CPP_API_test.hpp **** 
 409              		.loc 1 40 13 is_stmt 1
  40:src/../test/ConsumerProducer_CPP_API_test.hpp **** 
 410              		.loc 1 40 20 is_stmt 0
 411 0050 83B70401 		ld	a5,16(s1)
  40:src/../test/ConsumerProducer_CPP_API_test.hpp **** 
 412              		.loc 1 40 24
 413 0054 03B98700 		ld	s2,8(a5)
  40:src/../test/ConsumerProducer_CPP_API_test.hpp **** 
 414              		.loc 1 40 30
 415 0058 630E0900 		beqz	s2,.L22
  40:src/../test/ConsumerProducer_CPP_API_test.hpp **** 
 416              		.loc 1 40 24 discriminator 1
 417 005c 13050900 		mv	a0,s2
 418 0060 97000000 		call	_ZN9BufferCPPD1Ev@plt
 418      E7800000 
 419              	.LVL39:
 420 0068 13050900 		mv	a0,s2
 421 006c 97000000 		call	_ZdlPv@plt
 421      E7800000 
 422              	.LVL40:
 423              	.L22:
  42:src/../test/ConsumerProducer_CPP_API_test.hpp ****         }
 424              		.loc 1 42 13 is_stmt 1
 425 0074 83B70401 		ld	a5,16(s1)
  42:src/../test/ConsumerProducer_CPP_API_test.hpp ****         }
 426              		.loc 1 42 28 is_stmt 0
 427 0078 03B50701 		ld	a0,16(a5)
 428 007c 97000000 		call	_ZN9Semaphore6signalEv@plt
 428      E7800000 
 429              	.LVL41:
  43:src/../test/ConsumerProducer_CPP_API_test.hpp ****     };
 430              		.loc 1 43 9
 431 0084 83308101 		ld	ra,24(sp)
GAS LISTING /tmp/ccyITIK0.s 			page 11


 432              		.cfi_restore 1
 433 0088 03340101 		ld	s0,16(sp)
 434              		.cfi_restore 8
 435              		.cfi_def_cfa 2, 32
 436 008c 83348100 		ld	s1,8(sp)
 437              		.cfi_restore 9
 438              	.LVL42:
 439 0090 03390100 		ld	s2,0(sp)
 440              		.cfi_restore 18
 441 0094 13010102 		addi	sp,sp,32
 442              		.cfi_def_cfa_offset 0
 443 0098 67800000 		jr	ra
 444              		.cfi_endproc
 445              	.LFE14:
 447              		.section	.text._ZN19ConsumerProducerCPP8Producer3runEv,"axG",@progbits,_ZN19ConsumerProducerCPP8Pr
 448              		.align	2
 449              		.weak	_ZN19ConsumerProducerCPP8Producer3runEv
 451              	_ZN19ConsumerProducerCPP8Producer3runEv:
 452              	.LFB18:
  51:src/../test/ConsumerProducer_CPP_API_test.hpp ****             int i = 0;
 453              		.loc 1 51 14 is_stmt 1
 454              		.cfi_startproc
 455              	.LVL43:
 456 0000 130101FE 		addi	sp,sp,-32
 457              		.cfi_def_cfa_offset 32
 458 0004 233C1100 		sd	ra,24(sp)
 459 0008 23388100 		sd	s0,16(sp)
 460 000c 23349100 		sd	s1,8(sp)
 461 0010 23302101 		sd	s2,0(sp)
 462              		.cfi_offset 1, -8
 463              		.cfi_offset 8, -16
 464              		.cfi_offset 9, -24
 465              		.cfi_offset 18, -32
 466 0014 13040102 		addi	s0,sp,32
 467              		.cfi_def_cfa 8, 0
 468 0018 93040500 		mv	s1,a0
  52:src/../test/ConsumerProducer_CPP_API_test.hpp ****             while (!threadEnd) {
 469              		.loc 1 52 13
 470              	.LVL44:
  52:src/../test/ConsumerProducer_CPP_API_test.hpp ****             while (!threadEnd) {
 471              		.loc 1 52 17 is_stmt 0
 472 001c 13090000 		li	s2,0
 473              	.LVL45:
 474              	.L26:
  53:src/../test/ConsumerProducer_CPP_API_test.hpp ****                 td->buffer->put(td->id + '0');
 475              		.loc 1 53 13 is_stmt 1
  53:src/../test/ConsumerProducer_CPP_API_test.hpp ****                 td->buffer->put(td->id + '0');
 476              		.loc 1 53 20
 477 0020 97070000 		lw	a5,.LANCHOR0
 477      83A70700 
 478 0028 63920704 		bnez	a5,.L25
  54:src/../test/ConsumerProducer_CPP_API_test.hpp ****                 i++;
 479              		.loc 1 54 17
 480 002c 83B70401 		ld	a5,16(s1)
  54:src/../test/ConsumerProducer_CPP_API_test.hpp ****                 i++;
 481              		.loc 1 54 37 is_stmt 0
 482 0030 83A50700 		lw	a1,0(a5)
GAS LISTING /tmp/ccyITIK0.s 			page 12


  54:src/../test/ConsumerProducer_CPP_API_test.hpp ****                 i++;
 483              		.loc 1 54 32
 484 0034 9B850503 		addiw	a1,a1,48
 485 0038 03B58700 		ld	a0,8(a5)
 486 003c 97000000 		call	_ZN9BufferCPP3putEi@plt
 486      E7800000 
 487              	.LVL46:
  55:src/../test/ConsumerProducer_CPP_API_test.hpp ****                 Thread::sleep((i+td->id)%5);
 488              		.loc 1 55 17 is_stmt 1
  55:src/../test/ConsumerProducer_CPP_API_test.hpp ****                 Thread::sleep((i+td->id)%5);
 489              		.loc 1 55 18 is_stmt 0
 490 0044 1B071900 		addiw	a4,s2,1
 491 0048 1B090700 		sext.w	s2,a4
 492              	.LVL47:
  56:src/../test/ConsumerProducer_CPP_API_test.hpp ****             }
 493              		.loc 1 56 17 is_stmt 1
  56:src/../test/ConsumerProducer_CPP_API_test.hpp ****             }
 494              		.loc 1 56 34 is_stmt 0
 495 004c 83B70401 		ld	a5,16(s1)
  56:src/../test/ConsumerProducer_CPP_API_test.hpp ****             }
 496              		.loc 1 56 38
 497 0050 83A70700 		lw	a5,0(a5)
  56:src/../test/ConsumerProducer_CPP_API_test.hpp ****             }
 498              		.loc 1 56 33
 499 0054 BB87E700 		addw	a5,a5,a4
  56:src/../test/ConsumerProducer_CPP_API_test.hpp ****             }
 500              		.loc 1 56 30
 501 0058 13055000 		li	a0,5
 502 005c 3BE5A702 		remw	a0,a5,a0
 503 0060 97000000 		call	_ZN6Thread5sleepEm@plt
 503      E7800000 
 504              	.LVL48:
  53:src/../test/ConsumerProducer_CPP_API_test.hpp ****                 td->buffer->put(td->id + '0');
 505              		.loc 1 53 13
 506 0068 6FF09FFB 		j	.L26
 507              	.L25:
  59:src/../test/ConsumerProducer_CPP_API_test.hpp ****         }
 508              		.loc 1 59 13 is_stmt 1
 509 006c 83B70401 		ld	a5,16(s1)
  59:src/../test/ConsumerProducer_CPP_API_test.hpp ****         }
 510              		.loc 1 59 28 is_stmt 0
 511 0070 03B50701 		ld	a0,16(a5)
 512 0074 97000000 		call	_ZN9Semaphore6signalEv@plt
 512      E7800000 
 513              	.LVL49:
  60:src/../test/ConsumerProducer_CPP_API_test.hpp ****     };
 514              		.loc 1 60 9
 515 007c 83308101 		ld	ra,24(sp)
 516              		.cfi_restore 1
 517 0080 03340101 		ld	s0,16(sp)
 518              		.cfi_restore 8
 519              		.cfi_def_cfa 2, 32
 520 0084 83348100 		ld	s1,8(sp)
 521              		.cfi_restore 9
 522              	.LVL50:
 523 0088 03390100 		ld	s2,0(sp)
 524              		.cfi_restore 18
GAS LISTING /tmp/ccyITIK0.s 			page 13


 525              	.LVL51:
 526 008c 13010102 		addi	sp,sp,32
 527              		.cfi_def_cfa_offset 0
 528 0090 67800000 		jr	ra
 529              		.cfi_endproc
 530              	.LFE18:
 532              		.section	.rodata.str1.8,"aMS",@progbits,1
 533              		.align	3
 534              	.LC0:
 535 0000 556E6573 		.string	"Unesite broj proizvodjaca?\n"
 535      69746520 
 535      62726F6A 
 535      2070726F 
 535      697A766F 
 536 001c 00000000 		.align	3
 537              	.LC1:
 538 0020 556E6573 		.string	"Unesite velicinu bafera?\n"
 538      69746520 
 538      76656C69 
 538      63696E75 
 538      20626166 
 539 003a 00000000 		.align	3
 539      0000
 540              	.LC2:
 541 0040 42726F6A 		.string	"Broj proizvodjaca "
 541      2070726F 
 541      697A766F 
 541      646A6163 
 541      612000
 542 0053 00000000 		.align	3
 542      00
 543              	.LC3:
 544 0058 20692076 		.string	" i velicina bafera "
 544      656C6963 
 544      696E6120 
 544      62616665 
 544      72612000 
 545 006c 00000000 		.align	3
 546              	.LC4:
 547 0070 2E0A00   		.string	".\n"
 548              		.text
 549              		.align	2
 550              		.globl	_ZN19ConsumerProducerCPP20testConsumerProducerEv
 552              	_ZN19ConsumerProducerCPP20testConsumerProducerEv:
 553              	.LFB23:
  83:src/../test/ConsumerProducer_CPP_API_test.hpp ****     };
  84:src/../test/ConsumerProducer_CPP_API_test.hpp **** 
  85:src/../test/ConsumerProducer_CPP_API_test.hpp ****     void testConsumerProducer() {
 554              		.loc 1 85 33 is_stmt 1
 555              		.cfi_startproc
 556              		.cfi_personality 0x9b,DW.ref.__gxx_personality_v0
 557              		.cfi_lsda 0x1b,.LLSDA23
 558 0000 130101F8 		addi	sp,sp,-128
 559              		.cfi_def_cfa_offset 128
 560 0004 233C1106 		sd	ra,120(sp)
 561 0008 23388106 		sd	s0,112(sp)
 562 000c 23349106 		sd	s1,104(sp)
GAS LISTING /tmp/ccyITIK0.s 			page 14


 563 0010 23302107 		sd	s2,96(sp)
 564 0014 233C3105 		sd	s3,88(sp)
 565 0018 23384105 		sd	s4,80(sp)
 566 001c 23345105 		sd	s5,72(sp)
 567 0020 23306105 		sd	s6,64(sp)
 568 0024 233C7103 		sd	s7,56(sp)
 569 0028 23388103 		sd	s8,48(sp)
 570 002c 23349103 		sd	s9,40(sp)
 571              		.cfi_offset 1, -8
 572              		.cfi_offset 8, -16
 573              		.cfi_offset 9, -24
 574              		.cfi_offset 18, -32
 575              		.cfi_offset 19, -40
 576              		.cfi_offset 20, -48
 577              		.cfi_offset 21, -56
 578              		.cfi_offset 22, -64
 579              		.cfi_offset 23, -72
 580              		.cfi_offset 24, -80
 581              		.cfi_offset 25, -88
 582 0030 13040108 		addi	s0,sp,128
 583              		.cfi_def_cfa 8, 0
  86:src/../test/ConsumerProducer_CPP_API_test.hpp ****         char input[30];
 584              		.loc 1 86 9
  87:src/../test/ConsumerProducer_CPP_API_test.hpp ****         int n, threadNum;
 585              		.loc 1 87 9
  88:src/../test/ConsumerProducer_CPP_API_test.hpp **** 
  89:src/../test/ConsumerProducer_CPP_API_test.hpp ****         printString("Unesite broj proizvodjaca?\n");
 586              		.loc 1 89 9
 587              		.loc 1 89 20 is_stmt 0
 588 0034 17050000 		lla	a0,.LC0
 588      13050500 
 589              	.LEHB0:
 590 003c 97000000 		call	_Z11printStringPKc@plt
 590      E7800000 
 591              	.LVL52:
  90:src/../test/ConsumerProducer_CPP_API_test.hpp ****         getString(input, 30);
 592              		.loc 1 90 9 is_stmt 1
 593              		.loc 1 90 18 is_stmt 0
 594 0044 9305E001 		li	a1,30
 595 0048 930404F8 		addi	s1,s0,-128
 596 004c 13850400 		mv	a0,s1
 597 0050 97000000 		call	_Z9getStringPci@plt
 597      E7800000 
 598              	.LVL53:
  91:src/../test/ConsumerProducer_CPP_API_test.hpp ****         threadNum = stringToInt(input);
 599              		.loc 1 91 9 is_stmt 1
 600              		.loc 1 91 32 is_stmt 0
 601 0058 13850400 		mv	a0,s1
 602 005c 97000000 		call	_Z11stringToIntPKc@plt
 602      E7800000 
 603              	.LVL54:
 604 0064 93090500 		mv	s3,a0
 605              	.LVL55:
  92:src/../test/ConsumerProducer_CPP_API_test.hpp **** 
  93:src/../test/ConsumerProducer_CPP_API_test.hpp ****         printString("Unesite velicinu bafera?\n");
 606              		.loc 1 93 9 is_stmt 1
 607              		.loc 1 93 20 is_stmt 0
GAS LISTING /tmp/ccyITIK0.s 			page 15


 608 0068 17050000 		lla	a0,.LC1
 608      13050500 
 609 0070 97000000 		call	_Z11printStringPKc@plt
 609      E7800000 
 610              	.LVL56:
  94:src/../test/ConsumerProducer_CPP_API_test.hpp ****         getString(input, 30);
 611              		.loc 1 94 9 is_stmt 1
 612              		.loc 1 94 18 is_stmt 0
 613 0078 9305E001 		li	a1,30
 614 007c 13850400 		mv	a0,s1
 615 0080 97000000 		call	_Z9getStringPci@plt
 615      E7800000 
 616              	.LVL57:
  95:src/../test/ConsumerProducer_CPP_API_test.hpp ****         n = stringToInt(input);
 617              		.loc 1 95 9 is_stmt 1
 618              		.loc 1 95 24 is_stmt 0
 619 0088 13850400 		mv	a0,s1
 620 008c 97000000 		call	_Z11stringToIntPKc@plt
 620      E7800000 
 621              	.LVL58:
 622 0094 93040500 		mv	s1,a0
 623              	.LVL59:
  96:src/../test/ConsumerProducer_CPP_API_test.hpp **** 
  97:src/../test/ConsumerProducer_CPP_API_test.hpp ****         printString("Broj proizvodjaca "); printInt(threadNum);
 624              		.loc 1 97 9 is_stmt 1
 625              		.loc 1 97 20 is_stmt 0
 626 0098 17050000 		lla	a0,.LC2
 626      13050500 
 627 00a0 97000000 		call	_Z11printStringPKc@plt
 627      E7800000 
 628              	.LVL60:
 629              		.loc 1 97 44 is_stmt 1
 630              		.loc 1 97 52 is_stmt 0
 631 00a8 13060000 		li	a2,0
 632 00ac 9305A000 		li	a1,10
 633 00b0 13850900 		mv	a0,s3
 634 00b4 97000000 		call	_Z8printIntiii@plt
 634      E7800000 
 635              	.LVL61:
  98:src/../test/ConsumerProducer_CPP_API_test.hpp ****         printString(" i velicina bafera "); printInt(n);
 636              		.loc 1 98 9 is_stmt 1
 637              		.loc 1 98 20 is_stmt 0
 638 00bc 17050000 		lla	a0,.LC3
 638      13050500 
 639 00c4 97000000 		call	_Z11printStringPKc@plt
 639      E7800000 
 640              	.LVL62:
 641              		.loc 1 98 45 is_stmt 1
 642              		.loc 1 98 53 is_stmt 0
 643 00cc 13060000 		li	a2,0
 644 00d0 9305A000 		li	a1,10
 645 00d4 13850400 		mv	a0,s1
 646 00d8 97000000 		call	_Z8printIntiii@plt
 646      E7800000 
 647              	.LVL63:
  99:src/../test/ConsumerProducer_CPP_API_test.hpp ****         printString(".\n");
 648              		.loc 1 99 9 is_stmt 1
GAS LISTING /tmp/ccyITIK0.s 			page 16


 649              		.loc 1 99 20 is_stmt 0
 650 00e0 17050000 		lla	a0,.LC4
 650      13050500 
 651 00e8 97000000 		call	_Z11printStringPKc@plt
 651      E7800000 
 652              	.LVL64:
 100:src/../test/ConsumerProducer_CPP_API_test.hpp **** 
 101:src/../test/ConsumerProducer_CPP_API_test.hpp ****         BufferCPP *buffer = new BufferCPP(n);
 653              		.loc 1 101 9 is_stmt 1
 654              		.loc 1 101 44 is_stmt 0
 655 00f0 13058003 		li	a0,56
 656 00f4 97000000 		call	_Znwm@plt
 656      E7800000 
 657              	.LVL65:
 658              	.LEHE0:
 659 00fc 130B0500 		mv	s6,a0
 660 0100 93850400 		mv	a1,s1
 661              	.LEHB1:
 662 0104 97000000 		call	_ZN9BufferCPPC1Ei@plt
 662      E7800000 
 663              	.LVL66:
 664              	.LEHE1:
 102:src/../test/ConsumerProducer_CPP_API_test.hpp **** 
 103:src/../test/ConsumerProducer_CPP_API_test.hpp ****         waitForAll = new Semaphore(0);
 665              		.loc 1 103 9 is_stmt 1 discriminator 3
 666              		.loc 1 103 37 is_stmt 0 discriminator 3
 667 010c 13050001 		li	a0,16
 668              	.LEHB2:
 669 0110 97000000 		call	_ZN9SemaphorenwEm@plt
 669      E7800000 
 670              	.LVL67:
 671              	.LEHE2:
 672 0118 93040500 		mv	s1,a0
 673              	.LVL68:
 674 011c 93050000 		li	a1,0
 675              	.LEHB3:
 676 0120 97000000 		call	_ZN9SemaphoreC1Ej@plt
 676      E7800000 
 677              	.LVL69:
 678              	.LEHE3:
 679              		.loc 1 103 20 discriminator 3
 680 0128 17070000 		lla	a4,.LANCHOR0
 680      13070700 
 681 0130 23349700 		sd	s1,8(a4)
 104:src/../test/ConsumerProducer_CPP_API_test.hpp ****         Thread *producers[threadNum];
 682              		.loc 1 104 9 is_stmt 1 discriminator 3
 683              	.LVL70:
 684              		.loc 1 104 17 is_stmt 0 discriminator 3
 685 0134 93973900 		slli	a5,s3,3
 686 0138 9387F700 		addi	a5,a5,15
 687 013c 93F707FF 		andi	a5,a5,-16
 688 0140 3301F140 		sub	sp,sp,a5
 689 0144 130A0100 		mv	s4,sp
 690              	.LVL71:
 105:src/../test/ConsumerProducer_CPP_API_test.hpp ****         thread_data threadData[threadNum + 1];
 691              		.loc 1 105 9 is_stmt 1 discriminator 3
 692              		.loc 1 105 42 is_stmt 0 discriminator 3
GAS LISTING /tmp/ccyITIK0.s 			page 17


 693 0148 9B861900 		addiw	a3,s3,1
 694              	.LVL72:
 695              		.loc 1 105 21 discriminator 3
 696 014c 93971600 		slli	a5,a3,1
 697 0150 B387D700 		add	a5,a5,a3
 698 0154 93973700 		slli	a5,a5,3
 699 0158 9387F700 		addi	a5,a5,15
 700 015c 93F707FF 		andi	a5,a5,-16
 701 0160 3301F140 		sub	sp,sp,a5
 702              	.LVL73:
 703 0164 930A0100 		mv	s5,sp
 704              	.LVL74:
 106:src/../test/ConsumerProducer_CPP_API_test.hpp **** 
 107:src/../test/ConsumerProducer_CPP_API_test.hpp ****         threadData[threadNum].id = threadNum;
 705              		.loc 1 107 9 is_stmt 1 discriminator 3
 706              		.loc 1 107 34 is_stmt 0 discriminator 3
 707 0168 93941900 		slli	s1,s3,1
 708 016c B3843401 		add	s1,s1,s3
 709 0170 93943400 		slli	s1,s1,3
 710 0174 B3849A00 		add	s1,s5,s1
 711 0178 23A03401 		sw	s3,0(s1)
 108:src/../test/ConsumerProducer_CPP_API_test.hpp ****         threadData[threadNum].buffer = buffer;
 712              		.loc 1 108 9 is_stmt 1 discriminator 3
 713              		.loc 1 108 38 is_stmt 0 discriminator 3
 714 017c 23B46401 		sd	s6,8(s1)
 109:src/../test/ConsumerProducer_CPP_API_test.hpp ****         threadData[threadNum].sem = waitForAll;
 715              		.loc 1 109 9 is_stmt 1 discriminator 3
 716              		.loc 1 109 35 is_stmt 0 discriminator 3
 717 0180 83378700 		ld	a5,8(a4)
 718 0184 23B8F400 		sd	a5,16(s1)
 110:src/../test/ConsumerProducer_CPP_API_test.hpp ****         Thread *consumer = new Consumer(&threadData[threadNum]);
 719              		.loc 1 110 9 is_stmt 1 discriminator 3
 720              		.loc 1 110 63 is_stmt 0 discriminator 3
 721 0188 13058001 		li	a0,24
 722              	.LEHB4:
 723 018c 97000000 		call	_ZN6ThreadnwEm@plt
 723      E7800000 
 724              	.LVL75:
 725              	.LEHE4:
 726 0194 130C0500 		mv	s8,a0
 727              	.LVL76:
 728              	.LEHB5:
 729              	.LBB34:
 730              	.LBB35:
  66:src/../test/ConsumerProducer_CPP_API_test.hpp **** 
 731              		.loc 1 66 54 discriminator 3
 732 0198 97000000 		call	_ZN6ThreadC2Ev@plt
 732      E7800000 
 733              	.LVL77:
 734              	.LEHE5:
  66:src/../test/ConsumerProducer_CPP_API_test.hpp **** 
 735              		.loc 1 66 54
 736 01a0 97070000 		lla	a5,_ZTVN19ConsumerProducerCPP8ConsumerE+16
 736      93870700 
 737 01a8 2330FC00 		sd	a5,0(s8)
 738 01ac 23389C00 		sd	s1,16(s8)
 739              	.LVL78:
GAS LISTING /tmp/ccyITIK0.s 			page 18


 740              	.LBE35:
 741              	.LBE34:
 111:src/../test/ConsumerProducer_CPP_API_test.hpp ****         consumer->start();
 742              		.loc 1 111 9 is_stmt 1
 743              		.loc 1 111 24 is_stmt 0
 744 01b0 13050C00 		mv	a0,s8
 745              	.LEHB6:
 746 01b4 97000000 		call	_ZN6Thread5startEv@plt
 746      E7800000 
 747              	.LVL79:
 112:src/../test/ConsumerProducer_CPP_API_test.hpp **** 
 113:src/../test/ConsumerProducer_CPP_API_test.hpp ****         threadData[0].id = 0;
 748              		.loc 1 113 9 is_stmt 1
 749              		.loc 1 113 26 is_stmt 0
 750 01bc 23A00A00 		sw	zero,0(s5)
 114:src/../test/ConsumerProducer_CPP_API_test.hpp ****         threadData[0].buffer = buffer;
 751              		.loc 1 114 9 is_stmt 1
 752              		.loc 1 114 30 is_stmt 0
 753 01c0 23B46A01 		sd	s6,8(s5)
 115:src/../test/ConsumerProducer_CPP_API_test.hpp ****         threadData[0].sem = waitForAll;
 754              		.loc 1 115 9 is_stmt 1
 755              		.loc 1 115 27 is_stmt 0
 756 01c4 97070000 		ld	a5,.LANCHOR0+8
 756      83B70700 
 757 01cc 23B8FA00 		sd	a5,16(s5)
 116:src/../test/ConsumerProducer_CPP_API_test.hpp ****         Thread *producerKeyboard = new ProducerKeyborad(&threadData[0]);
 758              		.loc 1 116 9 is_stmt 1
 759              		.loc 1 116 71 is_stmt 0
 760 01d0 13058001 		li	a0,24
 761 01d4 97000000 		call	_ZN6ThreadnwEm@plt
 761      E7800000 
 762              	.LVL80:
 763              	.LEHE6:
 764 01dc 930B0500 		mv	s7,a0
 765              	.LVL81:
 766              	.LEHB7:
 767              	.LBB36:
 768              	.LBB37:
  28:src/../test/ConsumerProducer_CPP_API_test.hpp **** 
 769              		.loc 1 28 62
 770 01e0 97000000 		call	_ZN6ThreadC2Ev@plt
 770      E7800000 
 771              	.LVL82:
 772              	.LEHE7:
 773 01e8 97070000 		lla	a5,_ZTVN19ConsumerProducerCPP16ProducerKeyboradE+16
 773      93870700 
 774 01f0 23B0FB00 		sd	a5,0(s7)
 775 01f4 23B85B01 		sd	s5,16(s7)
 776              	.LVL83:
 777              	.LBE37:
 778              	.LBE36:
 117:src/../test/ConsumerProducer_CPP_API_test.hpp ****         producerKeyboard->start();
 779              		.loc 1 117 9 is_stmt 1
 780              		.loc 1 117 32 is_stmt 0
 781 01f8 13850B00 		mv	a0,s7
 782              	.LEHB8:
 783 01fc 97000000 		call	_ZN6Thread5startEv@plt
GAS LISTING /tmp/ccyITIK0.s 			page 19


 783      E7800000 
 784              	.LVL84:
 785              	.LBB38:
 118:src/../test/ConsumerProducer_CPP_API_test.hpp **** 
 119:src/../test/ConsumerProducer_CPP_API_test.hpp ****         for (int i = 0; i < threadNum; i++) {
 786              		.loc 1 119 18
 787 0204 13090000 		li	s2,0
 788 0208 6F000003 		j	.L30
 789              	.LVL85:
 790              	.L50:
 791              	.LBB39:
 792              	.LBB40:
  49:src/../test/ConsumerProducer_CPP_API_test.hpp **** 
 793              		.loc 1 49 54
 794 020c 97070000 		lla	a5,_ZTVN19ConsumerProducerCPP8ProducerE+16
 794      93870700 
 795 0214 23B0FC00 		sd	a5,0(s9)
 796 0218 23B89C00 		sd	s1,16(s9)
 797              	.LVL86:
 798              	.LBE40:
 799              	.LBE39:
 120:src/../test/ConsumerProducer_CPP_API_test.hpp ****             threadData[i].id = i;
 121:src/../test/ConsumerProducer_CPP_API_test.hpp ****             threadData[i].buffer = buffer;
 122:src/../test/ConsumerProducer_CPP_API_test.hpp ****             threadData[i].sem = waitForAll;
 123:src/../test/ConsumerProducer_CPP_API_test.hpp **** 
 124:src/../test/ConsumerProducer_CPP_API_test.hpp ****             producers[i] = new Producer(&threadData[i]);
 800              		.loc 1 124 26
 801 021c 93173900 		slli	a5,s2,3
 802 0220 B307FA00 		add	a5,s4,a5
 803 0224 23B09701 		sd	s9,0(a5)
 125:src/../test/ConsumerProducer_CPP_API_test.hpp ****             producers[i]->start();
 804              		.loc 1 125 13 is_stmt 1
 805              		.loc 1 125 32 is_stmt 0
 806 0228 13850C00 		mv	a0,s9
 807 022c 97000000 		call	_ZN6Thread5startEv@plt
 807      E7800000 
 808              	.LVL87:
 119:src/../test/ConsumerProducer_CPP_API_test.hpp ****             threadData[i].id = i;
 809              		.loc 1 119 9 is_stmt 1
 810 0234 1B091900 		addiw	s2,s2,1
 811              	.LVL88:
 812              	.L30:
 119:src/../test/ConsumerProducer_CPP_API_test.hpp ****             threadData[i].id = i;
 813              		.loc 1 119 27 discriminator 1
 814 0238 63523905 		bge	s2,s3,.L29
 120:src/../test/ConsumerProducer_CPP_API_test.hpp ****             threadData[i].id = i;
 815              		.loc 1 120 13
 120:src/../test/ConsumerProducer_CPP_API_test.hpp ****             threadData[i].id = i;
 816              		.loc 1 120 30 is_stmt 0
 817 023c 93141900 		slli	s1,s2,1
 818 0240 B3842401 		add	s1,s1,s2
 819 0244 93943400 		slli	s1,s1,3
 820 0248 B3849A00 		add	s1,s5,s1
 821 024c 23A02401 		sw	s2,0(s1)
 121:src/../test/ConsumerProducer_CPP_API_test.hpp ****             threadData[i].sem = waitForAll;
 822              		.loc 1 121 13 is_stmt 1
 121:src/../test/ConsumerProducer_CPP_API_test.hpp ****             threadData[i].sem = waitForAll;
GAS LISTING /tmp/ccyITIK0.s 			page 20


 823              		.loc 1 121 34 is_stmt 0
 824 0250 23B46401 		sd	s6,8(s1)
 122:src/../test/ConsumerProducer_CPP_API_test.hpp **** 
 825              		.loc 1 122 13 is_stmt 1
 122:src/../test/ConsumerProducer_CPP_API_test.hpp **** 
 826              		.loc 1 122 31 is_stmt 0
 827 0254 97070000 		ld	a5,.LANCHOR0+8
 827      83B70700 
 828 025c 23B8F400 		sd	a5,16(s1)
 124:src/../test/ConsumerProducer_CPP_API_test.hpp ****             producers[i]->start();
 829              		.loc 1 124 13 is_stmt 1
 124:src/../test/ConsumerProducer_CPP_API_test.hpp ****             producers[i]->start();
 830              		.loc 1 124 55 is_stmt 0
 831 0260 13058001 		li	a0,24
 832 0264 97000000 		call	_ZN6ThreadnwEm@plt
 832      E7800000 
 833              	.LVL89:
 834              	.LEHE8:
 835 026c 930C0500 		mv	s9,a0
 836              	.LVL90:
 837              	.LEHB9:
 838              	.LBB42:
 839              	.LBB41:
  49:src/../test/ConsumerProducer_CPP_API_test.hpp **** 
 840              		.loc 1 49 54
 841 0270 97000000 		call	_ZN6ThreadC2Ev@plt
 841      E7800000 
 842              	.LVL91:
 843              	.LEHE9:
 844 0278 6FF05FF9 		j	.L50
 845              	.LVL92:
 846              	.L29:
 847              	.LBE41:
 848              	.LBE42:
 849              	.LBE38:
 126:src/../test/ConsumerProducer_CPP_API_test.hpp **** 
 127:src/../test/ConsumerProducer_CPP_API_test.hpp ****         }
 128:src/../test/ConsumerProducer_CPP_API_test.hpp **** 
 129:src/../test/ConsumerProducer_CPP_API_test.hpp ****         Thread::dispatch();
 850              		.loc 1 129 9 is_stmt 1
 851              	.LEHB10:
 852              		.loc 1 129 25 is_stmt 0
 853 027c 97000000 		call	_ZN6Thread8dispatchEv@plt
 853      E7800000 
 854              	.LVL93:
 855              	.LBB43:
 130:src/../test/ConsumerProducer_CPP_API_test.hpp **** 
 131:src/../test/ConsumerProducer_CPP_API_test.hpp ****         for (int i = 0; i <= threadNum; i++) {
 856              		.loc 1 131 18
 857 0284 93040000 		li	s1,0
 858              	.L32:
 859              	.LVL94:
 860              		.loc 1 131 27 is_stmt 1 discriminator 1
 861 0288 63CE9900 		bgt	s1,s3,.L31
 132:src/../test/ConsumerProducer_CPP_API_test.hpp ****             waitForAll->wait();
 862              		.loc 1 132 13
 863              		.loc 1 132 29 is_stmt 0
GAS LISTING /tmp/ccyITIK0.s 			page 21


 864 028c 17050000 		ld	a0,.LANCHOR0+8
 864      03350500 
 865 0294 97000000 		call	_ZN9Semaphore4waitEv@plt
 865      E7800000 
 866              	.LVL95:
 131:src/../test/ConsumerProducer_CPP_API_test.hpp ****             waitForAll->wait();
 867              		.loc 1 131 9 is_stmt 1
 868 029c 9B841400 		addiw	s1,s1,1
 869              	.LVL96:
 870 02a0 6FF09FFE 		j	.L32
 871              	.LVL97:
 872              	.L31:
 873              	.LBE43:
 133:src/../test/ConsumerProducer_CPP_API_test.hpp ****         }
 134:src/../test/ConsumerProducer_CPP_API_test.hpp **** 
 135:src/../test/ConsumerProducer_CPP_API_test.hpp ****         delete waitForAll;
 874              		.loc 1 135 9
 875              		.loc 1 135 16 is_stmt 0
 876 02a4 17050000 		ld	a0,.LANCHOR0+8
 876      03350500 
 877              		.loc 1 135 26
 878 02ac 63080500 		beqz	a0,.L33
 879              		.loc 1 135 16 discriminator 1
 880 02b0 83370500 		ld	a5,0(a0)
 881 02b4 83B78700 		ld	a5,8(a5)
 882 02b8 E7800700 		jalr	a5
 883              	.LVL98:
 884              	.L33:
 885              	.LBB44:
 131:src/../test/ConsumerProducer_CPP_API_test.hpp ****             waitForAll->wait();
 886              		.loc 1 131 18 discriminator 1
 887 02bc 93040000 		li	s1,0
 888              	.LVL99:
 889 02c0 6F008000 		j	.L36
 890              	.LVL100:
 891              	.L35:
 892              	.LBE44:
 893              	.LBB45:
 136:src/../test/ConsumerProducer_CPP_API_test.hpp ****         for (int i = 0; i < threadNum; i++) {
 894              		.loc 1 136 9 is_stmt 1 discriminator 2
 895 02c4 9B841400 		addiw	s1,s1,1
 896              	.LVL101:
 897              	.L36:
 898              		.loc 1 136 27 discriminator 1
 899 02c8 63D23403 		bge	s1,s3,.L34
 137:src/../test/ConsumerProducer_CPP_API_test.hpp ****             delete producers[i];
 900              		.loc 1 137 13
 901              		.loc 1 137 31 is_stmt 0
 902 02cc 93973400 		slli	a5,s1,3
 903 02d0 B307FA00 		add	a5,s4,a5
 904 02d4 03B50700 		ld	a0,0(a5)
 905              		.loc 1 137 32
 906 02d8 E30605FE 		beqz	a0,.L35
 907              		.loc 1 137 31 discriminator 1
 908 02dc 83370500 		ld	a5,0(a0)
 909 02e0 83B78700 		ld	a5,8(a5)
 910 02e4 E7800700 		jalr	a5
GAS LISTING /tmp/ccyITIK0.s 			page 22


 911              	.LVL102:
 912 02e8 6FF0DFFD 		j	.L35
 913              	.L34:
 914              	.LBE45:
 138:src/../test/ConsumerProducer_CPP_API_test.hpp ****         }
 139:src/../test/ConsumerProducer_CPP_API_test.hpp ****         delete producerKeyboard;
 915              		.loc 1 139 9 is_stmt 1
 916              		.loc 1 139 32 is_stmt 0
 917 02ec 638A0B00 		beqz	s7,.L37
 918              		.loc 1 139 16 discriminator 1
 919 02f0 83B70B00 		ld	a5,0(s7)
 920 02f4 83B78700 		ld	a5,8(a5)
 921 02f8 13850B00 		mv	a0,s7
 922 02fc E7800700 		jalr	a5
 923              	.LVL103:
 924              	.L37:
 140:src/../test/ConsumerProducer_CPP_API_test.hpp ****         delete consumer;
 925              		.loc 1 140 9 is_stmt 1
 926              		.loc 1 140 24 is_stmt 0
 927 0300 630A0C00 		beqz	s8,.L28
 928              		.loc 1 140 16 discriminator 1
 929 0304 83370C00 		ld	a5,0(s8)
 930 0308 83B78700 		ld	a5,8(a5)
 931 030c 13050C00 		mv	a0,s8
 932 0310 E7800700 		jalr	a5
 933              	.LVL104:
 934              	.L28:
 141:src/../test/ConsumerProducer_CPP_API_test.hpp **** 
 142:src/../test/ConsumerProducer_CPP_API_test.hpp ****     }
 935              		.loc 1 142 5
 936 0314 130104F8 		addi	sp,s0,-128
 937              		.cfi_remember_state
 938              		.cfi_def_cfa 2, 128
 939              	.LVL105:
 940 0318 83308107 		ld	ra,120(sp)
 941              		.cfi_restore 1
 942 031c 03340107 		ld	s0,112(sp)
 943              		.cfi_restore 8
 944 0320 83348106 		ld	s1,104(sp)
 945              		.cfi_restore 9
 946              	.LVL106:
 947 0324 03390106 		ld	s2,96(sp)
 948              		.cfi_restore 18
 949              	.LVL107:
 950 0328 83398105 		ld	s3,88(sp)
 951              		.cfi_restore 19
 952              	.LVL108:
 953 032c 033A0105 		ld	s4,80(sp)
 954              		.cfi_restore 20
 955              	.LVL109:
 956 0330 833A8104 		ld	s5,72(sp)
 957              		.cfi_restore 21
 958              	.LVL110:
 959 0334 033B0104 		ld	s6,64(sp)
 960              		.cfi_restore 22
 961              	.LVL111:
 962 0338 833B8103 		ld	s7,56(sp)
GAS LISTING /tmp/ccyITIK0.s 			page 23


 963              		.cfi_restore 23
 964              	.LVL112:
 965 033c 033C0103 		ld	s8,48(sp)
 966              		.cfi_restore 24
 967              	.LVL113:
 968 0340 833C8102 		ld	s9,40(sp)
 969              		.cfi_restore 25
 970 0344 13010108 		addi	sp,sp,128
 971              		.cfi_def_cfa_offset 0
 972 0348 67800000 		jr	ra
 973              	.LVL114:
 974              	.L44:
 975              		.cfi_restore_state
 976 034c 93040500 		mv	s1,a0
 977              	.LVL115:
 101:src/../test/ConsumerProducer_CPP_API_test.hpp **** 
 978              		.loc 1 101 44
 979 0350 13050B00 		mv	a0,s6
 980 0354 97000000 		call	_ZdlPv@plt
 980      E7800000 
 981              	.LVL116:
 982 035c 13850400 		mv	a0,s1
 983 0360 97000000 		call	_Unwind_Resume@plt
 983      E7800000 
 984              	.LVL117:
 985              	.LEHE10:
 986              	.L45:
 987 0368 13090500 		mv	s2,a0
 103:src/../test/ConsumerProducer_CPP_API_test.hpp ****         Thread *producers[threadNum];
 988              		.loc 1 103 37
 989 036c 13850400 		mv	a0,s1
 990 0370 97000000 		call	_ZN9SemaphoredlEPv@plt
 990      E7800000 
 991              	.LVL118:
 992 0378 13050900 		mv	a0,s2
 993              	.LEHB11:
 994 037c 97000000 		call	_Unwind_Resume@plt
 994      E7800000 
 995              	.LVL119:
 996              	.LEHE11:
 997              	.L46:
 998 0384 93040500 		mv	s1,a0
 999              	.LVL120:
 110:src/../test/ConsumerProducer_CPP_API_test.hpp ****         consumer->start();
 1000              		.loc 1 110 63
 1001 0388 13050C00 		mv	a0,s8
 1002 038c 97000000 		call	_ZN6ThreaddlEPv@plt
 1002      E7800000 
 1003              	.LVL121:
 1004 0394 13850400 		mv	a0,s1
 1005              	.LEHB12:
 1006 0398 97000000 		call	_Unwind_Resume@plt
 1006      E7800000 
 1007              	.LVL122:
 1008              	.LEHE12:
 1009              	.L47:
 1010 03a0 93040500 		mv	s1,a0
GAS LISTING /tmp/ccyITIK0.s 			page 24


 116:src/../test/ConsumerProducer_CPP_API_test.hpp ****         producerKeyboard->start();
 1011              		.loc 1 116 71
 1012 03a4 13850B00 		mv	a0,s7
 1013 03a8 97000000 		call	_ZN6ThreaddlEPv@plt
 1013      E7800000 
 1014              	.LVL123:
 1015 03b0 13850400 		mv	a0,s1
 1016              	.LEHB13:
 1017 03b4 97000000 		call	_Unwind_Resume@plt
 1017      E7800000 
 1018              	.LVL124:
 1019              	.LEHE13:
 1020              	.L48:
 1021 03bc 93040500 		mv	s1,a0
 1022              	.LVL125:
 1023              	.LBB46:
 124:src/../test/ConsumerProducer_CPP_API_test.hpp ****             producers[i]->start();
 1024              		.loc 1 124 55
 1025 03c0 13850C00 		mv	a0,s9
 1026 03c4 97000000 		call	_ZN6ThreaddlEPv@plt
 1026      E7800000 
 1027              	.LVL126:
 1028 03cc 13850400 		mv	a0,s1
 1029              	.LEHB14:
 1030 03d0 97000000 		call	_Unwind_Resume@plt
 1030      E7800000 
 1031              	.LVL127:
 1032              	.LEHE14:
 1033              	.LBE46:
 1034              		.cfi_endproc
 1035              	.LFE23:
 1036              		.globl	__gxx_personality_v0
 1037              		.section	.gcc_except_table,"a",@progbits
 1038              	.LLSDA23:
 1039 0000 FF       		.byte	0xff
 1040 0001 FF       		.byte	0xff
 1041 0002 03       		.byte	0x3
 1042 0003 C301     		.byte	0xc3,0x1
 1043 0005 00000000 		.4byte	.LEHB0-.LFB23
 1044 0009 00000000 		.4byte	.LEHE0-.LEHB0
 1045 000d 00000000 		.4byte	0
 1046 0011 00       		.byte	0
 1047 0012 00000000 		.4byte	.LEHB1-.LFB23
 1048 0016 00000000 		.4byte	.LEHE1-.LEHB1
 1049 001a 00000000 		.4byte	.L44-.LFB23
 1050 001e 00       		.byte	0
 1051 001f 00000000 		.4byte	.LEHB2-.LFB23
 1052 0023 00000000 		.4byte	.LEHE2-.LEHB2
 1053 0027 00000000 		.4byte	0
 1054 002b 00       		.byte	0
 1055 002c 00000000 		.4byte	.LEHB3-.LFB23
 1056 0030 00000000 		.4byte	.LEHE3-.LEHB3
 1057 0034 00000000 		.4byte	.L45-.LFB23
 1058 0038 00       		.byte	0
 1059 0039 00000000 		.4byte	.LEHB4-.LFB23
 1060 003d 00000000 		.4byte	.LEHE4-.LEHB4
 1061 0041 00000000 		.4byte	0
GAS LISTING /tmp/ccyITIK0.s 			page 25


 1062 0045 00       		.byte	0
 1063 0046 00000000 		.4byte	.LEHB5-.LFB23
 1064 004a 00000000 		.4byte	.LEHE5-.LEHB5
 1065 004e 00000000 		.4byte	.L46-.LFB23
 1066 0052 00       		.byte	0
 1067 0053 00000000 		.4byte	.LEHB6-.LFB23
 1068 0057 00000000 		.4byte	.LEHE6-.LEHB6
 1069 005b 00000000 		.4byte	0
 1070 005f 00       		.byte	0
 1071 0060 00000000 		.4byte	.LEHB7-.LFB23
 1072 0064 00000000 		.4byte	.LEHE7-.LEHB7
 1073 0068 00000000 		.4byte	.L47-.LFB23
 1074 006c 00       		.byte	0
 1075 006d 00000000 		.4byte	.LEHB8-.LFB23
 1076 0071 00000000 		.4byte	.LEHE8-.LEHB8
 1077 0075 00000000 		.4byte	0
 1078 0079 00       		.byte	0
 1079 007a 00000000 		.4byte	.LEHB9-.LFB23
 1080 007e 00000000 		.4byte	.LEHE9-.LEHB9
 1081 0082 00000000 		.4byte	.L48-.LFB23
 1082 0086 00       		.byte	0
 1083 0087 00000000 		.4byte	.LEHB10-.LFB23
 1084 008b 00000000 		.4byte	.LEHE10-.LEHB10
 1085 008f 00000000 		.4byte	0
 1086 0093 00       		.byte	0
 1087 0094 00000000 		.4byte	.LEHB11-.LFB23
 1088 0098 00000000 		.4byte	.LEHE11-.LEHB11
 1089 009c 00000000 		.4byte	0
 1090 00a0 00       		.byte	0
 1091 00a1 00000000 		.4byte	.LEHB12-.LFB23
 1092 00a5 00000000 		.4byte	.LEHE12-.LEHB12
 1093 00a9 00000000 		.4byte	0
 1094 00ad 00       		.byte	0
 1095 00ae 00000000 		.4byte	.LEHB13-.LFB23
 1096 00b2 00000000 		.4byte	.LEHE13-.LEHB13
 1097 00b6 00000000 		.4byte	0
 1098 00ba 00       		.byte	0
 1099 00bb 00000000 		.4byte	.LEHB14-.LFB23
 1100 00bf 00000000 		.4byte	.LEHE14-.LEHB14
 1101 00c3 00000000 		.4byte	0
 1102 00c7 00       		.byte	0
 1103              		.text
 1105              		.align	2
 1106              		.globl	_Z8userMainv
 1108              	_Z8userMainv:
 1109              	.LFB24:
 1110              		.file 2 "src/userMain.cpp"
   1:src/userMain.cpp **** //#include "../test/Threads_C_API_test.hpp" // zadatak 2, niti C API i sinhrona promena konteksta
   2:src/userMain.cpp **** //#include "../test/Threads_CPP_API_test.hpp" // zadatak 2., niti CPP API i sinhrona promena kontek
   3:src/userMain.cpp **** 
   4:src/userMain.cpp **** //#include "../test/ConsumerProducer_C_API_test.h" // zadatak 3., kompletan C API sa semaforima, si
   5:src/userMain.cpp **** //#include "../test/ConsumerProducer_CPP_Sync_API_test.hpp" // zadatak 3., kompletan CPP API sa sem
   6:src/userMain.cpp **** 
   7:src/userMain.cpp **** //#include "../test/ThreadSleep_C_API_test.hpp" // thread_sleep test C API
   8:src/userMain.cpp **** #include "../test/ConsumerProducer_CPP_API_test.hpp" // zadatak 4. CPP API i asinhrona promena kont
   9:src/userMain.cpp **** void userMain() {
 1111              		.loc 2 9 17 is_stmt 1
GAS LISTING /tmp/ccyITIK0.s 			page 26


 1112              		.cfi_startproc
 1113 03d8 130101FF 		addi	sp,sp,-16
 1114              		.cfi_def_cfa_offset 16
 1115 03dc 23341100 		sd	ra,8(sp)
 1116 03e0 23308100 		sd	s0,0(sp)
 1117              		.cfi_offset 1, -8
 1118              		.cfi_offset 8, -16
 1119 03e4 13040101 		addi	s0,sp,16
 1120              		.cfi_def_cfa 8, 0
  10:src/userMain.cpp ****     //Threads_C_API_test(); // zadatak 2., niti C API i sinhrona promena konteksta
  11:src/userMain.cpp ****     //Threads_CPP_API_test(); // zadatak 2., niti CPP API i sinhrona promena konteksta
  12:src/userMain.cpp **** 
  13:src/userMain.cpp ****     //producerConsumer_C_API(); // zadatak 3., kompletan C API sa semaforima, sinhrona promena kont
  14:src/userMain.cpp ****     //producerConsumer_CPP_Sync_API(); // zadatak 3., kompletan CPP API sa semaforima, sinhrona pro
  15:src/userMain.cpp **** 
  16:src/userMain.cpp ****     //testSleeping(); // thread_sleep test C API
  17:src/userMain.cpp ****     ConsumerProducerCPP::testConsumerProducer(); // zadatak 4. CPP API i asinhrona promena kontekst
 1121              		.loc 2 17 5
 1122              		.loc 2 17 46 is_stmt 0
 1123 03e8 97000000 		call	_ZN19ConsumerProducerCPP20testConsumerProducerEv
 1123      E7800000 
 1124              	.LVL128:
  18:src/userMain.cpp **** 
  19:src/userMain.cpp **** }...
 1125              		.loc 2 19 1
 1126 03f0 83308100 		ld	ra,8(sp)
 1127              		.cfi_restore 1
 1128 03f4 03340100 		ld	s0,0(sp)
 1129              		.cfi_restore 8
 1130              		.cfi_def_cfa 2, 16
 1131 03f8 13010101 		addi	sp,sp,16
 1132              		.cfi_def_cfa_offset 0
 1133 03fc 67800000 		jr	ra
 1134              		.cfi_endproc
 1135              	.LFE24:
 1137              		.weak	_ZTVN19ConsumerProducerCPP16ProducerKeyboradE
 1138              		.section	.data.rel.ro.local._ZTVN19ConsumerProducerCPP16ProducerKeyboradE,"awG",@progbits,_ZTVN19C
 1139              		.align	3
 1142              	_ZTVN19ConsumerProducerCPP16ProducerKeyboradE:
 1143 0000 00000000 		.dword	0
 1143      00000000 
 1144 0008 00000000 		.dword	0
 1144      00000000 
 1145 0010 00000000 		.dword	_ZN19ConsumerProducerCPP16ProducerKeyboradD1Ev
 1145      00000000 
 1146 0018 00000000 		.dword	_ZN19ConsumerProducerCPP16ProducerKeyboradD0Ev
 1146      00000000 
 1147 0020 00000000 		.dword	_ZN19ConsumerProducerCPP16ProducerKeyborad3runEv
 1147      00000000 
 1148              		.weak	_ZTVN19ConsumerProducerCPP8ProducerE
 1149              		.section	.data.rel.ro.local._ZTVN19ConsumerProducerCPP8ProducerE,"awG",@progbits,_ZTVN19ConsumerPr
 1150              		.align	3
 1153              	_ZTVN19ConsumerProducerCPP8ProducerE:
 1154 0000 00000000 		.dword	0
 1154      00000000 
 1155 0008 00000000 		.dword	0
 1155      00000000 
GAS LISTING /tmp/ccyITIK0.s 			page 27


 1156 0010 00000000 		.dword	_ZN19ConsumerProducerCPP8ProducerD1Ev
 1156      00000000 
 1157 0018 00000000 		.dword	_ZN19ConsumerProducerCPP8ProducerD0Ev
 1157      00000000 
 1158 0020 00000000 		.dword	_ZN19ConsumerProducerCPP8Producer3runEv
 1158      00000000 
 1159              		.weak	_ZTVN19ConsumerProducerCPP8ConsumerE
 1160              		.section	.data.rel.ro.local._ZTVN19ConsumerProducerCPP8ConsumerE,"awG",@progbits,_ZTVN19ConsumerPr
 1161              		.align	3
 1164              	_ZTVN19ConsumerProducerCPP8ConsumerE:
 1165 0000 00000000 		.dword	0
 1165      00000000 
 1166 0008 00000000 		.dword	0
 1166      00000000 
 1167 0010 00000000 		.dword	_ZN19ConsumerProducerCPP8ConsumerD1Ev
 1167      00000000 
 1168 0018 00000000 		.dword	_ZN19ConsumerProducerCPP8ConsumerD0Ev
 1168      00000000 
 1169 0020 00000000 		.dword	_ZN19ConsumerProducerCPP8Consumer3runEv
 1169      00000000 
 1170              		.globl	_ZN19ConsumerProducerCPP9threadEndE
 1171              		.globl	_ZN19ConsumerProducerCPP10waitForAllE
 1172              		.bss
 1173              		.align	3
 1174              		.set	.LANCHOR0,. + 0
 1177              	_ZN19ConsumerProducerCPP9threadEndE:
 1178 0000 00000000 		.zero	4
 1179 0004 00000000 		.zero	4
 1182              	_ZN19ConsumerProducerCPP10waitForAllE:
 1183 0008 00000000 		.zero	8
 1183      00000000 
 1184              		.text
 1185              	.Letext0:
 1186              		.file 3 "src/../test/../h/hw.h"
 1187              		.file 4 "src/../test/../h/syscall_cpp.h"
 1188              		.file 5 "src/../test/buffer_CPP_API.hpp"
 1189              		.file 6 "src/../test/../h/syscall_c.h"
 1190              		.file 7 "src/../test/../h/print.h"
 4888              		.align	3
 4891              	DW.ref.__gxx_personality_v0:
 4892 0000 00000000 		.dword	__gxx_personality_v0
 4892      00000000 
 4893              		.ident	"GCC: (Ubuntu 9.4.0-1ubuntu1~20.04) 9.4.0"
 4894              		.section	.note.GNU-stack,"",@progbits
GAS LISTING /tmp/ccyITIK0.s 			page 28


DEFINED SYMBOLS
                            *ABS*:0000000000000000 userMain.cpp
     /tmp/ccyITIK0.s:10     .text._ZN19ConsumerProducerCPP8Consumer3runEv:0000000000000000 _ZN19ConsumerProducerCPP8Consumer3runEv
     /tmp/ccyITIK0.s:14     .text._ZN19ConsumerProducerCPP8Consumer3runEv:0000000000000000 .L0 
     /tmp/ccyITIK0.s:16     .text._ZN19ConsumerProducerCPP8Consumer3runEv:0000000000000000 .L0 
     /tmp/ccyITIK0.s:17     .text._ZN19ConsumerProducerCPP8Consumer3runEv:0000000000000004 .L0 
     /tmp/ccyITIK0.s:23     .text._ZN19ConsumerProducerCPP8Consumer3runEv:0000000000000018 .L0 
     /tmp/ccyITIK0.s:24     .text._ZN19ConsumerProducerCPP8Consumer3runEv:0000000000000018 .L0 
     /tmp/ccyITIK0.s:25     .text._ZN19ConsumerProducerCPP8Consumer3runEv:0000000000000018 .L0 
     /tmp/ccyITIK0.s:26     .text._ZN19ConsumerProducerCPP8Consumer3runEv:0000000000000018 .L0 
     /tmp/ccyITIK0.s:27     .text._ZN19ConsumerProducerCPP8Consumer3runEv:0000000000000018 .L0 
     /tmp/ccyITIK0.s:29     .text._ZN19ConsumerProducerCPP8Consumer3runEv:000000000000001c .L0 
     /tmp/ccyITIK0.s:33     .text._ZN19ConsumerProducerCPP8Consumer3runEv:0000000000000020 .L0 
     /tmp/ccyITIK0.s:34     .text._ZN19ConsumerProducerCPP8Consumer3runEv:0000000000000020 .L0 
     /tmp/ccyITIK0.s:40     .text._ZN19ConsumerProducerCPP8Consumer3runEv:0000000000000028 .L0 
     /tmp/ccyITIK0.s:41     .text._ZN19ConsumerProducerCPP8Consumer3runEv:0000000000000028 .L0 
     /tmp/ccyITIK0.s:47     .text._ZN19ConsumerProducerCPP8Consumer3runEv:0000000000000034 .L0 
     /tmp/ccyITIK0.s:48     .text._ZN19ConsumerProducerCPP8Consumer3runEv:0000000000000034 .L0 
     /tmp/ccyITIK0.s:52     .text._ZN19ConsumerProducerCPP8Consumer3runEv:0000000000000040 .L0 
     /tmp/ccyITIK0.s:53     .text._ZN19ConsumerProducerCPP8Consumer3runEv:0000000000000040 .L0 
     /tmp/ccyITIK0.s:55     .text._ZN19ConsumerProducerCPP8Consumer3runEv:0000000000000044 .L0 
     /tmp/ccyITIK0.s:59     .text._ZN19ConsumerProducerCPP8Consumer3runEv:0000000000000050 .L0 
     /tmp/ccyITIK0.s:60     .text._ZN19ConsumerProducerCPP8Consumer3runEv:0000000000000050 .L0 
     /tmp/ccyITIK0.s:64     .text._ZN19ConsumerProducerCPP8Consumer3runEv:0000000000000058 .L0 
     /tmp/ccyITIK0.s:65     .text._ZN19ConsumerProducerCPP8Consumer3runEv:0000000000000058 .L0 
     /tmp/ccyITIK0.s:70     .text._ZN19ConsumerProducerCPP8Consumer3runEv:0000000000000064 .L0 
     /tmp/ccyITIK0.s:71     .text._ZN19ConsumerProducerCPP8Consumer3runEv:0000000000000064 .L0 
     /tmp/ccyITIK0.s:75     .text._ZN19ConsumerProducerCPP8Consumer3runEv:000000000000006c .L0 
     /tmp/ccyITIK0.s:80     .text._ZN19ConsumerProducerCPP8Consumer3runEv:0000000000000074 .L0 
     /tmp/ccyITIK0.s:82     .text._ZN19ConsumerProducerCPP8Consumer3runEv:0000000000000078 .L0 
     /tmp/ccyITIK0.s:86     .text._ZN19ConsumerProducerCPP8Consumer3runEv:0000000000000084 .L0 
     /tmp/ccyITIK0.s:87     .text._ZN19ConsumerProducerCPP8Consumer3runEv:0000000000000088 .L0 
     /tmp/ccyITIK0.s:89     .text._ZN19ConsumerProducerCPP8Consumer3runEv:000000000000008c .L0 
     /tmp/ccyITIK0.s:90     .text._ZN19ConsumerProducerCPP8Consumer3runEv:000000000000008c .L0 
     /tmp/ccyITIK0.s:92     .text._ZN19ConsumerProducerCPP8Consumer3runEv:0000000000000090 .L0 
     /tmp/ccyITIK0.s:94     .text._ZN19ConsumerProducerCPP8Consumer3runEv:0000000000000094 .L0 
     /tmp/ccyITIK0.s:97     .text._ZN19ConsumerProducerCPP8Consumer3runEv:0000000000000098 .L0 
     /tmp/ccyITIK0.s:100    .text._ZN19ConsumerProducerCPP8Consumer3runEv:000000000000009c .L0 
     /tmp/ccyITIK0.s:102    .text._ZN19ConsumerProducerCPP8Consumer3runEv:00000000000000a0 .L0 
     /tmp/ccyITIK0.s:109    .text._ZN19ConsumerProducerCPP8ConsumerD2Ev:0000000000000000 _ZN19ConsumerProducerCPP8ConsumerD2Ev
     /tmp/ccyITIK0.s:112    .text._ZN19ConsumerProducerCPP8ConsumerD2Ev:0000000000000000 .L0 
     /tmp/ccyITIK0.s:114    .text._ZN19ConsumerProducerCPP8ConsumerD2Ev:0000000000000000 .L0 
     /tmp/ccyITIK0.s:115    .text._ZN19ConsumerProducerCPP8ConsumerD2Ev:0000000000000004 .L0 
     /tmp/ccyITIK0.s:118    .text._ZN19ConsumerProducerCPP8ConsumerD2Ev:000000000000000c .L0 
     /tmp/ccyITIK0.s:119    .text._ZN19ConsumerProducerCPP8ConsumerD2Ev:000000000000000c .L0 
     /tmp/ccyITIK0.s:121    .text._ZN19ConsumerProducerCPP8ConsumerD2Ev:0000000000000010 .L0 
     /tmp/ccyITIK0.s:1164   .data.rel.ro.local._ZTVN19ConsumerProducerCPP8ConsumerE:0000000000000000 _ZTVN19ConsumerProducerCPP8ConsumerE
     /tmp/ccyITIK0.s:124    .text._ZN19ConsumerProducerCPP8ConsumerD2Ev:0000000000000010 .L0 
     /tmp/ccyITIK0.s:130    .text._ZN19ConsumerProducerCPP8ConsumerD2Ev:0000000000000028 .L0 
     /tmp/ccyITIK0.s:132    .text._ZN19ConsumerProducerCPP8ConsumerD2Ev:000000000000002c .L0 
     /tmp/ccyITIK0.s:133    .text._ZN19ConsumerProducerCPP8ConsumerD2Ev:000000000000002c .L0 
     /tmp/ccyITIK0.s:135    .text._ZN19ConsumerProducerCPP8ConsumerD2Ev:0000000000000030 .L0 
     /tmp/ccyITIK0.s:137    .text._ZN19ConsumerProducerCPP8ConsumerD2Ev:0000000000000034 .L0 
     /tmp/ccyITIK0.s:109    .text._ZN19ConsumerProducerCPP8ConsumerD2Ev:0000000000000000 _ZN19ConsumerProducerCPP8ConsumerD1Ev
     /tmp/ccyITIK0.s:146    .text._ZN19ConsumerProducerCPP8ConsumerD0Ev:0000000000000000 _ZN19ConsumerProducerCPP8ConsumerD0Ev
     /tmp/ccyITIK0.s:149    .text._ZN19ConsumerProducerCPP8ConsumerD0Ev:0000000000000000 .L0 
     /tmp/ccyITIK0.s:151    .text._ZN19ConsumerProducerCPP8ConsumerD0Ev:0000000000000000 .L0 
GAS LISTING /tmp/ccyITIK0.s 			page 29


     /tmp/ccyITIK0.s:152    .text._ZN19ConsumerProducerCPP8ConsumerD0Ev:0000000000000004 .L0 
     /tmp/ccyITIK0.s:156    .text._ZN19ConsumerProducerCPP8ConsumerD0Ev:0000000000000010 .L0 
     /tmp/ccyITIK0.s:157    .text._ZN19ConsumerProducerCPP8ConsumerD0Ev:0000000000000010 .L0 
     /tmp/ccyITIK0.s:158    .text._ZN19ConsumerProducerCPP8ConsumerD0Ev:0000000000000010 .L0 
     /tmp/ccyITIK0.s:160    .text._ZN19ConsumerProducerCPP8ConsumerD0Ev:0000000000000014 .L0 
     /tmp/ccyITIK0.s:166    .text._ZN19ConsumerProducerCPP8ConsumerD0Ev:0000000000000018 .L0 
     /tmp/ccyITIK0.s:176    .text._ZN19ConsumerProducerCPP8ConsumerD0Ev:000000000000003c .L0 
     /tmp/ccyITIK0.s:178    .text._ZN19ConsumerProducerCPP8ConsumerD0Ev:0000000000000040 .L0 
     /tmp/ccyITIK0.s:179    .text._ZN19ConsumerProducerCPP8ConsumerD0Ev:0000000000000040 .L0 
     /tmp/ccyITIK0.s:181    .text._ZN19ConsumerProducerCPP8ConsumerD0Ev:0000000000000044 .L0 
     /tmp/ccyITIK0.s:184    .text._ZN19ConsumerProducerCPP8ConsumerD0Ev:0000000000000048 .L0 
     /tmp/ccyITIK0.s:186    .text._ZN19ConsumerProducerCPP8ConsumerD0Ev:000000000000004c .L0 
     /tmp/ccyITIK0.s:193    .text._ZN19ConsumerProducerCPP16ProducerKeyboradD2Ev:0000000000000000 _ZN19ConsumerProducerCPP16ProducerKeyboradD2Ev
     /tmp/ccyITIK0.s:196    .text._ZN19ConsumerProducerCPP16ProducerKeyboradD2Ev:0000000000000000 .L0 
     /tmp/ccyITIK0.s:198    .text._ZN19ConsumerProducerCPP16ProducerKeyboradD2Ev:0000000000000000 .L0 
     /tmp/ccyITIK0.s:199    .text._ZN19ConsumerProducerCPP16ProducerKeyboradD2Ev:0000000000000004 .L0 
     /tmp/ccyITIK0.s:202    .text._ZN19ConsumerProducerCPP16ProducerKeyboradD2Ev:000000000000000c .L0 
     /tmp/ccyITIK0.s:203    .text._ZN19ConsumerProducerCPP16ProducerKeyboradD2Ev:000000000000000c .L0 
     /tmp/ccyITIK0.s:205    .text._ZN19ConsumerProducerCPP16ProducerKeyboradD2Ev:0000000000000010 .L0 
     /tmp/ccyITIK0.s:1142   .data.rel.ro.local._ZTVN19ConsumerProducerCPP16ProducerKeyboradE:0000000000000000 _ZTVN19ConsumerProducerCPP16ProducerKeyboradE
     /tmp/ccyITIK0.s:208    .text._ZN19ConsumerProducerCPP16ProducerKeyboradD2Ev:0000000000000010 .L0 
     /tmp/ccyITIK0.s:214    .text._ZN19ConsumerProducerCPP16ProducerKeyboradD2Ev:0000000000000028 .L0 
     /tmp/ccyITIK0.s:216    .text._ZN19ConsumerProducerCPP16ProducerKeyboradD2Ev:000000000000002c .L0 
     /tmp/ccyITIK0.s:217    .text._ZN19ConsumerProducerCPP16ProducerKeyboradD2Ev:000000000000002c .L0 
     /tmp/ccyITIK0.s:219    .text._ZN19ConsumerProducerCPP16ProducerKeyboradD2Ev:0000000000000030 .L0 
     /tmp/ccyITIK0.s:221    .text._ZN19ConsumerProducerCPP16ProducerKeyboradD2Ev:0000000000000034 .L0 
     /tmp/ccyITIK0.s:193    .text._ZN19ConsumerProducerCPP16ProducerKeyboradD2Ev:0000000000000000 _ZN19ConsumerProducerCPP16ProducerKeyboradD1Ev
     /tmp/ccyITIK0.s:230    .text._ZN19ConsumerProducerCPP16ProducerKeyboradD0Ev:0000000000000000 _ZN19ConsumerProducerCPP16ProducerKeyboradD0Ev
     /tmp/ccyITIK0.s:233    .text._ZN19ConsumerProducerCPP16ProducerKeyboradD0Ev:0000000000000000 .L0 
     /tmp/ccyITIK0.s:235    .text._ZN19ConsumerProducerCPP16ProducerKeyboradD0Ev:0000000000000000 .L0 
     /tmp/ccyITIK0.s:236    .text._ZN19ConsumerProducerCPP16ProducerKeyboradD0Ev:0000000000000004 .L0 
     /tmp/ccyITIK0.s:240    .text._ZN19ConsumerProducerCPP16ProducerKeyboradD0Ev:0000000000000010 .L0 
     /tmp/ccyITIK0.s:241    .text._ZN19ConsumerProducerCPP16ProducerKeyboradD0Ev:0000000000000010 .L0 
     /tmp/ccyITIK0.s:242    .text._ZN19ConsumerProducerCPP16ProducerKeyboradD0Ev:0000000000000010 .L0 
     /tmp/ccyITIK0.s:244    .text._ZN19ConsumerProducerCPP16ProducerKeyboradD0Ev:0000000000000014 .L0 
     /tmp/ccyITIK0.s:250    .text._ZN19ConsumerProducerCPP16ProducerKeyboradD0Ev:0000000000000018 .L0 
     /tmp/ccyITIK0.s:260    .text._ZN19ConsumerProducerCPP16ProducerKeyboradD0Ev:000000000000003c .L0 
     /tmp/ccyITIK0.s:262    .text._ZN19ConsumerProducerCPP16ProducerKeyboradD0Ev:0000000000000040 .L0 
     /tmp/ccyITIK0.s:263    .text._ZN19ConsumerProducerCPP16ProducerKeyboradD0Ev:0000000000000040 .L0 
     /tmp/ccyITIK0.s:265    .text._ZN19ConsumerProducerCPP16ProducerKeyboradD0Ev:0000000000000044 .L0 
     /tmp/ccyITIK0.s:268    .text._ZN19ConsumerProducerCPP16ProducerKeyboradD0Ev:0000000000000048 .L0 
     /tmp/ccyITIK0.s:270    .text._ZN19ConsumerProducerCPP16ProducerKeyboradD0Ev:000000000000004c .L0 
     /tmp/ccyITIK0.s:277    .text._ZN19ConsumerProducerCPP8ProducerD2Ev:0000000000000000 _ZN19ConsumerProducerCPP8ProducerD2Ev
     /tmp/ccyITIK0.s:280    .text._ZN19ConsumerProducerCPP8ProducerD2Ev:0000000000000000 .L0 
     /tmp/ccyITIK0.s:282    .text._ZN19ConsumerProducerCPP8ProducerD2Ev:0000000000000000 .L0 
     /tmp/ccyITIK0.s:283    .text._ZN19ConsumerProducerCPP8ProducerD2Ev:0000000000000004 .L0 
     /tmp/ccyITIK0.s:286    .text._ZN19ConsumerProducerCPP8ProducerD2Ev:000000000000000c .L0 
     /tmp/ccyITIK0.s:287    .text._ZN19ConsumerProducerCPP8ProducerD2Ev:000000000000000c .L0 
     /tmp/ccyITIK0.s:289    .text._ZN19ConsumerProducerCPP8ProducerD2Ev:0000000000000010 .L0 
     /tmp/ccyITIK0.s:1153   .data.rel.ro.local._ZTVN19ConsumerProducerCPP8ProducerE:0000000000000000 _ZTVN19ConsumerProducerCPP8ProducerE
     /tmp/ccyITIK0.s:292    .text._ZN19ConsumerProducerCPP8ProducerD2Ev:0000000000000010 .L0 
     /tmp/ccyITIK0.s:298    .text._ZN19ConsumerProducerCPP8ProducerD2Ev:0000000000000028 .L0 
     /tmp/ccyITIK0.s:300    .text._ZN19ConsumerProducerCPP8ProducerD2Ev:000000000000002c .L0 
     /tmp/ccyITIK0.s:301    .text._ZN19ConsumerProducerCPP8ProducerD2Ev:000000000000002c .L0 
     /tmp/ccyITIK0.s:303    .text._ZN19ConsumerProducerCPP8ProducerD2Ev:0000000000000030 .L0 
     /tmp/ccyITIK0.s:305    .text._ZN19ConsumerProducerCPP8ProducerD2Ev:0000000000000034 .L0 
     /tmp/ccyITIK0.s:277    .text._ZN19ConsumerProducerCPP8ProducerD2Ev:0000000000000000 _ZN19ConsumerProducerCPP8ProducerD1Ev
GAS LISTING /tmp/ccyITIK0.s 			page 30


     /tmp/ccyITIK0.s:314    .text._ZN19ConsumerProducerCPP8ProducerD0Ev:0000000000000000 _ZN19ConsumerProducerCPP8ProducerD0Ev
     /tmp/ccyITIK0.s:317    .text._ZN19ConsumerProducerCPP8ProducerD0Ev:0000000000000000 .L0 
     /tmp/ccyITIK0.s:319    .text._ZN19ConsumerProducerCPP8ProducerD0Ev:0000000000000000 .L0 
     /tmp/ccyITIK0.s:320    .text._ZN19ConsumerProducerCPP8ProducerD0Ev:0000000000000004 .L0 
     /tmp/ccyITIK0.s:324    .text._ZN19ConsumerProducerCPP8ProducerD0Ev:0000000000000010 .L0 
     /tmp/ccyITIK0.s:325    .text._ZN19ConsumerProducerCPP8ProducerD0Ev:0000000000000010 .L0 
     /tmp/ccyITIK0.s:326    .text._ZN19ConsumerProducerCPP8ProducerD0Ev:0000000000000010 .L0 
     /tmp/ccyITIK0.s:328    .text._ZN19ConsumerProducerCPP8ProducerD0Ev:0000000000000014 .L0 
     /tmp/ccyITIK0.s:334    .text._ZN19ConsumerProducerCPP8ProducerD0Ev:0000000000000018 .L0 
     /tmp/ccyITIK0.s:344    .text._ZN19ConsumerProducerCPP8ProducerD0Ev:000000000000003c .L0 
     /tmp/ccyITIK0.s:346    .text._ZN19ConsumerProducerCPP8ProducerD0Ev:0000000000000040 .L0 
     /tmp/ccyITIK0.s:347    .text._ZN19ConsumerProducerCPP8ProducerD0Ev:0000000000000040 .L0 
     /tmp/ccyITIK0.s:349    .text._ZN19ConsumerProducerCPP8ProducerD0Ev:0000000000000044 .L0 
     /tmp/ccyITIK0.s:352    .text._ZN19ConsumerProducerCPP8ProducerD0Ev:0000000000000048 .L0 
     /tmp/ccyITIK0.s:354    .text._ZN19ConsumerProducerCPP8ProducerD0Ev:000000000000004c .L0 
     /tmp/ccyITIK0.s:361    .text._ZN19ConsumerProducerCPP16ProducerKeyborad3runEv:0000000000000000 _ZN19ConsumerProducerCPP16ProducerKeyborad3runEv
     /tmp/ccyITIK0.s:364    .text._ZN19ConsumerProducerCPP16ProducerKeyborad3runEv:0000000000000000 .L0 
     /tmp/ccyITIK0.s:366    .text._ZN19ConsumerProducerCPP16ProducerKeyborad3runEv:0000000000000000 .L0 
     /tmp/ccyITIK0.s:367    .text._ZN19ConsumerProducerCPP16ProducerKeyborad3runEv:0000000000000004 .L0 
     /tmp/ccyITIK0.s:372    .text._ZN19ConsumerProducerCPP16ProducerKeyborad3runEv:0000000000000014 .L0 
     /tmp/ccyITIK0.s:373    .text._ZN19ConsumerProducerCPP16ProducerKeyborad3runEv:0000000000000014 .L0 
     /tmp/ccyITIK0.s:374    .text._ZN19ConsumerProducerCPP16ProducerKeyborad3runEv:0000000000000014 .L0 
     /tmp/ccyITIK0.s:375    .text._ZN19ConsumerProducerCPP16ProducerKeyborad3runEv:0000000000000014 .L0 
     /tmp/ccyITIK0.s:377    .text._ZN19ConsumerProducerCPP16ProducerKeyborad3runEv:0000000000000018 .L0 
     /tmp/ccyITIK0.s:380    .text._ZN19ConsumerProducerCPP16ProducerKeyborad3runEv:000000000000001c .L0 
     /tmp/ccyITIK0.s:383    .text._ZN19ConsumerProducerCPP16ProducerKeyborad3runEv:000000000000001c .L0 
     /tmp/ccyITIK0.s:384    .text._ZN19ConsumerProducerCPP16ProducerKeyborad3runEv:000000000000001c .L0 
     /tmp/ccyITIK0.s:385    .text._ZN19ConsumerProducerCPP16ProducerKeyborad3runEv:000000000000001c .L0 
     /tmp/ccyITIK0.s:386    .text._ZN19ConsumerProducerCPP16ProducerKeyborad3runEv:000000000000001c .L0 
     /tmp/ccyITIK0.s:389    .text._ZN19ConsumerProducerCPP16ProducerKeyborad3runEv:0000000000000024 .L0 
     /tmp/ccyITIK0.s:392    .text._ZN19ConsumerProducerCPP16ProducerKeyborad3runEv:0000000000000028 .L0 
     /tmp/ccyITIK0.s:395    .text._ZN19ConsumerProducerCPP16ProducerKeyborad3runEv:0000000000000030 .L0 
     /tmp/ccyITIK0.s:397    .text._ZN19ConsumerProducerCPP16ProducerKeyborad3runEv:0000000000000034 .L0 
     /tmp/ccyITIK0.s:401    .text._ZN19ConsumerProducerCPP16ProducerKeyborad3runEv:0000000000000040 .L0 
     /tmp/ccyITIK0.s:402    .text._ZN19ConsumerProducerCPP16ProducerKeyborad3runEv:0000000000000040 .L0 
     /tmp/ccyITIK0.s:406    .text._ZN19ConsumerProducerCPP16ProducerKeyborad3runEv:0000000000000044 .L0 
     /tmp/ccyITIK0.s:407    .text._ZN19ConsumerProducerCPP16ProducerKeyborad3runEv:0000000000000044 .L0 
     /tmp/ccyITIK0.s:410    .text._ZN19ConsumerProducerCPP16ProducerKeyborad3runEv:0000000000000050 .L0 
     /tmp/ccyITIK0.s:411    .text._ZN19ConsumerProducerCPP16ProducerKeyborad3runEv:0000000000000050 .L0 
     /tmp/ccyITIK0.s:413    .text._ZN19ConsumerProducerCPP16ProducerKeyborad3runEv:0000000000000054 .L0 
     /tmp/ccyITIK0.s:415    .text._ZN19ConsumerProducerCPP16ProducerKeyborad3runEv:0000000000000058 .L0 
     /tmp/ccyITIK0.s:417    .text._ZN19ConsumerProducerCPP16ProducerKeyborad3runEv:000000000000005c .L0 
     /tmp/ccyITIK0.s:425    .text._ZN19ConsumerProducerCPP16ProducerKeyborad3runEv:0000000000000074 .L0 
     /tmp/ccyITIK0.s:427    .text._ZN19ConsumerProducerCPP16ProducerKeyborad3runEv:0000000000000078 .L0 
     /tmp/ccyITIK0.s:431    .text._ZN19ConsumerProducerCPP16ProducerKeyborad3runEv:0000000000000084 .L0 
     /tmp/ccyITIK0.s:432    .text._ZN19ConsumerProducerCPP16ProducerKeyborad3runEv:0000000000000088 .L0 
     /tmp/ccyITIK0.s:434    .text._ZN19ConsumerProducerCPP16ProducerKeyborad3runEv:000000000000008c .L0 
     /tmp/ccyITIK0.s:435    .text._ZN19ConsumerProducerCPP16ProducerKeyborad3runEv:000000000000008c .L0 
     /tmp/ccyITIK0.s:437    .text._ZN19ConsumerProducerCPP16ProducerKeyborad3runEv:0000000000000090 .L0 
     /tmp/ccyITIK0.s:440    .text._ZN19ConsumerProducerCPP16ProducerKeyborad3runEv:0000000000000094 .L0 
     /tmp/ccyITIK0.s:442    .text._ZN19ConsumerProducerCPP16ProducerKeyborad3runEv:0000000000000098 .L0 
     /tmp/ccyITIK0.s:444    .text._ZN19ConsumerProducerCPP16ProducerKeyborad3runEv:000000000000009c .L0 
     /tmp/ccyITIK0.s:451    .text._ZN19ConsumerProducerCPP8Producer3runEv:0000000000000000 _ZN19ConsumerProducerCPP8Producer3runEv
     /tmp/ccyITIK0.s:454    .text._ZN19ConsumerProducerCPP8Producer3runEv:0000000000000000 .L0 
     /tmp/ccyITIK0.s:456    .text._ZN19ConsumerProducerCPP8Producer3runEv:0000000000000000 .L0 
     /tmp/ccyITIK0.s:457    .text._ZN19ConsumerProducerCPP8Producer3runEv:0000000000000004 .L0 
     /tmp/ccyITIK0.s:462    .text._ZN19ConsumerProducerCPP8Producer3runEv:0000000000000014 .L0 
GAS LISTING /tmp/ccyITIK0.s 			page 31


     /tmp/ccyITIK0.s:463    .text._ZN19ConsumerProducerCPP8Producer3runEv:0000000000000014 .L0 
     /tmp/ccyITIK0.s:464    .text._ZN19ConsumerProducerCPP8Producer3runEv:0000000000000014 .L0 
     /tmp/ccyITIK0.s:465    .text._ZN19ConsumerProducerCPP8Producer3runEv:0000000000000014 .L0 
     /tmp/ccyITIK0.s:467    .text._ZN19ConsumerProducerCPP8Producer3runEv:0000000000000018 .L0 
     /tmp/ccyITIK0.s:471    .text._ZN19ConsumerProducerCPP8Producer3runEv:000000000000001c .L0 
     /tmp/ccyITIK0.s:472    .text._ZN19ConsumerProducerCPP8Producer3runEv:000000000000001c .L0 
     /tmp/ccyITIK0.s:476    .text._ZN19ConsumerProducerCPP8Producer3runEv:0000000000000020 .L0 
     /tmp/ccyITIK0.s:477    .text._ZN19ConsumerProducerCPP8Producer3runEv:0000000000000020 .L0 
     /tmp/ccyITIK0.s:480    .text._ZN19ConsumerProducerCPP8Producer3runEv:000000000000002c .L0 
     /tmp/ccyITIK0.s:482    .text._ZN19ConsumerProducerCPP8Producer3runEv:0000000000000030 .L0 
     /tmp/ccyITIK0.s:484    .text._ZN19ConsumerProducerCPP8Producer3runEv:0000000000000034 .L0 
     /tmp/ccyITIK0.s:489    .text._ZN19ConsumerProducerCPP8Producer3runEv:0000000000000044 .L0 
     /tmp/ccyITIK0.s:490    .text._ZN19ConsumerProducerCPP8Producer3runEv:0000000000000044 .L0 
     /tmp/ccyITIK0.s:494    .text._ZN19ConsumerProducerCPP8Producer3runEv:000000000000004c .L0 
     /tmp/ccyITIK0.s:495    .text._ZN19ConsumerProducerCPP8Producer3runEv:000000000000004c .L0 
     /tmp/ccyITIK0.s:497    .text._ZN19ConsumerProducerCPP8Producer3runEv:0000000000000050 .L0 
     /tmp/ccyITIK0.s:499    .text._ZN19ConsumerProducerCPP8Producer3runEv:0000000000000054 .L0 
     /tmp/ccyITIK0.s:501    .text._ZN19ConsumerProducerCPP8Producer3runEv:0000000000000058 .L0 
     /tmp/ccyITIK0.s:506    .text._ZN19ConsumerProducerCPP8Producer3runEv:0000000000000068 .L0 
     /tmp/ccyITIK0.s:509    .text._ZN19ConsumerProducerCPP8Producer3runEv:000000000000006c .L0 
     /tmp/ccyITIK0.s:511    .text._ZN19ConsumerProducerCPP8Producer3runEv:0000000000000070 .L0 
     /tmp/ccyITIK0.s:515    .text._ZN19ConsumerProducerCPP8Producer3runEv:000000000000007c .L0 
     /tmp/ccyITIK0.s:516    .text._ZN19ConsumerProducerCPP8Producer3runEv:0000000000000080 .L0 
     /tmp/ccyITIK0.s:518    .text._ZN19ConsumerProducerCPP8Producer3runEv:0000000000000084 .L0 
     /tmp/ccyITIK0.s:519    .text._ZN19ConsumerProducerCPP8Producer3runEv:0000000000000084 .L0 
     /tmp/ccyITIK0.s:521    .text._ZN19ConsumerProducerCPP8Producer3runEv:0000000000000088 .L0 
     /tmp/ccyITIK0.s:524    .text._ZN19ConsumerProducerCPP8Producer3runEv:000000000000008c .L0 
     /tmp/ccyITIK0.s:527    .text._ZN19ConsumerProducerCPP8Producer3runEv:0000000000000090 .L0 
     /tmp/ccyITIK0.s:529    .text._ZN19ConsumerProducerCPP8Producer3runEv:0000000000000094 .L0 
     /tmp/ccyITIK0.s:552    .text:0000000000000000 _ZN19ConsumerProducerCPP20testConsumerProducerEv
     /tmp/ccyITIK0.s:555    .text:0000000000000000 .L0 
     /tmp/ccyITIK0.s:4891   .data.rel.local.DW.ref.__gxx_personality_v0:0000000000000000 DW.ref.__gxx_personality_v0
     /tmp/ccyITIK0.s:558    .text:0000000000000000 .L0 
     /tmp/ccyITIK0.s:559    .text:0000000000000004 .L0 
     /tmp/ccyITIK0.s:571    .text:0000000000000030 .L0 
     /tmp/ccyITIK0.s:572    .text:0000000000000030 .L0 
     /tmp/ccyITIK0.s:573    .text:0000000000000030 .L0 
     /tmp/ccyITIK0.s:574    .text:0000000000000030 .L0 
     /tmp/ccyITIK0.s:575    .text:0000000000000030 .L0 
     /tmp/ccyITIK0.s:576    .text:0000000000000030 .L0 
     /tmp/ccyITIK0.s:577    .text:0000000000000030 .L0 
     /tmp/ccyITIK0.s:578    .text:0000000000000030 .L0 
     /tmp/ccyITIK0.s:579    .text:0000000000000030 .L0 
     /tmp/ccyITIK0.s:580    .text:0000000000000030 .L0 
     /tmp/ccyITIK0.s:581    .text:0000000000000030 .L0 
     /tmp/ccyITIK0.s:583    .text:0000000000000034 .L0 
     /tmp/ccyITIK0.s:585    .text:0000000000000034 .L0 
     /tmp/ccyITIK0.s:586    .text:0000000000000034 .L0 
     /tmp/ccyITIK0.s:587    .text:0000000000000034 .L0 
     /tmp/ccyITIK0.s:588    .text:0000000000000034 .L0 
     /tmp/ccyITIK0.s:593    .text:0000000000000044 .L0 
     /tmp/ccyITIK0.s:594    .text:0000000000000044 .L0 
     /tmp/ccyITIK0.s:600    .text:0000000000000058 .L0 
     /tmp/ccyITIK0.s:601    .text:0000000000000058 .L0 
     /tmp/ccyITIK0.s:607    .text:0000000000000068 .L0 
     /tmp/ccyITIK0.s:608    .text:0000000000000068 .L0 
     /tmp/ccyITIK0.s:612    .text:0000000000000078 .L0 
GAS LISTING /tmp/ccyITIK0.s 			page 32


     /tmp/ccyITIK0.s:613    .text:0000000000000078 .L0 
     /tmp/ccyITIK0.s:618    .text:0000000000000088 .L0 
     /tmp/ccyITIK0.s:619    .text:0000000000000088 .L0 
     /tmp/ccyITIK0.s:625    .text:0000000000000098 .L0 
     /tmp/ccyITIK0.s:626    .text:0000000000000098 .L0 
     /tmp/ccyITIK0.s:630    .text:00000000000000a8 .L0 
     /tmp/ccyITIK0.s:631    .text:00000000000000a8 .L0 
     /tmp/ccyITIK0.s:637    .text:00000000000000bc .L0 
     /tmp/ccyITIK0.s:638    .text:00000000000000bc .L0 
     /tmp/ccyITIK0.s:642    .text:00000000000000cc .L0 
     /tmp/ccyITIK0.s:643    .text:00000000000000cc .L0 
     /tmp/ccyITIK0.s:649    .text:00000000000000e0 .L0 
     /tmp/ccyITIK0.s:650    .text:00000000000000e0 .L0 
     /tmp/ccyITIK0.s:654    .text:00000000000000f0 .L0 
     /tmp/ccyITIK0.s:655    .text:00000000000000f0 .L0 
     /tmp/ccyITIK0.s:666    .text:000000000000010c .L0 
     /tmp/ccyITIK0.s:667    .text:000000000000010c .L0 
     /tmp/ccyITIK0.s:680    .text:0000000000000128 .L0 
     /tmp/ccyITIK0.s:684    .text:0000000000000134 .L0 
     /tmp/ccyITIK0.s:685    .text:0000000000000134 .L0 
     /tmp/ccyITIK0.s:692    .text:0000000000000148 .L0 
     /tmp/ccyITIK0.s:693    .text:0000000000000148 .L0 
     /tmp/ccyITIK0.s:696    .text:000000000000014c .L0 
     /tmp/ccyITIK0.s:706    .text:0000000000000168 .L0 
     /tmp/ccyITIK0.s:707    .text:0000000000000168 .L0 
     /tmp/ccyITIK0.s:713    .text:000000000000017c .L0 
     /tmp/ccyITIK0.s:714    .text:000000000000017c .L0 
     /tmp/ccyITIK0.s:716    .text:0000000000000180 .L0 
     /tmp/ccyITIK0.s:717    .text:0000000000000180 .L0 
     /tmp/ccyITIK0.s:720    .text:0000000000000188 .L0 
     /tmp/ccyITIK0.s:721    .text:0000000000000188 .L0 
     /tmp/ccyITIK0.s:732    .text:0000000000000198 .L0 
     /tmp/ccyITIK0.s:736    .text:00000000000001a0 .L0 
     /tmp/ccyITIK0.s:743    .text:00000000000001b0 .L0 
     /tmp/ccyITIK0.s:744    .text:00000000000001b0 .L0 
     /tmp/ccyITIK0.s:749    .text:00000000000001bc .L0 
     /tmp/ccyITIK0.s:750    .text:00000000000001bc .L0 
     /tmp/ccyITIK0.s:752    .text:00000000000001c0 .L0 
     /tmp/ccyITIK0.s:753    .text:00000000000001c0 .L0 
     /tmp/ccyITIK0.s:755    .text:00000000000001c4 .L0 
     /tmp/ccyITIK0.s:756    .text:00000000000001c4 .L0 
     /tmp/ccyITIK0.s:759    .text:00000000000001d0 .L0 
     /tmp/ccyITIK0.s:760    .text:00000000000001d0 .L0 
     /tmp/ccyITIK0.s:770    .text:00000000000001e0 .L0 
     /tmp/ccyITIK0.s:780    .text:00000000000001f8 .L0 
     /tmp/ccyITIK0.s:781    .text:00000000000001f8 .L0 
     /tmp/ccyITIK0.s:787    .text:0000000000000204 .L0 
     /tmp/ccyITIK0.s:794    .text:000000000000020c .L0 
     /tmp/ccyITIK0.s:801    .text:000000000000021c .L0 
     /tmp/ccyITIK0.s:805    .text:0000000000000228 .L0 
     /tmp/ccyITIK0.s:806    .text:0000000000000228 .L0 
     /tmp/ccyITIK0.s:810    .text:0000000000000234 .L0 
     /tmp/ccyITIK0.s:814    .text:0000000000000238 .L0 
     /tmp/ccyITIK0.s:816    .text:000000000000023c .L0 
     /tmp/ccyITIK0.s:817    .text:000000000000023c .L0 
     /tmp/ccyITIK0.s:823    .text:0000000000000250 .L0 
     /tmp/ccyITIK0.s:824    .text:0000000000000250 .L0 
GAS LISTING /tmp/ccyITIK0.s 			page 33


     /tmp/ccyITIK0.s:826    .text:0000000000000254 .L0 
     /tmp/ccyITIK0.s:827    .text:0000000000000254 .L0 
     /tmp/ccyITIK0.s:830    .text:0000000000000260 .L0 
     /tmp/ccyITIK0.s:831    .text:0000000000000260 .L0 
     /tmp/ccyITIK0.s:841    .text:0000000000000270 .L0 
     /tmp/ccyITIK0.s:852    .text:000000000000027c .L0 
     /tmp/ccyITIK0.s:853    .text:000000000000027c .L0 
     /tmp/ccyITIK0.s:857    .text:0000000000000284 .L0 
     /tmp/ccyITIK0.s:861    .text:0000000000000288 .L0 
     /tmp/ccyITIK0.s:863    .text:000000000000028c .L0 
     /tmp/ccyITIK0.s:864    .text:000000000000028c .L0 
     /tmp/ccyITIK0.s:868    .text:000000000000029c .L0 
     /tmp/ccyITIK0.s:875    .text:00000000000002a4 .L0 
     /tmp/ccyITIK0.s:876    .text:00000000000002a4 .L0 
     /tmp/ccyITIK0.s:878    .text:00000000000002ac .L0 
     /tmp/ccyITIK0.s:880    .text:00000000000002b0 .L0 
     /tmp/ccyITIK0.s:887    .text:00000000000002bc .L0 
     /tmp/ccyITIK0.s:895    .text:00000000000002c4 .L0 
     /tmp/ccyITIK0.s:899    .text:00000000000002c8 .L0 
     /tmp/ccyITIK0.s:901    .text:00000000000002cc .L0 
     /tmp/ccyITIK0.s:902    .text:00000000000002cc .L0 
     /tmp/ccyITIK0.s:906    .text:00000000000002d8 .L0 
     /tmp/ccyITIK0.s:908    .text:00000000000002dc .L0 
     /tmp/ccyITIK0.s:916    .text:00000000000002ec .L0 
     /tmp/ccyITIK0.s:917    .text:00000000000002ec .L0 
     /tmp/ccyITIK0.s:919    .text:00000000000002f0 .L0 
     /tmp/ccyITIK0.s:926    .text:0000000000000300 .L0 
     /tmp/ccyITIK0.s:927    .text:0000000000000300 .L0 
     /tmp/ccyITIK0.s:929    .text:0000000000000304 .L0 
     /tmp/ccyITIK0.s:936    .text:0000000000000314 .L0 
     /tmp/ccyITIK0.s:937    .text:0000000000000318 .L0 
     /tmp/ccyITIK0.s:938    .text:0000000000000318 .L0 
     /tmp/ccyITIK0.s:941    .text:000000000000031c .L0 
     /tmp/ccyITIK0.s:943    .text:0000000000000320 .L0 
     /tmp/ccyITIK0.s:945    .text:0000000000000324 .L0 
     /tmp/ccyITIK0.s:948    .text:0000000000000328 .L0 
     /tmp/ccyITIK0.s:951    .text:000000000000032c .L0 
     /tmp/ccyITIK0.s:954    .text:0000000000000330 .L0 
     /tmp/ccyITIK0.s:957    .text:0000000000000334 .L0 
     /tmp/ccyITIK0.s:960    .text:0000000000000338 .L0 
     /tmp/ccyITIK0.s:963    .text:000000000000033c .L0 
     /tmp/ccyITIK0.s:966    .text:0000000000000340 .L0 
     /tmp/ccyITIK0.s:969    .text:0000000000000344 .L0 
     /tmp/ccyITIK0.s:971    .text:0000000000000348 .L0 
     /tmp/ccyITIK0.s:975    .text:000000000000034c .L0 
     /tmp/ccyITIK0.s:979    .text:0000000000000350 .L0 
     /tmp/ccyITIK0.s:989    .text:000000000000036c .L0 
     /tmp/ccyITIK0.s:1001   .text:0000000000000388 .L0 
     /tmp/ccyITIK0.s:1012   .text:00000000000003a4 .L0 
     /tmp/ccyITIK0.s:1025   .text:00000000000003c0 .L0 
     /tmp/ccyITIK0.s:1034   .text:00000000000003d8 .L0 
     /tmp/ccyITIK0.s:1108   .text:00000000000003d8 _Z8userMainv
     /tmp/ccyITIK0.s:1112   .text:00000000000003d8 .L0 
     /tmp/ccyITIK0.s:1113   .text:00000000000003d8 .L0 
     /tmp/ccyITIK0.s:1114   .text:00000000000003dc .L0 
     /tmp/ccyITIK0.s:1117   .text:00000000000003e4 .L0 
     /tmp/ccyITIK0.s:1118   .text:00000000000003e4 .L0 
GAS LISTING /tmp/ccyITIK0.s 			page 34


     /tmp/ccyITIK0.s:1120   .text:00000000000003e8 .L0 
     /tmp/ccyITIK0.s:1122   .text:00000000000003e8 .L0 
     /tmp/ccyITIK0.s:1123   .text:00000000000003e8 .L0 
     /tmp/ccyITIK0.s:1126   .text:00000000000003f0 .L0 
     /tmp/ccyITIK0.s:1127   .text:00000000000003f4 .L0 
     /tmp/ccyITIK0.s:1129   .text:00000000000003f8 .L0 
     /tmp/ccyITIK0.s:1130   .text:00000000000003f8 .L0 
     /tmp/ccyITIK0.s:1132   .text:00000000000003fc .L0 
     /tmp/ccyITIK0.s:1134   .text:0000000000000400 .L0 
     /tmp/ccyITIK0.s:1177   .bss:0000000000000000 _ZN19ConsumerProducerCPP9threadEndE
     /tmp/ccyITIK0.s:1182   .bss:0000000000000008 _ZN19ConsumerProducerCPP10waitForAllE
     /tmp/ccyITIK0.s:1174   .bss:0000000000000000 .LANCHOR0
     /tmp/ccyITIK0.s:105    .text._ZN19ConsumerProducerCPP8Consumer3runEv:00000000000000a0 .L0 
     /tmp/ccyITIK0.s:142    .text._ZN19ConsumerProducerCPP8ConsumerD2Ev:0000000000000034 .L0 
     /tmp/ccyITIK0.s:189    .text._ZN19ConsumerProducerCPP8ConsumerD0Ev:000000000000004c .L0 
     /tmp/ccyITIK0.s:226    .text._ZN19ConsumerProducerCPP16ProducerKeyboradD2Ev:0000000000000034 .L0 
     /tmp/ccyITIK0.s:273    .text._ZN19ConsumerProducerCPP16ProducerKeyboradD0Ev:000000000000004c .L0 
     /tmp/ccyITIK0.s:310    .text._ZN19ConsumerProducerCPP8ProducerD2Ev:0000000000000034 .L0 
     /tmp/ccyITIK0.s:357    .text._ZN19ConsumerProducerCPP8ProducerD0Ev:000000000000004c .L0 
     /tmp/ccyITIK0.s:447    .text._ZN19ConsumerProducerCPP16ProducerKeyborad3runEv:000000000000009c .L0 
     /tmp/ccyITIK0.s:532    .text._ZN19ConsumerProducerCPP8Producer3runEv:0000000000000094 .L0 
     /tmp/ccyITIK0.s:1191   .text:0000000000000400 .L0 
     /tmp/ccyITIK0.s:534    .rodata.str1.8:0000000000000000 .LC0
     /tmp/ccyITIK0.s:588    .text:0000000000000034 .L0 
     /tmp/ccyITIK0.s:537    .rodata.str1.8:0000000000000020 .LC1
     /tmp/ccyITIK0.s:608    .text:0000000000000068 .L0 
     /tmp/ccyITIK0.s:540    .rodata.str1.8:0000000000000040 .LC2
     /tmp/ccyITIK0.s:626    .text:0000000000000098 .L0 
     /tmp/ccyITIK0.s:543    .rodata.str1.8:0000000000000058 .LC3
     /tmp/ccyITIK0.s:638    .text:00000000000000bc .L0 
     /tmp/ccyITIK0.s:546    .rodata.str1.8:0000000000000070 .LC4
     /tmp/ccyITIK0.s:650    .text:00000000000000e0 .L0 
     /tmp/ccyITIK0.s:680    .text:0000000000000128 .L0 
     /tmp/ccyITIK0.s:736    .text:00000000000001a0 .L0 
     /tmp/ccyITIK0.s:756    .text:00000000000001c4 .L0 
     /tmp/ccyITIK0.s:773    .text:00000000000001e8 .L0 
     /tmp/ccyITIK0.s:794    .text:000000000000020c .L0 
     /tmp/ccyITIK0.s:827    .text:0000000000000254 .L0 
     /tmp/ccyITIK0.s:864    .text:000000000000028c .L0 
     /tmp/ccyITIK0.s:876    .text:00000000000002a4 .L0 
     /tmp/ccyITIK0.s:812    .text:0000000000000238 .L30
     /tmp/ccyITIK0.s:846    .text:000000000000027c .L29
     /tmp/ccyITIK0.s:790    .text:000000000000020c .L50
     /tmp/ccyITIK0.s:872    .text:00000000000002a4 .L31
     /tmp/ccyITIK0.s:858    .text:0000000000000288 .L32
     /tmp/ccyITIK0.s:884    .text:00000000000002bc .L33
     /tmp/ccyITIK0.s:897    .text:00000000000002c8 .L36
     /tmp/ccyITIK0.s:913    .text:00000000000002ec .L34
     /tmp/ccyITIK0.s:891    .text:00000000000002c4 .L35
     /tmp/ccyITIK0.s:924    .text:0000000000000300 .L37
     /tmp/ccyITIK0.s:934    .text:0000000000000314 .L28
     /tmp/ccyITIK0.s:48     .text._ZN19ConsumerProducerCPP8Consumer3runEv:0000000000000034 .L0 
     /tmp/ccyITIK0.s:44     .text._ZN19ConsumerProducerCPP8Consumer3runEv:0000000000000034 .L2
     /tmp/ccyITIK0.s:77     .text._ZN19ConsumerProducerCPP8Consumer3runEv:0000000000000074 .L3
     /tmp/ccyITIK0.s:37     .text._ZN19ConsumerProducerCPP8Consumer3runEv:0000000000000028 .L6
     /tmp/ccyITIK0.s:124    .text._ZN19ConsumerProducerCPP8ConsumerD2Ev:0000000000000010 .L0 
     /tmp/ccyITIK0.s:166    .text._ZN19ConsumerProducerCPP8ConsumerD0Ev:0000000000000018 .L0 
GAS LISTING /tmp/ccyITIK0.s 			page 35


     /tmp/ccyITIK0.s:208    .text._ZN19ConsumerProducerCPP16ProducerKeyboradD2Ev:0000000000000010 .L0 
     /tmp/ccyITIK0.s:250    .text._ZN19ConsumerProducerCPP16ProducerKeyboradD0Ev:0000000000000018 .L0 
     /tmp/ccyITIK0.s:292    .text._ZN19ConsumerProducerCPP8ProducerD2Ev:0000000000000010 .L0 
     /tmp/ccyITIK0.s:334    .text._ZN19ConsumerProducerCPP8ProducerD0Ev:0000000000000018 .L0 
     /tmp/ccyITIK0.s:408    .text._ZN19ConsumerProducerCPP16ProducerKeyborad3runEv:0000000000000048 .L0 
     /tmp/ccyITIK0.s:404    .text._ZN19ConsumerProducerCPP16ProducerKeyborad3runEv:0000000000000044 .L20
     /tmp/ccyITIK0.s:382    .text._ZN19ConsumerProducerCPP16ProducerKeyborad3runEv:000000000000001c .L21
     /tmp/ccyITIK0.s:423    .text._ZN19ConsumerProducerCPP16ProducerKeyborad3runEv:0000000000000074 .L22
     /tmp/ccyITIK0.s:477    .text._ZN19ConsumerProducerCPP8Producer3runEv:0000000000000020 .L0 
     /tmp/ccyITIK0.s:507    .text._ZN19ConsumerProducerCPP8Producer3runEv:000000000000006c .L25
     /tmp/ccyITIK0.s:474    .text._ZN19ConsumerProducerCPP8Producer3runEv:0000000000000020 .L26
     /tmp/ccyITIK0.s:589    .text:000000000000003c .LEHB0
     /tmp/ccyITIK0.s:553    .text:0000000000000000 .LFB23
     /tmp/ccyITIK0.s:658    .text:00000000000000fc .LEHE0
     /tmp/ccyITIK0.s:661    .text:0000000000000104 .LEHB1
     /tmp/ccyITIK0.s:664    .text:000000000000010c .LEHE1
     /tmp/ccyITIK0.s:974    .text:000000000000034c .L44
     /tmp/ccyITIK0.s:668    .text:0000000000000110 .LEHB2
     /tmp/ccyITIK0.s:671    .text:0000000000000118 .LEHE2
     /tmp/ccyITIK0.s:675    .text:0000000000000120 .LEHB3
     /tmp/ccyITIK0.s:678    .text:0000000000000128 .LEHE3
     /tmp/ccyITIK0.s:986    .text:0000000000000368 .L45
     /tmp/ccyITIK0.s:722    .text:000000000000018c .LEHB4
     /tmp/ccyITIK0.s:725    .text:0000000000000194 .LEHE4
     /tmp/ccyITIK0.s:728    .text:0000000000000198 .LEHB5
     /tmp/ccyITIK0.s:734    .text:00000000000001a0 .LEHE5
     /tmp/ccyITIK0.s:997    .text:0000000000000384 .L46
     /tmp/ccyITIK0.s:745    .text:00000000000001b4 .LEHB6
     /tmp/ccyITIK0.s:763    .text:00000000000001dc .LEHE6
     /tmp/ccyITIK0.s:766    .text:00000000000001e0 .LEHB7
     /tmp/ccyITIK0.s:772    .text:00000000000001e8 .LEHE7
     /tmp/ccyITIK0.s:1009   .text:00000000000003a0 .L47
     /tmp/ccyITIK0.s:782    .text:00000000000001fc .LEHB8
     /tmp/ccyITIK0.s:834    .text:000000000000026c .LEHE8
     /tmp/ccyITIK0.s:837    .text:0000000000000270 .LEHB9
     /tmp/ccyITIK0.s:843    .text:0000000000000278 .LEHE9
     /tmp/ccyITIK0.s:1020   .text:00000000000003bc .L48
     /tmp/ccyITIK0.s:851    .text:000000000000027c .LEHB10
     /tmp/ccyITIK0.s:985    .text:0000000000000368 .LEHE10
     /tmp/ccyITIK0.s:993    .text:000000000000037c .LEHB11
     /tmp/ccyITIK0.s:996    .text:0000000000000384 .LEHE11
     /tmp/ccyITIK0.s:1005   .text:0000000000000398 .LEHB12
     /tmp/ccyITIK0.s:1008   .text:00000000000003a0 .LEHE12
     /tmp/ccyITIK0.s:1016   .text:00000000000003b4 .LEHB13
     /tmp/ccyITIK0.s:1019   .text:00000000000003bc .LEHE13
     /tmp/ccyITIK0.s:1029   .text:00000000000003d0 .LEHB14
     /tmp/ccyITIK0.s:1032   .text:00000000000003d8 .LEHE14
     /tmp/ccyITIK0.s:3034   .debug_abbrev:0000000000000000 .Ldebug_abbrev0
     /tmp/ccyITIK0.s:4845   .debug_str:00000000000007eb .LASF106
     /tmp/ccyITIK0.s:4757   .debug_str:0000000000000409 .LASF107
     /tmp/ccyITIK0.s:4871   .debug_str:00000000000009b3 .LASF108
     /tmp/ccyITIK0.s:4597   .debug_ranges:0000000000000000 .Ldebug_ranges0
     /tmp/ccyITIK0.s:4645   .debug_line:0000000000000000 .Ldebug_line0
     /tmp/ccyITIK0.s:4771   .debug_str:000000000000049c .LASF0
     /tmp/ccyITIK0.s:4793   .debug_str:0000000000000573 .LASF1
     /tmp/ccyITIK0.s:4759   .debug_str:000000000000041a .LASF2
     /tmp/ccyITIK0.s:4735   .debug_str:0000000000000379 .LASF4
GAS LISTING /tmp/ccyITIK0.s 			page 36


     /tmp/ccyITIK0.s:4829   .debug_str:00000000000006fb .LASF3
     /tmp/ccyITIK0.s:4661   .debug_str:000000000000005e .LASF5
     /tmp/ccyITIK0.s:4799   .debug_str:00000000000005bf .LASF6
     /tmp/ccyITIK0.s:4769   .debug_str:0000000000000489 .LASF7
     /tmp/ccyITIK0.s:4859   .debug_str:000000000000094d .LASF8
     /tmp/ccyITIK0.s:4721   .debug_str:0000000000000313 .LASF9
     /tmp/ccyITIK0.s:4807   .debug_str:00000000000005e8 .LASF10
     /tmp/ccyITIK0.s:4847   .debug_str:00000000000008af .LASF11
     /tmp/ccyITIK0.s:4665   .debug_str:0000000000000079 .LASF12
     /tmp/ccyITIK0.s:4651   .debug_str:0000000000000030 .LASF13
     /tmp/ccyITIK0.s:4677   .debug_str:00000000000000ee .LASF14
     /tmp/ccyITIK0.s:4825   .debug_str:00000000000006bb .LASF15
     /tmp/ccyITIK0.s:4689   .debug_str:00000000000001c1 .LASF16
     /tmp/ccyITIK0.s:4709   .debug_str:0000000000000275 .LASF17
     /tmp/ccyITIK0.s:4731   .debug_str:0000000000000365 .LASF19
     /tmp/ccyITIK0.s:4653   .debug_str:0000000000000040 .LASF105
     /tmp/ccyITIK0.s:4673   .debug_str:00000000000000d2 .LASF109
     /tmp/ccyITIK0.s:4763   .debug_str:000000000000045f .LASF45
     /tmp/ccyITIK0.s:4795   .debug_str:0000000000000586 .LASF110
     /tmp/ccyITIK0.s:4801   .debug_str:00000000000005d2 .LASF18
     /tmp/ccyITIK0.s:4821   .debug_str:00000000000006aa .LASF20
     /tmp/ccyITIK0.s:4823   .debug_str:00000000000006b4 .LASF21
     /tmp/ccyITIK0.s:4691   .debug_str:00000000000001d7 .LASF22
     /tmp/ccyITIK0.s:4755   .debug_str:0000000000000404 .LASF23
     /tmp/ccyITIK0.s:4701   .debug_str:000000000000022e .LASF24
     /tmp/ccyITIK0.s:4725   .debug_str:0000000000000334 .LASF25
     /tmp/ccyITIK0.s:4751   .debug_str:00000000000003e9 .LASF26
     /tmp/ccyITIK0.s:4779   .debug_str:0000000000000525 .LASF27
     /tmp/ccyITIK0.s:4781   .debug_str:000000000000052f .LASF29
     /tmp/ccyITIK0.s:4747   .debug_str:00000000000003d8 .LASF28
     /tmp/ccyITIK0.s:4863   .debug_str:0000000000000975 .LASF30
     /tmp/ccyITIK0.s:4727   .debug_str:0000000000000342 .LASF31
     /tmp/ccyITIK0.s:4663   .debug_str:0000000000000065 .LASF32
     /tmp/ccyITIK0.s:4647   .debug_str:0000000000000000 .LASF67
     /tmp/ccyITIK0.s:4849   .debug_str:00000000000008be .LASF33
     /tmp/ccyITIK0.s:4707   .debug_str:0000000000000270 .LASF35
     /tmp/ccyITIK0.s:4695   .debug_str:0000000000000202 .LASF34
     /tmp/ccyITIK0.s:4869   .debug_str:00000000000009a6 .LASF36
     /tmp/ccyITIK0.s:4681   .debug_str:0000000000000129 .LASF37
     /tmp/ccyITIK0.s:4697   .debug_str:0000000000000214 .LASF38
     /tmp/ccyITIK0.s:4819   .debug_str:0000000000000693 .LASF39
     /tmp/ccyITIK0.s:4803   .debug_str:00000000000005d7 .LASF40
     /tmp/ccyITIK0.s:4839   .debug_str:0000000000000760 .LASF111
     /tmp/ccyITIK0.s:4715   .debug_str:00000000000002ec .LASF41
     /tmp/ccyITIK0.s:4685   .debug_str:0000000000000164 .LASF43
     /tmp/ccyITIK0.s:4719   .debug_str:0000000000000307 .LASF112
     /tmp/ccyITIK0.s:4739   .debug_str:00000000000003a6 .LASF42
     /tmp/ccyITIK0.s:4773   .debug_str:00000000000004a9 .LASF44
     /tmp/ccyITIK0.s:4667   .debug_str:0000000000000089 .LASF46
     /tmp/ccyITIK0.s:4837   .debug_str:0000000000000737 .LASF47
     /tmp/ccyITIK0.s:4705   .debug_str:0000000000000246 .LASF48
     /tmp/ccyITIK0.s:4761   .debug_str:0000000000000428 .LASF49
     /tmp/ccyITIK0.s:4683   .debug_str:000000000000013c .LASF54
     /tmp/ccyITIK0.s:4783   .debug_str:0000000000000541 .LASF56
     /tmp/ccyITIK0.s:4797   .debug_str:0000000000000599 .LASF58
     /tmp/ccyITIK0.s:4789   .debug_str:0000000000000564 .LASF50
     /tmp/ccyITIK0.s:4777   .debug_str:00000000000004fc .LASF51
GAS LISTING /tmp/ccyITIK0.s 			page 37


     /tmp/ccyITIK0.s:4827   .debug_str:00000000000006d1 .LASF52
     /tmp/ccyITIK0.s:4687   .debug_str:000000000000018a .LASF53
     /tmp/ccyITIK0.s:4817   .debug_str:000000000000066b .LASF55
     /tmp/ccyITIK0.s:4657   .debug_str:000000000000004b .LASF57
     /tmp/ccyITIK0.s:4693   .debug_str:00000000000001dc .LASF59
     /tmp/ccyITIK0.s:4753   .debug_str:00000000000003f3 .LASF60
     /tmp/ccyITIK0.s:4711   .debug_str:000000000000027a .LASF61
     /tmp/ccyITIK0.s:4809   .debug_str:00000000000005f7 .LASF62
     /tmp/ccyITIK0.s:4841   .debug_str:0000000000000774 .LASF63
     /tmp/ccyITIK0.s:4857   .debug_str:000000000000091c .LASF64
     /tmp/ccyITIK0.s:4765   .debug_str:0000000000000464 .LASF65
     /tmp/ccyITIK0.s:4775   .debug_str:00000000000004cd .LASF66
     /tmp/ccyITIK0.s:4831   .debug_str:000000000000070d .LASF113
     /tmp/ccyITIK0.s:4853   .debug_str:00000000000008e4 .LASF114
     /tmp/ccyITIK0.s:4855   .debug_str:0000000000000915 .LASF68
     /tmp/ccyITIK0.s:4865   .debug_str:0000000000000987 .LASF69
     /tmp/ccyITIK0.s:4767   .debug_str:0000000000000476 .LASF70
     /tmp/ccyITIK0.s:4791   .debug_str:000000000000056d .LASF71
     /tmp/ccyITIK0.s:4867   .debug_str:0000000000000997 .LASF72
     /tmp/ccyITIK0.s:4815   .debug_str:0000000000000655 .LASF73
     /tmp/ccyITIK0.s:4877   .debug_str:0000000000000a0a .LASF74
     /tmp/ccyITIK0.s:4723   .debug_str:0000000000000321 .LASF75
     /tmp/ccyITIK0.s:4785   .debug_str:000000000000054b .LASF76
     /tmp/ccyITIK0.s:4811   .debug_str:000000000000062a .LASF77
     /tmp/ccyITIK0.s:4833   .debug_str:0000000000000722 .LASF78
     /tmp/ccyITIK0.s:4679   .debug_str:00000000000000fa .LASF79
     /tmp/ccyITIK0.s:231    .text._ZN19ConsumerProducerCPP16ProducerKeyboradD0Ev:0000000000000000 .LFB36
     /tmp/ccyITIK0.s:271    .text._ZN19ConsumerProducerCPP16ProducerKeyboradD0Ev:000000000000004c .LFE36
     /tmp/ccyITIK0.s:4025   .debug_loc:0000000000000000 .LLST7
     /tmp/ccyITIK0.s:247    .text._ZN19ConsumerProducerCPP16ProducerKeyboradD0Ev:0000000000000018 .LBB29
     /tmp/ccyITIK0.s:255    .text._ZN19ConsumerProducerCPP16ProducerKeyboradD0Ev:000000000000002c .LBE29
     /tmp/ccyITIK0.s:4043   .debug_loc:000000000000004c .LLST8
     /tmp/ccyITIK0.s:253    .text._ZN19ConsumerProducerCPP16ProducerKeyboradD0Ev:000000000000002c .LVL23
     /tmp/ccyITIK0.s:258    .text._ZN19ConsumerProducerCPP16ProducerKeyboradD0Ev:0000000000000038 .LVL24
     /tmp/ccyITIK0.s:4875   .debug_str:00000000000009db .LASF80
     /tmp/ccyITIK0.s:194    .text._ZN19ConsumerProducerCPP16ProducerKeyboradD2Ev:0000000000000000 .LFB34
     /tmp/ccyITIK0.s:222    .text._ZN19ConsumerProducerCPP16ProducerKeyboradD2Ev:0000000000000034 .LFE34
     /tmp/ccyITIK0.s:4054   .debug_loc:0000000000000082 .LLST6
     /tmp/ccyITIK0.s:211    .text._ZN19ConsumerProducerCPP16ProducerKeyboradD2Ev:0000000000000024 .LVL20
     /tmp/ccyITIK0.s:4813   .debug_str:000000000000062f .LASF81
     /tmp/ccyITIK0.s:315    .text._ZN19ConsumerProducerCPP8ProducerD0Ev:0000000000000000 .LFB32
     /tmp/ccyITIK0.s:355    .text._ZN19ConsumerProducerCPP8ProducerD0Ev:000000000000004c .LFE32
     /tmp/ccyITIK0.s:4068   .debug_loc:00000000000000bb .LLST10
     /tmp/ccyITIK0.s:331    .text._ZN19ConsumerProducerCPP8ProducerD0Ev:0000000000000018 .LBB32
     /tmp/ccyITIK0.s:339    .text._ZN19ConsumerProducerCPP8ProducerD0Ev:000000000000002c .LBE32
     /tmp/ccyITIK0.s:4086   .debug_loc:0000000000000107 .LLST11
     /tmp/ccyITIK0.s:337    .text._ZN19ConsumerProducerCPP8ProducerD0Ev:000000000000002c .LVL30
     /tmp/ccyITIK0.s:342    .text._ZN19ConsumerProducerCPP8ProducerD0Ev:0000000000000038 .LVL31
     /tmp/ccyITIK0.s:4649   .debug_str:000000000000000a .LASF82
     /tmp/ccyITIK0.s:278    .text._ZN19ConsumerProducerCPP8ProducerD2Ev:0000000000000000 .LFB30
     /tmp/ccyITIK0.s:306    .text._ZN19ConsumerProducerCPP8ProducerD2Ev:0000000000000034 .LFE30
     /tmp/ccyITIK0.s:4097   .debug_loc:000000000000013d .LLST9
     /tmp/ccyITIK0.s:295    .text._ZN19ConsumerProducerCPP8ProducerD2Ev:0000000000000024 .LVL27
     /tmp/ccyITIK0.s:4881   .debug_str:0000000000000a26 .LASF83
     /tmp/ccyITIK0.s:147    .text._ZN19ConsumerProducerCPP8ConsumerD0Ev:0000000000000000 .LFB28
     /tmp/ccyITIK0.s:187    .text._ZN19ConsumerProducerCPP8ConsumerD0Ev:000000000000004c .LFE28
     /tmp/ccyITIK0.s:4111   .debug_loc:0000000000000176 .LLST4
GAS LISTING /tmp/ccyITIK0.s 			page 38


     /tmp/ccyITIK0.s:163    .text._ZN19ConsumerProducerCPP8ConsumerD0Ev:0000000000000018 .LBB26
     /tmp/ccyITIK0.s:171    .text._ZN19ConsumerProducerCPP8ConsumerD0Ev:000000000000002c .LBE26
     /tmp/ccyITIK0.s:4129   .debug_loc:00000000000001c2 .LLST5
     /tmp/ccyITIK0.s:169    .text._ZN19ConsumerProducerCPP8ConsumerD0Ev:000000000000002c .LVL16
     /tmp/ccyITIK0.s:174    .text._ZN19ConsumerProducerCPP8ConsumerD0Ev:0000000000000038 .LVL17
     /tmp/ccyITIK0.s:4737   .debug_str:0000000000000380 .LASF84
     /tmp/ccyITIK0.s:110    .text._ZN19ConsumerProducerCPP8ConsumerD2Ev:0000000000000000 .LFB26
     /tmp/ccyITIK0.s:138    .text._ZN19ConsumerProducerCPP8ConsumerD2Ev:0000000000000034 .LFE26
     /tmp/ccyITIK0.s:4140   .debug_loc:00000000000001f8 .LLST3
     /tmp/ccyITIK0.s:127    .text._ZN19ConsumerProducerCPP8ConsumerD2Ev:0000000000000024 .LVL13
     /tmp/ccyITIK0.s:4703   .debug_str:000000000000023d .LASF115
     /tmp/ccyITIK0.s:4745   .debug_str:00000000000003cb .LASF116
     /tmp/ccyITIK0.s:1109   .text:00000000000003d8 .LFB24
     /tmp/ccyITIK0.s:1135   .text:0000000000000400 .LFE24
     /tmp/ccyITIK0.s:1124   .text:00000000000003f0 .LVL128
     /tmp/ccyITIK0.s:1035   .text:00000000000003d8 .LFE23
     /tmp/ccyITIK0.s:4655   .debug_str:0000000000000045 .LASF85
     /tmp/ccyITIK0.s:4154   .debug_loc:0000000000000231 .LLST20
     /tmp/ccyITIK0.s:4699   .debug_str:0000000000000224 .LASF86
     /tmp/ccyITIK0.s:4165   .debug_loc:0000000000000267 .LLST21
     /tmp/ccyITIK0.s:4176   .debug_loc:000000000000029d .LLST22
     /tmp/ccyITIK0.s:4873   .debug_str:00000000000009d1 .LASF87
     /tmp/ccyITIK0.s:4187   .debug_loc:00000000000002d3 .LLST23
     /tmp/ccyITIK0.s:4835   .debug_str:000000000000072c .LASF88
     /tmp/ccyITIK0.s:4205   .debug_loc:000000000000031f .LLST24
     /tmp/ccyITIK0.s:4669   .debug_str:0000000000000092 .LASF89
     /tmp/ccyITIK0.s:4223   .debug_loc:000000000000036b .LLST25
     /tmp/ccyITIK0.s:4851   .debug_str:00000000000008d3 .LASF90
     /tmp/ccyITIK0.s:4234   .debug_loc:00000000000003a1 .LLST26
     /tmp/ccyITIK0.s:4245   .debug_loc:00000000000003d7 .LLST31
     /tmp/ccyITIK0.s:791    .text:000000000000020c .LBB39
     /tmp/ccyITIK0.s:4256   .debug_loc:000000000000040d .LLST32
     /tmp/ccyITIK0.s:4287   .debug_loc:0000000000000475 .LLST33
     /tmp/ccyITIK0.s:842    .text:0000000000000278 .LVL91
     /tmp/ccyITIK0.s:808    .text:0000000000000234 .LVL87
     /tmp/ccyITIK0.s:833    .text:000000000000026c .LVL89
     /tmp/ccyITIK0.s:1027   .text:00000000000003cc .LVL126
     /tmp/ccyITIK0.s:4306   .debug_loc:00000000000004d1 .LLST34
     /tmp/ccyITIK0.s:866    .text:000000000000029c .LVL95
     /tmp/ccyITIK0.s:893    .text:00000000000002c4 .LBB45
     /tmp/ccyITIK0.s:914    .text:00000000000002ec .LBE45
     /tmp/ccyITIK0.s:4317   .debug_loc:0000000000000507 .LLST35
     /tmp/ccyITIK0.s:4324   .debug_loc:000000000000052a .LLST17
     /tmp/ccyITIK0.s:4355   .debug_loc:0000000000000574 .LLST19
     /tmp/ccyITIK0.s:729    .text:0000000000000198 .LBB34
     /tmp/ccyITIK0.s:741    .text:00000000000001b0 .LBE34
     /tmp/ccyITIK0.s:4386   .debug_loc:00000000000005be .LLST27
     /tmp/ccyITIK0.s:4413   .debug_loc:0000000000000613 .LLST28
     /tmp/ccyITIK0.s:733    .text:00000000000001a0 .LVL77
     /tmp/ccyITIK0.s:767    .text:00000000000001e0 .LBB36
     /tmp/ccyITIK0.s:778    .text:00000000000001f8 .LBE36
     /tmp/ccyITIK0.s:4428   .debug_loc:000000000000065c .LLST29
     /tmp/ccyITIK0.s:4439   .debug_loc:0000000000000692 .LLST30
     /tmp/ccyITIK0.s:771    .text:00000000000001e8 .LVL82
     /tmp/ccyITIK0.s:591    .text:0000000000000044 .LVL52
     /tmp/ccyITIK0.s:598    .text:0000000000000058 .LVL53
     /tmp/ccyITIK0.s:603    .text:0000000000000064 .LVL54
GAS LISTING /tmp/ccyITIK0.s 			page 39


     /tmp/ccyITIK0.s:610    .text:0000000000000078 .LVL56
     /tmp/ccyITIK0.s:616    .text:0000000000000088 .LVL57
     /tmp/ccyITIK0.s:621    .text:0000000000000094 .LVL58
     /tmp/ccyITIK0.s:628    .text:00000000000000a8 .LVL60
     /tmp/ccyITIK0.s:635    .text:00000000000000bc .LVL61
     /tmp/ccyITIK0.s:640    .text:00000000000000cc .LVL62
     /tmp/ccyITIK0.s:647    .text:00000000000000e0 .LVL63
     /tmp/ccyITIK0.s:652    .text:00000000000000f0 .LVL64
     /tmp/ccyITIK0.s:657    .text:00000000000000fc .LVL65
     /tmp/ccyITIK0.s:663    .text:000000000000010c .LVL66
     /tmp/ccyITIK0.s:670    .text:0000000000000118 .LVL67
     /tmp/ccyITIK0.s:677    .text:0000000000000128 .LVL69
     /tmp/ccyITIK0.s:724    .text:0000000000000194 .LVL75
     /tmp/ccyITIK0.s:747    .text:00000000000001bc .LVL79
     /tmp/ccyITIK0.s:762    .text:00000000000001dc .LVL80
     /tmp/ccyITIK0.s:784    .text:0000000000000204 .LVL84
     /tmp/ccyITIK0.s:854    .text:0000000000000284 .LVL93
     /tmp/ccyITIK0.s:923    .text:0000000000000300 .LVL103
     /tmp/ccyITIK0.s:933    .text:0000000000000314 .LVL104
     /tmp/ccyITIK0.s:981    .text:000000000000035c .LVL116
     /tmp/ccyITIK0.s:984    .text:0000000000000368 .LVL117
     /tmp/ccyITIK0.s:991    .text:0000000000000378 .LVL118
     /tmp/ccyITIK0.s:995    .text:0000000000000384 .LVL119
     /tmp/ccyITIK0.s:1003   .text:0000000000000394 .LVL121
     /tmp/ccyITIK0.s:1007   .text:00000000000003a0 .LVL122
     /tmp/ccyITIK0.s:1014   .text:00000000000003b0 .LVL123
     /tmp/ccyITIK0.s:1018   .text:00000000000003bc .LVL124
     /tmp/ccyITIK0.s:1031   .text:00000000000003d8 .LVL127
     /tmp/ccyITIK0.s:11     .text._ZN19ConsumerProducerCPP8Consumer3runEv:0000000000000000 .LFB22
     /tmp/ccyITIK0.s:103    .text._ZN19ConsumerProducerCPP8Consumer3runEv:00000000000000a0 .LFE22
     /tmp/ccyITIK0.s:4454   .debug_loc:00000000000006db .LLST0
     /tmp/ccyITIK0.s:4472   .debug_loc:0000000000000727 .LLST1
     /tmp/ccyITIK0.s:4492   .debug_loc:0000000000000784 .LLST2
     /tmp/ccyITIK0.s:43     .text._ZN19ConsumerProducerCPP8Consumer3runEv:0000000000000034 .LVL3
     /tmp/ccyITIK0.s:57     .text._ZN19ConsumerProducerCPP8Consumer3runEv:0000000000000050 .LVL4
     /tmp/ccyITIK0.s:68     .text._ZN19ConsumerProducerCPP8Consumer3runEv:0000000000000064 .LVL7
     /tmp/ccyITIK0.s:84     .text._ZN19ConsumerProducerCPP8Consumer3runEv:0000000000000084 .LVL9
     /tmp/ccyITIK0.s:4671   .debug_str:000000000000009b .LASF91
     /tmp/ccyITIK0.s:452    .text._ZN19ConsumerProducerCPP8Producer3runEv:0000000000000000 .LFB18
     /tmp/ccyITIK0.s:530    .text._ZN19ConsumerProducerCPP8Producer3runEv:0000000000000094 .LFE18
     /tmp/ccyITIK0.s:4499   .debug_loc:00000000000007a7 .LLST14
     /tmp/ccyITIK0.s:4517   .debug_loc:00000000000007f3 .LLST15
     /tmp/ccyITIK0.s:487    .text._ZN19ConsumerProducerCPP8Producer3runEv:0000000000000044 .LVL46
     /tmp/ccyITIK0.s:504    .text._ZN19ConsumerProducerCPP8Producer3runEv:0000000000000068 .LVL48
     /tmp/ccyITIK0.s:513    .text._ZN19ConsumerProducerCPP8Producer3runEv:000000000000007c .LVL49
     /tmp/ccyITIK0.s:4843   .debug_str:00000000000007b4 .LASF92
     /tmp/ccyITIK0.s:362    .text._ZN19ConsumerProducerCPP16ProducerKeyborad3runEv:0000000000000000 .LFB14
     /tmp/ccyITIK0.s:445    .text._ZN19ConsumerProducerCPP16ProducerKeyborad3runEv:000000000000009c .LFE14
     /tmp/ccyITIK0.s:4537   .debug_loc:0000000000000850 .LLST12
     /tmp/ccyITIK0.s:4555   .debug_loc:000000000000089c .LLST13
     /tmp/ccyITIK0.s:387    .text._ZN19ConsumerProducerCPP16ProducerKeyborad3runEv:0000000000000024 .LVL35
     /tmp/ccyITIK0.s:399    .text._ZN19ConsumerProducerCPP16ProducerKeyborad3runEv:0000000000000040 .LVL37
     /tmp/ccyITIK0.s:419    .text._ZN19ConsumerProducerCPP16ProducerKeyborad3runEv:0000000000000068 .LVL39
     /tmp/ccyITIK0.s:422    .text._ZN19ConsumerProducerCPP16ProducerKeyborad3runEv:0000000000000074 .LVL40
     /tmp/ccyITIK0.s:429    .text._ZN19ConsumerProducerCPP16ProducerKeyborad3runEv:0000000000000084 .LVL41
     /tmp/ccyITIK0.s:4713   .debug_str:00000000000002ac .LASF93
     /tmp/ccyITIK0.s:4879   .debug_str:0000000000000a13 .LASF94
GAS LISTING /tmp/ccyITIK0.s 			page 40


     /tmp/ccyITIK0.s:4743   .debug_str:00000000000003bf .LASF95
     /tmp/ccyITIK0.s:4717   .debug_str:00000000000002f7 .LASF96
     /tmp/ccyITIK0.s:4805   .debug_str:00000000000005de .LASF97
     /tmp/ccyITIK0.s:4787   .debug_str:0000000000000551 .LASF98
     /tmp/ccyITIK0.s:4733   .debug_str:000000000000036d .LASF99
     /tmp/ccyITIK0.s:4741   .debug_str:00000000000003b0 .LASF100
     /tmp/ccyITIK0.s:4675   .debug_str:00000000000000e5 .LASF101
     /tmp/ccyITIK0.s:4749   .debug_str:00000000000003e3 .LASF102
     /tmp/ccyITIK0.s:4883   .debug_str:0000000000000a4c .LASF103
     /tmp/ccyITIK0.s:4729   .debug_str:0000000000000356 .LASF117
     /tmp/ccyITIK0.s:4861   .debug_str:000000000000095d .LASF118
     /tmp/ccyITIK0.s:4659   .debug_str:0000000000000055 .LASF104
     /tmp/ccyITIK0.s:234    .text._ZN19ConsumerProducerCPP16ProducerKeyboradD0Ev:0000000000000000 .LVL21
     /tmp/ccyITIK0.s:266    .text._ZN19ConsumerProducerCPP16ProducerKeyboradD0Ev:0000000000000044 .LVL25
     /tmp/ccyITIK0.s:246    .text._ZN19ConsumerProducerCPP16ProducerKeyboradD0Ev:0000000000000018 .LVL22
     /tmp/ccyITIK0.s:197    .text._ZN19ConsumerProducerCPP16ProducerKeyboradD2Ev:0000000000000000 .LVL19
     /tmp/ccyITIK0.s:318    .text._ZN19ConsumerProducerCPP8ProducerD0Ev:0000000000000000 .LVL28
     /tmp/ccyITIK0.s:350    .text._ZN19ConsumerProducerCPP8ProducerD0Ev:0000000000000044 .LVL32
     /tmp/ccyITIK0.s:330    .text._ZN19ConsumerProducerCPP8ProducerD0Ev:0000000000000018 .LVL29
     /tmp/ccyITIK0.s:281    .text._ZN19ConsumerProducerCPP8ProducerD2Ev:0000000000000000 .LVL26
     /tmp/ccyITIK0.s:150    .text._ZN19ConsumerProducerCPP8ConsumerD0Ev:0000000000000000 .LVL14
     /tmp/ccyITIK0.s:182    .text._ZN19ConsumerProducerCPP8ConsumerD0Ev:0000000000000044 .LVL18
     /tmp/ccyITIK0.s:162    .text._ZN19ConsumerProducerCPP8ConsumerD0Ev:0000000000000018 .LVL15
     /tmp/ccyITIK0.s:113    .text._ZN19ConsumerProducerCPP8ConsumerD2Ev:0000000000000000 .LVL12
     /tmp/ccyITIK0.s:623    .text:0000000000000098 .LVL59
     /tmp/ccyITIK0.s:673    .text:000000000000011c .LVL68
     /tmp/ccyITIK0.s:973    .text:000000000000034c .LVL114
     /tmp/ccyITIK0.s:977    .text:0000000000000350 .LVL115
     /tmp/ccyITIK0.s:605    .text:0000000000000068 .LVL55
     /tmp/ccyITIK0.s:952    .text:000000000000032c .LVL108
     /tmp/ccyITIK0.s:961    .text:0000000000000338 .LVL111
     /tmp/ccyITIK0.s:690    .text:0000000000000148 .LVL71
     /tmp/ccyITIK0.s:702    .text:0000000000000164 .LVL73
     /tmp/ccyITIK0.s:955    .text:0000000000000330 .LVL109
     /tmp/ccyITIK0.s:704    .text:0000000000000168 .LVL74
     /tmp/ccyITIK0.s:939    .text:0000000000000318 .LVL105
     /tmp/ccyITIK0.s:958    .text:0000000000000334 .LVL110
     /tmp/ccyITIK0.s:739    .text:00000000000001b0 .LVL78
     /tmp/ccyITIK0.s:967    .text:0000000000000340 .LVL113
     /tmp/ccyITIK0.s:776    .text:00000000000001f8 .LVL83
     /tmp/ccyITIK0.s:964    .text:000000000000033c .LVL112
     /tmp/ccyITIK0.s:789    .text:000000000000020c .LVL85
     /tmp/ccyITIK0.s:949    .text:0000000000000328 .LVL107
     /tmp/ccyITIK0.s:797    .text:000000000000021c .LVL86
     /tmp/ccyITIK0.s:836    .text:0000000000000270 .LVL90
     /tmp/ccyITIK0.s:845    .text:000000000000027c .LVL92
     /tmp/ccyITIK0.s:1022   .text:00000000000003c0 .LVL125
     /tmp/ccyITIK0.s:859    .text:0000000000000288 .LVL94
     /tmp/ccyITIK0.s:869    .text:00000000000002a0 .LVL96
     /tmp/ccyITIK0.s:871    .text:00000000000002a4 .LVL97
     /tmp/ccyITIK0.s:888    .text:00000000000002c0 .LVL99
     /tmp/ccyITIK0.s:890    .text:00000000000002c4 .LVL100
     /tmp/ccyITIK0.s:946    .text:0000000000000324 .LVL106
     /tmp/ccyITIK0.s:683    .text:0000000000000134 .LVL70
     /tmp/ccyITIK0.s:694    .text:000000000000014c .LVL72
     /tmp/ccyITIK0.s:727    .text:0000000000000198 .LVL76
     /tmp/ccyITIK0.s:999    .text:0000000000000388 .LVL120
GAS LISTING /tmp/ccyITIK0.s 			page 41


     /tmp/ccyITIK0.s:765    .text:00000000000001e0 .LVL81
     /tmp/ccyITIK0.s:15     .text._ZN19ConsumerProducerCPP8Consumer3runEv:0000000000000000 .LVL0
     /tmp/ccyITIK0.s:36     .text._ZN19ConsumerProducerCPP8Consumer3runEv:0000000000000028 .LVL2
     /tmp/ccyITIK0.s:98     .text._ZN19ConsumerProducerCPP8Consumer3runEv:0000000000000098 .LVL11
     /tmp/ccyITIK0.s:32     .text._ZN19ConsumerProducerCPP8Consumer3runEv:0000000000000020 .LVL1
     /tmp/ccyITIK0.s:62     .text._ZN19ConsumerProducerCPP8Consumer3runEv:0000000000000058 .LVL5
     /tmp/ccyITIK0.s:73     .text._ZN19ConsumerProducerCPP8Consumer3runEv:000000000000006c .LVL8
     /tmp/ccyITIK0.s:95     .text._ZN19ConsumerProducerCPP8Consumer3runEv:0000000000000094 .LVL10
     /tmp/ccyITIK0.s:66     .text._ZN19ConsumerProducerCPP8Consumer3runEv:000000000000005c .LVL6
     /tmp/ccyITIK0.s:455    .text._ZN19ConsumerProducerCPP8Producer3runEv:0000000000000000 .LVL43
     /tmp/ccyITIK0.s:473    .text._ZN19ConsumerProducerCPP8Producer3runEv:0000000000000020 .LVL45
     /tmp/ccyITIK0.s:522    .text._ZN19ConsumerProducerCPP8Producer3runEv:0000000000000088 .LVL50
     /tmp/ccyITIK0.s:470    .text._ZN19ConsumerProducerCPP8Producer3runEv:000000000000001c .LVL44
     /tmp/ccyITIK0.s:492    .text._ZN19ConsumerProducerCPP8Producer3runEv:000000000000004c .LVL47
     /tmp/ccyITIK0.s:525    .text._ZN19ConsumerProducerCPP8Producer3runEv:000000000000008c .LVL51
     /tmp/ccyITIK0.s:365    .text._ZN19ConsumerProducerCPP16ProducerKeyborad3runEv:0000000000000000 .LVL33
     /tmp/ccyITIK0.s:381    .text._ZN19ConsumerProducerCPP16ProducerKeyborad3runEv:000000000000001c .LVL34
     /tmp/ccyITIK0.s:438    .text._ZN19ConsumerProducerCPP16ProducerKeyborad3runEv:0000000000000090 .LVL42
     /tmp/ccyITIK0.s:390    .text._ZN19ConsumerProducerCPP16ProducerKeyborad3runEv:0000000000000028 .LVL36
     /tmp/ccyITIK0.s:403    .text._ZN19ConsumerProducerCPP16ProducerKeyborad3runEv:0000000000000044 .LVL38
     /tmp/ccyITIK0.s:1192   .debug_info:0000000000000000 .Ldebug_info0
     /tmp/ccyITIK0.s:5      .text:0000000000000000 .Ltext0
     /tmp/ccyITIK0.s:1185   .text:0000000000000400 .Letext0
     /tmp/ccyITIK0.s:38     .text._ZN19ConsumerProducerCPP8Consumer3runEv:0000000000000028 .LBB23
     /tmp/ccyITIK0.s:45     .text._ZN19ConsumerProducerCPP8Consumer3runEv:0000000000000034 .LBE23
     /tmp/ccyITIK0.s:50     .text._ZN19ConsumerProducerCPP8Consumer3runEv:0000000000000040 .LBB24
     /tmp/ccyITIK0.s:78     .text._ZN19ConsumerProducerCPP8Consumer3runEv:0000000000000074 .LBE24
     /tmp/ccyITIK0.s:785    .text:0000000000000204 .LBB38
     /tmp/ccyITIK0.s:849    .text:000000000000027c .LBE38
     /tmp/ccyITIK0.s:1023   .text:00000000000003c0 .LBB46
     /tmp/ccyITIK0.s:1033   .text:00000000000003d8 .LBE46
     /tmp/ccyITIK0.s:799    .text:000000000000021c .LBE39
     /tmp/ccyITIK0.s:838    .text:0000000000000270 .LBB42
     /tmp/ccyITIK0.s:848    .text:000000000000027c .LBE42
     /tmp/ccyITIK0.s:855    .text:0000000000000284 .LBB43
     /tmp/ccyITIK0.s:873    .text:00000000000002a4 .LBE43
     /tmp/ccyITIK0.s:885    .text:00000000000002bc .LBB44
     /tmp/ccyITIK0.s:892    .text:00000000000002c4 .LBE44
     /tmp/ccyITIK0.s:1038   .gcc_except_table:0000000000000000 .LLSDA23
                           .group:0000000000000000 _ZN19ConsumerProducerCPP8ConsumerD5Ev
                           .group:0000000000000000 _ZN19ConsumerProducerCPP16ProducerKeyboradD5Ev
                           .group:0000000000000000 _ZN19ConsumerProducerCPP8ProducerD5Ev

UNDEFINED SYMBOLS
_ZN7Console4putcEc
_ZN9BufferCPP3getEv
_ZN9Semaphore6signalEv
_ZN6ThreadD2Ev
_ZN6ThreaddlEPv
_Z4getcv
_ZN9BufferCPP3putEi
_ZN9BufferCPPD1Ev
_ZdlPv
_ZN6Thread5sleepEm
_Z11printStringPKc
_Z9getStringPci
_Z11stringToIntPKc
GAS LISTING /tmp/ccyITIK0.s 			page 42


_Z8printIntiii
_Znwm
_ZN9BufferCPPC1Ei
_ZN9SemaphorenwEm
_ZN9SemaphoreC1Ej
_ZN6ThreadnwEm
_ZN6ThreadC2Ev
_ZN6Thread5startEv
_ZN6Thread8dispatchEv
_ZN9Semaphore4waitEv
_Unwind_Resume
_ZN9SemaphoredlEPv
__gxx_personality_v0
