GAS LISTING /tmp/ccOLYcKP.s 			page 1


   1              		.file	"buffer.cpp"
   2              		.option pic
   3              		.option norelax
   4              		.text
   5              	.Ltext0:
   6              		.align	2
   7              		.globl	_ZN6BufferC2Ei
   9              	_ZN6BufferC2Ei:
  10              	.LFB10:
  11              		.file 1 "test/buffer.cpp"
   1:test/buffer.cpp **** #include "buffer.hpp"
   2:test/buffer.cpp **** 
   3:test/buffer.cpp **** Buffer::Buffer(int _cap) : cap(_cap), head(0), tail(0) {
  12              		.loc 1 3 1
  13              		.cfi_startproc
  14              	.LVL0:
  15 0000 130101FE 		addi	sp,sp,-32
  16              		.cfi_def_cfa_offset 32
  17 0004 233C1100 		sd	ra,24(sp)
  18 0008 23388100 		sd	s0,16(sp)
  19 000c 23349100 		sd	s1,8(sp)
  20              		.cfi_offset 1, -8
  21              		.cfi_offset 8, -16
  22              		.cfi_offset 9, -24
  23 0010 13040102 		addi	s0,sp,32
  24              		.cfi_def_cfa 8, 0
  25 0014 93040500 		mv	s1,a0
  26              	.LBB2:
  27              		.loc 1 3 54 is_stmt 0
  28 0018 2320B500 		sw	a1,0(a0)
  29 001c 23280500 		sw	zero,16(a0)
  30 0020 232A0500 		sw	zero,20(a0)
   4:test/buffer.cpp ****     buffer = (int *)mem_alloc(sizeof(int) * cap);
  31              		.loc 1 4 5 is_stmt 1
  32              		.loc 1 4 30 is_stmt 0
  33 0024 13952500 		slli	a0,a1,2
  34              	.LVL1:
  35 0028 97000000 		call	_Z9mem_allocm@plt
  35      E7800000 
  36              	.LVL2:
  37              		.loc 1 4 12
  38 0030 23B4A400 		sd	a0,8(s1)
   5:test/buffer.cpp ****     sem_open(&itemAvailable, 0);
  39              		.loc 1 5 5 is_stmt 1
  40              		.loc 1 5 13 is_stmt 0
  41 0034 93050000 		li	a1,0
  42 0038 13850402 		addi	a0,s1,32
  43 003c 97000000 		call	_Z8sem_openPP3SCBj@plt
  43      E7800000 
  44              	.LVL3:
   6:test/buffer.cpp ****     sem_open(&spaceAvailable, cap);
  45              		.loc 1 6 5 is_stmt 1
  46              		.loc 1 6 13 is_stmt 0
  47 0044 83A50400 		lw	a1,0(s1)
  48 0048 13858401 		addi	a0,s1,24
  49 004c 97000000 		call	_Z8sem_openPP3SCBj@plt
  49      E7800000 
GAS LISTING /tmp/ccOLYcKP.s 			page 2


  50              	.LVL4:
   7:test/buffer.cpp ****     sem_open(&mutexHead, 1);
  51              		.loc 1 7 5 is_stmt 1
  52              		.loc 1 7 13 is_stmt 0
  53 0054 93051000 		li	a1,1
  54 0058 13858402 		addi	a0,s1,40
  55 005c 97000000 		call	_Z8sem_openPP3SCBj@plt
  55      E7800000 
  56              	.LVL5:
   8:test/buffer.cpp ****     sem_open(&mutexTail, 1);
  57              		.loc 1 8 5 is_stmt 1
  58              		.loc 1 8 13 is_stmt 0
  59 0064 93051000 		li	a1,1
  60 0068 13850403 		addi	a0,s1,48
  61 006c 97000000 		call	_Z8sem_openPP3SCBj@plt
  61      E7800000 
  62              	.LVL6:
  63              	.LBE2:
   9:test/buffer.cpp **** }
  64              		.loc 1 9 1
  65 0074 83308101 		ld	ra,24(sp)
  66              		.cfi_restore 1
  67 0078 03340101 		ld	s0,16(sp)
  68              		.cfi_restore 8
  69              		.cfi_def_cfa 2, 32
  70 007c 83348100 		ld	s1,8(sp)
  71              		.cfi_restore 9
  72              	.LVL7:
  73 0080 13010102 		addi	sp,sp,32
  74              		.cfi_def_cfa_offset 0
  75 0084 67800000 		jr	ra
  76              		.cfi_endproc
  77              	.LFE10:
  79              		.globl	_ZN6BufferC1Ei
  80              		.set	_ZN6BufferC1Ei,_ZN6BufferC2Ei
  81              		.section	.rodata.str1.8,"aMS",@progbits,1
  82              		.align	3
  83              	.LC0:
  84 0000 42756666 		.string	"Buffer deleted!\n"
  84      65722064 
  84      656C6574 
  84      6564210A 
  84      00
  85              		.text
  86              		.align	2
  87              		.globl	_ZN6BufferD2Ev
  89              	_ZN6BufferD2Ev:
  90              	.LFB13:
  10:test/buffer.cpp **** 
  11:test/buffer.cpp **** Buffer::~Buffer() {
  91              		.loc 1 11 1 is_stmt 1
  92              		.cfi_startproc
  93              		.cfi_personality 0x9b,DW.ref.__gxx_personality_v0
  94              		.cfi_lsda 0x1b,.LLSDA13
  95              	.LVL8:
  96 0088 130101FE 		addi	sp,sp,-32
  97              		.cfi_def_cfa_offset 32
GAS LISTING /tmp/ccOLYcKP.s 			page 3


  98 008c 233C1100 		sd	ra,24(sp)
  99 0090 23388100 		sd	s0,16(sp)
 100 0094 23349100 		sd	s1,8(sp)
 101              		.cfi_offset 1, -8
 102              		.cfi_offset 8, -16
 103              		.cfi_offset 9, -24
 104 0098 13040102 		addi	s0,sp,32
 105              		.cfi_def_cfa 8, 0
 106 009c 93040500 		mv	s1,a0
 107              	.LBB3:
  12:test/buffer.cpp ****     putc('\n');
 108              		.loc 1 12 5
 109              		.loc 1 12 9 is_stmt 0
 110 00a0 1305A000 		li	a0,10
 111              	.LVL9:
 112 00a4 97000000 		call	_Z4putcc@plt
 112      E7800000 
 113              	.LVL10:
  13:test/buffer.cpp ****     printString("Buffer deleted!\n");
 114              		.loc 1 13 5 is_stmt 1
 115              		.loc 1 13 16 is_stmt 0
 116 00ac 17050000 		lla	a0,.LC0
 116      13050500 
 117 00b4 97000000 		call	_Z11printStringPKc@plt
 117      E7800000 
 118              	.LVL11:
 119              	.L5:
  14:test/buffer.cpp ****     while (head != tail) {
 120              		.loc 1 14 5 is_stmt 1
 121              		.loc 1 14 17
 122              		.loc 1 14 12 is_stmt 0
 123 00bc 83A70401 		lw	a5,16(s1)
 124              		.loc 1 14 20
 125 00c0 03A74401 		lw	a4,20(s1)
 126              		.loc 1 14 17
 127 00c4 638AE702 		beq	a5,a4,.L4
 128              	.LBB4:
  15:test/buffer.cpp ****         char ch = buffer[head];
 129              		.loc 1 15 9 is_stmt 1
 130              		.loc 1 15 19 is_stmt 0
 131 00c8 03B78400 		ld	a4,8(s1)
 132              		.loc 1 15 30
 133 00cc 93972700 		slli	a5,a5,2
 134 00d0 B307F700 		add	a5,a4,a5
 135              	.LVL12:
  16:test/buffer.cpp ****         putc(ch);
 136              		.loc 1 16 9 is_stmt 1
 137              		.loc 1 16 13 is_stmt 0
 138 00d4 03C50700 		lbu	a0,0(a5)
 139 00d8 97000000 		call	_Z4putcc@plt
 139      E7800000 
 140              	.LVL13:
  17:test/buffer.cpp ****         head = (head + 1) % cap;
 141              		.loc 1 17 9 is_stmt 1
 142              		.loc 1 17 17 is_stmt 0
 143 00e0 83A70401 		lw	a5,16(s1)
 144              		.loc 1 17 22
GAS LISTING /tmp/ccOLYcKP.s 			page 4


 145 00e4 9B871700 		addiw	a5,a5,1
 146              		.loc 1 17 29
 147 00e8 03A70400 		lw	a4,0(s1)
 148              		.loc 1 17 27
 149 00ec BBE7E702 		remw	a5,a5,a4
 150              		.loc 1 17 14
 151 00f0 23A8F400 		sw	a5,16(s1)
 152              	.LBE4:
  14:test/buffer.cpp ****         char ch = buffer[head];
 153              		.loc 1 14 5
 154 00f4 6FF09FFC 		j	.L5
 155              	.L4:
  18:test/buffer.cpp ****     }
  19:test/buffer.cpp ****     putc('!');
 156              		.loc 1 19 5 is_stmt 1
 157              		.loc 1 19 9 is_stmt 0
 158 00f8 13051002 		li	a0,33
 159 00fc 97000000 		call	_Z4putcc@plt
 159      E7800000 
 160              	.LVL14:
  20:test/buffer.cpp ****     putc('\n');
 161              		.loc 1 20 5 is_stmt 1
 162              		.loc 1 20 9 is_stmt 0
 163 0104 1305A000 		li	a0,10
 164 0108 97000000 		call	_Z4putcc@plt
 164      E7800000 
 165              	.LVL15:
  21:test/buffer.cpp **** 
  22:test/buffer.cpp ****     mem_free(buffer);
 166              		.loc 1 22 5 is_stmt 1
 167              		.loc 1 22 13 is_stmt 0
 168 0110 03B58400 		ld	a0,8(s1)
 169 0114 97000000 		call	_Z8mem_freePv@plt
 169      E7800000 
 170              	.LVL16:
  23:test/buffer.cpp ****     sem_close(itemAvailable);
 171              		.loc 1 23 5 is_stmt 1
 172              		.loc 1 23 14 is_stmt 0
 173 011c 03B50402 		ld	a0,32(s1)
 174 0120 97000000 		call	_Z9sem_closeP3SCB@plt
 174      E7800000 
 175              	.LVL17:
  24:test/buffer.cpp ****     sem_close(spaceAvailable);
 176              		.loc 1 24 5 is_stmt 1
 177              		.loc 1 24 14 is_stmt 0
 178 0128 03B58401 		ld	a0,24(s1)
 179 012c 97000000 		call	_Z9sem_closeP3SCB@plt
 179      E7800000 
 180              	.LVL18:
  25:test/buffer.cpp ****     sem_close(mutexTail);
 181              		.loc 1 25 5 is_stmt 1
 182              		.loc 1 25 14 is_stmt 0
 183 0134 03B50403 		ld	a0,48(s1)
 184 0138 97000000 		call	_Z9sem_closeP3SCB@plt
 184      E7800000 
 185              	.LVL19:
  26:test/buffer.cpp ****     sem_close(mutexHead);
GAS LISTING /tmp/ccOLYcKP.s 			page 5


 186              		.loc 1 26 5 is_stmt 1
 187              		.loc 1 26 14 is_stmt 0
 188 0140 03B58402 		ld	a0,40(s1)
 189 0144 97000000 		call	_Z9sem_closeP3SCB@plt
 189      E7800000 
 190              	.LVL20:
 191              	.LBE3:
  27:test/buffer.cpp **** }
 192              		.loc 1 27 1
 193 014c 83308101 		ld	ra,24(sp)
 194              		.cfi_restore 1
 195 0150 03340101 		ld	s0,16(sp)
 196              		.cfi_restore 8
 197              		.cfi_def_cfa 2, 32
 198 0154 83348100 		ld	s1,8(sp)
 199              		.cfi_restore 9
 200              	.LVL21:
 201 0158 13010102 		addi	sp,sp,32
 202              		.cfi_def_cfa_offset 0
 203 015c 67800000 		jr	ra
 204              		.cfi_endproc
 205              	.LFE13:
 206              		.globl	__gxx_personality_v0
 207              		.section	.gcc_except_table,"a",@progbits
 208              	.LLSDA13:
 209 0000 FF       		.byte	0xff
 210 0001 FF       		.byte	0xff
 211 0002 03       		.byte	0x3
 212 0003 00       		.byte	0
 213              		.text
 215              		.globl	_ZN6BufferD1Ev
 216              		.set	_ZN6BufferD1Ev,_ZN6BufferD2Ev
 217              		.align	2
 218              		.globl	_ZN6Buffer3putEi
 220              	_ZN6Buffer3putEi:
 221              	.LFB15:
  28:test/buffer.cpp **** 
  29:test/buffer.cpp **** void Buffer::put(int val) {
 222              		.loc 1 29 27 is_stmt 1
 223              		.cfi_startproc
 224              	.LVL22:
 225 0160 130101FE 		addi	sp,sp,-32
 226              		.cfi_def_cfa_offset 32
 227 0164 233C1100 		sd	ra,24(sp)
 228 0168 23388100 		sd	s0,16(sp)
 229 016c 23349100 		sd	s1,8(sp)
 230 0170 23302101 		sd	s2,0(sp)
 231              		.cfi_offset 1, -8
 232              		.cfi_offset 8, -16
 233              		.cfi_offset 9, -24
 234              		.cfi_offset 18, -32
 235 0174 13040102 		addi	s0,sp,32
 236              		.cfi_def_cfa 8, 0
 237 0178 93040500 		mv	s1,a0
 238 017c 13890500 		mv	s2,a1
  30:test/buffer.cpp ****     sem_wait(spaceAvailable);
 239              		.loc 1 30 5
GAS LISTING /tmp/ccOLYcKP.s 			page 6


 240              		.loc 1 30 13 is_stmt 0
 241 0180 03358501 		ld	a0,24(a0)
 242              	.LVL23:
 243 0184 97000000 		call	_Z8sem_waitP3SCB@plt
 243      E7800000 
 244              	.LVL24:
  31:test/buffer.cpp **** 
  32:test/buffer.cpp ****     sem_wait(mutexTail);
 245              		.loc 1 32 5 is_stmt 1
 246              		.loc 1 32 13 is_stmt 0
 247 018c 03B50403 		ld	a0,48(s1)
 248 0190 97000000 		call	_Z8sem_waitP3SCB@plt
 248      E7800000 
 249              	.LVL25:
  33:test/buffer.cpp ****     buffer[tail] = val;
 250              		.loc 1 33 5 is_stmt 1
 251 0198 83B78400 		ld	a5,8(s1)
 252              		.loc 1 33 12 is_stmt 0
 253 019c 03A74401 		lw	a4,20(s1)
 254              		.loc 1 33 16
 255 01a0 13172700 		slli	a4,a4,2
 256 01a4 B387E700 		add	a5,a5,a4
 257              		.loc 1 33 18
 258 01a8 23A02701 		sw	s2,0(a5)
  34:test/buffer.cpp ****     tail = (tail + 1) % cap;
 259              		.loc 1 34 5 is_stmt 1
 260              		.loc 1 34 13 is_stmt 0
 261 01ac 83A74401 		lw	a5,20(s1)
 262              		.loc 1 34 18
 263 01b0 9B871700 		addiw	a5,a5,1
 264              		.loc 1 34 25
 265 01b4 03A70400 		lw	a4,0(s1)
 266              		.loc 1 34 23
 267 01b8 BBE7E702 		remw	a5,a5,a4
 268              		.loc 1 34 10
 269 01bc 23AAF400 		sw	a5,20(s1)
  35:test/buffer.cpp ****     sem_signal(mutexTail);
 270              		.loc 1 35 5 is_stmt 1
 271              		.loc 1 35 15 is_stmt 0
 272 01c0 03B50403 		ld	a0,48(s1)
 273 01c4 97000000 		call	_Z10sem_signalP3SCB@plt
 273      E7800000 
 274              	.LVL26:
  36:test/buffer.cpp **** 
  37:test/buffer.cpp ****     sem_signal(itemAvailable);
 275              		.loc 1 37 5 is_stmt 1
 276              		.loc 1 37 15 is_stmt 0
 277 01cc 03B50402 		ld	a0,32(s1)
 278 01d0 97000000 		call	_Z10sem_signalP3SCB@plt
 278      E7800000 
 279              	.LVL27:
  38:test/buffer.cpp **** 
  39:test/buffer.cpp **** }
 280              		.loc 1 39 1
 281 01d8 83308101 		ld	ra,24(sp)
 282              		.cfi_restore 1
 283 01dc 03340101 		ld	s0,16(sp)
GAS LISTING /tmp/ccOLYcKP.s 			page 7


 284              		.cfi_restore 8
 285              		.cfi_def_cfa 2, 32
 286 01e0 83348100 		ld	s1,8(sp)
 287              		.cfi_restore 9
 288              	.LVL28:
 289 01e4 03390100 		ld	s2,0(sp)
 290              		.cfi_restore 18
 291 01e8 13010102 		addi	sp,sp,32
 292              		.cfi_def_cfa_offset 0
 293 01ec 67800000 		jr	ra
 294              		.cfi_endproc
 295              	.LFE15:
 297              		.align	2
 298              		.globl	_ZN6Buffer3getEv
 300              	_ZN6Buffer3getEv:
 301              	.LFB16:
  40:test/buffer.cpp **** 
  41:test/buffer.cpp **** int Buffer::get() {
 302              		.loc 1 41 19 is_stmt 1
 303              		.cfi_startproc
 304              	.LVL29:
 305 01f0 130101FE 		addi	sp,sp,-32
 306              		.cfi_def_cfa_offset 32
 307 01f4 233C1100 		sd	ra,24(sp)
 308 01f8 23388100 		sd	s0,16(sp)
 309 01fc 23349100 		sd	s1,8(sp)
 310 0200 23302101 		sd	s2,0(sp)
 311              		.cfi_offset 1, -8
 312              		.cfi_offset 8, -16
 313              		.cfi_offset 9, -24
 314              		.cfi_offset 18, -32
 315 0204 13040102 		addi	s0,sp,32
 316              		.cfi_def_cfa 8, 0
 317 0208 93040500 		mv	s1,a0
  42:test/buffer.cpp ****     sem_wait(itemAvailable);
 318              		.loc 1 42 5
 319              		.loc 1 42 13 is_stmt 0
 320 020c 03350502 		ld	a0,32(a0)
 321              	.LVL30:
 322 0210 97000000 		call	_Z8sem_waitP3SCB@plt
 322      E7800000 
 323              	.LVL31:
  43:test/buffer.cpp **** 
  44:test/buffer.cpp ****     sem_wait(mutexHead);
 324              		.loc 1 44 5 is_stmt 1
 325              		.loc 1 44 13 is_stmt 0
 326 0218 03B58402 		ld	a0,40(s1)
 327 021c 97000000 		call	_Z8sem_waitP3SCB@plt
 327      E7800000 
 328              	.LVL32:
  45:test/buffer.cpp **** 
  46:test/buffer.cpp ****     int ret = buffer[head];
 329              		.loc 1 46 5 is_stmt 1
 330              		.loc 1 46 15 is_stmt 0
 331 0224 03B78400 		ld	a4,8(s1)
 332              		.loc 1 46 22
 333 0228 83A70401 		lw	a5,16(s1)
GAS LISTING /tmp/ccOLYcKP.s 			page 8


 334              		.loc 1 46 26
 335 022c 93962700 		slli	a3,a5,2
 336 0230 3307D700 		add	a4,a4,a3
 337              		.loc 1 46 9
 338 0234 03290700 		lw	s2,0(a4)
 339              	.LVL33:
  47:test/buffer.cpp ****     head = (head + 1) % cap;
 340              		.loc 1 47 5 is_stmt 1
 341              		.loc 1 47 18 is_stmt 0
 342 0238 9B871700 		addiw	a5,a5,1
 343              		.loc 1 47 25
 344 023c 03A70400 		lw	a4,0(s1)
 345              		.loc 1 47 23
 346 0240 BBE7E702 		remw	a5,a5,a4
 347              		.loc 1 47 10
 348 0244 23A8F400 		sw	a5,16(s1)
  48:test/buffer.cpp ****     sem_signal(mutexHead);
 349              		.loc 1 48 5 is_stmt 1
 350              		.loc 1 48 15 is_stmt 0
 351 0248 03B58402 		ld	a0,40(s1)
 352 024c 97000000 		call	_Z10sem_signalP3SCB@plt
 352      E7800000 
 353              	.LVL34:
  49:test/buffer.cpp **** 
  50:test/buffer.cpp ****     sem_signal(spaceAvailable);
 354              		.loc 1 50 5 is_stmt 1
 355              		.loc 1 50 15 is_stmt 0
 356 0254 03B58401 		ld	a0,24(s1)
 357 0258 97000000 		call	_Z10sem_signalP3SCB@plt
 357      E7800000 
 358              	.LVL35:
  51:test/buffer.cpp **** 
  52:test/buffer.cpp ****     return ret;
 359              		.loc 1 52 5 is_stmt 1
  53:test/buffer.cpp **** }
 360              		.loc 1 53 1 is_stmt 0
 361 0260 13050900 		mv	a0,s2
 362 0264 83308101 		ld	ra,24(sp)
 363              		.cfi_restore 1
 364 0268 03340101 		ld	s0,16(sp)
 365              		.cfi_restore 8
 366              		.cfi_def_cfa 2, 32
 367 026c 83348100 		ld	s1,8(sp)
 368              		.cfi_restore 9
 369              	.LVL36:
 370 0270 03390100 		ld	s2,0(sp)
 371              		.cfi_restore 18
 372              	.LVL37:
 373 0274 13010102 		addi	sp,sp,32
 374              		.cfi_def_cfa_offset 0
 375 0278 67800000 		jr	ra
 376              		.cfi_endproc
 377              	.LFE16:
 379              	.Letext0:
 380              		.file 2 "test/../h/hw.h"
 381              		.file 3 "test/../h/syscall_c.h"
 382              		.file 4 "test/buffer.hpp"
GAS LISTING /tmp/ccOLYcKP.s 			page 9


 383              		.file 5 "test/../h/print.h"
 1805              		.align	3
 1808              	DW.ref.__gxx_personality_v0:
 1809 0000 00000000 		.dword	__gxx_personality_v0
 1809      00000000 
 1810              		.ident	"GCC: (Ubuntu 9.4.0-1ubuntu1~20.04) 9.4.0"
 1811              		.section	.note.GNU-stack,"",@progbits
GAS LISTING /tmp/ccOLYcKP.s 			page 10

