GAS LISTING /tmp/ccaaV0f9.s 			page 1


   1              		.file	"buffer.cpp"
   2              		.option pic
   3              		.option norelax
   4              		.text
   5              	.Ltext0:
   6              		.align	2
   7              		.globl	_ZN6BufferC2Ei
   9              	_ZN6BufferC2Ei:
  10              	.LFB16:
  11              		.file 1 "test/buffer.cpp"
   1:test/buffer.cpp **** #include "buffer.hpp"
   2:test/buffer.cpp **** 
   3:test/buffer.cpp **** Buffer::Buffer(int _cap) : cap(_cap + 1), head(0), tail(0) {
  12              		.loc 1 3 1
  13              		.cfi_startproc
  14              	.LVL0:
  15 0000 130101FE 		addi	sp,sp,-32
  16              		.cfi_def_cfa_offset 32
  17 0004 233C1100 		sd	ra,24(sp)
  18 0008 23388100 		sd	s0,16(sp)
  19 000c 23349100 		sd	s1,8(sp)
  20 0010 23302101 		sd	s2,0(sp)
  21              		.cfi_offset 1, -8
  22              		.cfi_offset 8, -16
  23              		.cfi_offset 9, -24
  24              		.cfi_offset 18, -32
  25 0014 13040102 		addi	s0,sp,32
  26              		.cfi_def_cfa 8, 0
  27 0018 93040500 		mv	s1,a0
  28 001c 13890500 		mv	s2,a1
  29              	.LBB2:
  30              		.loc 1 3 37 is_stmt 0
  31 0020 9B871500 		addiw	a5,a1,1
  32 0024 1B850700 		sext.w	a0,a5
  33              	.LVL1:
  34              		.loc 1 3 58
  35 0028 23A0F400 		sw	a5,0(s1)
  36 002c 23A80400 		sw	zero,16(s1)
  37 0030 23AA0400 		sw	zero,20(s1)
   4:test/buffer.cpp ****     buffer = (int *)mem_alloc(sizeof(int) * cap);
  38              		.loc 1 4 5 is_stmt 1
  39              		.loc 1 4 30 is_stmt 0
  40 0034 13152500 		slli	a0,a0,2
  41 0038 97000000 		call	_Z9mem_allocm@plt
  41      E7800000 
  42              	.LVL2:
  43              		.loc 1 4 12
  44 0040 23B4A400 		sd	a0,8(s1)
   5:test/buffer.cpp ****     sem_open(&itemAvailable, 0);
  45              		.loc 1 5 5 is_stmt 1
  46              		.loc 1 5 13 is_stmt 0
  47 0044 93050000 		li	a1,0
  48 0048 13850402 		addi	a0,s1,32
  49 004c 97000000 		call	_Z8sem_openPP3SCBj@plt
  49      E7800000 
  50              	.LVL3:
   6:test/buffer.cpp ****     sem_open(&spaceAvailable, _cap);
GAS LISTING /tmp/ccaaV0f9.s 			page 2


  51              		.loc 1 6 5 is_stmt 1
  52              		.loc 1 6 13 is_stmt 0
  53 0054 93050900 		mv	a1,s2
  54 0058 13858401 		addi	a0,s1,24
  55 005c 97000000 		call	_Z8sem_openPP3SCBj@plt
  55      E7800000 
  56              	.LVL4:
   7:test/buffer.cpp ****     sem_open(&mutexHead, 1);
  57              		.loc 1 7 5 is_stmt 1
  58              		.loc 1 7 13 is_stmt 0
  59 0064 93051000 		li	a1,1
  60 0068 13858402 		addi	a0,s1,40
  61 006c 97000000 		call	_Z8sem_openPP3SCBj@plt
  61      E7800000 
  62              	.LVL5:
   8:test/buffer.cpp ****     sem_open(&mutexTail, 1);
  63              		.loc 1 8 5 is_stmt 1
  64              		.loc 1 8 13 is_stmt 0
  65 0074 93051000 		li	a1,1
  66 0078 13850403 		addi	a0,s1,48
  67 007c 97000000 		call	_Z8sem_openPP3SCBj@plt
  67      E7800000 
  68              	.LVL6:
  69              	.LBE2:
   9:test/buffer.cpp **** }
  70              		.loc 1 9 1
  71 0084 83308101 		ld	ra,24(sp)
  72              		.cfi_restore 1
  73 0088 03340101 		ld	s0,16(sp)
  74              		.cfi_restore 8
  75              		.cfi_def_cfa 2, 32
  76 008c 83348100 		ld	s1,8(sp)
  77              		.cfi_restore 9
  78              	.LVL7:
  79 0090 03390100 		ld	s2,0(sp)
  80              		.cfi_restore 18
  81 0094 13010102 		addi	sp,sp,32
  82              		.cfi_def_cfa_offset 0
  83 0098 67800000 		jr	ra
  84              		.cfi_endproc
  85              	.LFE16:
  87              		.globl	_ZN6BufferC1Ei
  88              		.set	_ZN6BufferC1Ei,_ZN6BufferC2Ei
  89              		.align	2
  90              		.globl	_ZN6Buffer3putEi
  92              	_ZN6Buffer3putEi:
  93              	.LFB21:
  10:test/buffer.cpp **** 
  11:test/buffer.cpp **** Buffer::~Buffer() {
  12:test/buffer.cpp ****     putc('\n');
  13:test/buffer.cpp ****     printString("Buffer deleted!\n");
  14:test/buffer.cpp ****     while (getCnt() > 0) {
  15:test/buffer.cpp ****         char ch = buffer[head];
  16:test/buffer.cpp ****         putc(ch);
  17:test/buffer.cpp ****         head = (head + 1) % cap;
  18:test/buffer.cpp ****     }
  19:test/buffer.cpp ****     putc('!');
GAS LISTING /tmp/ccaaV0f9.s 			page 3


  20:test/buffer.cpp ****     putc('\n');
  21:test/buffer.cpp **** 
  22:test/buffer.cpp ****     mem_free(buffer);
  23:test/buffer.cpp ****     sem_close(itemAvailable);
  24:test/buffer.cpp ****     sem_close(spaceAvailable);
  25:test/buffer.cpp ****     sem_close(mutexTail);
  26:test/buffer.cpp ****     sem_close(mutexHead);
  27:test/buffer.cpp **** }
  28:test/buffer.cpp **** 
  29:test/buffer.cpp **** void Buffer::put(int val) {
  94              		.loc 1 29 27 is_stmt 1
  95              		.cfi_startproc
  96              	.LVL8:
  97 009c 130101FE 		addi	sp,sp,-32
  98              		.cfi_def_cfa_offset 32
  99 00a0 233C1100 		sd	ra,24(sp)
 100 00a4 23388100 		sd	s0,16(sp)
 101 00a8 23349100 		sd	s1,8(sp)
 102 00ac 23302101 		sd	s2,0(sp)
 103              		.cfi_offset 1, -8
 104              		.cfi_offset 8, -16
 105              		.cfi_offset 9, -24
 106              		.cfi_offset 18, -32
 107 00b0 13040102 		addi	s0,sp,32
 108              		.cfi_def_cfa 8, 0
 109 00b4 93040500 		mv	s1,a0
 110 00b8 13890500 		mv	s2,a1
  30:test/buffer.cpp ****     sem_wait(spaceAvailable);
 111              		.loc 1 30 5
 112              		.loc 1 30 13 is_stmt 0
 113 00bc 03358501 		ld	a0,24(a0)
 114              	.LVL9:
 115 00c0 97000000 		call	_Z8sem_waitP3SCB@plt
 115      E7800000 
 116              	.LVL10:
  31:test/buffer.cpp **** 
  32:test/buffer.cpp ****     sem_wait(mutexTail);
 117              		.loc 1 32 5 is_stmt 1
 118              		.loc 1 32 13 is_stmt 0
 119 00c8 03B50403 		ld	a0,48(s1)
 120 00cc 97000000 		call	_Z8sem_waitP3SCB@plt
 120      E7800000 
 121              	.LVL11:
  33:test/buffer.cpp ****     buffer[tail] = val;
 122              		.loc 1 33 5 is_stmt 1
 123 00d4 83B78400 		ld	a5,8(s1)
 124              		.loc 1 33 12 is_stmt 0
 125 00d8 03A74401 		lw	a4,20(s1)
 126              		.loc 1 33 16
 127 00dc 13172700 		slli	a4,a4,2
 128 00e0 B387E700 		add	a5,a5,a4
 129              		.loc 1 33 18
 130 00e4 23A02701 		sw	s2,0(a5)
  34:test/buffer.cpp ****     tail = (tail + 1) % cap;
 131              		.loc 1 34 5 is_stmt 1
 132              		.loc 1 34 13 is_stmt 0
 133 00e8 83A74401 		lw	a5,20(s1)
GAS LISTING /tmp/ccaaV0f9.s 			page 4


 134              		.loc 1 34 18
 135 00ec 9B871700 		addiw	a5,a5,1
 136              		.loc 1 34 25
 137 00f0 03A70400 		lw	a4,0(s1)
 138              		.loc 1 34 23
 139 00f4 BBE7E702 		remw	a5,a5,a4
 140              		.loc 1 34 10
 141 00f8 23AAF400 		sw	a5,20(s1)
  35:test/buffer.cpp ****     sem_signal(mutexTail);
 142              		.loc 1 35 5 is_stmt 1
 143              		.loc 1 35 15 is_stmt 0
 144 00fc 03B50403 		ld	a0,48(s1)
 145 0100 97000000 		call	_Z10sem_signalP3SCB@plt
 145      E7800000 
 146              	.LVL12:
  36:test/buffer.cpp **** 
  37:test/buffer.cpp ****     sem_signal(itemAvailable);
 147              		.loc 1 37 5 is_stmt 1
 148              		.loc 1 37 15 is_stmt 0
 149 0108 03B50402 		ld	a0,32(s1)
 150 010c 97000000 		call	_Z10sem_signalP3SCB@plt
 150      E7800000 
 151              	.LVL13:
  38:test/buffer.cpp **** 
  39:test/buffer.cpp **** }
 152              		.loc 1 39 1
 153 0114 83308101 		ld	ra,24(sp)
 154              		.cfi_restore 1
 155 0118 03340101 		ld	s0,16(sp)
 156              		.cfi_restore 8
 157              		.cfi_def_cfa 2, 32
 158 011c 83348100 		ld	s1,8(sp)
 159              		.cfi_restore 9
 160              	.LVL14:
 161 0120 03390100 		ld	s2,0(sp)
 162              		.cfi_restore 18
 163 0124 13010102 		addi	sp,sp,32
 164              		.cfi_def_cfa_offset 0
 165 0128 67800000 		jr	ra
 166              		.cfi_endproc
 167              	.LFE21:
 169              		.align	2
 170              		.globl	_ZN6Buffer3getEv
 172              	_ZN6Buffer3getEv:
 173              	.LFB22:
  40:test/buffer.cpp **** 
  41:test/buffer.cpp **** int Buffer::get() {
 174              		.loc 1 41 19 is_stmt 1
 175              		.cfi_startproc
 176              	.LVL15:
 177 012c 130101FE 		addi	sp,sp,-32
 178              		.cfi_def_cfa_offset 32
 179 0130 233C1100 		sd	ra,24(sp)
 180 0134 23388100 		sd	s0,16(sp)
 181 0138 23349100 		sd	s1,8(sp)
 182 013c 23302101 		sd	s2,0(sp)
 183              		.cfi_offset 1, -8
GAS LISTING /tmp/ccaaV0f9.s 			page 5


 184              		.cfi_offset 8, -16
 185              		.cfi_offset 9, -24
 186              		.cfi_offset 18, -32
 187 0140 13040102 		addi	s0,sp,32
 188              		.cfi_def_cfa 8, 0
 189 0144 93040500 		mv	s1,a0
  42:test/buffer.cpp ****     sem_wait(itemAvailable);
 190              		.loc 1 42 5
 191              		.loc 1 42 13 is_stmt 0
 192 0148 03350502 		ld	a0,32(a0)
 193              	.LVL16:
 194 014c 97000000 		call	_Z8sem_waitP3SCB@plt
 194      E7800000 
 195              	.LVL17:
  43:test/buffer.cpp **** 
  44:test/buffer.cpp ****     sem_wait(mutexHead);
 196              		.loc 1 44 5 is_stmt 1
 197              		.loc 1 44 13 is_stmt 0
 198 0154 03B58402 		ld	a0,40(s1)
 199 0158 97000000 		call	_Z8sem_waitP3SCB@plt
 199      E7800000 
 200              	.LVL18:
  45:test/buffer.cpp **** 
  46:test/buffer.cpp ****     int ret = buffer[head];
 201              		.loc 1 46 5 is_stmt 1
 202              		.loc 1 46 15 is_stmt 0
 203 0160 03B78400 		ld	a4,8(s1)
 204              		.loc 1 46 22
 205 0164 83A70401 		lw	a5,16(s1)
 206              		.loc 1 46 26
 207 0168 93962700 		slli	a3,a5,2
 208 016c 3307D700 		add	a4,a4,a3
 209              		.loc 1 46 9
 210 0170 03290700 		lw	s2,0(a4)
 211              	.LVL19:
  47:test/buffer.cpp ****     head = (head + 1) % cap;
 212              		.loc 1 47 5 is_stmt 1
 213              		.loc 1 47 18 is_stmt 0
 214 0174 9B871700 		addiw	a5,a5,1
 215              		.loc 1 47 25
 216 0178 03A70400 		lw	a4,0(s1)
 217              		.loc 1 47 23
 218 017c BBE7E702 		remw	a5,a5,a4
 219              		.loc 1 47 10
 220 0180 23A8F400 		sw	a5,16(s1)
  48:test/buffer.cpp ****     sem_signal(mutexHead);
 221              		.loc 1 48 5 is_stmt 1
 222              		.loc 1 48 15 is_stmt 0
 223 0184 03B58402 		ld	a0,40(s1)
 224 0188 97000000 		call	_Z10sem_signalP3SCB@plt
 224      E7800000 
 225              	.LVL20:
  49:test/buffer.cpp **** 
  50:test/buffer.cpp ****     sem_signal(spaceAvailable);
 226              		.loc 1 50 5 is_stmt 1
 227              		.loc 1 50 15 is_stmt 0
 228 0190 03B58401 		ld	a0,24(s1)
GAS LISTING /tmp/ccaaV0f9.s 			page 6


 229 0194 97000000 		call	_Z10sem_signalP3SCB@plt
 229      E7800000 
 230              	.LVL21:
  51:test/buffer.cpp **** 
  52:test/buffer.cpp ****     return ret;
 231              		.loc 1 52 5 is_stmt 1
  53:test/buffer.cpp **** }
 232              		.loc 1 53 1 is_stmt 0
 233 019c 13050900 		mv	a0,s2
 234 01a0 83308101 		ld	ra,24(sp)
 235              		.cfi_restore 1
 236 01a4 03340101 		ld	s0,16(sp)
 237              		.cfi_restore 8
 238              		.cfi_def_cfa 2, 32
 239 01a8 83348100 		ld	s1,8(sp)
 240              		.cfi_restore 9
 241              	.LVL22:
 242 01ac 03390100 		ld	s2,0(sp)
 243              		.cfi_restore 18
 244              	.LVL23:
 245 01b0 13010102 		addi	sp,sp,32
 246              		.cfi_def_cfa_offset 0
 247 01b4 67800000 		jr	ra
 248              		.cfi_endproc
 249              	.LFE22:
 251              		.align	2
 252              		.globl	_ZN6Buffer6getCntEv
 254              	_ZN6Buffer6getCntEv:
 255              	.LFB23:
  54:test/buffer.cpp **** 
  55:test/buffer.cpp **** int Buffer::getCnt() {
 256              		.loc 1 55 22 is_stmt 1
 257              		.cfi_startproc
 258              	.LVL24:
 259 01b8 130101FE 		addi	sp,sp,-32
 260              		.cfi_def_cfa_offset 32
 261 01bc 233C1100 		sd	ra,24(sp)
 262 01c0 23388100 		sd	s0,16(sp)
 263 01c4 23349100 		sd	s1,8(sp)
 264 01c8 23302101 		sd	s2,0(sp)
 265              		.cfi_offset 1, -8
 266              		.cfi_offset 8, -16
 267              		.cfi_offset 9, -24
 268              		.cfi_offset 18, -32
 269 01cc 13040102 		addi	s0,sp,32
 270              		.cfi_def_cfa 8, 0
 271 01d0 93040500 		mv	s1,a0
  56:test/buffer.cpp ****     int ret;
 272              		.loc 1 56 5
  57:test/buffer.cpp **** 
  58:test/buffer.cpp ****     sem_wait(mutexHead);
 273              		.loc 1 58 5
 274              		.loc 1 58 13 is_stmt 0
 275 01d4 03358502 		ld	a0,40(a0)
 276              	.LVL25:
 277 01d8 97000000 		call	_Z8sem_waitP3SCB@plt
 277      E7800000 
GAS LISTING /tmp/ccaaV0f9.s 			page 7


 278              	.LVL26:
  59:test/buffer.cpp ****     sem_wait(mutexTail);
 279              		.loc 1 59 5 is_stmt 1
 280              		.loc 1 59 13 is_stmt 0
 281 01e0 03B50403 		ld	a0,48(s1)
 282 01e4 97000000 		call	_Z8sem_waitP3SCB@plt
 282      E7800000 
 283              	.LVL27:
  60:test/buffer.cpp **** 
  61:test/buffer.cpp ****     if (tail >= head) {
 284              		.loc 1 61 5 is_stmt 1
 285              		.loc 1 61 9 is_stmt 0
 286 01ec 83A74401 		lw	a5,20(s1)
 287              		.loc 1 61 17
 288 01f0 03A90401 		lw	s2,16(s1)
 289              		.loc 1 61 5
 290 01f4 63CE2703 		blt	a5,s2,.L8
  62:test/buffer.cpp ****         ret = tail - head;
 291              		.loc 1 62 9 is_stmt 1
 292              		.loc 1 62 13 is_stmt 0
 293 01f8 3B892741 		subw	s2,a5,s2
 294              	.LVL28:
 295              	.L9:
  63:test/buffer.cpp ****     } else {
  64:test/buffer.cpp ****         ret = cap - head + tail;
  65:test/buffer.cpp ****     }
  66:test/buffer.cpp **** 
  67:test/buffer.cpp ****     sem_signal(mutexTail);
 296              		.loc 1 67 5 is_stmt 1
 297              		.loc 1 67 15 is_stmt 0
 298 01fc 03B50403 		ld	a0,48(s1)
 299 0200 97000000 		call	_Z10sem_signalP3SCB@plt
 299      E7800000 
 300              	.LVL29:
  68:test/buffer.cpp ****     sem_signal(mutexHead);
 301              		.loc 1 68 5 is_stmt 1
 302              		.loc 1 68 15 is_stmt 0
 303 0208 03B58402 		ld	a0,40(s1)
 304 020c 97000000 		call	_Z10sem_signalP3SCB@plt
 304      E7800000 
 305              	.LVL30:
  69:test/buffer.cpp **** 
  70:test/buffer.cpp ****     return ret;
 306              		.loc 1 70 5 is_stmt 1
  71:test/buffer.cpp **** }
 307              		.loc 1 71 1 is_stmt 0
 308 0214 13050900 		mv	a0,s2
 309 0218 83308101 		ld	ra,24(sp)
 310              		.cfi_remember_state
 311              		.cfi_restore 1
 312 021c 03340101 		ld	s0,16(sp)
 313              		.cfi_restore 8
 314              		.cfi_def_cfa 2, 32
 315 0220 83348100 		ld	s1,8(sp)
 316              		.cfi_restore 9
 317              	.LVL31:
 318 0224 03390100 		ld	s2,0(sp)
GAS LISTING /tmp/ccaaV0f9.s 			page 8


 319              		.cfi_restore 18
 320              	.LVL32:
 321 0228 13010102 		addi	sp,sp,32
 322              		.cfi_def_cfa_offset 0
 323 022c 67800000 		jr	ra
 324              	.LVL33:
 325              	.L8:
 326              		.cfi_restore_state
  64:test/buffer.cpp ****     }
 327              		.loc 1 64 9 is_stmt 1
  64:test/buffer.cpp ****     }
 328              		.loc 1 64 15 is_stmt 0
 329 0230 03A70400 		lw	a4,0(s1)
  64:test/buffer.cpp ****     }
 330              		.loc 1 64 19
 331 0234 3B092741 		subw	s2,a4,s2
  64:test/buffer.cpp ****     }
 332              		.loc 1 64 13
 333 0238 3B09F900 		addw	s2,s2,a5
 334 023c 6FF01FFC 		j	.L9
 335              		.cfi_endproc
 336              	.LFE23:
 338              		.section	.rodata.str1.8,"aMS",@progbits,1
 339              		.align	3
 340              	.LC0:
 341 0000 42756666 		.string	"Buffer deleted!\n"
 341      65722064 
 341      656C6574 
 341      6564210A 
 341      00
 342              		.text
 343              		.align	2
 344              		.globl	_ZN6BufferD2Ev
 346              	_ZN6BufferD2Ev:
 347              	.LFB19:
  11:test/buffer.cpp ****     putc('\n');
 348              		.loc 1 11 1 is_stmt 1
 349              		.cfi_startproc
 350              		.cfi_personality 0x9b,DW.ref.__gxx_personality_v0
 351              		.cfi_lsda 0x1b,.LLSDA19
 352              	.LVL34:
 353 0240 130101FE 		addi	sp,sp,-32
 354              		.cfi_def_cfa_offset 32
 355 0244 233C1100 		sd	ra,24(sp)
 356 0248 23388100 		sd	s0,16(sp)
 357 024c 23349100 		sd	s1,8(sp)
 358              		.cfi_offset 1, -8
 359              		.cfi_offset 8, -16
 360              		.cfi_offset 9, -24
 361 0250 13040102 		addi	s0,sp,32
 362              		.cfi_def_cfa 8, 0
 363 0254 93040500 		mv	s1,a0
 364              	.LBB3:
  12:test/buffer.cpp ****     printString("Buffer deleted!\n");
 365              		.loc 1 12 5
  12:test/buffer.cpp ****     printString("Buffer deleted!\n");
 366              		.loc 1 12 9 is_stmt 0
GAS LISTING /tmp/ccaaV0f9.s 			page 9


 367 0258 1305A000 		li	a0,10
 368              	.LVL35:
 369 025c 97000000 		call	_Z4putcc@plt
 369      E7800000 
 370              	.LVL36:
  13:test/buffer.cpp ****     while (getCnt() > 0) {
 371              		.loc 1 13 5 is_stmt 1
  13:test/buffer.cpp ****     while (getCnt() > 0) {
 372              		.loc 1 13 16 is_stmt 0
 373 0264 17050000 		lla	a0,.LC0
 373      13050500 
 374 026c 97000000 		call	_Z11printStringPKc@plt
 374      E7800000 
 375              	.LVL37:
 376              	.L13:
  14:test/buffer.cpp ****         char ch = buffer[head];
 377              		.loc 1 14 5 is_stmt 1
  14:test/buffer.cpp ****         char ch = buffer[head];
 378              		.loc 1 14 21
  14:test/buffer.cpp ****         char ch = buffer[head];
 379              		.loc 1 14 18 is_stmt 0
 380 0274 13850400 		mv	a0,s1
 381 0278 97000000 		call	_ZN6Buffer6getCntEv
 381      E7800000 
 382              	.LVL38:
  14:test/buffer.cpp ****         char ch = buffer[head];
 383              		.loc 1 14 21
 384 0280 635CA002 		blez	a0,.L12
 385              	.LBB4:
  15:test/buffer.cpp ****         putc(ch);
 386              		.loc 1 15 9 is_stmt 1
  15:test/buffer.cpp ****         putc(ch);
 387              		.loc 1 15 19 is_stmt 0
 388 0284 83B78400 		ld	a5,8(s1)
  15:test/buffer.cpp ****         putc(ch);
 389              		.loc 1 15 26
 390 0288 03A70401 		lw	a4,16(s1)
  15:test/buffer.cpp ****         putc(ch);
 391              		.loc 1 15 30
 392 028c 13172700 		slli	a4,a4,2
 393 0290 B387E700 		add	a5,a5,a4
 394              	.LVL39:
  16:test/buffer.cpp ****         head = (head + 1) % cap;
 395              		.loc 1 16 9 is_stmt 1
  16:test/buffer.cpp ****         head = (head + 1) % cap;
 396              		.loc 1 16 13 is_stmt 0
 397 0294 03C50700 		lbu	a0,0(a5)
 398 0298 97000000 		call	_Z4putcc@plt
 398      E7800000 
 399              	.LVL40:
  17:test/buffer.cpp ****     }
 400              		.loc 1 17 9 is_stmt 1
  17:test/buffer.cpp ****     }
 401              		.loc 1 17 17 is_stmt 0
 402 02a0 83A70401 		lw	a5,16(s1)
  17:test/buffer.cpp ****     }
 403              		.loc 1 17 22
GAS LISTING /tmp/ccaaV0f9.s 			page 10


 404 02a4 9B871700 		addiw	a5,a5,1
  17:test/buffer.cpp ****     }
 405              		.loc 1 17 29
 406 02a8 03A70400 		lw	a4,0(s1)
  17:test/buffer.cpp ****     }
 407              		.loc 1 17 27
 408 02ac BBE7E702 		remw	a5,a5,a4
  17:test/buffer.cpp ****     }
 409              		.loc 1 17 14
 410 02b0 23A8F400 		sw	a5,16(s1)
 411              	.LBE4:
  14:test/buffer.cpp ****         char ch = buffer[head];
 412              		.loc 1 14 5
 413 02b4 6FF01FFC 		j	.L13
 414              	.L12:
  19:test/buffer.cpp ****     putc('\n');
 415              		.loc 1 19 5 is_stmt 1
  19:test/buffer.cpp ****     putc('\n');
 416              		.loc 1 19 9 is_stmt 0
 417 02b8 13051002 		li	a0,33
 418 02bc 97000000 		call	_Z4putcc@plt
 418      E7800000 
 419              	.LVL41:
  20:test/buffer.cpp **** 
 420              		.loc 1 20 5 is_stmt 1
  20:test/buffer.cpp **** 
 421              		.loc 1 20 9 is_stmt 0
 422 02c4 1305A000 		li	a0,10
 423 02c8 97000000 		call	_Z4putcc@plt
 423      E7800000 
 424              	.LVL42:
  22:test/buffer.cpp ****     sem_close(itemAvailable);
 425              		.loc 1 22 5 is_stmt 1
  22:test/buffer.cpp ****     sem_close(itemAvailable);
 426              		.loc 1 22 13 is_stmt 0
 427 02d0 03B58400 		ld	a0,8(s1)
 428 02d4 97000000 		call	_Z8mem_freePv@plt
 428      E7800000 
 429              	.LVL43:
  23:test/buffer.cpp ****     sem_close(spaceAvailable);
 430              		.loc 1 23 5 is_stmt 1
  23:test/buffer.cpp ****     sem_close(spaceAvailable);
 431              		.loc 1 23 14 is_stmt 0
 432 02dc 03B50402 		ld	a0,32(s1)
 433 02e0 97000000 		call	_Z9sem_closeP3SCB@plt
 433      E7800000 
 434              	.LVL44:
  24:test/buffer.cpp ****     sem_close(mutexTail);
 435              		.loc 1 24 5 is_stmt 1
  24:test/buffer.cpp ****     sem_close(mutexTail);
 436              		.loc 1 24 14 is_stmt 0
 437 02e8 03B58401 		ld	a0,24(s1)
 438 02ec 97000000 		call	_Z9sem_closeP3SCB@plt
 438      E7800000 
 439              	.LVL45:
  25:test/buffer.cpp ****     sem_close(mutexHead);
 440              		.loc 1 25 5 is_stmt 1
GAS LISTING /tmp/ccaaV0f9.s 			page 11


  25:test/buffer.cpp ****     sem_close(mutexHead);
 441              		.loc 1 25 14 is_stmt 0
 442 02f4 03B50403 		ld	a0,48(s1)
 443 02f8 97000000 		call	_Z9sem_closeP3SCB@plt
 443      E7800000 
 444              	.LVL46:
  26:test/buffer.cpp **** }
 445              		.loc 1 26 5 is_stmt 1
  26:test/buffer.cpp **** }
 446              		.loc 1 26 14 is_stmt 0
 447 0300 03B58402 		ld	a0,40(s1)
 448 0304 97000000 		call	_Z9sem_closeP3SCB@plt
 448      E7800000 
 449              	.LVL47:
 450              	.LBE3:
  27:test/buffer.cpp **** 
 451              		.loc 1 27 1
 452 030c 83308101 		ld	ra,24(sp)
 453              		.cfi_restore 1
 454 0310 03340101 		ld	s0,16(sp)
 455              		.cfi_restore 8
 456              		.cfi_def_cfa 2, 32
 457 0314 83348100 		ld	s1,8(sp)
 458              		.cfi_restore 9
 459              	.LVL48:
 460 0318 13010102 		addi	sp,sp,32
 461              		.cfi_def_cfa_offset 0
 462 031c 67800000 		jr	ra
 463              		.cfi_endproc
 464              	.LFE19:
 465              		.globl	__gxx_personality_v0
 466              		.section	.gcc_except_table,"a",@progbits
 467              	.LLSDA19:
 468 0000 FF       		.byte	0xff
 469 0001 FF       		.byte	0xff
 470 0002 03       		.byte	0x3
 471 0003 00       		.byte	0
 472              		.text
 474              		.globl	_ZN6BufferD1Ev
 475              		.set	_ZN6BufferD1Ev,_ZN6BufferD2Ev
 476              	.Letext0:
 477              		.file 2 "test/../h/hw.h"
 478              		.file 3 "test/../h/slab.h"
 479              		.file 4 "test/../h/PCB.h"
 480              		.file 5 "test/../h/SCB.h"
 481              		.file 6 "test/../h/syscall_c.h"
 482              		.file 7 "test/buffer.hpp"
 483              		.file 8 "test/../h/printing.hpp"
 3176              		.align	3
 3179              	DW.ref.__gxx_personality_v0:
 3180 0000 00000000 		.dword	__gxx_personality_v0
 3180      00000000 
 3181              		.ident	"GCC: (Ubuntu 9.4.0-1ubuntu1~20.04) 9.4.0"
 3182              		.section	.note.GNU-stack,"",@progbits
GAS LISTING /tmp/ccaaV0f9.s 			page 12


DEFINED SYMBOLS
                            *ABS*:0000000000000000 buffer.cpp
     /tmp/ccaaV0f9.s:9      .text:0000000000000000 _ZN6BufferC2Ei
     /tmp/ccaaV0f9.s:13     .text:0000000000000000 .L0 
     /tmp/ccaaV0f9.s:15     .text:0000000000000000 .L0 
     /tmp/ccaaV0f9.s:16     .text:0000000000000004 .L0 
     /tmp/ccaaV0f9.s:21     .text:0000000000000014 .L0 
     /tmp/ccaaV0f9.s:22     .text:0000000000000014 .L0 
     /tmp/ccaaV0f9.s:23     .text:0000000000000014 .L0 
     /tmp/ccaaV0f9.s:24     .text:0000000000000014 .L0 
     /tmp/ccaaV0f9.s:26     .text:0000000000000018 .L0 
     /tmp/ccaaV0f9.s:31     .text:0000000000000020 .L0 
     /tmp/ccaaV0f9.s:35     .text:0000000000000028 .L0 
     /tmp/ccaaV0f9.s:39     .text:0000000000000034 .L0 
     /tmp/ccaaV0f9.s:40     .text:0000000000000034 .L0 
     /tmp/ccaaV0f9.s:44     .text:0000000000000040 .L0 
     /tmp/ccaaV0f9.s:46     .text:0000000000000044 .L0 
     /tmp/ccaaV0f9.s:47     .text:0000000000000044 .L0 
     /tmp/ccaaV0f9.s:52     .text:0000000000000054 .L0 
     /tmp/ccaaV0f9.s:53     .text:0000000000000054 .L0 
     /tmp/ccaaV0f9.s:58     .text:0000000000000064 .L0 
     /tmp/ccaaV0f9.s:59     .text:0000000000000064 .L0 
     /tmp/ccaaV0f9.s:64     .text:0000000000000074 .L0 
     /tmp/ccaaV0f9.s:65     .text:0000000000000074 .L0 
     /tmp/ccaaV0f9.s:71     .text:0000000000000084 .L0 
     /tmp/ccaaV0f9.s:72     .text:0000000000000088 .L0 
     /tmp/ccaaV0f9.s:74     .text:000000000000008c .L0 
     /tmp/ccaaV0f9.s:75     .text:000000000000008c .L0 
     /tmp/ccaaV0f9.s:77     .text:0000000000000090 .L0 
     /tmp/ccaaV0f9.s:80     .text:0000000000000094 .L0 
     /tmp/ccaaV0f9.s:82     .text:0000000000000098 .L0 
     /tmp/ccaaV0f9.s:84     .text:000000000000009c .L0 
     /tmp/ccaaV0f9.s:9      .text:0000000000000000 _ZN6BufferC1Ei
     /tmp/ccaaV0f9.s:92     .text:000000000000009c _ZN6Buffer3putEi
     /tmp/ccaaV0f9.s:95     .text:000000000000009c .L0 
     /tmp/ccaaV0f9.s:97     .text:000000000000009c .L0 
     /tmp/ccaaV0f9.s:98     .text:00000000000000a0 .L0 
     /tmp/ccaaV0f9.s:103    .text:00000000000000b0 .L0 
     /tmp/ccaaV0f9.s:104    .text:00000000000000b0 .L0 
     /tmp/ccaaV0f9.s:105    .text:00000000000000b0 .L0 
     /tmp/ccaaV0f9.s:106    .text:00000000000000b0 .L0 
     /tmp/ccaaV0f9.s:108    .text:00000000000000b4 .L0 
     /tmp/ccaaV0f9.s:112    .text:00000000000000bc .L0 
     /tmp/ccaaV0f9.s:113    .text:00000000000000bc .L0 
     /tmp/ccaaV0f9.s:118    .text:00000000000000c8 .L0 
     /tmp/ccaaV0f9.s:119    .text:00000000000000c8 .L0 
     /tmp/ccaaV0f9.s:123    .text:00000000000000d4 .L0 
     /tmp/ccaaV0f9.s:125    .text:00000000000000d8 .L0 
     /tmp/ccaaV0f9.s:127    .text:00000000000000dc .L0 
     /tmp/ccaaV0f9.s:130    .text:00000000000000e4 .L0 
     /tmp/ccaaV0f9.s:132    .text:00000000000000e8 .L0 
     /tmp/ccaaV0f9.s:133    .text:00000000000000e8 .L0 
     /tmp/ccaaV0f9.s:135    .text:00000000000000ec .L0 
     /tmp/ccaaV0f9.s:137    .text:00000000000000f0 .L0 
     /tmp/ccaaV0f9.s:139    .text:00000000000000f4 .L0 
     /tmp/ccaaV0f9.s:141    .text:00000000000000f8 .L0 
     /tmp/ccaaV0f9.s:143    .text:00000000000000fc .L0 
GAS LISTING /tmp/ccaaV0f9.s 			page 13


     /tmp/ccaaV0f9.s:144    .text:00000000000000fc .L0 
     /tmp/ccaaV0f9.s:148    .text:0000000000000108 .L0 
     /tmp/ccaaV0f9.s:149    .text:0000000000000108 .L0 
     /tmp/ccaaV0f9.s:153    .text:0000000000000114 .L0 
     /tmp/ccaaV0f9.s:154    .text:0000000000000118 .L0 
     /tmp/ccaaV0f9.s:156    .text:000000000000011c .L0 
     /tmp/ccaaV0f9.s:157    .text:000000000000011c .L0 
     /tmp/ccaaV0f9.s:159    .text:0000000000000120 .L0 
     /tmp/ccaaV0f9.s:162    .text:0000000000000124 .L0 
     /tmp/ccaaV0f9.s:164    .text:0000000000000128 .L0 
     /tmp/ccaaV0f9.s:166    .text:000000000000012c .L0 
     /tmp/ccaaV0f9.s:172    .text:000000000000012c _ZN6Buffer3getEv
     /tmp/ccaaV0f9.s:175    .text:000000000000012c .L0 
     /tmp/ccaaV0f9.s:177    .text:000000000000012c .L0 
     /tmp/ccaaV0f9.s:178    .text:0000000000000130 .L0 
     /tmp/ccaaV0f9.s:183    .text:0000000000000140 .L0 
     /tmp/ccaaV0f9.s:184    .text:0000000000000140 .L0 
     /tmp/ccaaV0f9.s:185    .text:0000000000000140 .L0 
     /tmp/ccaaV0f9.s:186    .text:0000000000000140 .L0 
     /tmp/ccaaV0f9.s:188    .text:0000000000000144 .L0 
     /tmp/ccaaV0f9.s:191    .text:0000000000000148 .L0 
     /tmp/ccaaV0f9.s:192    .text:0000000000000148 .L0 
     /tmp/ccaaV0f9.s:197    .text:0000000000000154 .L0 
     /tmp/ccaaV0f9.s:198    .text:0000000000000154 .L0 
     /tmp/ccaaV0f9.s:202    .text:0000000000000160 .L0 
     /tmp/ccaaV0f9.s:203    .text:0000000000000160 .L0 
     /tmp/ccaaV0f9.s:205    .text:0000000000000164 .L0 
     /tmp/ccaaV0f9.s:207    .text:0000000000000168 .L0 
     /tmp/ccaaV0f9.s:210    .text:0000000000000170 .L0 
     /tmp/ccaaV0f9.s:213    .text:0000000000000174 .L0 
     /tmp/ccaaV0f9.s:214    .text:0000000000000174 .L0 
     /tmp/ccaaV0f9.s:216    .text:0000000000000178 .L0 
     /tmp/ccaaV0f9.s:218    .text:000000000000017c .L0 
     /tmp/ccaaV0f9.s:220    .text:0000000000000180 .L0 
     /tmp/ccaaV0f9.s:222    .text:0000000000000184 .L0 
     /tmp/ccaaV0f9.s:223    .text:0000000000000184 .L0 
     /tmp/ccaaV0f9.s:227    .text:0000000000000190 .L0 
     /tmp/ccaaV0f9.s:228    .text:0000000000000190 .L0 
     /tmp/ccaaV0f9.s:232    .text:000000000000019c .L0 
     /tmp/ccaaV0f9.s:233    .text:000000000000019c .L0 
     /tmp/ccaaV0f9.s:235    .text:00000000000001a4 .L0 
     /tmp/ccaaV0f9.s:237    .text:00000000000001a8 .L0 
     /tmp/ccaaV0f9.s:238    .text:00000000000001a8 .L0 
     /tmp/ccaaV0f9.s:240    .text:00000000000001ac .L0 
     /tmp/ccaaV0f9.s:243    .text:00000000000001b0 .L0 
     /tmp/ccaaV0f9.s:246    .text:00000000000001b4 .L0 
     /tmp/ccaaV0f9.s:248    .text:00000000000001b8 .L0 
     /tmp/ccaaV0f9.s:254    .text:00000000000001b8 _ZN6Buffer6getCntEv
     /tmp/ccaaV0f9.s:257    .text:00000000000001b8 .L0 
     /tmp/ccaaV0f9.s:259    .text:00000000000001b8 .L0 
     /tmp/ccaaV0f9.s:260    .text:00000000000001bc .L0 
     /tmp/ccaaV0f9.s:265    .text:00000000000001cc .L0 
     /tmp/ccaaV0f9.s:266    .text:00000000000001cc .L0 
     /tmp/ccaaV0f9.s:267    .text:00000000000001cc .L0 
     /tmp/ccaaV0f9.s:268    .text:00000000000001cc .L0 
     /tmp/ccaaV0f9.s:270    .text:00000000000001d0 .L0 
     /tmp/ccaaV0f9.s:273    .text:00000000000001d4 .L0 
GAS LISTING /tmp/ccaaV0f9.s 			page 14


     /tmp/ccaaV0f9.s:274    .text:00000000000001d4 .L0 
     /tmp/ccaaV0f9.s:275    .text:00000000000001d4 .L0 
     /tmp/ccaaV0f9.s:280    .text:00000000000001e0 .L0 
     /tmp/ccaaV0f9.s:281    .text:00000000000001e0 .L0 
     /tmp/ccaaV0f9.s:285    .text:00000000000001ec .L0 
     /tmp/ccaaV0f9.s:286    .text:00000000000001ec .L0 
     /tmp/ccaaV0f9.s:288    .text:00000000000001f0 .L0 
     /tmp/ccaaV0f9.s:290    .text:00000000000001f4 .L0 
     /tmp/ccaaV0f9.s:292    .text:00000000000001f8 .L0 
     /tmp/ccaaV0f9.s:293    .text:00000000000001f8 .L0 
     /tmp/ccaaV0f9.s:297    .text:00000000000001fc .L0 
     /tmp/ccaaV0f9.s:298    .text:00000000000001fc .L0 
     /tmp/ccaaV0f9.s:302    .text:0000000000000208 .L0 
     /tmp/ccaaV0f9.s:303    .text:0000000000000208 .L0 
     /tmp/ccaaV0f9.s:307    .text:0000000000000214 .L0 
     /tmp/ccaaV0f9.s:308    .text:0000000000000214 .L0 
     /tmp/ccaaV0f9.s:310    .text:000000000000021c .L0 
     /tmp/ccaaV0f9.s:311    .text:000000000000021c .L0 
     /tmp/ccaaV0f9.s:313    .text:0000000000000220 .L0 
     /tmp/ccaaV0f9.s:314    .text:0000000000000220 .L0 
     /tmp/ccaaV0f9.s:316    .text:0000000000000224 .L0 
     /tmp/ccaaV0f9.s:319    .text:0000000000000228 .L0 
     /tmp/ccaaV0f9.s:322    .text:000000000000022c .L0 
     /tmp/ccaaV0f9.s:326    .text:0000000000000230 .L0 
     /tmp/ccaaV0f9.s:328    .text:0000000000000230 .L0 
     /tmp/ccaaV0f9.s:329    .text:0000000000000230 .L0 
     /tmp/ccaaV0f9.s:331    .text:0000000000000234 .L0 
     /tmp/ccaaV0f9.s:333    .text:0000000000000238 .L0 
     /tmp/ccaaV0f9.s:335    .text:0000000000000240 .L0 
     /tmp/ccaaV0f9.s:346    .text:0000000000000240 _ZN6BufferD2Ev
     /tmp/ccaaV0f9.s:349    .text:0000000000000240 .L0 
     /tmp/ccaaV0f9.s:3179   .data.rel.local.DW.ref.__gxx_personality_v0:0000000000000000 DW.ref.__gxx_personality_v0
     /tmp/ccaaV0f9.s:353    .text:0000000000000240 .L0 
     /tmp/ccaaV0f9.s:354    .text:0000000000000244 .L0 
     /tmp/ccaaV0f9.s:358    .text:0000000000000250 .L0 
     /tmp/ccaaV0f9.s:359    .text:0000000000000250 .L0 
     /tmp/ccaaV0f9.s:360    .text:0000000000000250 .L0 
     /tmp/ccaaV0f9.s:362    .text:0000000000000254 .L0 
     /tmp/ccaaV0f9.s:366    .text:0000000000000258 .L0 
     /tmp/ccaaV0f9.s:367    .text:0000000000000258 .L0 
     /tmp/ccaaV0f9.s:372    .text:0000000000000264 .L0 
     /tmp/ccaaV0f9.s:373    .text:0000000000000264 .L0 
     /tmp/ccaaV0f9.s:378    .text:0000000000000274 .L0 
     /tmp/ccaaV0f9.s:379    .text:0000000000000274 .L0 
     /tmp/ccaaV0f9.s:380    .text:0000000000000274 .L0 
     /tmp/ccaaV0f9.s:384    .text:0000000000000280 .L0 
     /tmp/ccaaV0f9.s:387    .text:0000000000000284 .L0 
     /tmp/ccaaV0f9.s:388    .text:0000000000000284 .L0 
     /tmp/ccaaV0f9.s:390    .text:0000000000000288 .L0 
     /tmp/ccaaV0f9.s:392    .text:000000000000028c .L0 
     /tmp/ccaaV0f9.s:396    .text:0000000000000294 .L0 
     /tmp/ccaaV0f9.s:397    .text:0000000000000294 .L0 
     /tmp/ccaaV0f9.s:401    .text:00000000000002a0 .L0 
     /tmp/ccaaV0f9.s:402    .text:00000000000002a0 .L0 
     /tmp/ccaaV0f9.s:404    .text:00000000000002a4 .L0 
     /tmp/ccaaV0f9.s:406    .text:00000000000002a8 .L0 
     /tmp/ccaaV0f9.s:408    .text:00000000000002ac .L0 
GAS LISTING /tmp/ccaaV0f9.s 			page 15


     /tmp/ccaaV0f9.s:410    .text:00000000000002b0 .L0 
     /tmp/ccaaV0f9.s:413    .text:00000000000002b4 .L0 
     /tmp/ccaaV0f9.s:416    .text:00000000000002b8 .L0 
     /tmp/ccaaV0f9.s:417    .text:00000000000002b8 .L0 
     /tmp/ccaaV0f9.s:421    .text:00000000000002c4 .L0 
     /tmp/ccaaV0f9.s:422    .text:00000000000002c4 .L0 
     /tmp/ccaaV0f9.s:426    .text:00000000000002d0 .L0 
     /tmp/ccaaV0f9.s:427    .text:00000000000002d0 .L0 
     /tmp/ccaaV0f9.s:431    .text:00000000000002dc .L0 
     /tmp/ccaaV0f9.s:432    .text:00000000000002dc .L0 
     /tmp/ccaaV0f9.s:436    .text:00000000000002e8 .L0 
     /tmp/ccaaV0f9.s:437    .text:00000000000002e8 .L0 
     /tmp/ccaaV0f9.s:441    .text:00000000000002f4 .L0 
     /tmp/ccaaV0f9.s:442    .text:00000000000002f4 .L0 
     /tmp/ccaaV0f9.s:446    .text:0000000000000300 .L0 
     /tmp/ccaaV0f9.s:447    .text:0000000000000300 .L0 
     /tmp/ccaaV0f9.s:452    .text:000000000000030c .L0 
     /tmp/ccaaV0f9.s:453    .text:0000000000000310 .L0 
     /tmp/ccaaV0f9.s:455    .text:0000000000000314 .L0 
     /tmp/ccaaV0f9.s:456    .text:0000000000000314 .L0 
     /tmp/ccaaV0f9.s:458    .text:0000000000000318 .L0 
     /tmp/ccaaV0f9.s:461    .text:000000000000031c .L0 
     /tmp/ccaaV0f9.s:463    .text:0000000000000320 .L0 
     /tmp/ccaaV0f9.s:346    .text:0000000000000240 _ZN6BufferD1Ev
     /tmp/ccaaV0f9.s:484    .text:0000000000000320 .L0 
     /tmp/ccaaV0f9.s:340    .rodata.str1.8:0000000000000000 .LC0
     /tmp/ccaaV0f9.s:373    .text:0000000000000264 .L0 
     /tmp/ccaaV0f9.s:325    .text:0000000000000230 .L8
     /tmp/ccaaV0f9.s:295    .text:00000000000001fc .L9
     /tmp/ccaaV0f9.s:414    .text:00000000000002b8 .L12
     /tmp/ccaaV0f9.s:376    .text:0000000000000274 .L13
     /tmp/ccaaV0f9.s:1805   .debug_abbrev:0000000000000000 .Ldebug_abbrev0
     /tmp/ccaaV0f9.s:3127   .debug_str:000000000000073a .LASF138
     /tmp/ccaaV0f9.s:2971   .debug_str:00000000000002b3 .LASF139
     /tmp/ccaaV0f9.s:2889   .debug_str:000000000000007c .LASF140
     /tmp/ccaaV0f9.s:5      .text:0000000000000000 .Ltext0
     /tmp/ccaaV0f9.s:476    .text:0000000000000320 .Letext0
     /tmp/ccaaV0f9.s:2873   .debug_line:0000000000000000 .Ldebug_line0
     /tmp/ccaaV0f9.s:3039   .debug_str:00000000000004d5 .LASF0
     /tmp/ccaaV0f9.s:3057   .debug_str:000000000000054d .LASF1
     /tmp/ccaaV0f9.s:3017   .debug_str:0000000000000428 .LASF2
     /tmp/ccaaV0f9.s:2991   .debug_str:000000000000035d .LASF4
     /tmp/ccaaV0f9.s:3107   .debug_str:00000000000006ae .LASF3
     /tmp/ccaaV0f9.s:2905   .debug_str:0000000000000109 .LASF5
     /tmp/ccaaV0f9.s:2941   .debug_str:00000000000001ed .LASF6
     /tmp/ccaaV0f9.s:3061   .debug_str:000000000000056f .LASF7
     /tmp/ccaaV0f9.s:3037   .debug_str:00000000000004c2 .LASF8
     /tmp/ccaaV0f9.s:3143   .debug_str:0000000000000873 .LASF9
     /tmp/ccaaV0f9.s:2977   .debug_str:00000000000002e9 .LASF10
     /tmp/ccaaV0f9.s:3079   .debug_str:00000000000005e0 .LASF11
     /tmp/ccaaV0f9.s:3131   .debug_str:000000000000080b .LASF12
     /tmp/ccaaV0f9.s:2911   .debug_str:000000000000011e .LASF13
     /tmp/ccaaV0f9.s:2879   .debug_str:000000000000001a .LASF14
     /tmp/ccaaV0f9.s:2919   .debug_str:000000000000014d .LASF15
     /tmp/ccaaV0f9.s:3099   .debug_str:0000000000000660 .LASF16
     /tmp/ccaaV0f9.s:2933   .debug_str:00000000000001a5 .LASF17
     /tmp/ccaaV0f9.s:3149   .debug_str:00000000000008a8 .LASF18
GAS LISTING /tmp/ccaaV0f9.s 			page 16


     /tmp/ccaaV0f9.s:3147   .debug_str:000000000000089b .LASF141
     /tmp/ccaaV0f9.s:3063   .debug_str:0000000000000582 .LASF19
     /tmp/ccaaV0f9.s:3069   .debug_str:0000000000000599 .LASF21
     /tmp/ccaaV0f9.s:3089   .debug_str:000000000000062c .LASF20
     /tmp/ccaaV0f9.s:2957   .debug_str:0000000000000261 .LASF22
     /tmp/ccaaV0f9.s:3155   .debug_str:00000000000008cc .LASF23
     /tmp/ccaaV0f9.s:2979   .debug_str:00000000000002f7 .LASF24
     /tmp/ccaaV0f9.s:3015   .debug_str:0000000000000418 .LASF27
     /tmp/ccaaV0f9.s:3101   .debug_str:0000000000000676 .LASF29
     /tmp/ccaaV0f9.s:3123   .debug_str:0000000000000721 .LASF25
     /tmp/ccaaV0f9.s:2949   .debug_str:0000000000000223 .LASF26
     /tmp/ccaaV0f9.s:3171   .debug_str:000000000000094f .LASF28
     /tmp/ccaaV0f9.s:2893   .debug_str:00000000000000b4 .LASF30
     /tmp/ccaaV0f9.s:2885   .debug_str:0000000000000058 .LASF31
     /tmp/ccaaV0f9.s:3085   .debug_str:0000000000000608 .LASF32
     /tmp/ccaaV0f9.s:3087   .debug_str:000000000000061e .LASF33
     /tmp/ccaaV0f9.s:2973   .debug_str:00000000000002c3 .LASF34
     /tmp/ccaaV0f9.s:3141   .debug_str:0000000000000866 .LASF35
     /tmp/ccaaV0f9.s:3003   .debug_str:00000000000003a5 .LASF36
     /tmp/ccaaV0f9.s:3019   .debug_str:0000000000000436 .LASF37
     /tmp/ccaaV0f9.s:3013   .debug_str:0000000000000401 .LASF38
     /tmp/ccaaV0f9.s:2927   .debug_str:0000000000000186 .LASF39
     /tmp/ccaaV0f9.s:3163   .debug_str:0000000000000900 .LASF40
     /tmp/ccaaV0f9.s:3075   .debug_str:00000000000005c3 .LASF142
     /tmp/ccaaV0f9.s:2985   .debug_str:000000000000032a .LASF41
     /tmp/ccaaV0f9.s:2881   .debug_str:000000000000002a .LASF42
     /tmp/ccaaV0f9.s:3025   .debug_str:000000000000045e .LASF47
     /tmp/ccaaV0f9.s:3041   .debug_str:00000000000004e2 .LASF49
     /tmp/ccaaV0f9.s:2959   .debug_str:0000000000000280 .LASF51
     /tmp/ccaaV0f9.s:3095   .debug_str:000000000000064b .LASF43
     /tmp/ccaaV0f9.s:3033   .debug_str:00000000000004a6 .LASF44
     /tmp/ccaaV0f9.s:3157   .debug_str:00000000000008dc .LASF45
     /tmp/ccaaV0f9.s:2993   .debug_str:0000000000000364 .LASF46
     /tmp/ccaaV0f9.s:3115   .debug_str:00000000000006e6 .LASF53
     /tmp/ccaaV0f9.s:3119   .debug_str:000000000000070a .LASF59
     /tmp/ccaaV0f9.s:2915   .debug_str:000000000000013d .LASF143
     /tmp/ccaaV0f9.s:2945   .debug_str:00000000000001ff .LASF144
     /tmp/ccaaV0f9.s:3129   .debug_str:00000000000007fe .LASF48
     /tmp/ccaaV0f9.s:3145   .debug_str:0000000000000883 .LASF50
     /tmp/ccaaV0f9.s:3055   .debug_str:0000000000000544 .LASF52
     /tmp/ccaaV0f9.s:2891   .debug_str:00000000000000a1 .LASF96
     /tmp/ccaaV0f9.s:2937   .debug_str:00000000000001c9 .LASF54
     /tmp/ccaaV0f9.s:3139   .debug_str:000000000000084d .LASF56
     /tmp/ccaaV0f9.s:3125   .debug_str:000000000000072f .LASF55
     /tmp/ccaaV0f9.s:2939   .debug_str:00000000000001d6 .LASF57
     /tmp/ccaaV0f9.s:3113   .debug_str:00000000000006db .LASF58
     /tmp/ccaaV0f9.s:3029   .debug_str:000000000000046e .LASF60
     /tmp/ccaaV0f9.s:3167   .debug_str:0000000000000933 .LASF61
     /tmp/ccaaV0f9.s:3045   .debug_str:000000000000050a .LASF62
     /tmp/ccaaV0f9.s:3137   .debug_str:0000000000000844 .LASF63
     /tmp/ccaaV0f9.s:2923   .debug_str:000000000000015e .LASF64
     /tmp/ccaaV0f9.s:3071   .debug_str:00000000000005b0 .LASF65
     /tmp/ccaaV0f9.s:2995   .debug_str:0000000000000370 .LASF66
     /tmp/ccaaV0f9.s:2875   .debug_str:0000000000000000 .LASF67
     /tmp/ccaaV0f9.s:2931   .debug_str:000000000000019a .LASF68
     /tmp/ccaaV0f9.s:3053   .debug_str:0000000000000537 .LASF69
     /tmp/ccaaV0f9.s:2947   .debug_str:0000000000000215 .LASF70
GAS LISTING /tmp/ccaaV0f9.s 			page 17


     /tmp/ccaaV0f9.s:3051   .debug_str:000000000000052d .LASF71
     /tmp/ccaaV0f9.s:3109   .debug_str:00000000000006c0 .LASF145
     /tmp/ccaaV0f9.s:2981   .debug_str:0000000000000313 .LASF77
     /tmp/ccaaV0f9.s:2989   .debug_str:000000000000034a .LASF79
     /tmp/ccaaV0f9.s:2903   .debug_str:00000000000000fa .LASF72
     /tmp/ccaaV0f9.s:2925   .debug_str:0000000000000168 .LASF73
     /tmp/ccaaV0f9.s:2913   .debug_str:000000000000012e .LASF74
     /tmp/ccaaV0f9.s:3007   .debug_str:00000000000003cf .LASF75
     /tmp/ccaaV0f9.s:3027   .debug_str:0000000000000464 .LASF76
     /tmp/ccaaV0f9.s:3035   .debug_str:00000000000004b2 .LASF78
     /tmp/ccaaV0f9.s:3031   .debug_str:000000000000048b .LASF80
     /tmp/ccaaV0f9.s:2965   .debug_str:0000000000000296 .LASF81
     /tmp/ccaaV0f9.s:3105   .debug_str:00000000000006a2 .LASF82
     /tmp/ccaaV0f9.s:3043   .debug_str:00000000000004f2 .LASF83
     /tmp/ccaaV0f9.s:2963   .debug_str:0000000000000291 .LASF84
     /tmp/ccaaV0f9.s:2987   .debug_str:000000000000033b .LASF85
     /tmp/ccaaV0f9.s:3067   .debug_str:0000000000000592 .LASF86
     /tmp/ccaaV0f9.s:2897   .debug_str:00000000000000d6 .LASF87
     /tmp/ccaaV0f9.s:3083   .debug_str:00000000000005f9 .LASF88
     /tmp/ccaaV0f9.s:3001   .debug_str:000000000000038b .LASF89
     /tmp/ccaaV0f9.s:2953   .debug_str:0000000000000246 .LASF90
     /tmp/ccaaV0f9.s:2975   .debug_str:00000000000002dc .LASF91
     /tmp/ccaaV0f9.s:3159   .debug_str:00000000000008e9 .LASF92
     /tmp/ccaaV0f9.s:3133   .debug_str:000000000000081a .LASF93
     /tmp/ccaaV0f9.s:2935   .debug_str:00000000000001bb .LASF94
     /tmp/ccaaV0f9.s:2887   .debug_str:0000000000000063 .LASF95
     /tmp/ccaaV0f9.s:2997   .debug_str:0000000000000379 .LASF97
     /tmp/ccaaV0f9.s:2999   .debug_str:0000000000000385 .LASF98
     /tmp/ccaaV0f9.s:3097   .debug_str:0000000000000650 .LASF99
     /tmp/ccaaV0f9.s:2907   .debug_str:0000000000000110 .LASF100
     /tmp/ccaaV0f9.s:3005   .debug_str:00000000000003bd .LASF101
     /tmp/ccaaV0f9.s:2929   .debug_str:0000000000000195 .LASF102
     /tmp/ccaaV0f9.s:3011   .debug_str:00000000000003fc .LASF103
     /tmp/ccaaV0f9.s:2901   .debug_str:00000000000000f1 .LASF104
     /tmp/ccaaV0f9.s:2909   .debug_str:0000000000000118 .LASF105
     /tmp/ccaaV0f9.s:3161   .debug_str:00000000000008f9 .LASF106
     /tmp/ccaaV0f9.s:3091   .debug_str:000000000000063f .LASF107
     /tmp/ccaaV0f9.s:2955   .debug_str:0000000000000252 .LASF108
     /tmp/ccaaV0f9.s:2983   .debug_str:000000000000031c .LASF109
     /tmp/ccaaV0f9.s:2899   .debug_str:00000000000000e7 .LASF110
     /tmp/ccaaV0f9.s:3047   .debug_str:0000000000000510 .LASF111
     /tmp/ccaaV0f9.s:2967   .debug_str:000000000000029b .LASF112
     /tmp/ccaaV0f9.s:3023   .debug_str:0000000000000456 .LASF113
     /tmp/ccaaV0f9.s:3059   .debug_str:0000000000000560 .LASF114
     /tmp/ccaaV0f9.s:3169   .debug_str:000000000000093e .LASF146
     /tmp/ccaaV0f9.s:3103   .debug_str:0000000000000691 .LASF147
     /tmp/ccaaV0f9.s:2895   .debug_str:00000000000000cf .LASF115
     /tmp/ccaaV0f9.s:3117   .debug_str:00000000000006f6 .LASF116
     /tmp/ccaaV0f9.s:255    .text:00000000000001b8 .LFB23
     /tmp/ccaaV0f9.s:336    .text:0000000000000240 .LFE23
     /tmp/ccaaV0f9.s:3093   .debug_str:0000000000000646 .LASF117
     /tmp/ccaaV0f9.s:2712   .debug_loc:0000000000000000 .LLST6
     /tmp/ccaaV0f9.s:2734   .debug_loc:000000000000005f .LLST7
     /tmp/ccaaV0f9.s:278    .text:00000000000001e0 .LVL26
     /tmp/ccaaV0f9.s:283    .text:00000000000001ec .LVL27
     /tmp/ccaaV0f9.s:300    .text:0000000000000208 .LVL29
     /tmp/ccaaV0f9.s:305    .text:0000000000000214 .LVL30
GAS LISTING /tmp/ccaaV0f9.s 			page 18


     /tmp/ccaaV0f9.s:173    .text:000000000000012c .LFB22
     /tmp/ccaaV0f9.s:249    .text:00000000000001b8 .LFE22
     /tmp/ccaaV0f9.s:2741   .debug_loc:0000000000000082 .LLST4
     /tmp/ccaaV0f9.s:2759   .debug_loc:00000000000000ce .LLST5
     /tmp/ccaaV0f9.s:195    .text:0000000000000154 .LVL17
     /tmp/ccaaV0f9.s:200    .text:0000000000000160 .LVL18
     /tmp/ccaaV0f9.s:225    .text:0000000000000190 .LVL20
     /tmp/ccaaV0f9.s:230    .text:000000000000019c .LVL21
     /tmp/ccaaV0f9.s:93     .text:000000000000009c .LFB21
     /tmp/ccaaV0f9.s:167    .text:000000000000012c .LFE21
     /tmp/ccaaV0f9.s:2770   .debug_loc:0000000000000104 .LLST2
     /tmp/ccaaV0f9.s:2788   .debug_loc:0000000000000150 .LLST3
     /tmp/ccaaV0f9.s:116    .text:00000000000000c8 .LVL10
     /tmp/ccaaV0f9.s:121    .text:00000000000000d4 .LVL11
     /tmp/ccaaV0f9.s:146    .text:0000000000000108 .LVL12
     /tmp/ccaaV0f9.s:151    .text:0000000000000114 .LVL13
     /tmp/ccaaV0f9.s:3081   .debug_str:00000000000005ef .LASF118
     /tmp/ccaaV0f9.s:3065   .debug_str:000000000000058d .LASF119
     /tmp/ccaaV0f9.s:3135   .debug_str:0000000000000835 .LASF120
     /tmp/ccaaV0f9.s:347    .text:0000000000000240 .LFB19
     /tmp/ccaaV0f9.s:464    .text:0000000000000320 .LFE19
     /tmp/ccaaV0f9.s:2802   .debug_loc:0000000000000189 .LLST8
     /tmp/ccaaV0f9.s:399    .text:00000000000002a0 .LVL40
     /tmp/ccaaV0f9.s:385    .text:0000000000000284 .LBB4
     /tmp/ccaaV0f9.s:411    .text:00000000000002b4 .LBE4
     /tmp/ccaaV0f9.s:2820   .debug_loc:00000000000001d5 .LLST9
     /tmp/ccaaV0f9.s:370    .text:0000000000000264 .LVL36
     /tmp/ccaaV0f9.s:375    .text:0000000000000274 .LVL37
     /tmp/ccaaV0f9.s:382    .text:0000000000000280 .LVL38
     /tmp/ccaaV0f9.s:419    .text:00000000000002c4 .LVL41
     /tmp/ccaaV0f9.s:424    .text:00000000000002d0 .LVL42
     /tmp/ccaaV0f9.s:429    .text:00000000000002dc .LVL43
     /tmp/ccaaV0f9.s:434    .text:00000000000002e8 .LVL44
     /tmp/ccaaV0f9.s:439    .text:00000000000002f4 .LVL45
     /tmp/ccaaV0f9.s:444    .text:0000000000000300 .LVL46
     /tmp/ccaaV0f9.s:449    .text:000000000000030c .LVL47
     /tmp/ccaaV0f9.s:2921   .debug_str:0000000000000159 .LASF148
     /tmp/ccaaV0f9.s:3009   .debug_str:00000000000003ed .LASF121
     /tmp/ccaaV0f9.s:10     .text:0000000000000000 .LFB16
     /tmp/ccaaV0f9.s:85     .text:000000000000009c .LFE16
     /tmp/ccaaV0f9.s:2828   .debug_loc:00000000000001f9 .LLST0
     /tmp/ccaaV0f9.s:2846   .debug_loc:0000000000000245 .LLST1
     /tmp/ccaaV0f9.s:42     .text:0000000000000040 .LVL2
     /tmp/ccaaV0f9.s:50     .text:0000000000000054 .LVL3
     /tmp/ccaaV0f9.s:56     .text:0000000000000064 .LVL4
     /tmp/ccaaV0f9.s:62     .text:0000000000000074 .LVL5
     /tmp/ccaaV0f9.s:68     .text:0000000000000084 .LVL6
     /tmp/ccaaV0f9.s:3077   .debug_str:00000000000005cf .LASF122
     /tmp/ccaaV0f9.s:3151   .debug_str:00000000000008b5 .LASF124
     /tmp/ccaaV0f9.s:3021   .debug_str:0000000000000442 .LASF123
     /tmp/ccaaV0f9.s:2943   .debug_str:00000000000001f4 .LASF125
     /tmp/ccaaV0f9.s:2969   .debug_str:00000000000002aa .LASF126
     /tmp/ccaaV0f9.s:2917   .debug_str:0000000000000148 .LASF127
     /tmp/ccaaV0f9.s:3165   .debug_str:0000000000000920 .LASF128
     /tmp/ccaaV0f9.s:2883   .debug_str:000000000000004c .LASF129
     /tmp/ccaaV0f9.s:3073   .debug_str:00000000000005b5 .LASF130
     /tmp/ccaaV0f9.s:2951   .debug_str:000000000000023d .LASF131
GAS LISTING /tmp/ccaaV0f9.s 			page 19


     /tmp/ccaaV0f9.s:2877   .debug_str:0000000000000008 .LASF132
     /tmp/ccaaV0f9.s:3121   .debug_str:0000000000000717 .LASF133
     /tmp/ccaaV0f9.s:3153   .debug_str:00000000000008be .LASF134
     /tmp/ccaaV0f9.s:3111   .debug_str:00000000000006d1 .LASF135
     /tmp/ccaaV0f9.s:3049   .debug_str:000000000000051a .LASF136
     /tmp/ccaaV0f9.s:2961   .debug_str:0000000000000288 .LASF137
     /tmp/ccaaV0f9.s:258    .text:00000000000001b8 .LVL24
     /tmp/ccaaV0f9.s:276    .text:00000000000001d8 .LVL25
     /tmp/ccaaV0f9.s:317    .text:0000000000000224 .LVL31
     /tmp/ccaaV0f9.s:324    .text:0000000000000230 .LVL33
     /tmp/ccaaV0f9.s:294    .text:00000000000001fc .LVL28
     /tmp/ccaaV0f9.s:320    .text:0000000000000228 .LVL32
     /tmp/ccaaV0f9.s:176    .text:000000000000012c .LVL15
     /tmp/ccaaV0f9.s:193    .text:000000000000014c .LVL16
     /tmp/ccaaV0f9.s:241    .text:00000000000001ac .LVL22
     /tmp/ccaaV0f9.s:211    .text:0000000000000174 .LVL19
     /tmp/ccaaV0f9.s:244    .text:00000000000001b0 .LVL23
     /tmp/ccaaV0f9.s:96     .text:000000000000009c .LVL8
     /tmp/ccaaV0f9.s:114    .text:00000000000000c0 .LVL9
     /tmp/ccaaV0f9.s:160    .text:0000000000000120 .LVL14
     /tmp/ccaaV0f9.s:352    .text:0000000000000240 .LVL34
     /tmp/ccaaV0f9.s:368    .text:000000000000025c .LVL35
     /tmp/ccaaV0f9.s:459    .text:0000000000000318 .LVL48
     /tmp/ccaaV0f9.s:394    .text:0000000000000294 .LVL39
     /tmp/ccaaV0f9.s:14     .text:0000000000000000 .LVL0
     /tmp/ccaaV0f9.s:33     .text:0000000000000028 .LVL1
     /tmp/ccaaV0f9.s:78     .text:0000000000000090 .LVL7
     /tmp/ccaaV0f9.s:485    .debug_info:0000000000000000 .Ldebug_info0
     /tmp/ccaaV0f9.s:467    .gcc_except_table:0000000000000000 .LLSDA19

UNDEFINED SYMBOLS
_Z9mem_allocm
_Z8sem_openPP3SCBj
_Z8sem_waitP3SCB
_Z10sem_signalP3SCB
_Z4putcc
_Z11printStringPKc
_Z8mem_freePv
_Z9sem_closeP3SCB
__gxx_personality_v0
