GAS LISTING /tmp/ccrmM61Q.s 			page 1


   1              		.file	"buffer_CPP_API.cpp"
   2              		.option pic
   3              		.option norelax
   4              		.text
   5              	.Ltext0:
   6              		.align	2
   7              		.globl	_ZN9BufferCPPC2Ei
   9              	_ZN9BufferCPPC2Ei:
  10              	.LFB19:
  11              		.file 1 "test/buffer_CPP_API.cpp"
   1:test/buffer_CPP_API.cpp **** #include "buffer_CPP_API.hpp"
   2:test/buffer_CPP_API.cpp **** 
   3:test/buffer_CPP_API.cpp **** BufferCPP::BufferCPP(int _cap) : cap(_cap + 1), head(0), tail(0) {
  12              		.loc 1 3 1
  13              		.cfi_startproc
  14              		.cfi_personality 0x9b,DW.ref.__gxx_personality_v0
  15              		.cfi_lsda 0x1b,.LLSDA19
  16              	.LVL0:
  17 0000 130101FD 		addi	sp,sp,-48
  18              		.cfi_def_cfa_offset 48
  19 0004 23341102 		sd	ra,40(sp)
  20 0008 23308102 		sd	s0,32(sp)
  21 000c 233C9100 		sd	s1,24(sp)
  22 0010 23382101 		sd	s2,16(sp)
  23 0014 23343101 		sd	s3,8(sp)
  24              		.cfi_offset 1, -8
  25              		.cfi_offset 8, -16
  26              		.cfi_offset 9, -24
  27              		.cfi_offset 18, -32
  28              		.cfi_offset 19, -40
  29 0018 13040103 		addi	s0,sp,48
  30              		.cfi_def_cfa 8, 0
  31 001c 93040500 		mv	s1,a0
  32 0020 93890500 		mv	s3,a1
  33              	.LBB2:
  34              		.loc 1 3 43 is_stmt 0
  35 0024 9B871500 		addiw	a5,a1,1
  36 0028 1B850700 		sext.w	a0,a5
  37              	.LVL1:
  38              		.loc 1 3 64
  39 002c 23A0F400 		sw	a5,0(s1)
  40 0030 23A80400 		sw	zero,16(s1)
  41 0034 23AA0400 		sw	zero,20(s1)
   4:test/buffer_CPP_API.cpp ****     buffer = (int *)mem_alloc(sizeof(int) * cap);
  42              		.loc 1 4 5 is_stmt 1
  43              		.loc 1 4 30 is_stmt 0
  44 0038 13152500 		slli	a0,a0,2
  45              	.LEHB0:
  46 003c 97000000 		call	_Z9mem_allocm@plt
  46      E7800000 
  47              	.LVL2:
  48              		.loc 1 4 12
  49 0044 23B4A400 		sd	a0,8(s1)
   5:test/buffer_CPP_API.cpp ****     itemAvailable = new Semaphore(0);
  50              		.loc 1 5 5 is_stmt 1
  51              		.loc 1 5 36 is_stmt 0
  52 0048 13050001 		li	a0,16
GAS LISTING /tmp/ccrmM61Q.s 			page 2


  53 004c 97000000 		call	_ZN9SemaphorenwEm@plt
  53      E7800000 
  54              	.LVL3:
  55              	.LEHE0:
  56 0054 13090500 		mv	s2,a0
  57 0058 63080500 		beqz	a0,.L2
  58              		.loc 1 5 36 discriminator 1
  59 005c 93050000 		li	a1,0
  60              	.LEHB1:
  61 0060 97000000 		call	_ZN9SemaphoreC1Ej@plt
  61      E7800000 
  62              	.LVL4:
  63              	.LEHE1:
  64              	.L2:
  65              		.loc 1 5 19 discriminator 6
  66 0068 23B02403 		sd	s2,32(s1)
   6:test/buffer_CPP_API.cpp ****     spaceAvailable = new Semaphore(_cap);
  67              		.loc 1 6 5 is_stmt 1 discriminator 6
  68              		.loc 1 6 40 is_stmt 0 discriminator 6
  69 006c 13050001 		li	a0,16
  70              	.LEHB2:
  71 0070 97000000 		call	_ZN9SemaphorenwEm@plt
  71      E7800000 
  72              	.LVL5:
  73              	.LEHE2:
  74 0078 13090500 		mv	s2,a0
  75 007c 63080500 		beqz	a0,.L3
  76              		.loc 1 6 40 discriminator 1
  77 0080 93850900 		mv	a1,s3
  78              	.LEHB3:
  79 0084 97000000 		call	_ZN9SemaphoreC1Ej@plt
  79      E7800000 
  80              	.LVL6:
  81              	.LEHE3:
  82              	.L3:
  83              		.loc 1 6 20 discriminator 6
  84 008c 23BC2401 		sd	s2,24(s1)
   7:test/buffer_CPP_API.cpp ****     mutexHead = new Semaphore(1);
  85              		.loc 1 7 5 is_stmt 1 discriminator 6
  86              		.loc 1 7 32 is_stmt 0 discriminator 6
  87 0090 13050001 		li	a0,16
  88              	.LEHB4:
  89 0094 97000000 		call	_ZN9SemaphorenwEm@plt
  89      E7800000 
  90              	.LVL7:
  91              	.LEHE4:
  92 009c 13090500 		mv	s2,a0
  93 00a0 63080500 		beqz	a0,.L4
  94              		.loc 1 7 32 discriminator 1
  95 00a4 93051000 		li	a1,1
  96              	.LEHB5:
  97 00a8 97000000 		call	_ZN9SemaphoreC1Ej@plt
  97      E7800000 
  98              	.LVL8:
  99              	.LEHE5:
 100              	.L4:
 101              		.loc 1 7 15 discriminator 6
GAS LISTING /tmp/ccrmM61Q.s 			page 3


 102 00b0 23B42403 		sd	s2,40(s1)
   8:test/buffer_CPP_API.cpp ****     mutexTail = new Semaphore(1);
 103              		.loc 1 8 5 is_stmt 1 discriminator 6
 104              		.loc 1 8 32 is_stmt 0 discriminator 6
 105 00b4 13050001 		li	a0,16
 106              	.LEHB6:
 107 00b8 97000000 		call	_ZN9SemaphorenwEm@plt
 107      E7800000 
 108              	.LVL9:
 109              	.LEHE6:
 110 00c0 13090500 		mv	s2,a0
 111 00c4 63080500 		beqz	a0,.L5
 112              		.loc 1 8 32 discriminator 1
 113 00c8 93051000 		li	a1,1
 114              	.LEHB7:
 115 00cc 97000000 		call	_ZN9SemaphoreC1Ej@plt
 115      E7800000 
 116              	.LVL10:
 117              	.LEHE7:
 118              	.L5:
 119              		.loc 1 8 15 discriminator 6
 120 00d4 23B82403 		sd	s2,48(s1)
 121              	.LBE2:
   9:test/buffer_CPP_API.cpp **** }
 122              		.loc 1 9 1 discriminator 6
 123 00d8 83308102 		ld	ra,40(sp)
 124              		.cfi_remember_state
 125              		.cfi_restore 1
 126 00dc 03340102 		ld	s0,32(sp)
 127              		.cfi_restore 8
 128              		.cfi_def_cfa 2, 48
 129 00e0 83348101 		ld	s1,24(sp)
 130              		.cfi_restore 9
 131              	.LVL11:
 132 00e4 03390101 		ld	s2,16(sp)
 133              		.cfi_restore 18
 134 00e8 83398100 		ld	s3,8(sp)
 135              		.cfi_restore 19
 136 00ec 13010103 		addi	sp,sp,48
 137              		.cfi_def_cfa_offset 0
 138 00f0 67800000 		jr	ra
 139              	.LVL12:
 140              	.L10:
 141              		.cfi_restore_state
 142 00f4 93040500 		mv	s1,a0
 143              	.LVL13:
 144              	.LBB3:
   5:test/buffer_CPP_API.cpp ****     spaceAvailable = new Semaphore(_cap);
 145              		.loc 1 5 36
 146 00f8 13050900 		mv	a0,s2
 147 00fc 97000000 		call	_ZN9SemaphoredlEPv@plt
 147      E7800000 
 148              	.LVL14:
 149 0104 13850400 		mv	a0,s1
 150              	.LEHB8:
 151 0108 97000000 		call	_Unwind_Resume@plt
 151      E7800000 
GAS LISTING /tmp/ccrmM61Q.s 			page 4


 152              	.LVL15:
 153              	.LEHE8:
 154              	.L11:
 155 0110 93040500 		mv	s1,a0
 156              	.LVL16:
   6:test/buffer_CPP_API.cpp ****     mutexHead = new Semaphore(1);
 157              		.loc 1 6 40
 158 0114 13050900 		mv	a0,s2
 159 0118 97000000 		call	_ZN9SemaphoredlEPv@plt
 159      E7800000 
 160              	.LVL17:
 161 0120 13850400 		mv	a0,s1
 162              	.LEHB9:
 163 0124 97000000 		call	_Unwind_Resume@plt
 163      E7800000 
 164              	.LVL18:
 165              	.LEHE9:
 166              	.L12:
 167 012c 93040500 		mv	s1,a0
 168              	.LVL19:
   7:test/buffer_CPP_API.cpp ****     mutexTail = new Semaphore(1);
 169              		.loc 1 7 32
 170 0130 13050900 		mv	a0,s2
 171 0134 97000000 		call	_ZN9SemaphoredlEPv@plt
 171      E7800000 
 172              	.LVL20:
 173 013c 13850400 		mv	a0,s1
 174              	.LEHB10:
 175 0140 97000000 		call	_Unwind_Resume@plt
 175      E7800000 
 176              	.LVL21:
 177              	.LEHE10:
 178              	.L13:
 179 0148 93040500 		mv	s1,a0
 180              	.LVL22:
   8:test/buffer_CPP_API.cpp **** }
 181              		.loc 1 8 32
 182 014c 13050900 		mv	a0,s2
 183 0150 97000000 		call	_ZN9SemaphoredlEPv@plt
 183      E7800000 
 184              	.LVL23:
 185 0158 13850400 		mv	a0,s1
 186              	.LEHB11:
 187 015c 97000000 		call	_Unwind_Resume@plt
 187      E7800000 
 188              	.LVL24:
 189              	.LEHE11:
 190              	.LBE3:
 191              		.cfi_endproc
 192              	.LFE19:
 193              		.globl	__gxx_personality_v0
 194              		.section	.gcc_except_table,"a",@progbits
 195              	.LLSDA19:
 196 0000 FF       		.byte	0xff
 197 0001 FF       		.byte	0xff
 198 0002 03       		.byte	0x3
 199 0003 9C01     		.byte	0x9c,0x1
GAS LISTING /tmp/ccrmM61Q.s 			page 5


 200 0005 00000000 		.4byte	.LEHB0-.LFB19
 201 0009 00000000 		.4byte	.LEHE0-.LEHB0
 202 000d 00000000 		.4byte	0
 203 0011 00       		.byte	0
 204 0012 00000000 		.4byte	.LEHB1-.LFB19
 205 0016 00000000 		.4byte	.LEHE1-.LEHB1
 206 001a 00000000 		.4byte	.L10-.LFB19
 207 001e 00       		.byte	0
 208 001f 00000000 		.4byte	.LEHB2-.LFB19
 209 0023 00000000 		.4byte	.LEHE2-.LEHB2
 210 0027 00000000 		.4byte	0
 211 002b 00       		.byte	0
 212 002c 00000000 		.4byte	.LEHB3-.LFB19
 213 0030 00000000 		.4byte	.LEHE3-.LEHB3
 214 0034 00000000 		.4byte	.L11-.LFB19
 215 0038 00       		.byte	0
 216 0039 00000000 		.4byte	.LEHB4-.LFB19
 217 003d 00000000 		.4byte	.LEHE4-.LEHB4
 218 0041 00000000 		.4byte	0
 219 0045 00       		.byte	0
 220 0046 00000000 		.4byte	.LEHB5-.LFB19
 221 004a 00000000 		.4byte	.LEHE5-.LEHB5
 222 004e 00000000 		.4byte	.L12-.LFB19
 223 0052 00       		.byte	0
 224 0053 00000000 		.4byte	.LEHB6-.LFB19
 225 0057 00000000 		.4byte	.LEHE6-.LEHB6
 226 005b 00000000 		.4byte	0
 227 005f 00       		.byte	0
 228 0060 00000000 		.4byte	.LEHB7-.LFB19
 229 0064 00000000 		.4byte	.LEHE7-.LEHB7
 230 0068 00000000 		.4byte	.L13-.LFB19
 231 006c 00       		.byte	0
 232 006d 00000000 		.4byte	.LEHB8-.LFB19
 233 0071 00000000 		.4byte	.LEHE8-.LEHB8
 234 0075 00000000 		.4byte	0
 235 0079 00       		.byte	0
 236 007a 00000000 		.4byte	.LEHB9-.LFB19
 237 007e 00000000 		.4byte	.LEHE9-.LEHB9
 238 0082 00000000 		.4byte	0
 239 0086 00       		.byte	0
 240 0087 00000000 		.4byte	.LEHB10-.LFB19
 241 008b 00000000 		.4byte	.LEHE10-.LEHB10
 242 008f 00000000 		.4byte	0
 243 0093 00       		.byte	0
 244 0094 00000000 		.4byte	.LEHB11-.LFB19
 245 0098 00000000 		.4byte	.LEHE11-.LEHB11
 246 009c 00000000 		.4byte	0
 247 00a0 00       		.byte	0
 248              		.text
 250              		.globl	_ZN9BufferCPPC1Ei
 251              		.set	_ZN9BufferCPPC1Ei,_ZN9BufferCPPC2Ei
 252              		.align	2
 253              		.globl	_ZN9BufferCPP3putEi
 255              	_ZN9BufferCPP3putEi:
 256              	.LFB24:
  10:test/buffer_CPP_API.cpp **** 
  11:test/buffer_CPP_API.cpp **** BufferCPP::~BufferCPP() {
GAS LISTING /tmp/ccrmM61Q.s 			page 6


  12:test/buffer_CPP_API.cpp ****     Console::putc('\n');
  13:test/buffer_CPP_API.cpp ****     printString("Buffer deleted!\n");
  14:test/buffer_CPP_API.cpp ****     while (getCnt()) {
  15:test/buffer_CPP_API.cpp ****         char ch = buffer[head];
  16:test/buffer_CPP_API.cpp ****         Console::putc(ch);
  17:test/buffer_CPP_API.cpp ****         head = (head + 1) % cap;
  18:test/buffer_CPP_API.cpp ****     }
  19:test/buffer_CPP_API.cpp ****     Console::putc('!');
  20:test/buffer_CPP_API.cpp ****     Console::putc('\n');
  21:test/buffer_CPP_API.cpp **** 
  22:test/buffer_CPP_API.cpp ****     mem_free(buffer);
  23:test/buffer_CPP_API.cpp ****     delete itemAvailable;
  24:test/buffer_CPP_API.cpp ****     delete spaceAvailable;
  25:test/buffer_CPP_API.cpp ****     delete mutexTail;
  26:test/buffer_CPP_API.cpp ****     delete mutexHead;
  27:test/buffer_CPP_API.cpp **** 
  28:test/buffer_CPP_API.cpp **** }
  29:test/buffer_CPP_API.cpp **** 
  30:test/buffer_CPP_API.cpp **** void BufferCPP::put(int val) {
 257              		.loc 1 30 30 is_stmt 1
 258              		.cfi_startproc
 259              	.LVL25:
 260 0164 130101FE 		addi	sp,sp,-32
 261              		.cfi_def_cfa_offset 32
 262 0168 233C1100 		sd	ra,24(sp)
 263 016c 23388100 		sd	s0,16(sp)
 264 0170 23349100 		sd	s1,8(sp)
 265 0174 23302101 		sd	s2,0(sp)
 266              		.cfi_offset 1, -8
 267              		.cfi_offset 8, -16
 268              		.cfi_offset 9, -24
 269              		.cfi_offset 18, -32
 270 0178 13040102 		addi	s0,sp,32
 271              		.cfi_def_cfa 8, 0
 272 017c 93040500 		mv	s1,a0
 273 0180 13890500 		mv	s2,a1
  31:test/buffer_CPP_API.cpp ****     spaceAvailable->wait();
 274              		.loc 1 31 5
 275              		.loc 1 31 25 is_stmt 0
 276 0184 03358501 		ld	a0,24(a0)
 277              	.LVL26:
 278 0188 97000000 		call	_ZN9Semaphore4waitEv@plt
 278      E7800000 
 279              	.LVL27:
  32:test/buffer_CPP_API.cpp **** 
  33:test/buffer_CPP_API.cpp ****     mutexTail->wait();
 280              		.loc 1 33 5 is_stmt 1
 281              		.loc 1 33 20 is_stmt 0
 282 0190 03B50403 		ld	a0,48(s1)
 283 0194 97000000 		call	_ZN9Semaphore4waitEv@plt
 283      E7800000 
 284              	.LVL28:
  34:test/buffer_CPP_API.cpp ****     buffer[tail] = val;
 285              		.loc 1 34 5 is_stmt 1
 286 019c 83B78400 		ld	a5,8(s1)
 287              		.loc 1 34 12 is_stmt 0
 288 01a0 03A74401 		lw	a4,20(s1)
GAS LISTING /tmp/ccrmM61Q.s 			page 7


 289              		.loc 1 34 16
 290 01a4 13172700 		slli	a4,a4,2
 291 01a8 B387E700 		add	a5,a5,a4
 292              		.loc 1 34 18
 293 01ac 23A02701 		sw	s2,0(a5)
  35:test/buffer_CPP_API.cpp ****     tail = (tail + 1) % cap;
 294              		.loc 1 35 5 is_stmt 1
 295              		.loc 1 35 13 is_stmt 0
 296 01b0 83A74401 		lw	a5,20(s1)
 297              		.loc 1 35 18
 298 01b4 9B871700 		addiw	a5,a5,1
 299              		.loc 1 35 25
 300 01b8 03A70400 		lw	a4,0(s1)
 301              		.loc 1 35 23
 302 01bc BBE7E702 		remw	a5,a5,a4
 303              		.loc 1 35 10
 304 01c0 23AAF400 		sw	a5,20(s1)
  36:test/buffer_CPP_API.cpp ****     mutexTail->signal();
 305              		.loc 1 36 5 is_stmt 1
 306              		.loc 1 36 22 is_stmt 0
 307 01c4 03B50403 		ld	a0,48(s1)
 308 01c8 97000000 		call	_ZN9Semaphore6signalEv@plt
 308      E7800000 
 309              	.LVL29:
  37:test/buffer_CPP_API.cpp **** 
  38:test/buffer_CPP_API.cpp ****     itemAvailable->signal();
 310              		.loc 1 38 5 is_stmt 1
 311              		.loc 1 38 26 is_stmt 0
 312 01d0 03B50402 		ld	a0,32(s1)
 313 01d4 97000000 		call	_ZN9Semaphore6signalEv@plt
 313      E7800000 
 314              	.LVL30:
  39:test/buffer_CPP_API.cpp **** 
  40:test/buffer_CPP_API.cpp **** }
 315              		.loc 1 40 1
 316 01dc 83308101 		ld	ra,24(sp)
 317              		.cfi_restore 1
 318 01e0 03340101 		ld	s0,16(sp)
 319              		.cfi_restore 8
 320              		.cfi_def_cfa 2, 32
 321 01e4 83348100 		ld	s1,8(sp)
 322              		.cfi_restore 9
 323              	.LVL31:
 324 01e8 03390100 		ld	s2,0(sp)
 325              		.cfi_restore 18
 326 01ec 13010102 		addi	sp,sp,32
 327              		.cfi_def_cfa_offset 0
 328 01f0 67800000 		jr	ra
 329              		.cfi_endproc
 330              	.LFE24:
 332              		.align	2
 333              		.globl	_ZN9BufferCPP3getEv
 335              	_ZN9BufferCPP3getEv:
 336              	.LFB25:
  41:test/buffer_CPP_API.cpp **** 
  42:test/buffer_CPP_API.cpp **** int BufferCPP::get() {
 337              		.loc 1 42 22 is_stmt 1
GAS LISTING /tmp/ccrmM61Q.s 			page 8


 338              		.cfi_startproc
 339              	.LVL32:
 340 01f4 130101FE 		addi	sp,sp,-32
 341              		.cfi_def_cfa_offset 32
 342 01f8 233C1100 		sd	ra,24(sp)
 343 01fc 23388100 		sd	s0,16(sp)
 344 0200 23349100 		sd	s1,8(sp)
 345 0204 23302101 		sd	s2,0(sp)
 346              		.cfi_offset 1, -8
 347              		.cfi_offset 8, -16
 348              		.cfi_offset 9, -24
 349              		.cfi_offset 18, -32
 350 0208 13040102 		addi	s0,sp,32
 351              		.cfi_def_cfa 8, 0
 352 020c 93040500 		mv	s1,a0
  43:test/buffer_CPP_API.cpp ****     itemAvailable->wait();
 353              		.loc 1 43 5
 354              		.loc 1 43 24 is_stmt 0
 355 0210 03350502 		ld	a0,32(a0)
 356              	.LVL33:
 357 0214 97000000 		call	_ZN9Semaphore4waitEv@plt
 357      E7800000 
 358              	.LVL34:
  44:test/buffer_CPP_API.cpp **** 
  45:test/buffer_CPP_API.cpp ****     mutexHead->wait();
 359              		.loc 1 45 5 is_stmt 1
 360              		.loc 1 45 20 is_stmt 0
 361 021c 03B58402 		ld	a0,40(s1)
 362 0220 97000000 		call	_ZN9Semaphore4waitEv@plt
 362      E7800000 
 363              	.LVL35:
  46:test/buffer_CPP_API.cpp **** 
  47:test/buffer_CPP_API.cpp ****     int ret = buffer[head];
 364              		.loc 1 47 5 is_stmt 1
 365              		.loc 1 47 15 is_stmt 0
 366 0228 03B78400 		ld	a4,8(s1)
 367              		.loc 1 47 22
 368 022c 83A70401 		lw	a5,16(s1)
 369              		.loc 1 47 26
 370 0230 93962700 		slli	a3,a5,2
 371 0234 3307D700 		add	a4,a4,a3
 372              		.loc 1 47 9
 373 0238 03290700 		lw	s2,0(a4)
 374              	.LVL36:
  48:test/buffer_CPP_API.cpp ****     head = (head + 1) % cap;
 375              		.loc 1 48 5 is_stmt 1
 376              		.loc 1 48 18 is_stmt 0
 377 023c 9B871700 		addiw	a5,a5,1
 378              		.loc 1 48 25
 379 0240 03A70400 		lw	a4,0(s1)
 380              		.loc 1 48 23
 381 0244 BBE7E702 		remw	a5,a5,a4
 382              		.loc 1 48 10
 383 0248 23A8F400 		sw	a5,16(s1)
  49:test/buffer_CPP_API.cpp ****     mutexHead->signal();
 384              		.loc 1 49 5 is_stmt 1
 385              		.loc 1 49 22 is_stmt 0
GAS LISTING /tmp/ccrmM61Q.s 			page 9


 386 024c 03B58402 		ld	a0,40(s1)
 387 0250 97000000 		call	_ZN9Semaphore6signalEv@plt
 387      E7800000 
 388              	.LVL37:
  50:test/buffer_CPP_API.cpp **** 
  51:test/buffer_CPP_API.cpp ****     spaceAvailable->signal();
 389              		.loc 1 51 5 is_stmt 1
 390              		.loc 1 51 27 is_stmt 0
 391 0258 03B58401 		ld	a0,24(s1)
 392 025c 97000000 		call	_ZN9Semaphore6signalEv@plt
 392      E7800000 
 393              	.LVL38:
  52:test/buffer_CPP_API.cpp **** 
  53:test/buffer_CPP_API.cpp ****     return ret;
 394              		.loc 1 53 5 is_stmt 1
  54:test/buffer_CPP_API.cpp **** }
 395              		.loc 1 54 1 is_stmt 0
 396 0264 13050900 		mv	a0,s2
 397 0268 83308101 		ld	ra,24(sp)
 398              		.cfi_restore 1
 399 026c 03340101 		ld	s0,16(sp)
 400              		.cfi_restore 8
 401              		.cfi_def_cfa 2, 32
 402 0270 83348100 		ld	s1,8(sp)
 403              		.cfi_restore 9
 404              	.LVL39:
 405 0274 03390100 		ld	s2,0(sp)
 406              		.cfi_restore 18
 407              	.LVL40:
 408 0278 13010102 		addi	sp,sp,32
 409              		.cfi_def_cfa_offset 0
 410 027c 67800000 		jr	ra
 411              		.cfi_endproc
 412              	.LFE25:
 414              		.align	2
 415              		.globl	_ZN9BufferCPP6getCntEv
 417              	_ZN9BufferCPP6getCntEv:
 418              	.LFB26:
  55:test/buffer_CPP_API.cpp **** 
  56:test/buffer_CPP_API.cpp **** int BufferCPP::getCnt() {
 419              		.loc 1 56 25 is_stmt 1
 420              		.cfi_startproc
 421              	.LVL41:
 422 0280 130101FE 		addi	sp,sp,-32
 423              		.cfi_def_cfa_offset 32
 424 0284 233C1100 		sd	ra,24(sp)
 425 0288 23388100 		sd	s0,16(sp)
 426 028c 23349100 		sd	s1,8(sp)
 427 0290 23302101 		sd	s2,0(sp)
 428              		.cfi_offset 1, -8
 429              		.cfi_offset 8, -16
 430              		.cfi_offset 9, -24
 431              		.cfi_offset 18, -32
 432 0294 13040102 		addi	s0,sp,32
 433              		.cfi_def_cfa 8, 0
 434 0298 93040500 		mv	s1,a0
  57:test/buffer_CPP_API.cpp ****     int ret;
GAS LISTING /tmp/ccrmM61Q.s 			page 10


 435              		.loc 1 57 5
  58:test/buffer_CPP_API.cpp **** 
  59:test/buffer_CPP_API.cpp ****     mutexHead->wait();
 436              		.loc 1 59 5
 437              		.loc 1 59 20 is_stmt 0
 438 029c 03358502 		ld	a0,40(a0)
 439              	.LVL42:
 440 02a0 97000000 		call	_ZN9Semaphore4waitEv@plt
 440      E7800000 
 441              	.LVL43:
  60:test/buffer_CPP_API.cpp ****     mutexTail->wait();
 442              		.loc 1 60 5 is_stmt 1
 443              		.loc 1 60 20 is_stmt 0
 444 02a8 03B50403 		ld	a0,48(s1)
 445 02ac 97000000 		call	_ZN9Semaphore4waitEv@plt
 445      E7800000 
 446              	.LVL44:
  61:test/buffer_CPP_API.cpp **** 
  62:test/buffer_CPP_API.cpp ****     if (tail >= head) {
 447              		.loc 1 62 5 is_stmt 1
 448              		.loc 1 62 9 is_stmt 0
 449 02b4 83A74401 		lw	a5,20(s1)
 450              		.loc 1 62 17
 451 02b8 03A90401 		lw	s2,16(s1)
 452              		.loc 1 62 5
 453 02bc 63CE2703 		blt	a5,s2,.L21
  63:test/buffer_CPP_API.cpp ****         ret = tail - head;
 454              		.loc 1 63 9 is_stmt 1
 455              		.loc 1 63 13 is_stmt 0
 456 02c0 3B892741 		subw	s2,a5,s2
 457              	.LVL45:
 458              	.L22:
  64:test/buffer_CPP_API.cpp ****     } else {
  65:test/buffer_CPP_API.cpp ****         ret = cap - head + tail;
  66:test/buffer_CPP_API.cpp ****     }
  67:test/buffer_CPP_API.cpp **** 
  68:test/buffer_CPP_API.cpp ****     mutexTail->signal();
 459              		.loc 1 68 5 is_stmt 1
 460              		.loc 1 68 22 is_stmt 0
 461 02c4 03B50403 		ld	a0,48(s1)
 462 02c8 97000000 		call	_ZN9Semaphore6signalEv@plt
 462      E7800000 
 463              	.LVL46:
  69:test/buffer_CPP_API.cpp ****     mutexHead->signal();
 464              		.loc 1 69 5 is_stmt 1
 465              		.loc 1 69 22 is_stmt 0
 466 02d0 03B58402 		ld	a0,40(s1)
 467 02d4 97000000 		call	_ZN9Semaphore6signalEv@plt
 467      E7800000 
 468              	.LVL47:
  70:test/buffer_CPP_API.cpp **** 
  71:test/buffer_CPP_API.cpp ****     return ret;
 469              		.loc 1 71 5 is_stmt 1
  72:test/buffer_CPP_API.cpp **** }
 470              		.loc 1 72 1 is_stmt 0
 471 02dc 13050900 		mv	a0,s2
 472 02e0 83308101 		ld	ra,24(sp)
GAS LISTING /tmp/ccrmM61Q.s 			page 11


 473              		.cfi_remember_state
 474              		.cfi_restore 1
 475 02e4 03340101 		ld	s0,16(sp)
 476              		.cfi_restore 8
 477              		.cfi_def_cfa 2, 32
 478 02e8 83348100 		ld	s1,8(sp)
 479              		.cfi_restore 9
 480              	.LVL48:
 481 02ec 03390100 		ld	s2,0(sp)
 482              		.cfi_restore 18
 483              	.LVL49:
 484 02f0 13010102 		addi	sp,sp,32
 485              		.cfi_def_cfa_offset 0
 486 02f4 67800000 		jr	ra
 487              	.LVL50:
 488              	.L21:
 489              		.cfi_restore_state
  65:test/buffer_CPP_API.cpp ****     }
 490              		.loc 1 65 9 is_stmt 1
  65:test/buffer_CPP_API.cpp ****     }
 491              		.loc 1 65 15 is_stmt 0
 492 02f8 03A70400 		lw	a4,0(s1)
  65:test/buffer_CPP_API.cpp ****     }
 493              		.loc 1 65 19
 494 02fc 3B092741 		subw	s2,a4,s2
  65:test/buffer_CPP_API.cpp ****     }
 495              		.loc 1 65 13
 496 0300 3B09F900 		addw	s2,s2,a5
 497 0304 6FF01FFC 		j	.L22
 498              		.cfi_endproc
 499              	.LFE26:
 501              		.section	.rodata.str1.8,"aMS",@progbits,1
 502              		.align	3
 503              	.LC0:
 504 0000 42756666 		.string	"Buffer deleted!\n"
 504      65722064 
 504      656C6574 
 504      6564210A 
 504      00
 505              		.text
 506              		.align	2
 507              		.globl	_ZN9BufferCPPD2Ev
 509              	_ZN9BufferCPPD2Ev:
 510              	.LFB22:
  11:test/buffer_CPP_API.cpp ****     Console::putc('\n');
 511              		.loc 1 11 1 is_stmt 1
 512              		.cfi_startproc
 513              		.cfi_personality 0x9b,DW.ref.__gxx_personality_v0
 514              		.cfi_lsda 0x1b,.LLSDA22
 515              	.LVL51:
 516 0308 130101FE 		addi	sp,sp,-32
 517              		.cfi_def_cfa_offset 32
 518 030c 233C1100 		sd	ra,24(sp)
 519 0310 23388100 		sd	s0,16(sp)
 520 0314 23349100 		sd	s1,8(sp)
 521              		.cfi_offset 1, -8
 522              		.cfi_offset 8, -16
GAS LISTING /tmp/ccrmM61Q.s 			page 12


 523              		.cfi_offset 9, -24
 524 0318 13040102 		addi	s0,sp,32
 525              		.cfi_def_cfa 8, 0
 526 031c 93040500 		mv	s1,a0
 527              	.LBB4:
  12:test/buffer_CPP_API.cpp ****     printString("Buffer deleted!\n");
 528              		.loc 1 12 5
  12:test/buffer_CPP_API.cpp ****     printString("Buffer deleted!\n");
 529              		.loc 1 12 18 is_stmt 0
 530 0320 1305A000 		li	a0,10
 531              	.LVL52:
 532 0324 97000000 		call	_ZN7Console4putcEc@plt
 532      E7800000 
 533              	.LVL53:
  13:test/buffer_CPP_API.cpp ****     while (getCnt()) {
 534              		.loc 1 13 5 is_stmt 1
  13:test/buffer_CPP_API.cpp ****     while (getCnt()) {
 535              		.loc 1 13 16 is_stmt 0
 536 032c 17050000 		lla	a0,.LC0
 536      13050500 
 537 0334 97000000 		call	_Z11printStringPKc@plt
 537      E7800000 
 538              	.LVL54:
 539              	.L26:
  14:test/buffer_CPP_API.cpp ****         char ch = buffer[head];
 540              		.loc 1 14 5 is_stmt 1
  14:test/buffer_CPP_API.cpp ****         char ch = buffer[head];
 541              		.loc 1 14 19
  14:test/buffer_CPP_API.cpp ****         char ch = buffer[head];
 542              		.loc 1 14 18 is_stmt 0
 543 033c 13850400 		mv	a0,s1
 544 0340 97000000 		call	_ZN9BufferCPP6getCntEv
 544      E7800000 
 545              	.LVL55:
  14:test/buffer_CPP_API.cpp ****         char ch = buffer[head];
 546              		.loc 1 14 19
 547 0348 630C0502 		beqz	a0,.L25
 548              	.LBB5:
  15:test/buffer_CPP_API.cpp ****         Console::putc(ch);
 549              		.loc 1 15 9 is_stmt 1
  15:test/buffer_CPP_API.cpp ****         Console::putc(ch);
 550              		.loc 1 15 19 is_stmt 0
 551 034c 83B78400 		ld	a5,8(s1)
  15:test/buffer_CPP_API.cpp ****         Console::putc(ch);
 552              		.loc 1 15 26
 553 0350 03A70401 		lw	a4,16(s1)
  15:test/buffer_CPP_API.cpp ****         Console::putc(ch);
 554              		.loc 1 15 30
 555 0354 13172700 		slli	a4,a4,2
 556 0358 B387E700 		add	a5,a5,a4
 557              	.LVL56:
  16:test/buffer_CPP_API.cpp ****         head = (head + 1) % cap;
 558              		.loc 1 16 9 is_stmt 1
  16:test/buffer_CPP_API.cpp ****         head = (head + 1) % cap;
 559              		.loc 1 16 22 is_stmt 0
 560 035c 03C50700 		lbu	a0,0(a5)
 561 0360 97000000 		call	_ZN7Console4putcEc@plt
GAS LISTING /tmp/ccrmM61Q.s 			page 13


 561      E7800000 
 562              	.LVL57:
  17:test/buffer_CPP_API.cpp ****     }
 563              		.loc 1 17 9 is_stmt 1
  17:test/buffer_CPP_API.cpp ****     }
 564              		.loc 1 17 17 is_stmt 0
 565 0368 83A70401 		lw	a5,16(s1)
  17:test/buffer_CPP_API.cpp ****     }
 566              		.loc 1 17 22
 567 036c 9B871700 		addiw	a5,a5,1
  17:test/buffer_CPP_API.cpp ****     }
 568              		.loc 1 17 29
 569 0370 03A70400 		lw	a4,0(s1)
  17:test/buffer_CPP_API.cpp ****     }
 570              		.loc 1 17 27
 571 0374 BBE7E702 		remw	a5,a5,a4
  17:test/buffer_CPP_API.cpp ****     }
 572              		.loc 1 17 14
 573 0378 23A8F400 		sw	a5,16(s1)
 574              	.LBE5:
  14:test/buffer_CPP_API.cpp ****         char ch = buffer[head];
 575              		.loc 1 14 5
 576 037c 6FF01FFC 		j	.L26
 577              	.L25:
  19:test/buffer_CPP_API.cpp ****     Console::putc('\n');
 578              		.loc 1 19 5 is_stmt 1
  19:test/buffer_CPP_API.cpp ****     Console::putc('\n');
 579              		.loc 1 19 18 is_stmt 0
 580 0380 13051002 		li	a0,33
 581 0384 97000000 		call	_ZN7Console4putcEc@plt
 581      E7800000 
 582              	.LVL58:
  20:test/buffer_CPP_API.cpp **** 
 583              		.loc 1 20 5 is_stmt 1
  20:test/buffer_CPP_API.cpp **** 
 584              		.loc 1 20 18 is_stmt 0
 585 038c 1305A000 		li	a0,10
 586 0390 97000000 		call	_ZN7Console4putcEc@plt
 586      E7800000 
 587              	.LVL59:
  22:test/buffer_CPP_API.cpp ****     delete itemAvailable;
 588              		.loc 1 22 5 is_stmt 1
  22:test/buffer_CPP_API.cpp ****     delete itemAvailable;
 589              		.loc 1 22 13 is_stmt 0
 590 0398 03B58400 		ld	a0,8(s1)
 591 039c 97000000 		call	_Z8mem_freePv@plt
 591      E7800000 
 592              	.LVL60:
  23:test/buffer_CPP_API.cpp ****     delete spaceAvailable;
 593              		.loc 1 23 5 is_stmt 1
  23:test/buffer_CPP_API.cpp ****     delete spaceAvailable;
 594              		.loc 1 23 12 is_stmt 0
 595 03a4 03B50402 		ld	a0,32(s1)
  23:test/buffer_CPP_API.cpp ****     delete spaceAvailable;
 596              		.loc 1 23 25
 597 03a8 63080500 		beqz	a0,.L27
  23:test/buffer_CPP_API.cpp ****     delete spaceAvailable;
GAS LISTING /tmp/ccrmM61Q.s 			page 14


 598              		.loc 1 23 12 discriminator 1
 599 03ac 83370500 		ld	a5,0(a0)
 600 03b0 83B78700 		ld	a5,8(a5)
 601 03b4 E7800700 		jalr	a5
 602              	.LVL61:
 603              	.L27:
  24:test/buffer_CPP_API.cpp ****     delete mutexTail;
 604              		.loc 1 24 5 is_stmt 1
  24:test/buffer_CPP_API.cpp ****     delete mutexTail;
 605              		.loc 1 24 12 is_stmt 0
 606 03b8 03B58401 		ld	a0,24(s1)
  24:test/buffer_CPP_API.cpp ****     delete mutexTail;
 607              		.loc 1 24 26
 608 03bc 63080500 		beqz	a0,.L28
  24:test/buffer_CPP_API.cpp ****     delete mutexTail;
 609              		.loc 1 24 12 discriminator 1
 610 03c0 83370500 		ld	a5,0(a0)
 611 03c4 83B78700 		ld	a5,8(a5)
 612 03c8 E7800700 		jalr	a5
 613              	.LVL62:
 614              	.L28:
  25:test/buffer_CPP_API.cpp ****     delete mutexHead;
 615              		.loc 1 25 5 is_stmt 1
  25:test/buffer_CPP_API.cpp ****     delete mutexHead;
 616              		.loc 1 25 12 is_stmt 0
 617 03cc 03B50403 		ld	a0,48(s1)
  25:test/buffer_CPP_API.cpp ****     delete mutexHead;
 618              		.loc 1 25 21
 619 03d0 63080500 		beqz	a0,.L29
  25:test/buffer_CPP_API.cpp ****     delete mutexHead;
 620              		.loc 1 25 12 discriminator 1
 621 03d4 83370500 		ld	a5,0(a0)
 622 03d8 83B78700 		ld	a5,8(a5)
 623 03dc E7800700 		jalr	a5
 624              	.LVL63:
 625              	.L29:
  26:test/buffer_CPP_API.cpp **** 
 626              		.loc 1 26 5 is_stmt 1
  26:test/buffer_CPP_API.cpp **** 
 627              		.loc 1 26 12 is_stmt 0
 628 03e0 03B58402 		ld	a0,40(s1)
  26:test/buffer_CPP_API.cpp **** 
 629              		.loc 1 26 21
 630 03e4 63080500 		beqz	a0,.L24
  26:test/buffer_CPP_API.cpp **** 
 631              		.loc 1 26 12 discriminator 1
 632 03e8 83370500 		ld	a5,0(a0)
 633 03ec 83B78700 		ld	a5,8(a5)
 634 03f0 E7800700 		jalr	a5
 635              	.LVL64:
 636              	.L24:
 637              	.LBE4:
  28:test/buffer_CPP_API.cpp **** 
 638              		.loc 1 28 1
 639 03f4 83308101 		ld	ra,24(sp)
 640              		.cfi_restore 1
 641 03f8 03340101 		ld	s0,16(sp)
GAS LISTING /tmp/ccrmM61Q.s 			page 15


 642              		.cfi_restore 8
 643              		.cfi_def_cfa 2, 32
 644 03fc 83348100 		ld	s1,8(sp)
 645              		.cfi_restore 9
 646              	.LVL65:
 647 0400 13010102 		addi	sp,sp,32
 648              		.cfi_def_cfa_offset 0
 649 0404 67800000 		jr	ra
 650              		.cfi_endproc
 651              	.LFE22:
 652              		.section	.gcc_except_table
 653              	.LLSDA22:
 654 00a1 FF       		.byte	0xff
 655 00a2 FF       		.byte	0xff
 656 00a3 03       		.byte	0x3
 657 00a4 00       		.byte	0
 658              		.text
 660              		.globl	_ZN9BufferCPPD1Ev
 661              		.set	_ZN9BufferCPPD1Ev,_ZN9BufferCPPD2Ev
 662              	.Letext0:
 663              		.file 2 "test/../h/hw.h"
 664              		.file 3 "test/../h/syscall_cpp.hpp"
 665              		.file 4 "test/buffer_CPP_API.hpp"
 666              		.file 5 "test/../h/syscall_c.h"
 667              		.file 6 "test/../h/printing.hpp"
 2507              		.align	3
 2510              	DW.ref.__gxx_personality_v0:
 2511 0000 00000000 		.dword	__gxx_personality_v0
 2511      00000000 
 2512              		.ident	"GCC: (Ubuntu 9.4.0-1ubuntu1~20.04) 9.4.0"
 2513              		.section	.note.GNU-stack,"",@progbits
GAS LISTING /tmp/ccrmM61Q.s 			page 16


DEFINED SYMBOLS
                            *ABS*:0000000000000000 buffer_CPP_API.cpp
     /tmp/ccrmM61Q.s:9      .text:0000000000000000 _ZN9BufferCPPC2Ei
     /tmp/ccrmM61Q.s:13     .text:0000000000000000 .L0 
     /tmp/ccrmM61Q.s:2510   .data.rel.local.DW.ref.__gxx_personality_v0:0000000000000000 DW.ref.__gxx_personality_v0
     /tmp/ccrmM61Q.s:17     .text:0000000000000000 .L0 
     /tmp/ccrmM61Q.s:18     .text:0000000000000004 .L0 
     /tmp/ccrmM61Q.s:24     .text:0000000000000018 .L0 
     /tmp/ccrmM61Q.s:25     .text:0000000000000018 .L0 
     /tmp/ccrmM61Q.s:26     .text:0000000000000018 .L0 
     /tmp/ccrmM61Q.s:27     .text:0000000000000018 .L0 
     /tmp/ccrmM61Q.s:28     .text:0000000000000018 .L0 
     /tmp/ccrmM61Q.s:30     .text:000000000000001c .L0 
     /tmp/ccrmM61Q.s:35     .text:0000000000000024 .L0 
     /tmp/ccrmM61Q.s:39     .text:000000000000002c .L0 
     /tmp/ccrmM61Q.s:43     .text:0000000000000038 .L0 
     /tmp/ccrmM61Q.s:44     .text:0000000000000038 .L0 
     /tmp/ccrmM61Q.s:49     .text:0000000000000044 .L0 
     /tmp/ccrmM61Q.s:51     .text:0000000000000048 .L0 
     /tmp/ccrmM61Q.s:52     .text:0000000000000048 .L0 
     /tmp/ccrmM61Q.s:59     .text:000000000000005c .L0 
     /tmp/ccrmM61Q.s:66     .text:0000000000000068 .L0 
     /tmp/ccrmM61Q.s:68     .text:000000000000006c .L0 
     /tmp/ccrmM61Q.s:69     .text:000000000000006c .L0 
     /tmp/ccrmM61Q.s:77     .text:0000000000000080 .L0 
     /tmp/ccrmM61Q.s:84     .text:000000000000008c .L0 
     /tmp/ccrmM61Q.s:86     .text:0000000000000090 .L0 
     /tmp/ccrmM61Q.s:87     .text:0000000000000090 .L0 
     /tmp/ccrmM61Q.s:95     .text:00000000000000a4 .L0 
     /tmp/ccrmM61Q.s:102    .text:00000000000000b0 .L0 
     /tmp/ccrmM61Q.s:104    .text:00000000000000b4 .L0 
     /tmp/ccrmM61Q.s:105    .text:00000000000000b4 .L0 
     /tmp/ccrmM61Q.s:113    .text:00000000000000c8 .L0 
     /tmp/ccrmM61Q.s:120    .text:00000000000000d4 .L0 
     /tmp/ccrmM61Q.s:123    .text:00000000000000d8 .L0 
     /tmp/ccrmM61Q.s:124    .text:00000000000000dc .L0 
     /tmp/ccrmM61Q.s:125    .text:00000000000000dc .L0 
     /tmp/ccrmM61Q.s:127    .text:00000000000000e0 .L0 
     /tmp/ccrmM61Q.s:128    .text:00000000000000e0 .L0 
     /tmp/ccrmM61Q.s:130    .text:00000000000000e4 .L0 
     /tmp/ccrmM61Q.s:133    .text:00000000000000e8 .L0 
     /tmp/ccrmM61Q.s:135    .text:00000000000000ec .L0 
     /tmp/ccrmM61Q.s:137    .text:00000000000000f0 .L0 
     /tmp/ccrmM61Q.s:141    .text:00000000000000f4 .L0 
     /tmp/ccrmM61Q.s:146    .text:00000000000000f8 .L0 
     /tmp/ccrmM61Q.s:158    .text:0000000000000114 .L0 
     /tmp/ccrmM61Q.s:170    .text:0000000000000130 .L0 
     /tmp/ccrmM61Q.s:182    .text:000000000000014c .L0 
     /tmp/ccrmM61Q.s:191    .text:0000000000000164 .L0 
     /tmp/ccrmM61Q.s:9      .text:0000000000000000 _ZN9BufferCPPC1Ei
     /tmp/ccrmM61Q.s:255    .text:0000000000000164 _ZN9BufferCPP3putEi
     /tmp/ccrmM61Q.s:258    .text:0000000000000164 .L0 
     /tmp/ccrmM61Q.s:260    .text:0000000000000164 .L0 
     /tmp/ccrmM61Q.s:261    .text:0000000000000168 .L0 
     /tmp/ccrmM61Q.s:266    .text:0000000000000178 .L0 
     /tmp/ccrmM61Q.s:267    .text:0000000000000178 .L0 
     /tmp/ccrmM61Q.s:268    .text:0000000000000178 .L0 
GAS LISTING /tmp/ccrmM61Q.s 			page 17


     /tmp/ccrmM61Q.s:269    .text:0000000000000178 .L0 
     /tmp/ccrmM61Q.s:271    .text:000000000000017c .L0 
     /tmp/ccrmM61Q.s:275    .text:0000000000000184 .L0 
     /tmp/ccrmM61Q.s:276    .text:0000000000000184 .L0 
     /tmp/ccrmM61Q.s:281    .text:0000000000000190 .L0 
     /tmp/ccrmM61Q.s:282    .text:0000000000000190 .L0 
     /tmp/ccrmM61Q.s:286    .text:000000000000019c .L0 
     /tmp/ccrmM61Q.s:288    .text:00000000000001a0 .L0 
     /tmp/ccrmM61Q.s:290    .text:00000000000001a4 .L0 
     /tmp/ccrmM61Q.s:293    .text:00000000000001ac .L0 
     /tmp/ccrmM61Q.s:295    .text:00000000000001b0 .L0 
     /tmp/ccrmM61Q.s:296    .text:00000000000001b0 .L0 
     /tmp/ccrmM61Q.s:298    .text:00000000000001b4 .L0 
     /tmp/ccrmM61Q.s:300    .text:00000000000001b8 .L0 
     /tmp/ccrmM61Q.s:302    .text:00000000000001bc .L0 
     /tmp/ccrmM61Q.s:304    .text:00000000000001c0 .L0 
     /tmp/ccrmM61Q.s:306    .text:00000000000001c4 .L0 
     /tmp/ccrmM61Q.s:307    .text:00000000000001c4 .L0 
     /tmp/ccrmM61Q.s:311    .text:00000000000001d0 .L0 
     /tmp/ccrmM61Q.s:312    .text:00000000000001d0 .L0 
     /tmp/ccrmM61Q.s:316    .text:00000000000001dc .L0 
     /tmp/ccrmM61Q.s:317    .text:00000000000001e0 .L0 
     /tmp/ccrmM61Q.s:319    .text:00000000000001e4 .L0 
     /tmp/ccrmM61Q.s:320    .text:00000000000001e4 .L0 
     /tmp/ccrmM61Q.s:322    .text:00000000000001e8 .L0 
     /tmp/ccrmM61Q.s:325    .text:00000000000001ec .L0 
     /tmp/ccrmM61Q.s:327    .text:00000000000001f0 .L0 
     /tmp/ccrmM61Q.s:329    .text:00000000000001f4 .L0 
     /tmp/ccrmM61Q.s:335    .text:00000000000001f4 _ZN9BufferCPP3getEv
     /tmp/ccrmM61Q.s:338    .text:00000000000001f4 .L0 
     /tmp/ccrmM61Q.s:340    .text:00000000000001f4 .L0 
     /tmp/ccrmM61Q.s:341    .text:00000000000001f8 .L0 
     /tmp/ccrmM61Q.s:346    .text:0000000000000208 .L0 
     /tmp/ccrmM61Q.s:347    .text:0000000000000208 .L0 
     /tmp/ccrmM61Q.s:348    .text:0000000000000208 .L0 
     /tmp/ccrmM61Q.s:349    .text:0000000000000208 .L0 
     /tmp/ccrmM61Q.s:351    .text:000000000000020c .L0 
     /tmp/ccrmM61Q.s:354    .text:0000000000000210 .L0 
     /tmp/ccrmM61Q.s:355    .text:0000000000000210 .L0 
     /tmp/ccrmM61Q.s:360    .text:000000000000021c .L0 
     /tmp/ccrmM61Q.s:361    .text:000000000000021c .L0 
     /tmp/ccrmM61Q.s:365    .text:0000000000000228 .L0 
     /tmp/ccrmM61Q.s:366    .text:0000000000000228 .L0 
     /tmp/ccrmM61Q.s:368    .text:000000000000022c .L0 
     /tmp/ccrmM61Q.s:370    .text:0000000000000230 .L0 
     /tmp/ccrmM61Q.s:373    .text:0000000000000238 .L0 
     /tmp/ccrmM61Q.s:376    .text:000000000000023c .L0 
     /tmp/ccrmM61Q.s:377    .text:000000000000023c .L0 
     /tmp/ccrmM61Q.s:379    .text:0000000000000240 .L0 
     /tmp/ccrmM61Q.s:381    .text:0000000000000244 .L0 
     /tmp/ccrmM61Q.s:383    .text:0000000000000248 .L0 
     /tmp/ccrmM61Q.s:385    .text:000000000000024c .L0 
     /tmp/ccrmM61Q.s:386    .text:000000000000024c .L0 
     /tmp/ccrmM61Q.s:390    .text:0000000000000258 .L0 
     /tmp/ccrmM61Q.s:391    .text:0000000000000258 .L0 
     /tmp/ccrmM61Q.s:395    .text:0000000000000264 .L0 
     /tmp/ccrmM61Q.s:396    .text:0000000000000264 .L0 
GAS LISTING /tmp/ccrmM61Q.s 			page 18


     /tmp/ccrmM61Q.s:398    .text:000000000000026c .L0 
     /tmp/ccrmM61Q.s:400    .text:0000000000000270 .L0 
     /tmp/ccrmM61Q.s:401    .text:0000000000000270 .L0 
     /tmp/ccrmM61Q.s:403    .text:0000000000000274 .L0 
     /tmp/ccrmM61Q.s:406    .text:0000000000000278 .L0 
     /tmp/ccrmM61Q.s:409    .text:000000000000027c .L0 
     /tmp/ccrmM61Q.s:411    .text:0000000000000280 .L0 
     /tmp/ccrmM61Q.s:417    .text:0000000000000280 _ZN9BufferCPP6getCntEv
     /tmp/ccrmM61Q.s:420    .text:0000000000000280 .L0 
     /tmp/ccrmM61Q.s:422    .text:0000000000000280 .L0 
     /tmp/ccrmM61Q.s:423    .text:0000000000000284 .L0 
     /tmp/ccrmM61Q.s:428    .text:0000000000000294 .L0 
     /tmp/ccrmM61Q.s:429    .text:0000000000000294 .L0 
     /tmp/ccrmM61Q.s:430    .text:0000000000000294 .L0 
     /tmp/ccrmM61Q.s:431    .text:0000000000000294 .L0 
     /tmp/ccrmM61Q.s:433    .text:0000000000000298 .L0 
     /tmp/ccrmM61Q.s:436    .text:000000000000029c .L0 
     /tmp/ccrmM61Q.s:437    .text:000000000000029c .L0 
     /tmp/ccrmM61Q.s:438    .text:000000000000029c .L0 
     /tmp/ccrmM61Q.s:443    .text:00000000000002a8 .L0 
     /tmp/ccrmM61Q.s:444    .text:00000000000002a8 .L0 
     /tmp/ccrmM61Q.s:448    .text:00000000000002b4 .L0 
     /tmp/ccrmM61Q.s:449    .text:00000000000002b4 .L0 
     /tmp/ccrmM61Q.s:451    .text:00000000000002b8 .L0 
     /tmp/ccrmM61Q.s:453    .text:00000000000002bc .L0 
     /tmp/ccrmM61Q.s:455    .text:00000000000002c0 .L0 
     /tmp/ccrmM61Q.s:456    .text:00000000000002c0 .L0 
     /tmp/ccrmM61Q.s:460    .text:00000000000002c4 .L0 
     /tmp/ccrmM61Q.s:461    .text:00000000000002c4 .L0 
     /tmp/ccrmM61Q.s:465    .text:00000000000002d0 .L0 
     /tmp/ccrmM61Q.s:466    .text:00000000000002d0 .L0 
     /tmp/ccrmM61Q.s:470    .text:00000000000002dc .L0 
     /tmp/ccrmM61Q.s:471    .text:00000000000002dc .L0 
     /tmp/ccrmM61Q.s:473    .text:00000000000002e4 .L0 
     /tmp/ccrmM61Q.s:474    .text:00000000000002e4 .L0 
     /tmp/ccrmM61Q.s:476    .text:00000000000002e8 .L0 
     /tmp/ccrmM61Q.s:477    .text:00000000000002e8 .L0 
     /tmp/ccrmM61Q.s:479    .text:00000000000002ec .L0 
     /tmp/ccrmM61Q.s:482    .text:00000000000002f0 .L0 
     /tmp/ccrmM61Q.s:485    .text:00000000000002f4 .L0 
     /tmp/ccrmM61Q.s:489    .text:00000000000002f8 .L0 
     /tmp/ccrmM61Q.s:491    .text:00000000000002f8 .L0 
     /tmp/ccrmM61Q.s:492    .text:00000000000002f8 .L0 
     /tmp/ccrmM61Q.s:494    .text:00000000000002fc .L0 
     /tmp/ccrmM61Q.s:496    .text:0000000000000300 .L0 
     /tmp/ccrmM61Q.s:498    .text:0000000000000308 .L0 
     /tmp/ccrmM61Q.s:509    .text:0000000000000308 _ZN9BufferCPPD2Ev
     /tmp/ccrmM61Q.s:512    .text:0000000000000308 .L0 
     /tmp/ccrmM61Q.s:516    .text:0000000000000308 .L0 
     /tmp/ccrmM61Q.s:517    .text:000000000000030c .L0 
     /tmp/ccrmM61Q.s:521    .text:0000000000000318 .L0 
     /tmp/ccrmM61Q.s:522    .text:0000000000000318 .L0 
     /tmp/ccrmM61Q.s:523    .text:0000000000000318 .L0 
     /tmp/ccrmM61Q.s:525    .text:000000000000031c .L0 
     /tmp/ccrmM61Q.s:529    .text:0000000000000320 .L0 
     /tmp/ccrmM61Q.s:530    .text:0000000000000320 .L0 
     /tmp/ccrmM61Q.s:535    .text:000000000000032c .L0 
GAS LISTING /tmp/ccrmM61Q.s 			page 19


     /tmp/ccrmM61Q.s:536    .text:000000000000032c .L0 
     /tmp/ccrmM61Q.s:541    .text:000000000000033c .L0 
     /tmp/ccrmM61Q.s:542    .text:000000000000033c .L0 
     /tmp/ccrmM61Q.s:543    .text:000000000000033c .L0 
     /tmp/ccrmM61Q.s:547    .text:0000000000000348 .L0 
     /tmp/ccrmM61Q.s:550    .text:000000000000034c .L0 
     /tmp/ccrmM61Q.s:551    .text:000000000000034c .L0 
     /tmp/ccrmM61Q.s:553    .text:0000000000000350 .L0 
     /tmp/ccrmM61Q.s:555    .text:0000000000000354 .L0 
     /tmp/ccrmM61Q.s:559    .text:000000000000035c .L0 
     /tmp/ccrmM61Q.s:560    .text:000000000000035c .L0 
     /tmp/ccrmM61Q.s:564    .text:0000000000000368 .L0 
     /tmp/ccrmM61Q.s:565    .text:0000000000000368 .L0 
     /tmp/ccrmM61Q.s:567    .text:000000000000036c .L0 
     /tmp/ccrmM61Q.s:569    .text:0000000000000370 .L0 
     /tmp/ccrmM61Q.s:571    .text:0000000000000374 .L0 
     /tmp/ccrmM61Q.s:573    .text:0000000000000378 .L0 
     /tmp/ccrmM61Q.s:576    .text:000000000000037c .L0 
     /tmp/ccrmM61Q.s:579    .text:0000000000000380 .L0 
     /tmp/ccrmM61Q.s:580    .text:0000000000000380 .L0 
     /tmp/ccrmM61Q.s:584    .text:000000000000038c .L0 
     /tmp/ccrmM61Q.s:585    .text:000000000000038c .L0 
     /tmp/ccrmM61Q.s:589    .text:0000000000000398 .L0 
     /tmp/ccrmM61Q.s:590    .text:0000000000000398 .L0 
     /tmp/ccrmM61Q.s:594    .text:00000000000003a4 .L0 
     /tmp/ccrmM61Q.s:595    .text:00000000000003a4 .L0 
     /tmp/ccrmM61Q.s:597    .text:00000000000003a8 .L0 
     /tmp/ccrmM61Q.s:599    .text:00000000000003ac .L0 
     /tmp/ccrmM61Q.s:605    .text:00000000000003b8 .L0 
     /tmp/ccrmM61Q.s:606    .text:00000000000003b8 .L0 
     /tmp/ccrmM61Q.s:608    .text:00000000000003bc .L0 
     /tmp/ccrmM61Q.s:610    .text:00000000000003c0 .L0 
     /tmp/ccrmM61Q.s:616    .text:00000000000003cc .L0 
     /tmp/ccrmM61Q.s:617    .text:00000000000003cc .L0 
     /tmp/ccrmM61Q.s:619    .text:00000000000003d0 .L0 
     /tmp/ccrmM61Q.s:621    .text:00000000000003d4 .L0 
     /tmp/ccrmM61Q.s:627    .text:00000000000003e0 .L0 
     /tmp/ccrmM61Q.s:628    .text:00000000000003e0 .L0 
     /tmp/ccrmM61Q.s:630    .text:00000000000003e4 .L0 
     /tmp/ccrmM61Q.s:632    .text:00000000000003e8 .L0 
     /tmp/ccrmM61Q.s:639    .text:00000000000003f4 .L0 
     /tmp/ccrmM61Q.s:640    .text:00000000000003f8 .L0 
     /tmp/ccrmM61Q.s:642    .text:00000000000003fc .L0 
     /tmp/ccrmM61Q.s:643    .text:00000000000003fc .L0 
     /tmp/ccrmM61Q.s:645    .text:0000000000000400 .L0 
     /tmp/ccrmM61Q.s:648    .text:0000000000000404 .L0 
     /tmp/ccrmM61Q.s:650    .text:0000000000000408 .L0 
     /tmp/ccrmM61Q.s:509    .text:0000000000000308 _ZN9BufferCPPD1Ev
     /tmp/ccrmM61Q.s:668    .text:0000000000000408 .L0 
     /tmp/ccrmM61Q.s:503    .rodata.str1.8:0000000000000000 .LC0
     /tmp/ccrmM61Q.s:536    .text:000000000000032c .L0 
     /tmp/ccrmM61Q.s:64     .text:0000000000000068 .L2
     /tmp/ccrmM61Q.s:82     .text:000000000000008c .L3
     /tmp/ccrmM61Q.s:100    .text:00000000000000b0 .L4
     /tmp/ccrmM61Q.s:118    .text:00000000000000d4 .L5
     /tmp/ccrmM61Q.s:488    .text:00000000000002f8 .L21
     /tmp/ccrmM61Q.s:458    .text:00000000000002c4 .L22
GAS LISTING /tmp/ccrmM61Q.s 			page 20


     /tmp/ccrmM61Q.s:577    .text:0000000000000380 .L25
     /tmp/ccrmM61Q.s:539    .text:000000000000033c .L26
     /tmp/ccrmM61Q.s:603    .text:00000000000003b8 .L27
     /tmp/ccrmM61Q.s:614    .text:00000000000003cc .L28
     /tmp/ccrmM61Q.s:625    .text:00000000000003e0 .L29
     /tmp/ccrmM61Q.s:636    .text:00000000000003f4 .L24
     /tmp/ccrmM61Q.s:45     .text:000000000000003c .LEHB0
     /tmp/ccrmM61Q.s:10     .text:0000000000000000 .LFB19
     /tmp/ccrmM61Q.s:55     .text:0000000000000054 .LEHE0
     /tmp/ccrmM61Q.s:60     .text:0000000000000060 .LEHB1
     /tmp/ccrmM61Q.s:63     .text:0000000000000068 .LEHE1
     /tmp/ccrmM61Q.s:140    .text:00000000000000f4 .L10
     /tmp/ccrmM61Q.s:70     .text:0000000000000070 .LEHB2
     /tmp/ccrmM61Q.s:73     .text:0000000000000078 .LEHE2
     /tmp/ccrmM61Q.s:78     .text:0000000000000084 .LEHB3
     /tmp/ccrmM61Q.s:81     .text:000000000000008c .LEHE3
     /tmp/ccrmM61Q.s:154    .text:0000000000000110 .L11
     /tmp/ccrmM61Q.s:88     .text:0000000000000094 .LEHB4
     /tmp/ccrmM61Q.s:91     .text:000000000000009c .LEHE4
     /tmp/ccrmM61Q.s:96     .text:00000000000000a8 .LEHB5
     /tmp/ccrmM61Q.s:99     .text:00000000000000b0 .LEHE5
     /tmp/ccrmM61Q.s:166    .text:000000000000012c .L12
     /tmp/ccrmM61Q.s:106    .text:00000000000000b8 .LEHB6
     /tmp/ccrmM61Q.s:109    .text:00000000000000c0 .LEHE6
     /tmp/ccrmM61Q.s:114    .text:00000000000000cc .LEHB7
     /tmp/ccrmM61Q.s:117    .text:00000000000000d4 .LEHE7
     /tmp/ccrmM61Q.s:178    .text:0000000000000148 .L13
     /tmp/ccrmM61Q.s:150    .text:0000000000000108 .LEHB8
     /tmp/ccrmM61Q.s:153    .text:0000000000000110 .LEHE8
     /tmp/ccrmM61Q.s:162    .text:0000000000000124 .LEHB9
     /tmp/ccrmM61Q.s:165    .text:000000000000012c .LEHE9
     /tmp/ccrmM61Q.s:174    .text:0000000000000140 .LEHB10
     /tmp/ccrmM61Q.s:177    .text:0000000000000148 .LEHE10
     /tmp/ccrmM61Q.s:186    .text:000000000000015c .LEHB11
     /tmp/ccrmM61Q.s:189    .text:0000000000000164 .LEHE11
     /tmp/ccrmM61Q.s:1489   .debug_abbrev:0000000000000000 .Ldebug_abbrev0
     /tmp/ccrmM61Q.s:2412   .debug_str:0000000000000117 .LASF51
     /tmp/ccrmM61Q.s:2500   .debug_str:000000000000041e .LASF52
     /tmp/ccrmM61Q.s:2382   .debug_str:000000000000001f .LASF53
     /tmp/ccrmM61Q.s:5      .text:0000000000000000 .Ltext0
     /tmp/ccrmM61Q.s:662    .text:0000000000000408 .Letext0
     /tmp/ccrmM61Q.s:2374   .debug_line:0000000000000000 .Ldebug_line0
     /tmp/ccrmM61Q.s:2448   .debug_str:00000000000002ac .LASF0
     /tmp/ccrmM61Q.s:2456   .debug_str:00000000000002ec .LASF1
     /tmp/ccrmM61Q.s:2442   .debug_str:0000000000000286 .LASF2
     /tmp/ccrmM61Q.s:2432   .debug_str:0000000000000259 .LASF4
     /tmp/ccrmM61Q.s:2484   .debug_str:00000000000003a2 .LASF3
     /tmp/ccrmM61Q.s:2388   .debug_str:0000000000000062 .LASF5
     /tmp/ccrmM61Q.s:2460   .debug_str:0000000000000312 .LASF6
     /tmp/ccrmM61Q.s:2446   .debug_str:0000000000000299 .LASF7
     /tmp/ccrmM61Q.s:2494   .debug_str:00000000000003ef .LASF8
     /tmp/ccrmM61Q.s:2422   .debug_str:0000000000000212 .LASF9
     /tmp/ccrmM61Q.s:2468   .debug_str:000000000000033f .LASF10
     /tmp/ccrmM61Q.s:2492   .debug_str:00000000000003e0 .LASF11
     /tmp/ccrmM61Q.s:2392   .debug_str:000000000000007d .LASF12
     /tmp/ccrmM61Q.s:2378   .debug_str:000000000000000a .LASF13
     /tmp/ccrmM61Q.s:2398   .debug_str:00000000000000b2 .LASF14
GAS LISTING /tmp/ccrmM61Q.s 			page 21


     /tmp/ccrmM61Q.s:2482   .debug_str:000000000000038c .LASF15
     /tmp/ccrmM61Q.s:2408   .debug_str:00000000000000fc .LASF16
     /tmp/ccrmM61Q.s:2420   .debug_str:000000000000020d .LASF17
     /tmp/ccrmM61Q.s:2430   .debug_str:0000000000000251 .LASF19
     /tmp/ccrmM61Q.s:2380   .debug_str:000000000000001a .LASF54
     /tmp/ccrmM61Q.s:2396   .debug_str:000000000000009f .LASF55
     /tmp/ccrmM61Q.s:2444   .debug_str:0000000000000294 .LASF56
     /tmp/ccrmM61Q.s:2458   .debug_str:00000000000002ff .LASF57
     /tmp/ccrmM61Q.s:2462   .debug_str:0000000000000325 .LASF18
     /tmp/ccrmM61Q.s:2478   .debug_str:000000000000037b .LASF20
     /tmp/ccrmM61Q.s:2480   .debug_str:0000000000000385 .LASF21
     /tmp/ccrmM61Q.s:2410   .debug_str:0000000000000112 .LASF22
     /tmp/ccrmM61Q.s:2440   .debug_str:0000000000000281 .LASF23
     /tmp/ccrmM61Q.s:2416   .debug_str:00000000000001f9 .LASF24
     /tmp/ccrmM61Q.s:2424   .debug_str:0000000000000220 .LASF25
     /tmp/ccrmM61Q.s:2438   .debug_str:0000000000000277 .LASF26
     /tmp/ccrmM61Q.s:2450   .debug_str:00000000000002b9 .LASF27
     /tmp/ccrmM61Q.s:2452   .debug_str:00000000000002c3 .LASF29
     /tmp/ccrmM61Q.s:2436   .debug_str:000000000000026c .LASF28
     /tmp/ccrmM61Q.s:2496   .debug_str:00000000000003ff .LASF30
     /tmp/ccrmM61Q.s:2426   .debug_str:000000000000022e .LASF58
     /tmp/ccrmM61Q.s:2390   .debug_str:0000000000000069 .LASF59
     /tmp/ccrmM61Q.s:2384   .debug_str:0000000000000044 .LASF31
     /tmp/ccrmM61Q.s:2386   .debug_str:000000000000004b .LASF32
     /tmp/ccrmM61Q.s:2376   .debug_str:0000000000000000 .LASF60
     /tmp/ccrmM61Q.s:2476   .debug_str:0000000000000366 .LASF33
     /tmp/ccrmM61Q.s:2418   .debug_str:0000000000000208 .LASF35
     /tmp/ccrmM61Q.s:2454   .debug_str:00000000000002d5 .LASF34
     /tmp/ccrmM61Q.s:2464   .debug_str:000000000000032a .LASF36
     /tmp/ccrmM61Q.s:2414   .debug_str:00000000000001e7 .LASF37
     /tmp/ccrmM61Q.s:2498   .debug_str:0000000000000411 .LASF38
     /tmp/ccrmM61Q.s:2402   .debug_str:00000000000000c3 .LASF39
     /tmp/ccrmM61Q.s:2488   .debug_str:00000000000003be .LASF40
     /tmp/ccrmM61Q.s:418    .text:0000000000000280 .LFB26
     /tmp/ccrmM61Q.s:499    .text:0000000000000308 .LFE26
     /tmp/ccrmM61Q.s:2474   .debug_str:0000000000000361 .LASF41
     /tmp/ccrmM61Q.s:2169   .debug_loc:0000000000000000 .LLST6
     /tmp/ccrmM61Q.s:2191   .debug_loc:000000000000005f .LLST7
     /tmp/ccrmM61Q.s:441    .text:00000000000002a8 .LVL43
     /tmp/ccrmM61Q.s:446    .text:00000000000002b4 .LVL44
     /tmp/ccrmM61Q.s:463    .text:00000000000002d0 .LVL46
     /tmp/ccrmM61Q.s:468    .text:00000000000002dc .LVL47
     /tmp/ccrmM61Q.s:336    .text:00000000000001f4 .LFB25
     /tmp/ccrmM61Q.s:412    .text:0000000000000280 .LFE25
     /tmp/ccrmM61Q.s:2198   .debug_loc:0000000000000082 .LLST4
     /tmp/ccrmM61Q.s:2216   .debug_loc:00000000000000ce .LLST5
     /tmp/ccrmM61Q.s:358    .text:000000000000021c .LVL34
     /tmp/ccrmM61Q.s:363    .text:0000000000000228 .LVL35
     /tmp/ccrmM61Q.s:388    .text:0000000000000258 .LVL37
     /tmp/ccrmM61Q.s:393    .text:0000000000000264 .LVL38
     /tmp/ccrmM61Q.s:256    .text:0000000000000164 .LFB24
     /tmp/ccrmM61Q.s:330    .text:00000000000001f4 .LFE24
     /tmp/ccrmM61Q.s:2227   .debug_loc:0000000000000104 .LLST2
     /tmp/ccrmM61Q.s:2245   .debug_loc:0000000000000150 .LLST3
     /tmp/ccrmM61Q.s:279    .text:0000000000000190 .LVL27
     /tmp/ccrmM61Q.s:284    .text:000000000000019c .LVL28
     /tmp/ccrmM61Q.s:309    .text:00000000000001d0 .LVL29
GAS LISTING /tmp/ccrmM61Q.s 			page 22


     /tmp/ccrmM61Q.s:314    .text:00000000000001dc .LVL30
     /tmp/ccrmM61Q.s:2470   .debug_str:000000000000034e .LASF42
     /tmp/ccrmM61Q.s:2394   .debug_str:000000000000008d .LASF43
     /tmp/ccrmM61Q.s:510    .text:0000000000000308 .LFB22
     /tmp/ccrmM61Q.s:651    .text:0000000000000408 .LFE22
     /tmp/ccrmM61Q.s:2259   .debug_loc:0000000000000189 .LLST8
     /tmp/ccrmM61Q.s:562    .text:0000000000000368 .LVL57
     /tmp/ccrmM61Q.s:548    .text:000000000000034c .LBB5
     /tmp/ccrmM61Q.s:574    .text:000000000000037c .LBE5
     /tmp/ccrmM61Q.s:2277   .debug_loc:00000000000001d5 .LLST9
     /tmp/ccrmM61Q.s:533    .text:000000000000032c .LVL53
     /tmp/ccrmM61Q.s:538    .text:000000000000033c .LVL54
     /tmp/ccrmM61Q.s:545    .text:0000000000000348 .LVL55
     /tmp/ccrmM61Q.s:582    .text:000000000000038c .LVL58
     /tmp/ccrmM61Q.s:587    .text:0000000000000398 .LVL59
     /tmp/ccrmM61Q.s:592    .text:00000000000003a4 .LVL60
     /tmp/ccrmM61Q.s:2400   .debug_str:00000000000000be .LASF61
     /tmp/ccrmM61Q.s:2490   .debug_str:00000000000003ce .LASF44
     /tmp/ccrmM61Q.s:192    .text:0000000000000164 .LFE19
     /tmp/ccrmM61Q.s:2285   .debug_loc:00000000000001f9 .LLST0
     /tmp/ccrmM61Q.s:2347   .debug_loc:00000000000002e9 .LLST1
     /tmp/ccrmM61Q.s:47     .text:0000000000000044 .LVL2
     /tmp/ccrmM61Q.s:54     .text:0000000000000054 .LVL3
     /tmp/ccrmM61Q.s:62     .text:0000000000000068 .LVL4
     /tmp/ccrmM61Q.s:72     .text:0000000000000078 .LVL5
     /tmp/ccrmM61Q.s:80     .text:000000000000008c .LVL6
     /tmp/ccrmM61Q.s:90     .text:000000000000009c .LVL7
     /tmp/ccrmM61Q.s:98     .text:00000000000000b0 .LVL8
     /tmp/ccrmM61Q.s:108    .text:00000000000000c0 .LVL9
     /tmp/ccrmM61Q.s:116    .text:00000000000000d4 .LVL10
     /tmp/ccrmM61Q.s:148    .text:0000000000000104 .LVL14
     /tmp/ccrmM61Q.s:152    .text:0000000000000110 .LVL15
     /tmp/ccrmM61Q.s:160    .text:0000000000000120 .LVL17
     /tmp/ccrmM61Q.s:164    .text:000000000000012c .LVL18
     /tmp/ccrmM61Q.s:172    .text:000000000000013c .LVL20
     /tmp/ccrmM61Q.s:176    .text:0000000000000148 .LVL21
     /tmp/ccrmM61Q.s:184    .text:0000000000000158 .LVL23
     /tmp/ccrmM61Q.s:188    .text:0000000000000164 .LVL24
     /tmp/ccrmM61Q.s:2502   .debug_str:0000000000000436 .LASF45
     /tmp/ccrmM61Q.s:2434   .debug_str:0000000000000260 .LASF46
     /tmp/ccrmM61Q.s:2466   .debug_str:0000000000000331 .LASF47
     /tmp/ccrmM61Q.s:2472   .debug_str:0000000000000358 .LASF48
     /tmp/ccrmM61Q.s:2404   .debug_str:00000000000000d6 .LASF49
     /tmp/ccrmM61Q.s:2486   .debug_str:00000000000003b4 .LASF50
     /tmp/ccrmM61Q.s:2428   .debug_str:0000000000000242 .LASF62
     /tmp/ccrmM61Q.s:2406   .debug_str:00000000000000e4 .LASF63
     /tmp/ccrmM61Q.s:421    .text:0000000000000280 .LVL41
     /tmp/ccrmM61Q.s:439    .text:00000000000002a0 .LVL42
     /tmp/ccrmM61Q.s:480    .text:00000000000002ec .LVL48
     /tmp/ccrmM61Q.s:487    .text:00000000000002f8 .LVL50
     /tmp/ccrmM61Q.s:457    .text:00000000000002c4 .LVL45
     /tmp/ccrmM61Q.s:483    .text:00000000000002f0 .LVL49
     /tmp/ccrmM61Q.s:339    .text:00000000000001f4 .LVL32
     /tmp/ccrmM61Q.s:356    .text:0000000000000214 .LVL33
     /tmp/ccrmM61Q.s:404    .text:0000000000000274 .LVL39
     /tmp/ccrmM61Q.s:374    .text:000000000000023c .LVL36
     /tmp/ccrmM61Q.s:407    .text:0000000000000278 .LVL40
GAS LISTING /tmp/ccrmM61Q.s 			page 23


     /tmp/ccrmM61Q.s:259    .text:0000000000000164 .LVL25
     /tmp/ccrmM61Q.s:277    .text:0000000000000188 .LVL26
     /tmp/ccrmM61Q.s:323    .text:00000000000001e8 .LVL31
     /tmp/ccrmM61Q.s:515    .text:0000000000000308 .LVL51
     /tmp/ccrmM61Q.s:531    .text:0000000000000324 .LVL52
     /tmp/ccrmM61Q.s:646    .text:0000000000000400 .LVL65
     /tmp/ccrmM61Q.s:557    .text:000000000000035c .LVL56
     /tmp/ccrmM61Q.s:16     .text:0000000000000000 .LVL0
     /tmp/ccrmM61Q.s:37     .text:000000000000002c .LVL1
     /tmp/ccrmM61Q.s:131    .text:00000000000000e4 .LVL11
     /tmp/ccrmM61Q.s:139    .text:00000000000000f4 .LVL12
     /tmp/ccrmM61Q.s:143    .text:00000000000000f8 .LVL13
     /tmp/ccrmM61Q.s:156    .text:0000000000000114 .LVL16
     /tmp/ccrmM61Q.s:168    .text:0000000000000130 .LVL19
     /tmp/ccrmM61Q.s:180    .text:000000000000014c .LVL22
     /tmp/ccrmM61Q.s:669    .debug_info:0000000000000000 .Ldebug_info0
     /tmp/ccrmM61Q.s:195    .gcc_except_table:0000000000000000 .LLSDA19
     /tmp/ccrmM61Q.s:653    .gcc_except_table:00000000000000a1 .LLSDA22

UNDEFINED SYMBOLS
_Z9mem_allocm
_ZN9SemaphorenwEm
_ZN9SemaphoreC1Ej
_ZN9SemaphoredlEPv
_Unwind_Resume
__gxx_personality_v0
_ZN9Semaphore4waitEv
_ZN9Semaphore6signalEv
_ZN7Console4putcEc
_Z11printStringPKc
_Z8mem_freePv
